ARM GAS  C:\Users\LAIR\AppData\Local\Temp\ccKUmuWn.s 			page 1


   1              		.cpu cortex-m0
   2              		.fpu softvfp
   3              		.eabi_attribute 20, 1
   4              		.eabi_attribute 21, 1
   5              		.eabi_attribute 23, 3
   6              		.eabi_attribute 24, 1
   7              		.eabi_attribute 25, 1
   8              		.eabi_attribute 26, 1
   9              		.eabi_attribute 30, 1
  10              		.eabi_attribute 34, 0
  11              		.eabi_attribute 18, 4
  12              		.code	16
  13              		.file	"ADC_DMA.c"
  14              		.text
  15              	.Ltext0:
  16              		.cfi_sections	.debug_frame
  17              		.section	.text.ADC_DMA_Init,"ax",%progbits
  18              		.align	2
  19              		.global	ADC_DMA_Init
  20              		.code	16
  21              		.thumb_func
  22              		.type	ADC_DMA_Init, %function
  23              	ADC_DMA_Init:
  24              	.LFB33:
  25              		.file 1 ".\\Generated_Source\\PSoC4\\ADC_DMA.c"
   1:.\Generated_Source\PSoC4/ADC_DMA.c **** /*******************************************************************************
   2:.\Generated_Source\PSoC4/ADC_DMA.c **** * File Name: ADC_DMA.h
   3:.\Generated_Source\PSoC4/ADC_DMA.c **** * Version 1.0
   4:.\Generated_Source\PSoC4/ADC_DMA.c **** *
   5:.\Generated_Source\PSoC4/ADC_DMA.c **** * Description:
   6:.\Generated_Source\PSoC4/ADC_DMA.c **** *  This file contains all of the channel DMA API functions.
   7:.\Generated_Source\PSoC4/ADC_DMA.c **** *
   8:.\Generated_Source\PSoC4/ADC_DMA.c **** ********************************************************************************
   9:.\Generated_Source\PSoC4/ADC_DMA.c **** * Copyright 2015, Cypress Semiconductor Corporation. All rights reserved.
  10:.\Generated_Source\PSoC4/ADC_DMA.c **** * You may use this file only in accordance with the license, terms, conditions,
  11:.\Generated_Source\PSoC4/ADC_DMA.c **** * disclaimers, and limitations in the end user license agreement accompanying
  12:.\Generated_Source\PSoC4/ADC_DMA.c **** * the software package with which this file was provided.
  13:.\Generated_Source\PSoC4/ADC_DMA.c **** *******************************************************************************/
  14:.\Generated_Source\PSoC4/ADC_DMA.c **** 
  15:.\Generated_Source\PSoC4/ADC_DMA.c **** #include "ADC_DMA.h"
  16:.\Generated_Source\PSoC4/ADC_DMA.c **** 
  17:.\Generated_Source\PSoC4/ADC_DMA.c **** uint8 ADC_DMA_initVar = 0u;
  18:.\Generated_Source\PSoC4/ADC_DMA.c **** 
  19:.\Generated_Source\PSoC4/ADC_DMA.c **** 
  20:.\Generated_Source\PSoC4/ADC_DMA.c **** /*******************************************************************************
  21:.\Generated_Source\PSoC4/ADC_DMA.c **** * Function Name: ADC_DMA_Start
  22:.\Generated_Source\PSoC4/ADC_DMA.c **** ********************************************************************************
  23:.\Generated_Source\PSoC4/ADC_DMA.c **** *
  24:.\Generated_Source\PSoC4/ADC_DMA.c **** * Summary:
  25:.\Generated_Source\PSoC4/ADC_DMA.c **** *  Calls Init() to configure the DMA channel based on the customizer settings if
  26:.\Generated_Source\PSoC4/ADC_DMA.c **** *  the channel has not been initialized before.
  27:.\Generated_Source\PSoC4/ADC_DMA.c **** *  Sets source and destination address, validates descriptor 0 and enables the
  28:.\Generated_Source\PSoC4/ADC_DMA.c **** *  channel. After calling this function the DMA channel is active and waiting
  29:.\Generated_Source\PSoC4/ADC_DMA.c **** *  for a trigger.
  30:.\Generated_Source\PSoC4/ADC_DMA.c **** *
  31:.\Generated_Source\PSoC4/ADC_DMA.c **** * Parameters:
  32:.\Generated_Source\PSoC4/ADC_DMA.c **** *  srcAddress: Address of DMA transfer source for descriptor 0.
ARM GAS  C:\Users\LAIR\AppData\Local\Temp\ccKUmuWn.s 			page 2


  33:.\Generated_Source\PSoC4/ADC_DMA.c **** *  dstAddress: Address of DMA transfer destination for descriptor 0.
  34:.\Generated_Source\PSoC4/ADC_DMA.c **** *                   
  35:.\Generated_Source\PSoC4/ADC_DMA.c **** * Return:
  36:.\Generated_Source\PSoC4/ADC_DMA.c **** *  None.
  37:.\Generated_Source\PSoC4/ADC_DMA.c **** *
  38:.\Generated_Source\PSoC4/ADC_DMA.c **** *******************************************************************************/
  39:.\Generated_Source\PSoC4/ADC_DMA.c **** void ADC_DMA_Start(void * srcAddress, void * dstAddress)
  40:.\Generated_Source\PSoC4/ADC_DMA.c **** {
  41:.\Generated_Source\PSoC4/ADC_DMA.c ****     if(0u == ADC_DMA_initVar)
  42:.\Generated_Source\PSoC4/ADC_DMA.c ****     {
  43:.\Generated_Source\PSoC4/ADC_DMA.c ****         ADC_DMA_Init();
  44:.\Generated_Source\PSoC4/ADC_DMA.c ****         ADC_DMA_initVar = 1u;
  45:.\Generated_Source\PSoC4/ADC_DMA.c ****     }
  46:.\Generated_Source\PSoC4/ADC_DMA.c ****     CyDmaEnable();
  47:.\Generated_Source\PSoC4/ADC_DMA.c ****     ADC_DMA_SetSrcAddress(0, srcAddress);
  48:.\Generated_Source\PSoC4/ADC_DMA.c ****     ADC_DMA_SetDstAddress(0, dstAddress);
  49:.\Generated_Source\PSoC4/ADC_DMA.c ****     ADC_DMA_ValidateDescriptor(0);
  50:.\Generated_Source\PSoC4/ADC_DMA.c ****     ADC_DMA_ChEnable();
  51:.\Generated_Source\PSoC4/ADC_DMA.c **** }
  52:.\Generated_Source\PSoC4/ADC_DMA.c **** 
  53:.\Generated_Source\PSoC4/ADC_DMA.c **** 
  54:.\Generated_Source\PSoC4/ADC_DMA.c **** /*******************************************************************************
  55:.\Generated_Source\PSoC4/ADC_DMA.c **** * Function Name: ADC_DMA_Init
  56:.\Generated_Source\PSoC4/ADC_DMA.c **** ********************************************************************************
  57:.\Generated_Source\PSoC4/ADC_DMA.c **** *
  58:.\Generated_Source\PSoC4/ADC_DMA.c **** * Summary:
  59:.\Generated_Source\PSoC4/ADC_DMA.c **** *  Initializes the DMA channel based on the parameters set in the component
  60:.\Generated_Source\PSoC4/ADC_DMA.c **** *  customizer. It is not necessary to call ADC_DMA_Init() because the
  61:.\Generated_Source\PSoC4/ADC_DMA.c **** *  ADC_DMA_Start() API calls this function, which is the preferred method
  62:.\Generated_Source\PSoC4/ADC_DMA.c **** *  to begin component operation.
  63:.\Generated_Source\PSoC4/ADC_DMA.c **** *
  64:.\Generated_Source\PSoC4/ADC_DMA.c **** * Parameters:
  65:.\Generated_Source\PSoC4/ADC_DMA.c **** *  None.
  66:.\Generated_Source\PSoC4/ADC_DMA.c **** *                   
  67:.\Generated_Source\PSoC4/ADC_DMA.c **** * Return:
  68:.\Generated_Source\PSoC4/ADC_DMA.c **** *  None.
  69:.\Generated_Source\PSoC4/ADC_DMA.c **** *
  70:.\Generated_Source\PSoC4/ADC_DMA.c **** * Side effect:
  71:.\Generated_Source\PSoC4/ADC_DMA.c **** *  The first descriptor is set to descriptor 0. This function should not be
  72:.\Generated_Source\PSoC4/ADC_DMA.c **** *  called while the channel is enabled. All settings will be reset to their
  73:.\Generated_Source\PSoC4/ADC_DMA.c **** *  initial values.
  74:.\Generated_Source\PSoC4/ADC_DMA.c **** *
  75:.\Generated_Source\PSoC4/ADC_DMA.c **** *******************************************************************************/
  76:.\Generated_Source\PSoC4/ADC_DMA.c **** void ADC_DMA_Init(void)
  77:.\Generated_Source\PSoC4/ADC_DMA.c **** {
  26              		.loc 1 77 0
  27              		.cfi_startproc
  78:.\Generated_Source\PSoC4/ADC_DMA.c ****     CYDMA_CH_CTL_BASE.ctl[ADC_DMA_CHANNEL] = ADC_DMA_CHANNEL_CFG;
  28              		.loc 1 78 0
  29 0000 C022     		mov	r2, #192
  30 0002 9205     		lsl	r2, r2, #22
  31 0004 064B     		ldr	r3, .L2
  32 0006 9A60     		str	r2, [r3, #8]
  79:.\Generated_Source\PSoC4/ADC_DMA.c ****     CYDMA_DESCR_BASE.descriptor[ADC_DMA_CHANNEL][0].ctl = ADC_DMA_DESCR0_CFG;
  33              		.loc 1 79 0
  34 0008 064B     		ldr	r3, .L2+4
  35 000a 074A     		ldr	r2, .L2+8
ARM GAS  C:\Users\LAIR\AppData\Local\Temp\ccKUmuWn.s 			page 3


  36 000c 9A64     		str	r2, [r3, #72]
  80:.\Generated_Source\PSoC4/ADC_DMA.c ****     CYDMA_DESCR_BASE.descriptor[ADC_DMA_CHANNEL][1].ctl = ADC_DMA_DESCR1_CFG;
  37              		.loc 1 80 0
  38 000e 0022     		mov	r2, #0
  39 0010 9A65     		str	r2, [r3, #88]
  81:.\Generated_Source\PSoC4/ADC_DMA.c **** 
  82:.\Generated_Source\PSoC4/ADC_DMA.c ****     /* If the Generate IRQ option is selected for descriptor 0 or 1, set the
  83:.\Generated_Source\PSoC4/ADC_DMA.c ****     * channel bit field in the DMA interrupt mask register.
  84:.\Generated_Source\PSoC4/ADC_DMA.c ****     */
  85:.\Generated_Source\PSoC4/ADC_DMA.c ****     #if (0u != ((ADC_DMA_DESCR0_CFG | ADC_DMA_DESCR1_CFG) & CYDMA_GENERATE_IRQ))
  86:.\Generated_Source\PSoC4/ADC_DMA.c ****         CYDMA_INTR_MASK_REG |= ADC_DMA_CHANNEL_MASK;
  40              		.loc 1 86 0
  41 0012 064A     		ldr	r2, .L2+12
  42 0014 1168     		ldr	r1, [r2]
  43 0016 0423     		mov	r3, #4
  44 0018 0B43     		orr	r3, r1
  45 001a 1360     		str	r3, [r2]
  87:.\Generated_Source\PSoC4/ADC_DMA.c ****     #endif /* (0u != ((ADC_DMA_DESCR0_CFG | ADC_DMA_DESCR1_CFG) & CYDMA_GENERATE_IRQ)) */
  88:.\Generated_Source\PSoC4/ADC_DMA.c **** }
  46              		.loc 1 88 0
  47              		@ sp needed
  48 001c 7047     		bx	lr
  49              	.L3:
  50 001e C046     		.align	2
  51              	.L2:
  52 0020 80101040 		.word	1074794624
  53 0024 00181040 		.word	1074796544
  54 0028 0300E108 		.word	148963331
  55 002c F8171040 		.word	1074796536
  56              		.cfi_endproc
  57              	.LFE33:
  58              		.size	ADC_DMA_Init, .-ADC_DMA_Init
  59              		.section	.text.ADC_DMA_Start,"ax",%progbits
  60              		.align	2
  61              		.global	ADC_DMA_Start
  62              		.code	16
  63              		.thumb_func
  64              		.type	ADC_DMA_Start, %function
  65              	ADC_DMA_Start:
  66              	.LFB32:
  40:.\Generated_Source\PSoC4/ADC_DMA.c ****     if(0u == ADC_DMA_initVar)
  67              		.loc 1 40 0
  68              		.cfi_startproc
  69              	.LVL0:
  70 0000 38B5     		push	{r3, r4, r5, lr}
  71              		.cfi_def_cfa_offset 16
  72              		.cfi_offset 3, -16
  73              		.cfi_offset 4, -12
  74              		.cfi_offset 5, -8
  75              		.cfi_offset 14, -4
  76 0002 051C     		mov	r5, r0
  77 0004 0C1C     		mov	r4, r1
  41:.\Generated_Source\PSoC4/ADC_DMA.c ****     {
  78              		.loc 1 41 0
  79 0006 0E4B     		ldr	r3, .L6
  80 0008 1B78     		ldrb	r3, [r3]
  81 000a 002B     		cmp	r3, #0
ARM GAS  C:\Users\LAIR\AppData\Local\Temp\ccKUmuWn.s 			page 4


  82 000c 04D1     		bne	.L5
  43:.\Generated_Source\PSoC4/ADC_DMA.c ****         ADC_DMA_initVar = 1u;
  83              		.loc 1 43 0
  84 000e FFF7FEFF 		bl	ADC_DMA_Init
  85              	.LVL1:
  44:.\Generated_Source\PSoC4/ADC_DMA.c ****     }
  86              		.loc 1 44 0
  87 0012 0122     		mov	r2, #1
  88 0014 0A4B     		ldr	r3, .L6
  89 0016 1A70     		strb	r2, [r3]
  90              	.L5:
  46:.\Generated_Source\PSoC4/ADC_DMA.c ****     ADC_DMA_SetSrcAddress(0, srcAddress);
  91              		.loc 1 46 0
  92 0018 FFF7FEFF 		bl	CyDmaEnable
  93              	.LVL2:
  94              	.LBB10:
  95              	.LBB11:
  96              		.file 2 ".\\Generated_Source\\PSoC4\\ADC_DMA.h"
   1:.\Generated_Source\PSoC4/ADC_DMA.h **** /*******************************************************************************
   2:.\Generated_Source\PSoC4/ADC_DMA.h **** * File Name: ADC_DMA.h
   3:.\Generated_Source\PSoC4/ADC_DMA.h **** * Version 1.0
   4:.\Generated_Source\PSoC4/ADC_DMA.h **** *
   5:.\Generated_Source\PSoC4/ADC_DMA.h **** * Description:
   6:.\Generated_Source\PSoC4/ADC_DMA.h **** *  This file provides DMA channel defines and API function definitions.
   7:.\Generated_Source\PSoC4/ADC_DMA.h **** *
   8:.\Generated_Source\PSoC4/ADC_DMA.h **** ********************************************************************************
   9:.\Generated_Source\PSoC4/ADC_DMA.h **** * Copyright 2015, Cypress Semiconductor Corporation. All rights reserved.
  10:.\Generated_Source\PSoC4/ADC_DMA.h **** * You may use this file only in accordance with the license, terms, conditions,
  11:.\Generated_Source\PSoC4/ADC_DMA.h **** * disclaimers, and limitations in the end user license agreement accompanying
  12:.\Generated_Source\PSoC4/ADC_DMA.h **** * the software package with which this file was provided.
  13:.\Generated_Source\PSoC4/ADC_DMA.h **** *******************************************************************************/
  14:.\Generated_Source\PSoC4/ADC_DMA.h **** 
  15:.\Generated_Source\PSoC4/ADC_DMA.h **** #ifndef CY_DMA_CHANNEL_ADC_DMA_H
  16:.\Generated_Source\PSoC4/ADC_DMA.h **** #define CY_DMA_CHANNEL_ADC_DMA_H
  17:.\Generated_Source\PSoC4/ADC_DMA.h **** 
  18:.\Generated_Source\PSoC4/ADC_DMA.h **** #include "CyDMA.h"
  19:.\Generated_Source\PSoC4/ADC_DMA.h **** 
  20:.\Generated_Source\PSoC4/ADC_DMA.h ****     
  21:.\Generated_Source\PSoC4/ADC_DMA.h **** /***************************************
  22:.\Generated_Source\PSoC4/ADC_DMA.h **** *   Conditional Compilation Parameters
  23:.\Generated_Source\PSoC4/ADC_DMA.h **** ***************************************/
  24:.\Generated_Source\PSoC4/ADC_DMA.h **** 
  25:.\Generated_Source\PSoC4/ADC_DMA.h **** #define ADC_DMA_CHANNEL           (ADC_DMA__CHANNEL_NUMBER)
  26:.\Generated_Source\PSoC4/ADC_DMA.h **** #define ADC_DMA_CHANNEL_MASK      ((uint32)(1UL << ADC_DMA_CHANNEL))
  27:.\Generated_Source\PSoC4/ADC_DMA.h **** 
  28:.\Generated_Source\PSoC4/ADC_DMA.h **** 
  29:.\Generated_Source\PSoC4/ADC_DMA.h **** /***************************************
  30:.\Generated_Source\PSoC4/ADC_DMA.h **** *        Function Prototypes
  31:.\Generated_Source\PSoC4/ADC_DMA.h **** ***************************************/
  32:.\Generated_Source\PSoC4/ADC_DMA.h **** 
  33:.\Generated_Source\PSoC4/ADC_DMA.h **** /* Functions specific to this DMA channel */
  34:.\Generated_Source\PSoC4/ADC_DMA.h **** void ADC_DMA_Init(void);
  35:.\Generated_Source\PSoC4/ADC_DMA.h **** void ADC_DMA_Start(void * srcAddress, void * dstAddress);
  36:.\Generated_Source\PSoC4/ADC_DMA.h **** 
  37:.\Generated_Source\PSoC4/ADC_DMA.h **** /* Inline functions that call global API functions */
  38:.\Generated_Source\PSoC4/ADC_DMA.h **** static void   ADC_DMA_ChEnable(void);
  39:.\Generated_Source\PSoC4/ADC_DMA.h **** static void   ADC_DMA_ChDisable(void);
ARM GAS  C:\Users\LAIR\AppData\Local\Temp\ccKUmuWn.s 			page 5


  40:.\Generated_Source\PSoC4/ADC_DMA.h **** static void   ADC_DMA_Trigger(void);
  41:.\Generated_Source\PSoC4/ADC_DMA.h **** static void   ADC_DMA_SetPriority(int32 priority);
  42:.\Generated_Source\PSoC4/ADC_DMA.h **** static int32  ADC_DMA_GetPriority(void);
  43:.\Generated_Source\PSoC4/ADC_DMA.h **** static void   ADC_DMA_SetNextDescriptor(int32 descriptor);
  44:.\Generated_Source\PSoC4/ADC_DMA.h **** static int32  ADC_DMA_GetNextDescriptor(void);
  45:.\Generated_Source\PSoC4/ADC_DMA.h **** static void   ADC_DMA_SetConfiguration(int32 descriptor, const cydma_init_struct * config);
  46:.\Generated_Source\PSoC4/ADC_DMA.h **** static void   ADC_DMA_ValidateDescriptor(int32 descriptor);
  47:.\Generated_Source\PSoC4/ADC_DMA.h **** static uint32 ADC_DMA_GetDescriptorStatus(int32 descriptor);
  48:.\Generated_Source\PSoC4/ADC_DMA.h **** static void   ADC_DMA_SetSrcAddress(int32 descriptor, void * srcAddress);
  49:.\Generated_Source\PSoC4/ADC_DMA.h **** static void * ADC_DMA_GetSrcAddress(int32 descriptor);
  50:.\Generated_Source\PSoC4/ADC_DMA.h **** static void   ADC_DMA_SetDstAddress(int32 descriptor, void * dstAddress);
  51:.\Generated_Source\PSoC4/ADC_DMA.h **** static void * ADC_DMA_GetDstAddress(int32 descriptor);
  52:.\Generated_Source\PSoC4/ADC_DMA.h **** static void   ADC_DMA_SetDataElementSize(int32 descriptor, uint32 dataElementSize);
  53:.\Generated_Source\PSoC4/ADC_DMA.h **** static uint32 ADC_DMA_GetDataElementSize(int32 descriptor);
  54:.\Generated_Source\PSoC4/ADC_DMA.h **** static void   ADC_DMA_SetNumDataElements(int32 descriptor, int32 numDataElements);
  55:.\Generated_Source\PSoC4/ADC_DMA.h **** static int32  ADC_DMA_GetNumDataElements(int32 descriptor);
  56:.\Generated_Source\PSoC4/ADC_DMA.h **** static void   ADC_DMA_SetSrcDstTransferWidth(int32 descriptor, uint32 transferWidth);
  57:.\Generated_Source\PSoC4/ADC_DMA.h **** static uint32 ADC_DMA_GetSrcDstTransferWidth(int32 descriptor);
  58:.\Generated_Source\PSoC4/ADC_DMA.h **** static void   ADC_DMA_SetAddressIncrement(int32 descriptor, uint32 addressIncrement);
  59:.\Generated_Source\PSoC4/ADC_DMA.h **** static uint32 ADC_DMA_GetAddressIncrement(int32 descriptor);
  60:.\Generated_Source\PSoC4/ADC_DMA.h **** static void   ADC_DMA_SetTriggerType(int32 descriptor, uint32 triggerType);
  61:.\Generated_Source\PSoC4/ADC_DMA.h **** static uint32 ADC_DMA_GetTriggerType(int32 descriptor);
  62:.\Generated_Source\PSoC4/ADC_DMA.h **** static void   ADC_DMA_SetTransferMode(int32 descriptor, uint32 transferMode);
  63:.\Generated_Source\PSoC4/ADC_DMA.h **** static uint32 ADC_DMA_GetTransferMode(int32 descriptor);
  64:.\Generated_Source\PSoC4/ADC_DMA.h **** static void   ADC_DMA_SetPreemptable(int32 descriptor, uint32 preemptable);
  65:.\Generated_Source\PSoC4/ADC_DMA.h **** static uint32 ADC_DMA_GetPreemptable(int32 descriptor);
  66:.\Generated_Source\PSoC4/ADC_DMA.h **** static void   ADC_DMA_SetPostCompletionActions(int32 descriptor, uint32 actions);
  67:.\Generated_Source\PSoC4/ADC_DMA.h **** static uint32 ADC_DMA_GetPostCompletionAction(int32 descriptor);
  68:.\Generated_Source\PSoC4/ADC_DMA.h **** static cydma_callback_t ADC_DMA_SetInterruptCallback(cydma_callback_t callback);
  69:.\Generated_Source\PSoC4/ADC_DMA.h **** static cydma_callback_t ADC_DMA_GetInterruptCallback(void);
  70:.\Generated_Source\PSoC4/ADC_DMA.h **** 
  71:.\Generated_Source\PSoC4/ADC_DMA.h **** 
  72:.\Generated_Source\PSoC4/ADC_DMA.h **** /*******************************************************************************
  73:.\Generated_Source\PSoC4/ADC_DMA.h **** * Function Name: ADC_DMA_ChEnable
  74:.\Generated_Source\PSoC4/ADC_DMA.h **** ********************************************************************************
  75:.\Generated_Source\PSoC4/ADC_DMA.h **** *
  76:.\Generated_Source\PSoC4/ADC_DMA.h **** * Summary:
  77:.\Generated_Source\PSoC4/ADC_DMA.h **** *  Enables the DMA channel. It is not necessary to call ADC_DMA_ChEnable()
  78:.\Generated_Source\PSoC4/ADC_DMA.h **** *  because the ADC_DMA_Start() API calls this function, which is the
  79:.\Generated_Source\PSoC4/ADC_DMA.h **** *  preferred method to begin the component operation.
  80:.\Generated_Source\PSoC4/ADC_DMA.h **** *
  81:.\Generated_Source\PSoC4/ADC_DMA.h **** * Parameters:
  82:.\Generated_Source\PSoC4/ADC_DMA.h **** *  None.
  83:.\Generated_Source\PSoC4/ADC_DMA.h **** *                   
  84:.\Generated_Source\PSoC4/ADC_DMA.h **** * Return:
  85:.\Generated_Source\PSoC4/ADC_DMA.h **** *  None.
  86:.\Generated_Source\PSoC4/ADC_DMA.h **** *
  87:.\Generated_Source\PSoC4/ADC_DMA.h **** * Side effect:
  88:.\Generated_Source\PSoC4/ADC_DMA.h **** *  If this function is called before ADC_DMA_Start(), or ADC_DMA_Init()
  89:.\Generated_Source\PSoC4/ADC_DMA.h **** *  or ADC_DMA_SetConfiguration(), and ADC_DMA_SetSrcAddress()
  90:.\Generated_Source\PSoC4/ADC_DMA.h **** *  and ADC_DMA_SetDstAddress the operation of the DMA is 
  91:.\Generated_Source\PSoC4/ADC_DMA.h **** *  undefined and could result in system data corruption. 
  92:.\Generated_Source\PSoC4/ADC_DMA.h **** *
  93:.\Generated_Source\PSoC4/ADC_DMA.h **** *******************************************************************************/
  94:.\Generated_Source\PSoC4/ADC_DMA.h **** static CY_INLINE void ADC_DMA_ChEnable(void)
  95:.\Generated_Source\PSoC4/ADC_DMA.h **** {
  96:.\Generated_Source\PSoC4/ADC_DMA.h ****     CyDmaChEnable(ADC_DMA_CHANNEL);
ARM GAS  C:\Users\LAIR\AppData\Local\Temp\ccKUmuWn.s 			page 6


  97:.\Generated_Source\PSoC4/ADC_DMA.h **** }
  98:.\Generated_Source\PSoC4/ADC_DMA.h **** 
  99:.\Generated_Source\PSoC4/ADC_DMA.h **** 
 100:.\Generated_Source\PSoC4/ADC_DMA.h **** /*******************************************************************************
 101:.\Generated_Source\PSoC4/ADC_DMA.h **** * Function Name: ADC_DMA_ChDisable
 102:.\Generated_Source\PSoC4/ADC_DMA.h **** ********************************************************************************
 103:.\Generated_Source\PSoC4/ADC_DMA.h **** *
 104:.\Generated_Source\PSoC4/ADC_DMA.h **** * Summary:
 105:.\Generated_Source\PSoC4/ADC_DMA.h **** *  Disables the DMA channel.
 106:.\Generated_Source\PSoC4/ADC_DMA.h **** *
 107:.\Generated_Source\PSoC4/ADC_DMA.h **** * Parameters:
 108:.\Generated_Source\PSoC4/ADC_DMA.h **** *  None.
 109:.\Generated_Source\PSoC4/ADC_DMA.h **** *                   
 110:.\Generated_Source\PSoC4/ADC_DMA.h **** * Return:
 111:.\Generated_Source\PSoC4/ADC_DMA.h **** *  None.
 112:.\Generated_Source\PSoC4/ADC_DMA.h **** *
 113:.\Generated_Source\PSoC4/ADC_DMA.h **** * Side effect:
 114:.\Generated_Source\PSoC4/ADC_DMA.h **** *  If this function is called during a DMA transfer the transfer is aborted. 
 115:.\Generated_Source\PSoC4/ADC_DMA.h **** *
 116:.\Generated_Source\PSoC4/ADC_DMA.h **** *******************************************************************************/
 117:.\Generated_Source\PSoC4/ADC_DMA.h **** static CY_INLINE void ADC_DMA_ChDisable(void)
 118:.\Generated_Source\PSoC4/ADC_DMA.h **** {
 119:.\Generated_Source\PSoC4/ADC_DMA.h ****     CyDmaChDisable(ADC_DMA_CHANNEL);
 120:.\Generated_Source\PSoC4/ADC_DMA.h **** }
 121:.\Generated_Source\PSoC4/ADC_DMA.h **** 
 122:.\Generated_Source\PSoC4/ADC_DMA.h **** 
 123:.\Generated_Source\PSoC4/ADC_DMA.h **** /*******************************************************************************
 124:.\Generated_Source\PSoC4/ADC_DMA.h **** * Function Name: ADC_DMA_Trigger
 125:.\Generated_Source\PSoC4/ADC_DMA.h **** ********************************************************************************
 126:.\Generated_Source\PSoC4/ADC_DMA.h **** *
 127:.\Generated_Source\PSoC4/ADC_DMA.h **** * Summary:
 128:.\Generated_Source\PSoC4/ADC_DMA.h **** *  Triggers the DMA channel, this is useful only for software triggers. This is
 129:.\Generated_Source\PSoC4/ADC_DMA.h **** *  not needed when hardware triggers are used.
 130:.\Generated_Source\PSoC4/ADC_DMA.h **** *
 131:.\Generated_Source\PSoC4/ADC_DMA.h **** * Parameters:
 132:.\Generated_Source\PSoC4/ADC_DMA.h **** *  None.
 133:.\Generated_Source\PSoC4/ADC_DMA.h **** *                   
 134:.\Generated_Source\PSoC4/ADC_DMA.h **** * Return:
 135:.\Generated_Source\PSoC4/ADC_DMA.h **** *  None. 
 136:.\Generated_Source\PSoC4/ADC_DMA.h **** *
 137:.\Generated_Source\PSoC4/ADC_DMA.h **** *******************************************************************************/
 138:.\Generated_Source\PSoC4/ADC_DMA.h **** static CY_INLINE void ADC_DMA_Trigger(void)
 139:.\Generated_Source\PSoC4/ADC_DMA.h **** {
 140:.\Generated_Source\PSoC4/ADC_DMA.h ****     CyDmaTrigger(ADC_DMA_CHANNEL);
 141:.\Generated_Source\PSoC4/ADC_DMA.h **** }
 142:.\Generated_Source\PSoC4/ADC_DMA.h **** 
 143:.\Generated_Source\PSoC4/ADC_DMA.h **** 
 144:.\Generated_Source\PSoC4/ADC_DMA.h **** /*******************************************************************************
 145:.\Generated_Source\PSoC4/ADC_DMA.h **** * Function Name: ADC_DMA_SetPriority
 146:.\Generated_Source\PSoC4/ADC_DMA.h **** ********************************************************************************
 147:.\Generated_Source\PSoC4/ADC_DMA.h **** *
 148:.\Generated_Source\PSoC4/ADC_DMA.h **** * Summary:
 149:.\Generated_Source\PSoC4/ADC_DMA.h **** *  Sets the priority for the channel.
 150:.\Generated_Source\PSoC4/ADC_DMA.h **** *
 151:.\Generated_Source\PSoC4/ADC_DMA.h **** * Parameters:
 152:.\Generated_Source\PSoC4/ADC_DMA.h **** *  priority: Priority for channel. Priority can be 0,1,2, or 3.
 153:.\Generated_Source\PSoC4/ADC_DMA.h **** *            0 is the highest priority.
ARM GAS  C:\Users\LAIR\AppData\Local\Temp\ccKUmuWn.s 			page 7


 154:.\Generated_Source\PSoC4/ADC_DMA.h **** *                   
 155:.\Generated_Source\PSoC4/ADC_DMA.h **** * Return:
 156:.\Generated_Source\PSoC4/ADC_DMA.h **** *  None.
 157:.\Generated_Source\PSoC4/ADC_DMA.h **** *
 158:.\Generated_Source\PSoC4/ADC_DMA.h **** * Side effect:
 159:.\Generated_Source\PSoC4/ADC_DMA.h **** *  This function should not be called while the channel is enabled.
 160:.\Generated_Source\PSoC4/ADC_DMA.h **** *
 161:.\Generated_Source\PSoC4/ADC_DMA.h **** *******************************************************************************/
 162:.\Generated_Source\PSoC4/ADC_DMA.h **** static CY_INLINE void ADC_DMA_SetPriority(int32 priority)
 163:.\Generated_Source\PSoC4/ADC_DMA.h **** {
 164:.\Generated_Source\PSoC4/ADC_DMA.h ****     CyDmaSetPriority(ADC_DMA_CHANNEL, priority);
 165:.\Generated_Source\PSoC4/ADC_DMA.h **** }
 166:.\Generated_Source\PSoC4/ADC_DMA.h **** 
 167:.\Generated_Source\PSoC4/ADC_DMA.h **** 
 168:.\Generated_Source\PSoC4/ADC_DMA.h **** /*******************************************************************************
 169:.\Generated_Source\PSoC4/ADC_DMA.h **** * Function Name: ADC_DMA_GetPriority
 170:.\Generated_Source\PSoC4/ADC_DMA.h **** ********************************************************************************
 171:.\Generated_Source\PSoC4/ADC_DMA.h **** *
 172:.\Generated_Source\PSoC4/ADC_DMA.h **** * Summary:
 173:.\Generated_Source\PSoC4/ADC_DMA.h **** *  Gets the priority for the channel.
 174:.\Generated_Source\PSoC4/ADC_DMA.h **** *
 175:.\Generated_Source\PSoC4/ADC_DMA.h **** * Parameters:
 176:.\Generated_Source\PSoC4/ADC_DMA.h **** *  None.
 177:.\Generated_Source\PSoC4/ADC_DMA.h **** *                   
 178:.\Generated_Source\PSoC4/ADC_DMA.h **** * Return:
 179:.\Generated_Source\PSoC4/ADC_DMA.h **** *  Priority for channel. Priority can be 0,1,2, or 3. 0 is the highest priority.
 180:.\Generated_Source\PSoC4/ADC_DMA.h **** *
 181:.\Generated_Source\PSoC4/ADC_DMA.h **** *******************************************************************************/
 182:.\Generated_Source\PSoC4/ADC_DMA.h **** static CY_INLINE int32 ADC_DMA_GetPriority(void)
 183:.\Generated_Source\PSoC4/ADC_DMA.h **** {
 184:.\Generated_Source\PSoC4/ADC_DMA.h ****     return (CyDmaGetPriority(ADC_DMA_CHANNEL));
 185:.\Generated_Source\PSoC4/ADC_DMA.h **** }
 186:.\Generated_Source\PSoC4/ADC_DMA.h **** 
 187:.\Generated_Source\PSoC4/ADC_DMA.h **** 
 188:.\Generated_Source\PSoC4/ADC_DMA.h **** /*******************************************************************************
 189:.\Generated_Source\PSoC4/ADC_DMA.h **** * Function Name: ADC_DMA_SetNextDescriptor
 190:.\Generated_Source\PSoC4/ADC_DMA.h **** ********************************************************************************
 191:.\Generated_Source\PSoC4/ADC_DMA.h **** *
 192:.\Generated_Source\PSoC4/ADC_DMA.h **** * Summary:
 193:.\Generated_Source\PSoC4/ADC_DMA.h **** *  Sets the descriptor that should be run the next time the channel is
 194:.\Generated_Source\PSoC4/ADC_DMA.h **** *  triggered.
 195:.\Generated_Source\PSoC4/ADC_DMA.h **** *
 196:.\Generated_Source\PSoC4/ADC_DMA.h **** * Parameters:
 197:.\Generated_Source\PSoC4/ADC_DMA.h **** *  descriptor: Next Descriptor to run (0 or 1).
 198:.\Generated_Source\PSoC4/ADC_DMA.h **** *                   
 199:.\Generated_Source\PSoC4/ADC_DMA.h **** * Side effect:
 200:.\Generated_Source\PSoC4/ADC_DMA.h **** *  This function should not be called while the channel is enabled.
 201:.\Generated_Source\PSoC4/ADC_DMA.h **** *
 202:.\Generated_Source\PSoC4/ADC_DMA.h **** *******************************************************************************/
 203:.\Generated_Source\PSoC4/ADC_DMA.h **** static CY_INLINE void ADC_DMA_SetNextDescriptor(int32 descriptor)
 204:.\Generated_Source\PSoC4/ADC_DMA.h **** {
 205:.\Generated_Source\PSoC4/ADC_DMA.h ****     CyDmaSetNextDescriptor(ADC_DMA_CHANNEL, descriptor);
 206:.\Generated_Source\PSoC4/ADC_DMA.h **** }
 207:.\Generated_Source\PSoC4/ADC_DMA.h **** 
 208:.\Generated_Source\PSoC4/ADC_DMA.h **** 
 209:.\Generated_Source\PSoC4/ADC_DMA.h **** /*******************************************************************************
 210:.\Generated_Source\PSoC4/ADC_DMA.h **** * Function Name: ADC_DMA_GetNextDescriptor
ARM GAS  C:\Users\LAIR\AppData\Local\Temp\ccKUmuWn.s 			page 8


 211:.\Generated_Source\PSoC4/ADC_DMA.h **** ********************************************************************************
 212:.\Generated_Source\PSoC4/ADC_DMA.h **** *
 213:.\Generated_Source\PSoC4/ADC_DMA.h **** * Summary:
 214:.\Generated_Source\PSoC4/ADC_DMA.h **** *  Returns the next descriptor that should be run, as set by 
 215:.\Generated_Source\PSoC4/ADC_DMA.h **** *  ADC_DMA_SetNextDescriptor().
 216:.\Generated_Source\PSoC4/ADC_DMA.h **** *
 217:.\Generated_Source\PSoC4/ADC_DMA.h **** * Parameters:
 218:.\Generated_Source\PSoC4/ADC_DMA.h **** *  None.
 219:.\Generated_Source\PSoC4/ADC_DMA.h **** *                   
 220:.\Generated_Source\PSoC4/ADC_DMA.h **** * Return:
 221:.\Generated_Source\PSoC4/ADC_DMA.h **** *  Next Descriptor to run (0 or 1).
 222:.\Generated_Source\PSoC4/ADC_DMA.h **** *
 223:.\Generated_Source\PSoC4/ADC_DMA.h **** *******************************************************************************/
 224:.\Generated_Source\PSoC4/ADC_DMA.h **** static CY_INLINE int32 ADC_DMA_GetNextDescriptor(void)
 225:.\Generated_Source\PSoC4/ADC_DMA.h **** {
 226:.\Generated_Source\PSoC4/ADC_DMA.h ****     return (CyDmaGetNextDescriptor(ADC_DMA_CHANNEL));
 227:.\Generated_Source\PSoC4/ADC_DMA.h **** }
 228:.\Generated_Source\PSoC4/ADC_DMA.h **** 
 229:.\Generated_Source\PSoC4/ADC_DMA.h **** 
 230:.\Generated_Source\PSoC4/ADC_DMA.h **** /*******************************************************************************
 231:.\Generated_Source\PSoC4/ADC_DMA.h **** * Function Name: ADC_DMA_SetConfiguration
 232:.\Generated_Source\PSoC4/ADC_DMA.h **** ********************************************************************************
 233:.\Generated_Source\PSoC4/ADC_DMA.h **** *
 234:.\Generated_Source\PSoC4/ADC_DMA.h **** * Summary:
 235:.\Generated_Source\PSoC4/ADC_DMA.h **** *  Sets configuration information for the specified descriptor.
 236:.\Generated_Source\PSoC4/ADC_DMA.h **** *
 237:.\Generated_Source\PSoC4/ADC_DMA.h **** * Parameters:
 238:.\Generated_Source\PSoC4/ADC_DMA.h **** *  descriptor: Descriptor (0 or 1) modified by this function.
 239:.\Generated_Source\PSoC4/ADC_DMA.h **** *  config: Pointer to a configuration structure. Refer to cydma_init_struct
 240:.\Generated_Source\PSoC4/ADC_DMA.h **** *          structure definition in CyDMA_P4.h or the component datasheet.
 241:.\Generated_Source\PSoC4/ADC_DMA.h **** *                   
 242:.\Generated_Source\PSoC4/ADC_DMA.h **** * Return:
 243:.\Generated_Source\PSoC4/ADC_DMA.h **** *  None.
 244:.\Generated_Source\PSoC4/ADC_DMA.h **** *
 245:.\Generated_Source\PSoC4/ADC_DMA.h **** * Side effect:
 246:.\Generated_Source\PSoC4/ADC_DMA.h **** *  The status register associated with the specified descriptor is reset to
 247:.\Generated_Source\PSoC4/ADC_DMA.h **** *  zero after this function call. This function also validates the descriptor.
 248:.\Generated_Source\PSoC4/ADC_DMA.h **** *  This function should not be called while the descriptor is active.
 249:.\Generated_Source\PSoC4/ADC_DMA.h **** *  This can be checked by calling CyDmaGetStatus().
 250:.\Generated_Source\PSoC4/ADC_DMA.h **** *
 251:.\Generated_Source\PSoC4/ADC_DMA.h **** *******************************************************************************/
 252:.\Generated_Source\PSoC4/ADC_DMA.h **** static CY_INLINE void ADC_DMA_SetConfiguration(int32 descriptor, const cydma_init_struct * config)
 253:.\Generated_Source\PSoC4/ADC_DMA.h **** {
 254:.\Generated_Source\PSoC4/ADC_DMA.h ****     CyDmaSetConfiguration(ADC_DMA_CHANNEL, descriptor, config);
 255:.\Generated_Source\PSoC4/ADC_DMA.h **** }
 256:.\Generated_Source\PSoC4/ADC_DMA.h **** 
 257:.\Generated_Source\PSoC4/ADC_DMA.h **** 
 258:.\Generated_Source\PSoC4/ADC_DMA.h **** /*******************************************************************************
 259:.\Generated_Source\PSoC4/ADC_DMA.h **** * Function Name: ADC_DMA_ValidateDescriptor
 260:.\Generated_Source\PSoC4/ADC_DMA.h **** ********************************************************************************
 261:.\Generated_Source\PSoC4/ADC_DMA.h **** *
 262:.\Generated_Source\PSoC4/ADC_DMA.h **** * Summary:
 263:.\Generated_Source\PSoC4/ADC_DMA.h **** *  Validates the specified descriptor after it has been invalidated.
 264:.\Generated_Source\PSoC4/ADC_DMA.h **** *
 265:.\Generated_Source\PSoC4/ADC_DMA.h **** * Parameters:
 266:.\Generated_Source\PSoC4/ADC_DMA.h **** *  descriptor: Descriptor (0 or 1) modified by this function.
 267:.\Generated_Source\PSoC4/ADC_DMA.h **** *                   
ARM GAS  C:\Users\LAIR\AppData\Local\Temp\ccKUmuWn.s 			page 9


 268:.\Generated_Source\PSoC4/ADC_DMA.h **** * Return:
 269:.\Generated_Source\PSoC4/ADC_DMA.h **** *  None. 
 270:.\Generated_Source\PSoC4/ADC_DMA.h **** *
 271:.\Generated_Source\PSoC4/ADC_DMA.h **** * Side effect:
 272:.\Generated_Source\PSoC4/ADC_DMA.h **** *  The status register associated with the specified descriptor is reset to
 273:.\Generated_Source\PSoC4/ADC_DMA.h **** *  zero after this function call. This function should not be called while the
 274:.\Generated_Source\PSoC4/ADC_DMA.h **** *  descriptor is active. This can be checked by calling CyDmaGetStatus().
 275:.\Generated_Source\PSoC4/ADC_DMA.h **** *
 276:.\Generated_Source\PSoC4/ADC_DMA.h **** *******************************************************************************/
 277:.\Generated_Source\PSoC4/ADC_DMA.h **** static CY_INLINE void ADC_DMA_ValidateDescriptor(int32 descriptor)
 278:.\Generated_Source\PSoC4/ADC_DMA.h **** {
 279:.\Generated_Source\PSoC4/ADC_DMA.h ****     CyDmaValidateDescriptor(ADC_DMA_CHANNEL, descriptor);
 280:.\Generated_Source\PSoC4/ADC_DMA.h **** }
 281:.\Generated_Source\PSoC4/ADC_DMA.h **** 
 282:.\Generated_Source\PSoC4/ADC_DMA.h **** 
 283:.\Generated_Source\PSoC4/ADC_DMA.h **** /*******************************************************************************
 284:.\Generated_Source\PSoC4/ADC_DMA.h **** * Function Name: ADC_DMA_GetDescriptorStatus
 285:.\Generated_Source\PSoC4/ADC_DMA.h **** ********************************************************************************
 286:.\Generated_Source\PSoC4/ADC_DMA.h **** *
 287:.\Generated_Source\PSoC4/ADC_DMA.h **** * Summary:
 288:.\Generated_Source\PSoC4/ADC_DMA.h **** *  Returns the status of the specified descriptor.
 289:.\Generated_Source\PSoC4/ADC_DMA.h **** *
 290:.\Generated_Source\PSoC4/ADC_DMA.h **** * Parameters:
 291:.\Generated_Source\PSoC4/ADC_DMA.h **** *  descriptor: Descriptor (0 or 1) modified by this function.
 292:.\Generated_Source\PSoC4/ADC_DMA.h **** *                   
 293:.\Generated_Source\PSoC4/ADC_DMA.h **** * Return:
 294:.\Generated_Source\PSoC4/ADC_DMA.h **** *  Returns the contents of the specified descriptors status register. Refer to 
 295:.\Generated_Source\PSoC4/ADC_DMA.h **** *  descriptor status register bit definitions in CyDMA_P4.h or the API
 296:.\Generated_Source\PSoC4/ADC_DMA.h **** *  description in the DMA channel datasheet for more information.
 297:.\Generated_Source\PSoC4/ADC_DMA.h **** *
 298:.\Generated_Source\PSoC4/ADC_DMA.h **** *******************************************************************************/
 299:.\Generated_Source\PSoC4/ADC_DMA.h **** static CY_INLINE uint32 ADC_DMA_GetDescriptorStatus(int32 descriptor)
 300:.\Generated_Source\PSoC4/ADC_DMA.h **** {
 301:.\Generated_Source\PSoC4/ADC_DMA.h ****     return (CyDmaGetDescriptorStatus(ADC_DMA_CHANNEL, descriptor));
 302:.\Generated_Source\PSoC4/ADC_DMA.h **** }
 303:.\Generated_Source\PSoC4/ADC_DMA.h **** 
 304:.\Generated_Source\PSoC4/ADC_DMA.h **** 
 305:.\Generated_Source\PSoC4/ADC_DMA.h **** /*******************************************************************************
 306:.\Generated_Source\PSoC4/ADC_DMA.h **** * Function Name: ADC_DMA_SetSrcAddress
 307:.\Generated_Source\PSoC4/ADC_DMA.h **** ********************************************************************************
 308:.\Generated_Source\PSoC4/ADC_DMA.h **** *
 309:.\Generated_Source\PSoC4/ADC_DMA.h **** * Summary:
 310:.\Generated_Source\PSoC4/ADC_DMA.h **** *  Configures the source address for the specified descriptor.
 311:.\Generated_Source\PSoC4/ADC_DMA.h **** *
 312:.\Generated_Source\PSoC4/ADC_DMA.h **** * Parameters:
 313:.\Generated_Source\PSoC4/ADC_DMA.h **** *  descriptor: Descriptor (0 or 1) modified by this function.
 314:.\Generated_Source\PSoC4/ADC_DMA.h **** *  srcAddress: Address of DMA transfer source.
 315:.\Generated_Source\PSoC4/ADC_DMA.h **** *                   
 316:.\Generated_Source\PSoC4/ADC_DMA.h **** * Return:
 317:.\Generated_Source\PSoC4/ADC_DMA.h **** *  None.
 318:.\Generated_Source\PSoC4/ADC_DMA.h **** *
 319:.\Generated_Source\PSoC4/ADC_DMA.h **** * Side effect:
 320:.\Generated_Source\PSoC4/ADC_DMA.h **** *  This function should not be called when the specified descriptor is active
 321:.\Generated_Source\PSoC4/ADC_DMA.h **** *  in the DMA transfer engine. This can be checked by calling CyDmaGetStatus(). 
 322:.\Generated_Source\PSoC4/ADC_DMA.h **** *
 323:.\Generated_Source\PSoC4/ADC_DMA.h **** *******************************************************************************/
 324:.\Generated_Source\PSoC4/ADC_DMA.h **** static CY_INLINE void ADC_DMA_SetSrcAddress(int32 descriptor, void * srcAddress)
ARM GAS  C:\Users\LAIR\AppData\Local\Temp\ccKUmuWn.s 			page 10


 325:.\Generated_Source\PSoC4/ADC_DMA.h **** {
 326:.\Generated_Source\PSoC4/ADC_DMA.h ****     CyDmaSetSrcAddress(ADC_DMA_CHANNEL, descriptor, srcAddress);
  97              		.loc 2 326 0
  98 001c 0220     		mov	r0, #2
  99 001e 0021     		mov	r1, #0
 100 0020 2A1C     		mov	r2, r5
 101 0022 FFF7FEFF 		bl	CyDmaSetSrcAddress
 102              	.LVL3:
 103              	.LBE11:
 104              	.LBE10:
 105              	.LBB12:
 106              	.LBB13:
 327:.\Generated_Source\PSoC4/ADC_DMA.h **** }
 328:.\Generated_Source\PSoC4/ADC_DMA.h **** 
 329:.\Generated_Source\PSoC4/ADC_DMA.h **** 
 330:.\Generated_Source\PSoC4/ADC_DMA.h **** /*******************************************************************************
 331:.\Generated_Source\PSoC4/ADC_DMA.h **** * Function Name: ADC_DMA_GetSrcAddress
 332:.\Generated_Source\PSoC4/ADC_DMA.h **** ********************************************************************************
 333:.\Generated_Source\PSoC4/ADC_DMA.h **** *
 334:.\Generated_Source\PSoC4/ADC_DMA.h **** * Summary:
 335:.\Generated_Source\PSoC4/ADC_DMA.h **** *  Returns the source address for the specified descriptor, set by either 
 336:.\Generated_Source\PSoC4/ADC_DMA.h **** *  ADC_DMA_Start() or ADC_DMA_SetSrcAddress().
 337:.\Generated_Source\PSoC4/ADC_DMA.h **** *
 338:.\Generated_Source\PSoC4/ADC_DMA.h **** * Parameters:
 339:.\Generated_Source\PSoC4/ADC_DMA.h **** *  descriptor: Specifies descriptor (0 or 1) used by this function.
 340:.\Generated_Source\PSoC4/ADC_DMA.h **** *                   
 341:.\Generated_Source\PSoC4/ADC_DMA.h **** * Return:
 342:.\Generated_Source\PSoC4/ADC_DMA.h **** *  Source address written to specified descriptor.
 343:.\Generated_Source\PSoC4/ADC_DMA.h **** *
 344:.\Generated_Source\PSoC4/ADC_DMA.h **** *******************************************************************************/
 345:.\Generated_Source\PSoC4/ADC_DMA.h **** static CY_INLINE void * ADC_DMA_GetSrcAddress(int32 descriptor)
 346:.\Generated_Source\PSoC4/ADC_DMA.h **** {
 347:.\Generated_Source\PSoC4/ADC_DMA.h ****     return (CyDmaGetSrcAddress(ADC_DMA_CHANNEL, descriptor));
 348:.\Generated_Source\PSoC4/ADC_DMA.h **** }
 349:.\Generated_Source\PSoC4/ADC_DMA.h **** 
 350:.\Generated_Source\PSoC4/ADC_DMA.h **** 
 351:.\Generated_Source\PSoC4/ADC_DMA.h **** /*******************************************************************************
 352:.\Generated_Source\PSoC4/ADC_DMA.h **** * Function Name: ADC_DMA_SetDstAddress
 353:.\Generated_Source\PSoC4/ADC_DMA.h **** ********************************************************************************
 354:.\Generated_Source\PSoC4/ADC_DMA.h **** *
 355:.\Generated_Source\PSoC4/ADC_DMA.h **** * Summary:
 356:.\Generated_Source\PSoC4/ADC_DMA.h **** *  Configures the destination address for the specified descriptor.
 357:.\Generated_Source\PSoC4/ADC_DMA.h **** *
 358:.\Generated_Source\PSoC4/ADC_DMA.h **** * Parameters:
 359:.\Generated_Source\PSoC4/ADC_DMA.h **** *  descriptor: Descriptor (0 or 1) modified by this function.
 360:.\Generated_Source\PSoC4/ADC_DMA.h **** *  dstAddress: Address of DMA transfer destination.
 361:.\Generated_Source\PSoC4/ADC_DMA.h **** *                   
 362:.\Generated_Source\PSoC4/ADC_DMA.h **** * Return:
 363:.\Generated_Source\PSoC4/ADC_DMA.h **** *  None.
 364:.\Generated_Source\PSoC4/ADC_DMA.h **** *
 365:.\Generated_Source\PSoC4/ADC_DMA.h **** * Side effect:
 366:.\Generated_Source\PSoC4/ADC_DMA.h **** *  This function should not be called when the specified descriptor is active
 367:.\Generated_Source\PSoC4/ADC_DMA.h **** *  in the DMA transfer engine. This can be checked by calling CyDmaGetStatus(). 
 368:.\Generated_Source\PSoC4/ADC_DMA.h **** *
 369:.\Generated_Source\PSoC4/ADC_DMA.h **** *******************************************************************************/
 370:.\Generated_Source\PSoC4/ADC_DMA.h **** static CY_INLINE void ADC_DMA_SetDstAddress(int32 descriptor, void * dstAddress)
 371:.\Generated_Source\PSoC4/ADC_DMA.h **** {
ARM GAS  C:\Users\LAIR\AppData\Local\Temp\ccKUmuWn.s 			page 11


 372:.\Generated_Source\PSoC4/ADC_DMA.h ****     CyDmaSetDstAddress(ADC_DMA_CHANNEL, descriptor, dstAddress);
 107              		.loc 2 372 0
 108 0026 0220     		mov	r0, #2
 109 0028 0021     		mov	r1, #0
 110 002a 221C     		mov	r2, r4
 111 002c FFF7FEFF 		bl	CyDmaSetDstAddress
 112              	.LVL4:
 113              	.LBE13:
 114              	.LBE12:
 115              	.LBB14:
 116              	.LBB15:
 279:.\Generated_Source\PSoC4/ADC_DMA.h **** }
 117              		.loc 2 279 0
 118 0030 0220     		mov	r0, #2
 119 0032 0021     		mov	r1, #0
 120 0034 FFF7FEFF 		bl	CyDmaValidateDescriptor
 121              	.LVL5:
 122              	.LBE15:
 123              	.LBE14:
 124              	.LBB16:
 125              	.LBB17:
  96:.\Generated_Source\PSoC4/ADC_DMA.h **** }
 126              		.loc 2 96 0
 127 0038 0220     		mov	r0, #2
 128 003a FFF7FEFF 		bl	CyDmaChEnable
 129              	.LVL6:
 130              	.LBE17:
 131              	.LBE16:
  51:.\Generated_Source\PSoC4/ADC_DMA.c **** 
 132              		.loc 1 51 0
 133              		@ sp needed
 134              	.LVL7:
 135              	.LVL8:
 136 003e 38BD     		pop	{r3, r4, r5, pc}
 137              	.L7:
 138              		.align	2
 139              	.L6:
 140 0040 00000000 		.word	.LANCHOR0
 141              		.cfi_endproc
 142              	.LFE32:
 143              		.size	ADC_DMA_Start, .-ADC_DMA_Start
 144              		.global	ADC_DMA_initVar
 145              		.bss
 146              		.set	.LANCHOR0,. + 0
 147              		.type	ADC_DMA_initVar, %object
 148              		.size	ADC_DMA_initVar, 1
 149              	ADC_DMA_initVar:
 150 0000 00       		.space	1
 151              		.text
 152              	.Letext0:
 153              		.file 3 ".\\Generated_Source\\PSoC4\\cytypes.h"
 154              		.file 4 ".\\Generated_Source\\PSoC4\\CyDMA.h"