ARM GAS  C:\Users\LAIR\AppData\Local\Temp\ccE6w4yy.s 			page 1


   1              		.cpu cortex-m0
   2              		.fpu softvfp
   3              		.eabi_attribute 20, 1
   4              		.eabi_attribute 21, 1
   5              		.eabi_attribute 23, 3
   6              		.eabi_attribute 24, 1
   7              		.eabi_attribute 25, 1
   8              		.eabi_attribute 26, 1
   9              		.eabi_attribute 30, 1
  10              		.eabi_attribute 34, 0
  11              		.eabi_attribute 18, 4
  12              		.code	16
  13              		.file	"cyfitter_cfg.c"
  14              		.text
  15              	.Ltext0:
  16              		.cfi_sections	.debug_frame
  17              		.section	.text.cfg_write_bytes32,"ax",%progbits
  18              		.align	2
  19              		.code	16
  20              		.thumb_func
  21              		.type	cfg_write_bytes32, %function
  22              	cfg_write_bytes32:
  23              	.LFB4:
  24              		.file 1 ".\\Generated_Source\\PSoC4\\cyfitter_cfg.c"
   1:.\Generated_Source\PSoC4/cyfitter_cfg.c **** /*******************************************************************************
   2:.\Generated_Source\PSoC4/cyfitter_cfg.c **** * File Name: cyfitter_cfg.c
   3:.\Generated_Source\PSoC4/cyfitter_cfg.c **** * 
   4:.\Generated_Source\PSoC4/cyfitter_cfg.c **** * PSoC Creator  3.3 CP3
   5:.\Generated_Source\PSoC4/cyfitter_cfg.c **** *
   6:.\Generated_Source\PSoC4/cyfitter_cfg.c **** * Description:
   7:.\Generated_Source\PSoC4/cyfitter_cfg.c **** * This file contains device initialization code.
   8:.\Generated_Source\PSoC4/cyfitter_cfg.c **** * Except for the user defined sections in CyClockStartupError(), this file should not be modified.
   9:.\Generated_Source\PSoC4/cyfitter_cfg.c **** * This file is automatically generated by PSoC Creator.
  10:.\Generated_Source\PSoC4/cyfitter_cfg.c **** *
  11:.\Generated_Source\PSoC4/cyfitter_cfg.c **** ********************************************************************************
  12:.\Generated_Source\PSoC4/cyfitter_cfg.c **** * Copyright (c) 2007-2016 Cypress Semiconductor.  All rights reserved.
  13:.\Generated_Source\PSoC4/cyfitter_cfg.c **** * You may use this file only in accordance with the license, terms, conditions, 
  14:.\Generated_Source\PSoC4/cyfitter_cfg.c **** * disclaimers, and limitations in the end user license agreement accompanying 
  15:.\Generated_Source\PSoC4/cyfitter_cfg.c **** * the software package with which this file was provided.
  16:.\Generated_Source\PSoC4/cyfitter_cfg.c **** ********************************************************************************/
  17:.\Generated_Source\PSoC4/cyfitter_cfg.c **** 
  18:.\Generated_Source\PSoC4/cyfitter_cfg.c **** #include <string.h>
  19:.\Generated_Source\PSoC4/cyfitter_cfg.c **** #include "cytypes.h"
  20:.\Generated_Source\PSoC4/cyfitter_cfg.c **** #include "cydevice_trm.h"
  21:.\Generated_Source\PSoC4/cyfitter_cfg.c **** #include "cyfitter.h"
  22:.\Generated_Source\PSoC4/cyfitter_cfg.c **** #include "CyLib.h"
  23:.\Generated_Source\PSoC4/cyfitter_cfg.c **** #include "CyLFClk.h"
  24:.\Generated_Source\PSoC4/cyfitter_cfg.c **** #include "cyfitter_cfg.h"
  25:.\Generated_Source\PSoC4/cyfitter_cfg.c **** 
  26:.\Generated_Source\PSoC4/cyfitter_cfg.c **** 
  27:.\Generated_Source\PSoC4/cyfitter_cfg.c **** #if defined(__GNUC__) || defined(__ARMCC_VERSION)
  28:.\Generated_Source\PSoC4/cyfitter_cfg.c ****     #define CYPACKED 
  29:.\Generated_Source\PSoC4/cyfitter_cfg.c ****     #define CYPACKED_ATTR __attribute__ ((packed))
  30:.\Generated_Source\PSoC4/cyfitter_cfg.c ****     #define CYALIGNED __attribute__ ((aligned))
  31:.\Generated_Source\PSoC4/cyfitter_cfg.c ****     #define CY_CFG_UNUSED __attribute__ ((unused))
  32:.\Generated_Source\PSoC4/cyfitter_cfg.c ****     #ifndef CY_CFG_SECTION
  33:.\Generated_Source\PSoC4/cyfitter_cfg.c ****         #define CY_CFG_SECTION __attribute__ ((section(".psocinit")))
ARM GAS  C:\Users\LAIR\AppData\Local\Temp\ccE6w4yy.s 			page 2


  34:.\Generated_Source\PSoC4/cyfitter_cfg.c ****     #endif
  35:.\Generated_Source\PSoC4/cyfitter_cfg.c ****     
  36:.\Generated_Source\PSoC4/cyfitter_cfg.c ****     #if defined(__ARMCC_VERSION)
  37:.\Generated_Source\PSoC4/cyfitter_cfg.c ****         #define CY_CFG_MEMORY_BARRIER() __memory_changed()
  38:.\Generated_Source\PSoC4/cyfitter_cfg.c ****     #else
  39:.\Generated_Source\PSoC4/cyfitter_cfg.c ****         #define CY_CFG_MEMORY_BARRIER() __sync_synchronize()
  40:.\Generated_Source\PSoC4/cyfitter_cfg.c ****     #endif
  41:.\Generated_Source\PSoC4/cyfitter_cfg.c ****     
  42:.\Generated_Source\PSoC4/cyfitter_cfg.c **** #elif defined(__ICCARM__)
  43:.\Generated_Source\PSoC4/cyfitter_cfg.c ****     #include <intrinsics.h>
  44:.\Generated_Source\PSoC4/cyfitter_cfg.c **** 
  45:.\Generated_Source\PSoC4/cyfitter_cfg.c ****     #define CYPACKED __packed
  46:.\Generated_Source\PSoC4/cyfitter_cfg.c ****     #define CYPACKED_ATTR 
  47:.\Generated_Source\PSoC4/cyfitter_cfg.c ****     #define CYALIGNED _Pragma("data_alignment=4")
  48:.\Generated_Source\PSoC4/cyfitter_cfg.c ****     #define CY_CFG_UNUSED _Pragma("diag_suppress=Pe177")
  49:.\Generated_Source\PSoC4/cyfitter_cfg.c ****     #define CY_CFG_SECTION _Pragma("location=\".psocinit\"")
  50:.\Generated_Source\PSoC4/cyfitter_cfg.c ****     
  51:.\Generated_Source\PSoC4/cyfitter_cfg.c ****     #define CY_CFG_MEMORY_BARRIER() __DMB()
  52:.\Generated_Source\PSoC4/cyfitter_cfg.c ****     
  53:.\Generated_Source\PSoC4/cyfitter_cfg.c **** #else
  54:.\Generated_Source\PSoC4/cyfitter_cfg.c ****     #error Unsupported toolchain
  55:.\Generated_Source\PSoC4/cyfitter_cfg.c **** #endif
  56:.\Generated_Source\PSoC4/cyfitter_cfg.c **** 
  57:.\Generated_Source\PSoC4/cyfitter_cfg.c **** 
  58:.\Generated_Source\PSoC4/cyfitter_cfg.c **** CY_CFG_UNUSED
  59:.\Generated_Source\PSoC4/cyfitter_cfg.c **** static void CYMEMZERO(void *s, size_t n);
  60:.\Generated_Source\PSoC4/cyfitter_cfg.c **** CY_CFG_UNUSED
  61:.\Generated_Source\PSoC4/cyfitter_cfg.c **** static void CYMEMZERO(void *s, size_t n)
  62:.\Generated_Source\PSoC4/cyfitter_cfg.c **** {
  63:.\Generated_Source\PSoC4/cyfitter_cfg.c **** 	(void)memset(s, 0, n);
  64:.\Generated_Source\PSoC4/cyfitter_cfg.c **** }
  65:.\Generated_Source\PSoC4/cyfitter_cfg.c **** CY_CFG_UNUSED
  66:.\Generated_Source\PSoC4/cyfitter_cfg.c **** static void CYCONFIGCPY(void *dest, const void *src, size_t n);
  67:.\Generated_Source\PSoC4/cyfitter_cfg.c **** CY_CFG_UNUSED
  68:.\Generated_Source\PSoC4/cyfitter_cfg.c **** static void CYCONFIGCPY(void *dest, const void *src, size_t n)
  69:.\Generated_Source\PSoC4/cyfitter_cfg.c **** {
  70:.\Generated_Source\PSoC4/cyfitter_cfg.c **** 	(void)memcpy(dest, src, n);
  71:.\Generated_Source\PSoC4/cyfitter_cfg.c **** }
  72:.\Generated_Source\PSoC4/cyfitter_cfg.c **** CY_CFG_UNUSED
  73:.\Generated_Source\PSoC4/cyfitter_cfg.c **** static void CYCONFIGCPYCODE(void *dest, const void *src, size_t n);
  74:.\Generated_Source\PSoC4/cyfitter_cfg.c **** CY_CFG_UNUSED
  75:.\Generated_Source\PSoC4/cyfitter_cfg.c **** static void CYCONFIGCPYCODE(void *dest, const void *src, size_t n)
  76:.\Generated_Source\PSoC4/cyfitter_cfg.c **** {
  77:.\Generated_Source\PSoC4/cyfitter_cfg.c **** 	(void)memcpy(dest, src, n);
  78:.\Generated_Source\PSoC4/cyfitter_cfg.c **** }
  79:.\Generated_Source\PSoC4/cyfitter_cfg.c **** 
  80:.\Generated_Source\PSoC4/cyfitter_cfg.c **** 
  81:.\Generated_Source\PSoC4/cyfitter_cfg.c **** 
  82:.\Generated_Source\PSoC4/cyfitter_cfg.c **** /* Clock startup error codes                                                   */
  83:.\Generated_Source\PSoC4/cyfitter_cfg.c **** #define CYCLOCKSTART_NO_ERROR    0u
  84:.\Generated_Source\PSoC4/cyfitter_cfg.c **** #define CYCLOCKSTART_XTAL_ERROR  1u
  85:.\Generated_Source\PSoC4/cyfitter_cfg.c **** #define CYCLOCKSTART_32KHZ_ERROR 2u
  86:.\Generated_Source\PSoC4/cyfitter_cfg.c **** #define CYCLOCKSTART_PLL_ERROR   3u
  87:.\Generated_Source\PSoC4/cyfitter_cfg.c **** 
  88:.\Generated_Source\PSoC4/cyfitter_cfg.c **** #ifdef CY_NEED_CYCLOCKSTARTUPERROR
  89:.\Generated_Source\PSoC4/cyfitter_cfg.c **** /*******************************************************************************
  90:.\Generated_Source\PSoC4/cyfitter_cfg.c **** * Function Name: CyClockStartupError
ARM GAS  C:\Users\LAIR\AppData\Local\Temp\ccE6w4yy.s 			page 3


  91:.\Generated_Source\PSoC4/cyfitter_cfg.c **** ********************************************************************************
  92:.\Generated_Source\PSoC4/cyfitter_cfg.c **** * Summary:
  93:.\Generated_Source\PSoC4/cyfitter_cfg.c **** *  If an error is encountered during clock configuration (crystal startup error,
  94:.\Generated_Source\PSoC4/cyfitter_cfg.c **** *  PLL lock error, etc.), the system will end up here.  Unless reimplemented by
  95:.\Generated_Source\PSoC4/cyfitter_cfg.c **** *  the customer, this function will stop in an infinite loop.
  96:.\Generated_Source\PSoC4/cyfitter_cfg.c **** *
  97:.\Generated_Source\PSoC4/cyfitter_cfg.c **** * Parameters:
  98:.\Generated_Source\PSoC4/cyfitter_cfg.c **** *   void
  99:.\Generated_Source\PSoC4/cyfitter_cfg.c **** *
 100:.\Generated_Source\PSoC4/cyfitter_cfg.c **** * Return:
 101:.\Generated_Source\PSoC4/cyfitter_cfg.c **** *   void
 102:.\Generated_Source\PSoC4/cyfitter_cfg.c **** *
 103:.\Generated_Source\PSoC4/cyfitter_cfg.c **** *******************************************************************************/
 104:.\Generated_Source\PSoC4/cyfitter_cfg.c **** CY_CFG_UNUSED
 105:.\Generated_Source\PSoC4/cyfitter_cfg.c **** static void CyClockStartupError(uint8 errorCode);
 106:.\Generated_Source\PSoC4/cyfitter_cfg.c **** CY_CFG_UNUSED
 107:.\Generated_Source\PSoC4/cyfitter_cfg.c **** static void CyClockStartupError(uint8 errorCode)
 108:.\Generated_Source\PSoC4/cyfitter_cfg.c **** {
 109:.\Generated_Source\PSoC4/cyfitter_cfg.c ****     /* To remove the compiler warning if errorCode not used.                */
 110:.\Generated_Source\PSoC4/cyfitter_cfg.c ****     errorCode = errorCode;
 111:.\Generated_Source\PSoC4/cyfitter_cfg.c **** 
 112:.\Generated_Source\PSoC4/cyfitter_cfg.c ****     /* `#START CyClockStartupError` */
 113:.\Generated_Source\PSoC4/cyfitter_cfg.c **** 
 114:.\Generated_Source\PSoC4/cyfitter_cfg.c ****     /* If we have a clock startup error (bad MHz crystal, PLL lock, etc.),  */
 115:.\Generated_Source\PSoC4/cyfitter_cfg.c ****     /* we will end up here to allow the customer to implement something to  */
 116:.\Generated_Source\PSoC4/cyfitter_cfg.c ****     /* deal with the clock condition.                                       */
 117:.\Generated_Source\PSoC4/cyfitter_cfg.c **** 
 118:.\Generated_Source\PSoC4/cyfitter_cfg.c ****     /* `#END` */
 119:.\Generated_Source\PSoC4/cyfitter_cfg.c **** 
 120:.\Generated_Source\PSoC4/cyfitter_cfg.c ****     /* If nothing else, stop here since the clocks have not started         */
 121:.\Generated_Source\PSoC4/cyfitter_cfg.c ****     /* correctly.                                                           */
 122:.\Generated_Source\PSoC4/cyfitter_cfg.c ****     while(1) {}
 123:.\Generated_Source\PSoC4/cyfitter_cfg.c **** }
 124:.\Generated_Source\PSoC4/cyfitter_cfg.c **** #endif
 125:.\Generated_Source\PSoC4/cyfitter_cfg.c **** 
 126:.\Generated_Source\PSoC4/cyfitter_cfg.c **** #define CY_CFG_BASE_ADDR_COUNT 18u
 127:.\Generated_Source\PSoC4/cyfitter_cfg.c **** CYPACKED typedef struct
 128:.\Generated_Source\PSoC4/cyfitter_cfg.c **** {
 129:.\Generated_Source\PSoC4/cyfitter_cfg.c **** 	uint8 offset;
 130:.\Generated_Source\PSoC4/cyfitter_cfg.c **** 	uint8 value;
 131:.\Generated_Source\PSoC4/cyfitter_cfg.c **** } CYPACKED_ATTR cy_cfg_addrvalue_t;
 132:.\Generated_Source\PSoC4/cyfitter_cfg.c **** 
 133:.\Generated_Source\PSoC4/cyfitter_cfg.c **** 
 134:.\Generated_Source\PSoC4/cyfitter_cfg.c **** 
 135:.\Generated_Source\PSoC4/cyfitter_cfg.c **** /*******************************************************************************
 136:.\Generated_Source\PSoC4/cyfitter_cfg.c **** * Function Name: cfg_write_bytes32
 137:.\Generated_Source\PSoC4/cyfitter_cfg.c **** ********************************************************************************
 138:.\Generated_Source\PSoC4/cyfitter_cfg.c **** * Summary:
 139:.\Generated_Source\PSoC4/cyfitter_cfg.c **** *  This function is used for setting up the chip configuration areas that
 140:.\Generated_Source\PSoC4/cyfitter_cfg.c **** *  contain relatively sparse data.
 141:.\Generated_Source\PSoC4/cyfitter_cfg.c **** *
 142:.\Generated_Source\PSoC4/cyfitter_cfg.c **** * Parameters:
 143:.\Generated_Source\PSoC4/cyfitter_cfg.c **** *   void
 144:.\Generated_Source\PSoC4/cyfitter_cfg.c **** *
 145:.\Generated_Source\PSoC4/cyfitter_cfg.c **** * Return:
 146:.\Generated_Source\PSoC4/cyfitter_cfg.c **** *   void
 147:.\Generated_Source\PSoC4/cyfitter_cfg.c **** *
ARM GAS  C:\Users\LAIR\AppData\Local\Temp\ccE6w4yy.s 			page 4


 148:.\Generated_Source\PSoC4/cyfitter_cfg.c **** *******************************************************************************/
 149:.\Generated_Source\PSoC4/cyfitter_cfg.c **** static void cfg_write_bytes32(const uint32 addr_table[], const cy_cfg_addrvalue_t data_table[]);
 150:.\Generated_Source\PSoC4/cyfitter_cfg.c **** static void cfg_write_bytes32(const uint32 addr_table[], const cy_cfg_addrvalue_t data_table[])
 151:.\Generated_Source\PSoC4/cyfitter_cfg.c **** {
  25              		.loc 1 151 0
  26              		.cfi_startproc
  27              	.LVL0:
  28 0000 F0B5     		push	{r4, r5, r6, r7, lr}
  29              		.cfi_def_cfa_offset 20
  30              		.cfi_offset 4, -20
  31              		.cfi_offset 5, -16
  32              		.cfi_offset 6, -12
  33              		.cfi_offset 7, -8
  34              		.cfi_offset 14, -4
  35              	.LVL1:
 152:.\Generated_Source\PSoC4/cyfitter_cfg.c **** 	/* For 32-bit little-endian architectures */
 153:.\Generated_Source\PSoC4/cyfitter_cfg.c **** 	uint32 i, j = 0u;
  36              		.loc 1 153 0
  37 0002 0025     		mov	r5, #0
 154:.\Generated_Source\PSoC4/cyfitter_cfg.c **** 	for (i = 0u; i < CY_CFG_BASE_ADDR_COUNT; i++)
  38              		.loc 1 154 0
  39 0004 0027     		mov	r7, #0
  40 0006 11E0     		b	.L2
  41              	.LVL2:
  42              	.L5:
  43              	.LBB2:
 155:.\Generated_Source\PSoC4/cyfitter_cfg.c **** 	{
 156:.\Generated_Source\PSoC4/cyfitter_cfg.c **** 		uint32 baseAddr = addr_table[i];
  44              		.loc 1 156 0
  45 0008 BB00     		lsl	r3, r7, #2
  46 000a C658     		ldr	r6, [r0, r3]
  47              	.LVL3:
 157:.\Generated_Source\PSoC4/cyfitter_cfg.c **** 		uint8 count = (uint8)baseAddr;
  48              		.loc 1 157 0
  49 000c F3B2     		uxtb	r3, r6
  50              	.LVL4:
 158:.\Generated_Source\PSoC4/cyfitter_cfg.c **** 		baseAddr &= 0xFFFFFF00u;
  51              		.loc 1 158 0
  52 000e FF22     		mov	r2, #255
  53 0010 9643     		bic	r6, r2
  54              	.LVL5:
 159:.\Generated_Source\PSoC4/cyfitter_cfg.c **** 		while (count != 0u)
  55              		.loc 1 159 0
  56 0012 08E0     		b	.L3
  57              	.L4:
 160:.\Generated_Source\PSoC4/cyfitter_cfg.c **** 		{
 161:.\Generated_Source\PSoC4/cyfitter_cfg.c **** 			CY_SET_XTND_REG8((void CYFAR *)(baseAddr + data_table[j].offset), data_table[j].value);
  58              		.loc 1 161 0
  59 0014 6A00     		lsl	r2, r5, #1
  60 0016 8A18     		add	r2, r1, r2
  61 0018 1478     		ldrb	r4, [r2]
  62 001a A419     		add	r4, r4, r6
  63 001c 5278     		ldrb	r2, [r2, #1]
  64 001e 2270     		strb	r2, [r4]
 162:.\Generated_Source\PSoC4/cyfitter_cfg.c **** 			j++;
  65              		.loc 1 162 0
  66 0020 0135     		add	r5, r5, #1
ARM GAS  C:\Users\LAIR\AppData\Local\Temp\ccE6w4yy.s 			page 5


  67              	.LVL6:
 163:.\Generated_Source\PSoC4/cyfitter_cfg.c **** 			count--;
  68              		.loc 1 163 0
  69 0022 013B     		sub	r3, r3, #1
  70              	.LVL7:
  71 0024 DBB2     		uxtb	r3, r3
  72              	.LVL8:
  73              	.L3:
 159:.\Generated_Source\PSoC4/cyfitter_cfg.c **** 		{
  74              		.loc 1 159 0
  75 0026 002B     		cmp	r3, #0
  76 0028 F4D1     		bne	.L4
  77              	.LBE2:
 154:.\Generated_Source\PSoC4/cyfitter_cfg.c **** 	{
  78              		.loc 1 154 0 discriminator 2
  79 002a 0137     		add	r7, r7, #1
  80              	.LVL9:
  81              	.L2:
 154:.\Generated_Source\PSoC4/cyfitter_cfg.c **** 	{
  82              		.loc 1 154 0 is_stmt 0 discriminator 1
  83 002c 112F     		cmp	r7, #17
  84 002e EBD9     		bls	.L5
 164:.\Generated_Source\PSoC4/cyfitter_cfg.c **** 		}
 165:.\Generated_Source\PSoC4/cyfitter_cfg.c **** 	}
 166:.\Generated_Source\PSoC4/cyfitter_cfg.c **** }
  85              		.loc 1 166 0 is_stmt 1
  86              		@ sp needed
  87              	.LVL10:
  88              	.LVL11:
  89 0030 F0BD     		pop	{r4, r5, r6, r7, pc}
  90              		.cfi_endproc
  91              	.LFE4:
  92              		.size	cfg_write_bytes32, .-cfg_write_bytes32
  93 0032 C046     		.section	.text.CYMEMZERO,"ax",%progbits
  94              		.align	2
  95              		.code	16
  96              		.thumb_func
  97              		.type	CYMEMZERO, %function
  98              	CYMEMZERO:
  99              	.LFB1:
  62:.\Generated_Source\PSoC4/cyfitter_cfg.c **** 	(void)memset(s, 0, n);
 100              		.loc 1 62 0
 101              		.cfi_startproc
 102              	.LVL12:
 103 0000 08B5     		push	{r3, lr}
 104              		.cfi_def_cfa_offset 8
 105              		.cfi_offset 3, -8
 106              		.cfi_offset 14, -4
 107 0002 0A1C     		mov	r2, r1
  63:.\Generated_Source\PSoC4/cyfitter_cfg.c **** }
 108              		.loc 1 63 0
 109 0004 0021     		mov	r1, #0
 110              	.LVL13:
 111 0006 FFF7FEFF 		bl	memset
 112              	.LVL14:
  64:.\Generated_Source\PSoC4/cyfitter_cfg.c **** CY_CFG_UNUSED
 113              		.loc 1 64 0
ARM GAS  C:\Users\LAIR\AppData\Local\Temp\ccE6w4yy.s 			page 6


 114              		@ sp needed
 115 000a 08BD     		pop	{r3, pc}
 116              		.cfi_endproc
 117              	.LFE1:
 118              		.size	CYMEMZERO, .-CYMEMZERO
 119              		.section	.psocinit,"ax",%progbits
 120              		.align	2
 121              		.code	16
 122              		.thumb_func
 123              		.type	ClockSetup, %function
 124              	ClockSetup:
 125              	.LFB5:
 167:.\Generated_Source\PSoC4/cyfitter_cfg.c **** 
 168:.\Generated_Source\PSoC4/cyfitter_cfg.c **** 
 169:.\Generated_Source\PSoC4/cyfitter_cfg.c **** /*******************************************************************************
 170:.\Generated_Source\PSoC4/cyfitter_cfg.c **** * Function Name: ClockSetup
 171:.\Generated_Source\PSoC4/cyfitter_cfg.c **** ********************************************************************************
 172:.\Generated_Source\PSoC4/cyfitter_cfg.c **** *
 173:.\Generated_Source\PSoC4/cyfitter_cfg.c **** * Summary:
 174:.\Generated_Source\PSoC4/cyfitter_cfg.c **** *   Performs the initialization of all of the clocks in the device based on the
 175:.\Generated_Source\PSoC4/cyfitter_cfg.c **** *   settings in the Clock tab of the DWR.  This includes enabling the requested
 176:.\Generated_Source\PSoC4/cyfitter_cfg.c **** *   clocks and setting the necessary dividers to produce the desired frequency. 
 177:.\Generated_Source\PSoC4/cyfitter_cfg.c **** *
 178:.\Generated_Source\PSoC4/cyfitter_cfg.c **** * Parameters:
 179:.\Generated_Source\PSoC4/cyfitter_cfg.c **** *   void
 180:.\Generated_Source\PSoC4/cyfitter_cfg.c **** *
 181:.\Generated_Source\PSoC4/cyfitter_cfg.c **** * Return:
 182:.\Generated_Source\PSoC4/cyfitter_cfg.c **** *   void
 183:.\Generated_Source\PSoC4/cyfitter_cfg.c **** *
 184:.\Generated_Source\PSoC4/cyfitter_cfg.c **** *******************************************************************************/
 185:.\Generated_Source\PSoC4/cyfitter_cfg.c **** static void ClockSetup(void);
 186:.\Generated_Source\PSoC4/cyfitter_cfg.c **** CY_CFG_SECTION
 187:.\Generated_Source\PSoC4/cyfitter_cfg.c **** static void ClockSetup(void)
 188:.\Generated_Source\PSoC4/cyfitter_cfg.c **** {
 126              		.loc 1 188 0
 127              		.cfi_startproc
 128 0000 08B5     		push	{r3, lr}
 129              		.cfi_def_cfa_offset 8
 130              		.cfi_offset 3, -8
 131              		.cfi_offset 14, -4
 189:.\Generated_Source\PSoC4/cyfitter_cfg.c **** 
 190:.\Generated_Source\PSoC4/cyfitter_cfg.c **** 	/* Set Flash Cycles based on max possible frequency in case a glitch occurs during ClockSetup(). *
 191:.\Generated_Source\PSoC4/cyfitter_cfg.c **** 	CY_SET_REG32((void CYXDATA *)(CYREG_CPUSS_FLASH_CTL), (0x0012u));
 132              		.loc 1 191 0
 133 0002 1222     		mov	r2, #18
 134 0004 274B     		ldr	r3, .L8
 135 0006 1A60     		str	r2, [r3]
 192:.\Generated_Source\PSoC4/cyfitter_cfg.c **** 	CySysClkImoEnableUsbLock();
 136              		.loc 1 192 0
 137 0008 FFF7FEFF 		bl	CySysClkImoEnableUsbLock
 138              	.LVL15:
 193:.\Generated_Source\PSoC4/cyfitter_cfg.c **** 	/* Setup and trim IMO based on desired frequency. */
 194:.\Generated_Source\PSoC4/cyfitter_cfg.c **** 	CySysClkWriteImoFreq(48u);
 139              		.loc 1 194 0
 140 000c 3020     		mov	r0, #48
 141 000e FFF7FEFF 		bl	CySysClkWriteImoFreq
 142              	.LVL16:
ARM GAS  C:\Users\LAIR\AppData\Local\Temp\ccE6w4yy.s 			page 7


 195:.\Generated_Source\PSoC4/cyfitter_cfg.c **** 	/* CYDEV_CLK_ILO_CONFIG Starting address: CYDEV_CLK_ILO_CONFIG */
 196:.\Generated_Source\PSoC4/cyfitter_cfg.c **** 	CY_SET_XTND_REG32((void CYFAR *)(CYREG_CLK_ILO_CONFIG), 0x80000006u);
 143              		.loc 1 196 0
 144 0012 254A     		ldr	r2, .L8+4
 145 0014 254B     		ldr	r3, .L8+8
 146 0016 1A60     		str	r2, [r3]
 197:.\Generated_Source\PSoC4/cyfitter_cfg.c **** 
 198:.\Generated_Source\PSoC4/cyfitter_cfg.c **** 
 199:.\Generated_Source\PSoC4/cyfitter_cfg.c **** 	/* Setup phase aligned clocks */
 200:.\Generated_Source\PSoC4/cyfitter_cfg.c **** 	CY_SET_REG32((void *)CYREG_PERI_DIV_16_CTL2, 0x00001700u);
 147              		.loc 1 200 0
 148 0018 B822     		mov	r2, #184
 149 001a 5201     		lsl	r2, r2, #5
 150 001c 244B     		ldr	r3, .L8+12
 151 001e 1A60     		str	r2, [r3]
 201:.\Generated_Source\PSoC4/cyfitter_cfg.c **** 	CY_SET_REG32((void *)CYREG_PERI_DIV_CMD, 0x8000FF42u);
 152              		.loc 1 201 0
 153 0020 244B     		ldr	r3, .L8+16
 154 0022 254A     		ldr	r2, .L8+20
 155 0024 1A60     		str	r2, [r3]
 202:.\Generated_Source\PSoC4/cyfitter_cfg.c **** 	CY_SET_REG32((void *)CYREG_PERI_DIV_16_CTL0, 0x00000100u);
 156              		.loc 1 202 0
 157 0026 8021     		mov	r1, #128
 158 0028 4900     		lsl	r1, r1, #1
 159 002a 244A     		ldr	r2, .L8+24
 160 002c 1160     		str	r1, [r2]
 203:.\Generated_Source\PSoC4/cyfitter_cfg.c **** 	CY_SET_REG32((void *)CYREG_PERI_DIV_CMD, 0x8000FF40u);
 161              		.loc 1 203 0
 162 002e 244A     		ldr	r2, .L8+28
 163 0030 1A60     		str	r2, [r3]
 204:.\Generated_Source\PSoC4/cyfitter_cfg.c **** 	CY_SET_REG32((void *)CYREG_PERI_DIV_16_CTL1, 0x00000200u);
 164              		.loc 1 204 0
 165 0032 0131     		add	r1, r1, #1
 166 0034 FF31     		add	r1, r1, #255
 167 0036 234A     		ldr	r2, .L8+32
 168 0038 1160     		str	r1, [r2]
 205:.\Generated_Source\PSoC4/cyfitter_cfg.c **** 	CY_SET_REG32((void *)CYREG_PERI_DIV_CMD, 0x8000FF41u);
 169              		.loc 1 205 0
 170 003a 234A     		ldr	r2, .L8+36
 171 003c 1A60     		str	r2, [r3]
 206:.\Generated_Source\PSoC4/cyfitter_cfg.c **** 	CY_SET_REG32((void *)CYREG_PERI_DIV_16_CTL3, 0x00002200u);
 172              		.loc 1 206 0
 173 003e 8821     		mov	r1, #136
 174 0040 8901     		lsl	r1, r1, #6
 175 0042 224A     		ldr	r2, .L8+40
 176 0044 1160     		str	r1, [r2]
 207:.\Generated_Source\PSoC4/cyfitter_cfg.c **** 	CY_SET_REG32((void *)CYREG_PERI_DIV_CMD, 0x8000FF43u);
 177              		.loc 1 207 0
 178 0046 224A     		ldr	r2, .L8+44
 179 0048 1A60     		str	r2, [r3]
 208:.\Generated_Source\PSoC4/cyfitter_cfg.c **** 
 209:.\Generated_Source\PSoC4/cyfitter_cfg.c **** 	/* CYDEV_CLK_IMO_CONFIG Starting address: CYDEV_CLK_IMO_CONFIG */
 210:.\Generated_Source\PSoC4/cyfitter_cfg.c **** 	CY_SET_XTND_REG32((void CYFAR *)(CYREG_CLK_IMO_CONFIG), 0x82000000u);
 180              		.loc 1 210 0
 181 004a 8222     		mov	r2, #130
 182 004c 1206     		lsl	r2, r2, #24
 183 004e 214B     		ldr	r3, .L8+48
ARM GAS  C:\Users\LAIR\AppData\Local\Temp\ccE6w4yy.s 			page 8


 184 0050 1A60     		str	r2, [r3]
 211:.\Generated_Source\PSoC4/cyfitter_cfg.c **** 
 212:.\Generated_Source\PSoC4/cyfitter_cfg.c **** 	/* CYDEV_CLK_SELECT Starting address: CYDEV_CLK_SELECT */
 213:.\Generated_Source\PSoC4/cyfitter_cfg.c **** 	CY_SET_XTND_REG32((void CYFAR *)(CYREG_CLK_SELECT), 0x00060000u);
 185              		.loc 1 213 0
 186 0052 C022     		mov	r2, #192
 187 0054 D202     		lsl	r2, r2, #11
 188 0056 204B     		ldr	r3, .L8+52
 189 0058 1A60     		str	r2, [r3]
 214:.\Generated_Source\PSoC4/cyfitter_cfg.c **** 
 215:.\Generated_Source\PSoC4/cyfitter_cfg.c **** 	/* CYDEV_PERI_PCLK_CTL19 Starting address: CYDEV_PERI_PCLK_CTL19 */
 216:.\Generated_Source\PSoC4/cyfitter_cfg.c **** 	CY_SET_XTND_REG32((void CYFAR *)(CYREG_PERI_PCLK_CTL19), 0x00000042u);
 190              		.loc 1 216 0
 191 005a 4222     		mov	r2, #66
 192 005c 1F4B     		ldr	r3, .L8+56
 193 005e 1A60     		str	r2, [r3]
 217:.\Generated_Source\PSoC4/cyfitter_cfg.c **** 
 218:.\Generated_Source\PSoC4/cyfitter_cfg.c **** 	/* CYDEV_PERI_PCLK_CTL18 Starting address: CYDEV_PERI_PCLK_CTL18 */
 219:.\Generated_Source\PSoC4/cyfitter_cfg.c **** 	CY_SET_XTND_REG32((void CYFAR *)(CYREG_PERI_PCLK_CTL18), 0x00000040u);
 194              		.loc 1 219 0
 195 0060 4023     		mov	r3, #64
 196 0062 1F4A     		ldr	r2, .L8+60
 197 0064 1360     		str	r3, [r2]
 220:.\Generated_Source\PSoC4/cyfitter_cfg.c **** 
 221:.\Generated_Source\PSoC4/cyfitter_cfg.c **** 	/* CYDEV_PERI_PCLK_CTL17 Starting address: CYDEV_PERI_PCLK_CTL17 */
 222:.\Generated_Source\PSoC4/cyfitter_cfg.c **** 	CY_SET_XTND_REG32((void CYFAR *)(CYREG_PERI_PCLK_CTL17), 0x00000040u);
 198              		.loc 1 222 0
 199 0066 1F4A     		ldr	r2, .L8+64
 200 0068 1360     		str	r3, [r2]
 223:.\Generated_Source\PSoC4/cyfitter_cfg.c **** 
 224:.\Generated_Source\PSoC4/cyfitter_cfg.c **** 	/* CYDEV_PERI_PCLK_CTL16 Starting address: CYDEV_PERI_PCLK_CTL16 */
 225:.\Generated_Source\PSoC4/cyfitter_cfg.c **** 	CY_SET_XTND_REG32((void CYFAR *)(CYREG_PERI_PCLK_CTL16), 0x00000040u);
 201              		.loc 1 225 0
 202 006a 1F4A     		ldr	r2, .L8+68
 203 006c 1360     		str	r3, [r2]
 226:.\Generated_Source\PSoC4/cyfitter_cfg.c **** 
 227:.\Generated_Source\PSoC4/cyfitter_cfg.c **** 	/* CYDEV_PERI_PCLK_CTL15 Starting address: CYDEV_PERI_PCLK_CTL15 */
 228:.\Generated_Source\PSoC4/cyfitter_cfg.c **** 	CY_SET_XTND_REG32((void CYFAR *)(CYREG_PERI_PCLK_CTL15), 0x00000040u);
 204              		.loc 1 228 0
 205 006e 1F4A     		ldr	r2, .L8+72
 206 0070 1360     		str	r3, [r2]
 229:.\Generated_Source\PSoC4/cyfitter_cfg.c **** 
 230:.\Generated_Source\PSoC4/cyfitter_cfg.c **** 	/* CYDEV_PERI_PCLK_CTL14 Starting address: CYDEV_PERI_PCLK_CTL14 */
 231:.\Generated_Source\PSoC4/cyfitter_cfg.c **** 	CY_SET_XTND_REG32((void CYFAR *)(CYREG_PERI_PCLK_CTL14), 0x00000040u);
 207              		.loc 1 231 0
 208 0072 1F4A     		ldr	r2, .L8+76
 209 0074 1360     		str	r3, [r2]
 232:.\Generated_Source\PSoC4/cyfitter_cfg.c **** 
 233:.\Generated_Source\PSoC4/cyfitter_cfg.c **** 	/* CYDEV_PERI_PCLK_CTL13 Starting address: CYDEV_PERI_PCLK_CTL13 */
 234:.\Generated_Source\PSoC4/cyfitter_cfg.c **** 	CY_SET_XTND_REG32((void CYFAR *)(CYREG_PERI_PCLK_CTL13), 0x00000040u);
 210              		.loc 1 234 0
 211 0076 1F4A     		ldr	r2, .L8+80
 212 0078 1360     		str	r3, [r2]
 235:.\Generated_Source\PSoC4/cyfitter_cfg.c **** 
 236:.\Generated_Source\PSoC4/cyfitter_cfg.c **** 	/* CYDEV_PERI_PCLK_CTL12 Starting address: CYDEV_PERI_PCLK_CTL12 */
 237:.\Generated_Source\PSoC4/cyfitter_cfg.c **** 	CY_SET_XTND_REG32((void CYFAR *)(CYREG_PERI_PCLK_CTL12), 0x00000040u);
 213              		.loc 1 237 0
ARM GAS  C:\Users\LAIR\AppData\Local\Temp\ccE6w4yy.s 			page 9


 214 007a 1F4A     		ldr	r2, .L8+84
 215 007c 1360     		str	r3, [r2]
 238:.\Generated_Source\PSoC4/cyfitter_cfg.c **** 
 239:.\Generated_Source\PSoC4/cyfitter_cfg.c **** 	/* CYDEV_PERI_PCLK_CTL11 Starting address: CYDEV_PERI_PCLK_CTL11 */
 240:.\Generated_Source\PSoC4/cyfitter_cfg.c **** 	CY_SET_XTND_REG32((void CYFAR *)(CYREG_PERI_PCLK_CTL11), 0x00000040u);
 216              		.loc 1 240 0
 217 007e 1F4A     		ldr	r2, .L8+88
 218 0080 1360     		str	r3, [r2]
 241:.\Generated_Source\PSoC4/cyfitter_cfg.c **** 
 242:.\Generated_Source\PSoC4/cyfitter_cfg.c **** 	/* CYDEV_PERI_PCLK_CTL10 Starting address: CYDEV_PERI_PCLK_CTL10 */
 243:.\Generated_Source\PSoC4/cyfitter_cfg.c **** 	CY_SET_XTND_REG32((void CYFAR *)(CYREG_PERI_PCLK_CTL10), 0x00000041u);
 219              		.loc 1 243 0
 220 0082 4122     		mov	r2, #65
 221 0084 1E4B     		ldr	r3, .L8+92
 222 0086 1A60     		str	r2, [r3]
 244:.\Generated_Source\PSoC4/cyfitter_cfg.c **** 
 245:.\Generated_Source\PSoC4/cyfitter_cfg.c **** 	/* CYDEV_PERI_PCLK_CTL2 Starting address: CYDEV_PERI_PCLK_CTL2 */
 246:.\Generated_Source\PSoC4/cyfitter_cfg.c **** 	CY_SET_XTND_REG32((void CYFAR *)(CYREG_PERI_PCLK_CTL2), 0x00000043u);
 223              		.loc 1 246 0
 224 0088 0232     		add	r2, r2, #2
 225 008a 1E4B     		ldr	r3, .L8+96
 226 008c 1A60     		str	r2, [r3]
 247:.\Generated_Source\PSoC4/cyfitter_cfg.c **** 
 248:.\Generated_Source\PSoC4/cyfitter_cfg.c **** 	(void)CyIntSetVector(8u, &CySysWdtIsr);
 227              		.loc 1 248 0
 228 008e 0820     		mov	r0, #8
 229 0090 1D49     		ldr	r1, .L8+100
 230 0092 FFF7FEFF 		bl	CyIntSetVector
 231              	.LVL17:
 249:.\Generated_Source\PSoC4/cyfitter_cfg.c **** 	CyIntEnable(8u);
 232              		.loc 1 249 0
 233 0096 0820     		mov	r0, #8
 234 0098 FFF7FEFF 		bl	CyIntEnable
 235              	.LVL18:
 250:.\Generated_Source\PSoC4/cyfitter_cfg.c **** 	CY_SET_XTND_REG32((void CYFAR *)(CYREG_WDT_CONFIG), 0x00000000u);
 236              		.loc 1 250 0
 237 009c 0022     		mov	r2, #0
 238 009e 1B4B     		ldr	r3, .L8+104
 239 00a0 1A60     		str	r2, [r3]
 251:.\Generated_Source\PSoC4/cyfitter_cfg.c **** }
 240              		.loc 1 251 0
 241              		@ sp needed
 242 00a2 08BD     		pop	{r3, pc}
 243              	.L9:
 244              		.align	2
 245              	.L8:
 246 00a4 30001040 		.word	1074790448
 247 00a8 06000080 		.word	-2147483642
 248 00ac 04010B40 		.word	1074462980
 249 00b0 08030140 		.word	1073808136
 250 00b4 00000140 		.word	1073807360
 251 00b8 42FF0080 		.word	-2147418302
 252 00bc 00030140 		.word	1073808128
 253 00c0 40FF0080 		.word	-2147418304
 254 00c4 04030140 		.word	1073808132
 255 00c8 41FF0080 		.word	-2147418303
 256 00cc 0C030140 		.word	1073808140
ARM GAS  C:\Users\LAIR\AppData\Local\Temp\ccE6w4yy.s 			page 10


 257 00d0 43FF0080 		.word	-2147418301
 258 00d4 08010B40 		.word	1074462984
 259 00d8 00010B40 		.word	1074462976
 260 00dc 4C010140 		.word	1073807692
 261 00e0 48010140 		.word	1073807688
 262 00e4 44010140 		.word	1073807684
 263 00e8 40010140 		.word	1073807680
 264 00ec 3C010140 		.word	1073807676
 265 00f0 38010140 		.word	1073807672
 266 00f4 34010140 		.word	1073807668
 267 00f8 30010140 		.word	1073807664
 268 00fc 2C010140 		.word	1073807660
 269 0100 28010140 		.word	1073807656
 270 0104 08010140 		.word	1073807624
 271 0108 00000000 		.word	CySysWdtIsr
 272 010c 0C020B40 		.word	1074463244
 273              		.cfi_endproc
 274              	.LFE5:
 275              		.size	ClockSetup, .-ClockSetup
 276              		.section	.text.SetAnalogRoutingPumps,"ax",%progbits
 277              		.align	2
 278              		.global	SetAnalogRoutingPumps
 279              		.code	16
 280              		.thumb_func
 281              		.type	SetAnalogRoutingPumps, %function
 282              	SetAnalogRoutingPumps:
 283              	.LFB7:
 252:.\Generated_Source\PSoC4/cyfitter_cfg.c **** 
 253:.\Generated_Source\PSoC4/cyfitter_cfg.c **** 
 254:.\Generated_Source\PSoC4/cyfitter_cfg.c **** /* Analog API Functions */
 255:.\Generated_Source\PSoC4/cyfitter_cfg.c **** 
 256:.\Generated_Source\PSoC4/cyfitter_cfg.c **** 
 257:.\Generated_Source\PSoC4/cyfitter_cfg.c **** /*******************************************************************************
 258:.\Generated_Source\PSoC4/cyfitter_cfg.c **** * Function Name: AnalogSetDefault
 259:.\Generated_Source\PSoC4/cyfitter_cfg.c **** ********************************************************************************
 260:.\Generated_Source\PSoC4/cyfitter_cfg.c **** *
 261:.\Generated_Source\PSoC4/cyfitter_cfg.c **** * Summary:
 262:.\Generated_Source\PSoC4/cyfitter_cfg.c **** *  Sets up the analog portions of the chip to default values based on chip
 263:.\Generated_Source\PSoC4/cyfitter_cfg.c **** *  configuration options from the project.
 264:.\Generated_Source\PSoC4/cyfitter_cfg.c **** *
 265:.\Generated_Source\PSoC4/cyfitter_cfg.c **** * Parameters:
 266:.\Generated_Source\PSoC4/cyfitter_cfg.c **** *  void
 267:.\Generated_Source\PSoC4/cyfitter_cfg.c **** *
 268:.\Generated_Source\PSoC4/cyfitter_cfg.c **** * Return:
 269:.\Generated_Source\PSoC4/cyfitter_cfg.c **** *  void
 270:.\Generated_Source\PSoC4/cyfitter_cfg.c **** *
 271:.\Generated_Source\PSoC4/cyfitter_cfg.c **** *******************************************************************************/
 272:.\Generated_Source\PSoC4/cyfitter_cfg.c **** static void AnalogSetDefault(void);
 273:.\Generated_Source\PSoC4/cyfitter_cfg.c **** static void AnalogSetDefault(void)
 274:.\Generated_Source\PSoC4/cyfitter_cfg.c **** {
 275:.\Generated_Source\PSoC4/cyfitter_cfg.c **** 	CY_SET_XTND_REG32((void CYFAR *)CYREG_CTBM0_DFT_CTRL, 0x00000003u);
 276:.\Generated_Source\PSoC4/cyfitter_cfg.c **** 	CY_SET_XTND_REG32((void CYFAR *)CYREG_CTBM1_DFT_CTRL, 0x00000003u);
 277:.\Generated_Source\PSoC4/cyfitter_cfg.c **** 	CY_SET_XTND_REG32((void CYFAR *)CYREG_SAR_CTRL, 0x80000000u);
 278:.\Generated_Source\PSoC4/cyfitter_cfg.c **** 	CY_SET_XTND_REG32((void CYFAR *)CYREG_SAR_MUX_SWITCH0, 0x000000E8u);
 279:.\Generated_Source\PSoC4/cyfitter_cfg.c **** 	CY_SET_XTND_REG32((void CYFAR *)CYREG_SAR_MUX_SWITCH_HW_CTRL, 0x000000E8u);
 280:.\Generated_Source\PSoC4/cyfitter_cfg.c **** 	CY_SET_XTND_REG32((void CYFAR *)CYREG_PASS_DSAB_DSAB_CTRL, 0x00000000u);
 281:.\Generated_Source\PSoC4/cyfitter_cfg.c **** 	SetAnalogRoutingPumps(1);
ARM GAS  C:\Users\LAIR\AppData\Local\Temp\ccE6w4yy.s 			page 11


 282:.\Generated_Source\PSoC4/cyfitter_cfg.c **** }
 283:.\Generated_Source\PSoC4/cyfitter_cfg.c **** 
 284:.\Generated_Source\PSoC4/cyfitter_cfg.c **** 
 285:.\Generated_Source\PSoC4/cyfitter_cfg.c **** /*******************************************************************************
 286:.\Generated_Source\PSoC4/cyfitter_cfg.c **** * Function Name: SetAnalogRoutingPumps
 287:.\Generated_Source\PSoC4/cyfitter_cfg.c **** ********************************************************************************
 288:.\Generated_Source\PSoC4/cyfitter_cfg.c **** *
 289:.\Generated_Source\PSoC4/cyfitter_cfg.c **** * Summary:
 290:.\Generated_Source\PSoC4/cyfitter_cfg.c **** * Enables or disables the analog pumps feeding analog routing switches.
 291:.\Generated_Source\PSoC4/cyfitter_cfg.c **** * Intended to be called at startup, based on the Vdda system configuration;
 292:.\Generated_Source\PSoC4/cyfitter_cfg.c **** * may be called during operation when the user informs us that the Vdda voltage crossed the pump th
 293:.\Generated_Source\PSoC4/cyfitter_cfg.c **** *
 294:.\Generated_Source\PSoC4/cyfitter_cfg.c **** * Parameters:
 295:.\Generated_Source\PSoC4/cyfitter_cfg.c **** *  enabled - 1 to enable the pumps, 0 to disable the pumps
 296:.\Generated_Source\PSoC4/cyfitter_cfg.c **** *
 297:.\Generated_Source\PSoC4/cyfitter_cfg.c **** * Return:
 298:.\Generated_Source\PSoC4/cyfitter_cfg.c **** *  void
 299:.\Generated_Source\PSoC4/cyfitter_cfg.c **** *
 300:.\Generated_Source\PSoC4/cyfitter_cfg.c **** *******************************************************************************/
 301:.\Generated_Source\PSoC4/cyfitter_cfg.c **** void SetAnalogRoutingPumps(uint8 enabled)
 302:.\Generated_Source\PSoC4/cyfitter_cfg.c **** {
 284              		.loc 1 302 0
 285              		.cfi_startproc
 286              	.LVL19:
 303:.\Generated_Source\PSoC4/cyfitter_cfg.c **** 	uint32 regValue = CY_GET_XTND_REG32((void *)(CYREG_SAR_PUMP_CTRL));
 287              		.loc 1 303 0
 288 0000 064B     		ldr	r3, .L13
 289 0002 1B68     		ldr	r3, [r3]
 290              	.LVL20:
 304:.\Generated_Source\PSoC4/cyfitter_cfg.c **** 	if (enabled != 0u)
 291              		.loc 1 304 0
 292 0004 0028     		cmp	r0, #0
 293 0006 03D0     		beq	.L11
 305:.\Generated_Source\PSoC4/cyfitter_cfg.c **** 	{
 306:.\Generated_Source\PSoC4/cyfitter_cfg.c **** 		regValue |= 0x80000000u;
 294              		.loc 1 306 0
 295 0008 8022     		mov	r2, #128
 296 000a 1206     		lsl	r2, r2, #24
 297 000c 1343     		orr	r3, r2
 298              	.LVL21:
 299 000e 01E0     		b	.L12
 300              	.L11:
 307:.\Generated_Source\PSoC4/cyfitter_cfg.c **** 	}
 308:.\Generated_Source\PSoC4/cyfitter_cfg.c **** 	else
 309:.\Generated_Source\PSoC4/cyfitter_cfg.c **** 	{
 310:.\Generated_Source\PSoC4/cyfitter_cfg.c **** 		regValue &= ~0x80000000u;
 301              		.loc 1 310 0
 302 0010 5B00     		lsl	r3, r3, #1
 303              	.LVL22:
 304 0012 5B08     		lsr	r3, r3, #1
 305              	.LVL23:
 306              	.L12:
 311:.\Generated_Source\PSoC4/cyfitter_cfg.c **** 	}
 312:.\Generated_Source\PSoC4/cyfitter_cfg.c **** 	CY_SET_XTND_REG32((void *)(CYREG_SAR_PUMP_CTRL), regValue);
 307              		.loc 1 312 0
 308 0014 014A     		ldr	r2, .L13
 309 0016 1360     		str	r3, [r2]
ARM GAS  C:\Users\LAIR\AppData\Local\Temp\ccE6w4yy.s 			page 12


 313:.\Generated_Source\PSoC4/cyfitter_cfg.c **** }
 310              		.loc 1 313 0
 311              		@ sp needed
 312 0018 7047     		bx	lr
 313              	.L14:
 314 001a C046     		.align	2
 315              	.L13:
 316 001c 80033A40 		.word	1077543808
 317              		.cfi_endproc
 318              	.LFE7:
 319              		.size	SetAnalogRoutingPumps, .-SetAnalogRoutingPumps
 320              		.section	.text.AnalogSetDefault,"ax",%progbits
 321              		.align	2
 322              		.code	16
 323              		.thumb_func
 324              		.type	AnalogSetDefault, %function
 325              	AnalogSetDefault:
 326              	.LFB6:
 274:.\Generated_Source\PSoC4/cyfitter_cfg.c **** 	CY_SET_XTND_REG32((void CYFAR *)CYREG_CTBM0_DFT_CTRL, 0x00000003u);
 327              		.loc 1 274 0
 328              		.cfi_startproc
 329 0000 08B5     		push	{r3, lr}
 330              		.cfi_def_cfa_offset 8
 331              		.cfi_offset 3, -8
 332              		.cfi_offset 14, -4
 275:.\Generated_Source\PSoC4/cyfitter_cfg.c **** 	CY_SET_XTND_REG32((void CYFAR *)CYREG_CTBM1_DFT_CTRL, 0x00000003u);
 333              		.loc 1 275 0
 334 0002 0323     		mov	r3, #3
 335 0004 094A     		ldr	r2, .L16
 336 0006 1360     		str	r3, [r2]
 276:.\Generated_Source\PSoC4/cyfitter_cfg.c **** 	CY_SET_XTND_REG32((void CYFAR *)CYREG_SAR_CTRL, 0x80000000u);
 337              		.loc 1 276 0
 338 0008 094A     		ldr	r2, .L16+4
 339 000a 1360     		str	r3, [r2]
 277:.\Generated_Source\PSoC4/cyfitter_cfg.c **** 	CY_SET_XTND_REG32((void CYFAR *)CYREG_SAR_MUX_SWITCH0, 0x000000E8u);
 340              		.loc 1 277 0
 341 000c 8022     		mov	r2, #128
 342 000e 1206     		lsl	r2, r2, #24
 343 0010 084B     		ldr	r3, .L16+8
 344 0012 1A60     		str	r2, [r3]
 278:.\Generated_Source\PSoC4/cyfitter_cfg.c **** 	CY_SET_XTND_REG32((void CYFAR *)CYREG_SAR_MUX_SWITCH_HW_CTRL, 0x000000E8u);
 345              		.loc 1 278 0
 346 0014 E823     		mov	r3, #232
 347 0016 084A     		ldr	r2, .L16+12
 348 0018 1360     		str	r3, [r2]
 279:.\Generated_Source\PSoC4/cyfitter_cfg.c **** 	CY_SET_XTND_REG32((void CYFAR *)CYREG_PASS_DSAB_DSAB_CTRL, 0x00000000u);
 349              		.loc 1 279 0
 350 001a 084A     		ldr	r2, .L16+16
 351 001c 1360     		str	r3, [r2]
 280:.\Generated_Source\PSoC4/cyfitter_cfg.c **** 	SetAnalogRoutingPumps(1);
 352              		.loc 1 280 0
 353 001e 0022     		mov	r2, #0
 354 0020 074B     		ldr	r3, .L16+20
 355 0022 1A60     		str	r2, [r3]
 281:.\Generated_Source\PSoC4/cyfitter_cfg.c **** }
 356              		.loc 1 281 0
 357 0024 0120     		mov	r0, #1
ARM GAS  C:\Users\LAIR\AppData\Local\Temp\ccE6w4yy.s 			page 13


 358 0026 FFF7FEFF 		bl	SetAnalogRoutingPumps
 359              	.LVL24:
 282:.\Generated_Source\PSoC4/cyfitter_cfg.c **** 
 360              		.loc 1 282 0
 361              		@ sp needed
 362 002a 08BD     		pop	{r3, pc}
 363              	.L17:
 364              		.align	2
 365              	.L16:
 366 002c 30003040 		.word	1076887600
 367 0030 30003140 		.word	1076953136
 368 0034 00003A40 		.word	1077542912
 369 0038 00033A40 		.word	1077543680
 370 003c 40033A40 		.word	1077543744
 371 0040 000E3F40 		.word	1077874176
 372              		.cfi_endproc
 373              	.LFE6:
 374              		.size	AnalogSetDefault, .-AnalogSetDefault
 375              		.section	.psocinit
 376              		.align	2
 377              		.global	cyfitter_cfg
 378              		.code	16
 379              		.thumb_func
 380              		.type	cyfitter_cfg, %function
 381              	cyfitter_cfg:
 382              	.LFB8:
 314:.\Generated_Source\PSoC4/cyfitter_cfg.c **** 
 315:.\Generated_Source\PSoC4/cyfitter_cfg.c **** #define CY_AMUX_UNUSED CYREG_CM0_ROM_DWT
 316:.\Generated_Source\PSoC4/cyfitter_cfg.c **** 
 317:.\Generated_Source\PSoC4/cyfitter_cfg.c **** 
 318:.\Generated_Source\PSoC4/cyfitter_cfg.c **** /*******************************************************************************
 319:.\Generated_Source\PSoC4/cyfitter_cfg.c **** * Function Name: cyfitter_cfg
 320:.\Generated_Source\PSoC4/cyfitter_cfg.c **** ********************************************************************************
 321:.\Generated_Source\PSoC4/cyfitter_cfg.c **** * Summary:
 322:.\Generated_Source\PSoC4/cyfitter_cfg.c **** *  This function is called by the start-up code for the selected device. It
 323:.\Generated_Source\PSoC4/cyfitter_cfg.c **** *  performs all of the necessary device configuration based on the design
 324:.\Generated_Source\PSoC4/cyfitter_cfg.c **** *  settings.  This includes settings from the Design Wide Resources (DWR) such
 325:.\Generated_Source\PSoC4/cyfitter_cfg.c **** *  as Clocks and Pins as well as any component configuration that is necessary.
 326:.\Generated_Source\PSoC4/cyfitter_cfg.c **** *
 327:.\Generated_Source\PSoC4/cyfitter_cfg.c **** * Parameters:  
 328:.\Generated_Source\PSoC4/cyfitter_cfg.c **** *   void
 329:.\Generated_Source\PSoC4/cyfitter_cfg.c **** *
 330:.\Generated_Source\PSoC4/cyfitter_cfg.c **** * Return:
 331:.\Generated_Source\PSoC4/cyfitter_cfg.c **** *   void
 332:.\Generated_Source\PSoC4/cyfitter_cfg.c **** *
 333:.\Generated_Source\PSoC4/cyfitter_cfg.c **** *******************************************************************************/
 334:.\Generated_Source\PSoC4/cyfitter_cfg.c **** CY_CFG_SECTION
 335:.\Generated_Source\PSoC4/cyfitter_cfg.c **** void cyfitter_cfg(void)
 336:.\Generated_Source\PSoC4/cyfitter_cfg.c **** {
 383              		.loc 1 336 0
 384              		.cfi_startproc
 385 0110 10B5     		push	{r4, lr}
 386              		.cfi_def_cfa_offset 8
 387              		.cfi_offset 4, -8
 388              		.cfi_offset 14, -4
 337:.\Generated_Source\PSoC4/cyfitter_cfg.c **** 	/* Disable interrupts by default. Let user enable if/when they want. */
 338:.\Generated_Source\PSoC4/cyfitter_cfg.c **** 	CyGlobalIntDisable;
ARM GAS  C:\Users\LAIR\AppData\Local\Temp\ccE6w4yy.s 			page 14


 389              		.loc 1 338 0
 390              	@ 338 ".\Generated_Source\PSoC4\cyfitter_cfg.c" 1
 391 0112 72B6     		CPSID   i
 392              	@ 0 "" 2
 339:.\Generated_Source\PSoC4/cyfitter_cfg.c **** 
 340:.\Generated_Source\PSoC4/cyfitter_cfg.c **** 	/* Enable the clock in the interrupt controller for the routed interrupts */
 341:.\Generated_Source\PSoC4/cyfitter_cfg.c **** 	CY_SET_REG8((void *)CYREG_UDB_UDB_INT_CLK_CTL, 0x01u);
 393              		.loc 1 341 0
 394              		.code	16
 395 0114 0122     		mov	r2, #1
 396 0116 5B4B     		ldr	r3, .L21
 397 0118 1A70     		strb	r2, [r3]
 398              	.LVL25:
 399              	.LBB3:
 342:.\Generated_Source\PSoC4/cyfitter_cfg.c **** 	{
 343:.\Generated_Source\PSoC4/cyfitter_cfg.c **** 		static const uint32 CYCODE cy_cfg_addr_table[] = {
 344:.\Generated_Source\PSoC4/cyfitter_cfg.c **** 			0x400F0004u, /* Base address: 0x400F0000 Count: 4 */
 345:.\Generated_Source\PSoC4/cyfitter_cfg.c **** 			0x400F3054u, /* Base address: 0x400F3000 Count: 84 */
 346:.\Generated_Source\PSoC4/cyfitter_cfg.c **** 			0x400F3131u, /* Base address: 0x400F3100 Count: 49 */
 347:.\Generated_Source\PSoC4/cyfitter_cfg.c **** 			0x400F324Fu, /* Base address: 0x400F3200 Count: 79 */
 348:.\Generated_Source\PSoC4/cyfitter_cfg.c **** 			0x400F332Du, /* Base address: 0x400F3300 Count: 45 */
 349:.\Generated_Source\PSoC4/cyfitter_cfg.c **** 			0x400F3451u, /* Base address: 0x400F3400 Count: 81 */
 350:.\Generated_Source\PSoC4/cyfitter_cfg.c **** 			0x400F352Fu, /* Base address: 0x400F3500 Count: 47 */
 351:.\Generated_Source\PSoC4/cyfitter_cfg.c **** 			0x400F3650u, /* Base address: 0x400F3600 Count: 80 */
 352:.\Generated_Source\PSoC4/cyfitter_cfg.c **** 			0x400F3734u, /* Base address: 0x400F3700 Count: 52 */
 353:.\Generated_Source\PSoC4/cyfitter_cfg.c **** 			0x400F4005u, /* Base address: 0x400F4000 Count: 5 */
 354:.\Generated_Source\PSoC4/cyfitter_cfg.c **** 			0x400F4111u, /* Base address: 0x400F4100 Count: 17 */
 355:.\Generated_Source\PSoC4/cyfitter_cfg.c **** 			0x400F4215u, /* Base address: 0x400F4200 Count: 21 */
 356:.\Generated_Source\PSoC4/cyfitter_cfg.c **** 			0x400F430Du, /* Base address: 0x400F4300 Count: 13 */
 357:.\Generated_Source\PSoC4/cyfitter_cfg.c **** 			0x400F440Au, /* Base address: 0x400F4400 Count: 10 */
 358:.\Generated_Source\PSoC4/cyfitter_cfg.c **** 			0x400F451Cu, /* Base address: 0x400F4500 Count: 28 */
 359:.\Generated_Source\PSoC4/cyfitter_cfg.c **** 			0x400F4612u, /* Base address: 0x400F4600 Count: 18 */
 360:.\Generated_Source\PSoC4/cyfitter_cfg.c **** 			0x400F471Au, /* Base address: 0x400F4700 Count: 26 */
 361:.\Generated_Source\PSoC4/cyfitter_cfg.c **** 			0x400F6003u, /* Base address: 0x400F6000 Count: 3 */
 362:.\Generated_Source\PSoC4/cyfitter_cfg.c **** 		};
 363:.\Generated_Source\PSoC4/cyfitter_cfg.c **** 
 364:.\Generated_Source\PSoC4/cyfitter_cfg.c **** 		static const cy_cfg_addrvalue_t CYCODE cy_cfg_data_table[] = {
 365:.\Generated_Source\PSoC4/cyfitter_cfg.c **** 			{0x81u, 0x0Fu},
 366:.\Generated_Source\PSoC4/cyfitter_cfg.c **** 			{0x83u, 0x0Fu},
 367:.\Generated_Source\PSoC4/cyfitter_cfg.c **** 			{0x85u, 0x0Fu},
 368:.\Generated_Source\PSoC4/cyfitter_cfg.c **** 			{0x87u, 0x0Fu},
 369:.\Generated_Source\PSoC4/cyfitter_cfg.c **** 			{0x03u, 0x04u},
 370:.\Generated_Source\PSoC4/cyfitter_cfg.c **** 			{0x07u, 0x03u},
 371:.\Generated_Source\PSoC4/cyfitter_cfg.c **** 			{0x13u, 0x02u},
 372:.\Generated_Source\PSoC4/cyfitter_cfg.c **** 			{0x16u, 0x01u},
 373:.\Generated_Source\PSoC4/cyfitter_cfg.c **** 			{0x17u, 0x04u},
 374:.\Generated_Source\PSoC4/cyfitter_cfg.c **** 			{0x18u, 0x04u},
 375:.\Generated_Source\PSoC4/cyfitter_cfg.c **** 			{0x1Bu, 0x01u},
 376:.\Generated_Source\PSoC4/cyfitter_cfg.c **** 			{0x26u, 0x03u},
 377:.\Generated_Source\PSoC4/cyfitter_cfg.c **** 			{0x2Au, 0x02u},
 378:.\Generated_Source\PSoC4/cyfitter_cfg.c **** 			{0x2Cu, 0x04u},
 379:.\Generated_Source\PSoC4/cyfitter_cfg.c **** 			{0x30u, 0x04u},
 380:.\Generated_Source\PSoC4/cyfitter_cfg.c **** 			{0x33u, 0x03u},
 381:.\Generated_Source\PSoC4/cyfitter_cfg.c **** 			{0x34u, 0x03u},
 382:.\Generated_Source\PSoC4/cyfitter_cfg.c **** 			{0x35u, 0x04u},
 383:.\Generated_Source\PSoC4/cyfitter_cfg.c **** 			{0x38u, 0x02u},
 384:.\Generated_Source\PSoC4/cyfitter_cfg.c **** 			{0x40u, 0x20u},
ARM GAS  C:\Users\LAIR\AppData\Local\Temp\ccE6w4yy.s 			page 15


 385:.\Generated_Source\PSoC4/cyfitter_cfg.c **** 			{0x41u, 0x04u},
 386:.\Generated_Source\PSoC4/cyfitter_cfg.c **** 			{0x49u, 0xFFu},
 387:.\Generated_Source\PSoC4/cyfitter_cfg.c **** 			{0x4Au, 0xFFu},
 388:.\Generated_Source\PSoC4/cyfitter_cfg.c **** 			{0x4Bu, 0xFFu},
 389:.\Generated_Source\PSoC4/cyfitter_cfg.c **** 			{0x4Du, 0xA0u},
 390:.\Generated_Source\PSoC4/cyfitter_cfg.c **** 			{0x4Fu, 0x04u},
 391:.\Generated_Source\PSoC4/cyfitter_cfg.c **** 			{0x50u, 0x18u},
 392:.\Generated_Source\PSoC4/cyfitter_cfg.c **** 			{0x52u, 0x80u},
 393:.\Generated_Source\PSoC4/cyfitter_cfg.c **** 			{0x58u, 0x04u},
 394:.\Generated_Source\PSoC4/cyfitter_cfg.c **** 			{0x59u, 0x04u},
 395:.\Generated_Source\PSoC4/cyfitter_cfg.c **** 			{0x5Au, 0x04u},
 396:.\Generated_Source\PSoC4/cyfitter_cfg.c **** 			{0x5Bu, 0x04u},
 397:.\Generated_Source\PSoC4/cyfitter_cfg.c **** 			{0x5Fu, 0x01u},
 398:.\Generated_Source\PSoC4/cyfitter_cfg.c **** 			{0x60u, 0x40u},
 399:.\Generated_Source\PSoC4/cyfitter_cfg.c **** 			{0x62u, 0xC0u},
 400:.\Generated_Source\PSoC4/cyfitter_cfg.c **** 			{0x64u, 0x40u},
 401:.\Generated_Source\PSoC4/cyfitter_cfg.c **** 			{0x65u, 0x40u},
 402:.\Generated_Source\PSoC4/cyfitter_cfg.c **** 			{0x66u, 0xC0u},
 403:.\Generated_Source\PSoC4/cyfitter_cfg.c **** 			{0x68u, 0xC0u},
 404:.\Generated_Source\PSoC4/cyfitter_cfg.c **** 			{0x6Au, 0xC0u},
 405:.\Generated_Source\PSoC4/cyfitter_cfg.c **** 			{0x6Cu, 0xC0u},
 406:.\Generated_Source\PSoC4/cyfitter_cfg.c **** 			{0x6Eu, 0xC0u},
 407:.\Generated_Source\PSoC4/cyfitter_cfg.c **** 			{0x83u, 0x08u},
 408:.\Generated_Source\PSoC4/cyfitter_cfg.c **** 			{0x84u, 0x02u},
 409:.\Generated_Source\PSoC4/cyfitter_cfg.c **** 			{0x8Bu, 0x04u},
 410:.\Generated_Source\PSoC4/cyfitter_cfg.c **** 			{0x94u, 0x02u},
 411:.\Generated_Source\PSoC4/cyfitter_cfg.c **** 			{0x97u, 0x01u},
 412:.\Generated_Source\PSoC4/cyfitter_cfg.c **** 			{0xA1u, 0x03u},
 413:.\Generated_Source\PSoC4/cyfitter_cfg.c **** 			{0xA2u, 0x01u},
 414:.\Generated_Source\PSoC4/cyfitter_cfg.c **** 			{0xA6u, 0x01u},
 415:.\Generated_Source\PSoC4/cyfitter_cfg.c **** 			{0xABu, 0x02u},
 416:.\Generated_Source\PSoC4/cyfitter_cfg.c **** 			{0xADu, 0x0Cu},
 417:.\Generated_Source\PSoC4/cyfitter_cfg.c **** 			{0xB3u, 0x0Cu},
 418:.\Generated_Source\PSoC4/cyfitter_cfg.c **** 			{0xB4u, 0x01u},
 419:.\Generated_Source\PSoC4/cyfitter_cfg.c **** 			{0xB6u, 0x02u},
 420:.\Generated_Source\PSoC4/cyfitter_cfg.c **** 			{0xB7u, 0x03u},
 421:.\Generated_Source\PSoC4/cyfitter_cfg.c **** 			{0xB8u, 0x80u},
 422:.\Generated_Source\PSoC4/cyfitter_cfg.c **** 			{0xB9u, 0x20u},
 423:.\Generated_Source\PSoC4/cyfitter_cfg.c **** 			{0xBEu, 0x10u},
 424:.\Generated_Source\PSoC4/cyfitter_cfg.c **** 			{0xBFu, 0x10u},
 425:.\Generated_Source\PSoC4/cyfitter_cfg.c **** 			{0xC0u, 0x30u},
 426:.\Generated_Source\PSoC4/cyfitter_cfg.c **** 			{0xC1u, 0x04u},
 427:.\Generated_Source\PSoC4/cyfitter_cfg.c **** 			{0xC5u, 0xD0u},
 428:.\Generated_Source\PSoC4/cyfitter_cfg.c **** 			{0xC6u, 0x42u},
 429:.\Generated_Source\PSoC4/cyfitter_cfg.c **** 			{0xC7u, 0x51u},
 430:.\Generated_Source\PSoC4/cyfitter_cfg.c **** 			{0xC8u, 0x3Fu},
 431:.\Generated_Source\PSoC4/cyfitter_cfg.c **** 			{0xC9u, 0xFFu},
 432:.\Generated_Source\PSoC4/cyfitter_cfg.c **** 			{0xCAu, 0xFFu},
 433:.\Generated_Source\PSoC4/cyfitter_cfg.c **** 			{0xCBu, 0xFFu},
 434:.\Generated_Source\PSoC4/cyfitter_cfg.c **** 			{0xCDu, 0xAFu},
 435:.\Generated_Source\PSoC4/cyfitter_cfg.c **** 			{0xCEu, 0x0Fu},
 436:.\Generated_Source\PSoC4/cyfitter_cfg.c **** 			{0xCFu, 0x04u},
 437:.\Generated_Source\PSoC4/cyfitter_cfg.c **** 			{0xD0u, 0x18u},
 438:.\Generated_Source\PSoC4/cyfitter_cfg.c **** 			{0xD4u, 0x07u},
 439:.\Generated_Source\PSoC4/cyfitter_cfg.c **** 			{0xD8u, 0x04u},
 440:.\Generated_Source\PSoC4/cyfitter_cfg.c **** 			{0xD9u, 0x04u},
 441:.\Generated_Source\PSoC4/cyfitter_cfg.c **** 			{0xDAu, 0x04u},
ARM GAS  C:\Users\LAIR\AppData\Local\Temp\ccE6w4yy.s 			page 16


 442:.\Generated_Source\PSoC4/cyfitter_cfg.c **** 			{0xDBu, 0x04u},
 443:.\Generated_Source\PSoC4/cyfitter_cfg.c **** 			{0xDFu, 0x01u},
 444:.\Generated_Source\PSoC4/cyfitter_cfg.c **** 			{0xE0u, 0x40u},
 445:.\Generated_Source\PSoC4/cyfitter_cfg.c **** 			{0xE2u, 0xC0u},
 446:.\Generated_Source\PSoC4/cyfitter_cfg.c **** 			{0xE4u, 0x40u},
 447:.\Generated_Source\PSoC4/cyfitter_cfg.c **** 			{0xE5u, 0x40u},
 448:.\Generated_Source\PSoC4/cyfitter_cfg.c **** 			{0xE6u, 0xC0u},
 449:.\Generated_Source\PSoC4/cyfitter_cfg.c **** 			{0xE8u, 0xC0u},
 450:.\Generated_Source\PSoC4/cyfitter_cfg.c **** 			{0xEAu, 0xC0u},
 451:.\Generated_Source\PSoC4/cyfitter_cfg.c **** 			{0xECu, 0xC0u},
 452:.\Generated_Source\PSoC4/cyfitter_cfg.c **** 			{0xEEu, 0xC0u},
 453:.\Generated_Source\PSoC4/cyfitter_cfg.c **** 			{0x05u, 0x08u},
 454:.\Generated_Source\PSoC4/cyfitter_cfg.c **** 			{0x09u, 0x10u},
 455:.\Generated_Source\PSoC4/cyfitter_cfg.c **** 			{0x0Au, 0x20u},
 456:.\Generated_Source\PSoC4/cyfitter_cfg.c **** 			{0x0Cu, 0x08u},
 457:.\Generated_Source\PSoC4/cyfitter_cfg.c **** 			{0x10u, 0x0Au},
 458:.\Generated_Source\PSoC4/cyfitter_cfg.c **** 			{0x13u, 0x08u},
 459:.\Generated_Source\PSoC4/cyfitter_cfg.c **** 			{0x16u, 0x80u},
 460:.\Generated_Source\PSoC4/cyfitter_cfg.c **** 			{0x17u, 0x08u},
 461:.\Generated_Source\PSoC4/cyfitter_cfg.c **** 			{0x1Au, 0x04u},
 462:.\Generated_Source\PSoC4/cyfitter_cfg.c **** 			{0x1Bu, 0x02u},
 463:.\Generated_Source\PSoC4/cyfitter_cfg.c **** 			{0x1Eu, 0x08u},
 464:.\Generated_Source\PSoC4/cyfitter_cfg.c **** 			{0x1Fu, 0x80u},
 465:.\Generated_Source\PSoC4/cyfitter_cfg.c **** 			{0x20u, 0x04u},
 466:.\Generated_Source\PSoC4/cyfitter_cfg.c **** 			{0x22u, 0x04u},
 467:.\Generated_Source\PSoC4/cyfitter_cfg.c **** 			{0x23u, 0x08u},
 468:.\Generated_Source\PSoC4/cyfitter_cfg.c **** 			{0x26u, 0x50u},
 469:.\Generated_Source\PSoC4/cyfitter_cfg.c **** 			{0x27u, 0x20u},
 470:.\Generated_Source\PSoC4/cyfitter_cfg.c **** 			{0x2Cu, 0x08u},
 471:.\Generated_Source\PSoC4/cyfitter_cfg.c **** 			{0x2Fu, 0x82u},
 472:.\Generated_Source\PSoC4/cyfitter_cfg.c **** 			{0x30u, 0x22u},
 473:.\Generated_Source\PSoC4/cyfitter_cfg.c **** 			{0x33u, 0x08u},
 474:.\Generated_Source\PSoC4/cyfitter_cfg.c **** 			{0x35u, 0x08u},
 475:.\Generated_Source\PSoC4/cyfitter_cfg.c **** 			{0x38u, 0x06u},
 476:.\Generated_Source\PSoC4/cyfitter_cfg.c **** 			{0x3Du, 0x20u},
 477:.\Generated_Source\PSoC4/cyfitter_cfg.c **** 			{0x3Fu, 0x02u},
 478:.\Generated_Source\PSoC4/cyfitter_cfg.c **** 			{0x40u, 0x04u},
 479:.\Generated_Source\PSoC4/cyfitter_cfg.c **** 			{0x42u, 0x80u},
 480:.\Generated_Source\PSoC4/cyfitter_cfg.c **** 			{0x46u, 0x80u},
 481:.\Generated_Source\PSoC4/cyfitter_cfg.c **** 			{0x47u, 0x08u},
 482:.\Generated_Source\PSoC4/cyfitter_cfg.c **** 			{0x4Du, 0x09u},
 483:.\Generated_Source\PSoC4/cyfitter_cfg.c **** 			{0x4Eu, 0x10u},
 484:.\Generated_Source\PSoC4/cyfitter_cfg.c **** 			{0x54u, 0x2Au},
 485:.\Generated_Source\PSoC4/cyfitter_cfg.c **** 			{0x55u, 0x10u},
 486:.\Generated_Source\PSoC4/cyfitter_cfg.c **** 			{0x56u, 0x80u},
 487:.\Generated_Source\PSoC4/cyfitter_cfg.c **** 			{0x57u, 0x01u},
 488:.\Generated_Source\PSoC4/cyfitter_cfg.c **** 			{0x5Du, 0x01u},
 489:.\Generated_Source\PSoC4/cyfitter_cfg.c **** 			{0x5Eu, 0x88u},
 490:.\Generated_Source\PSoC4/cyfitter_cfg.c **** 			{0x5Fu, 0x20u},
 491:.\Generated_Source\PSoC4/cyfitter_cfg.c **** 			{0x70u, 0x01u},
 492:.\Generated_Source\PSoC4/cyfitter_cfg.c **** 			{0x87u, 0x08u},
 493:.\Generated_Source\PSoC4/cyfitter_cfg.c **** 			{0xC0u, 0x20u},
 494:.\Generated_Source\PSoC4/cyfitter_cfg.c **** 			{0xC2u, 0x26u},
 495:.\Generated_Source\PSoC4/cyfitter_cfg.c **** 			{0xC4u, 0x37u},
 496:.\Generated_Source\PSoC4/cyfitter_cfg.c **** 			{0xCAu, 0xB0u},
 497:.\Generated_Source\PSoC4/cyfitter_cfg.c **** 			{0xCCu, 0x47u},
 498:.\Generated_Source\PSoC4/cyfitter_cfg.c **** 			{0xCEu, 0xA3u},
ARM GAS  C:\Users\LAIR\AppData\Local\Temp\ccE6w4yy.s 			page 17


 499:.\Generated_Source\PSoC4/cyfitter_cfg.c **** 			{0xD0u, 0xC5u},
 500:.\Generated_Source\PSoC4/cyfitter_cfg.c **** 			{0xD6u, 0xF0u},
 501:.\Generated_Source\PSoC4/cyfitter_cfg.c **** 			{0xE6u, 0x02u},
 502:.\Generated_Source\PSoC4/cyfitter_cfg.c **** 			{0x0Bu, 0x03u},
 503:.\Generated_Source\PSoC4/cyfitter_cfg.c **** 			{0x23u, 0x01u},
 504:.\Generated_Source\PSoC4/cyfitter_cfg.c **** 			{0x2Bu, 0x02u},
 505:.\Generated_Source\PSoC4/cyfitter_cfg.c **** 			{0x33u, 0x03u},
 506:.\Generated_Source\PSoC4/cyfitter_cfg.c **** 			{0x40u, 0x60u},
 507:.\Generated_Source\PSoC4/cyfitter_cfg.c **** 			{0x41u, 0x05u},
 508:.\Generated_Source\PSoC4/cyfitter_cfg.c **** 			{0x49u, 0xFFu},
 509:.\Generated_Source\PSoC4/cyfitter_cfg.c **** 			{0x4Au, 0xFFu},
 510:.\Generated_Source\PSoC4/cyfitter_cfg.c **** 			{0x4Bu, 0xFFu},
 511:.\Generated_Source\PSoC4/cyfitter_cfg.c **** 			{0x4Du, 0xA0u},
 512:.\Generated_Source\PSoC4/cyfitter_cfg.c **** 			{0x4Fu, 0x04u},
 513:.\Generated_Source\PSoC4/cyfitter_cfg.c **** 			{0x50u, 0x18u},
 514:.\Generated_Source\PSoC4/cyfitter_cfg.c **** 			{0x59u, 0x04u},
 515:.\Generated_Source\PSoC4/cyfitter_cfg.c **** 			{0x5Au, 0x04u},
 516:.\Generated_Source\PSoC4/cyfitter_cfg.c **** 			{0x5Fu, 0x01u},
 517:.\Generated_Source\PSoC4/cyfitter_cfg.c **** 			{0x60u, 0x40u},
 518:.\Generated_Source\PSoC4/cyfitter_cfg.c **** 			{0x62u, 0xC0u},
 519:.\Generated_Source\PSoC4/cyfitter_cfg.c **** 			{0x64u, 0x40u},
 520:.\Generated_Source\PSoC4/cyfitter_cfg.c **** 			{0x65u, 0x40u},
 521:.\Generated_Source\PSoC4/cyfitter_cfg.c **** 			{0x66u, 0xC0u},
 522:.\Generated_Source\PSoC4/cyfitter_cfg.c **** 			{0x68u, 0xC0u},
 523:.\Generated_Source\PSoC4/cyfitter_cfg.c **** 			{0x6Au, 0xC0u},
 524:.\Generated_Source\PSoC4/cyfitter_cfg.c **** 			{0x6Cu, 0xC0u},
 525:.\Generated_Source\PSoC4/cyfitter_cfg.c **** 			{0x6Eu, 0xC0u},
 526:.\Generated_Source\PSoC4/cyfitter_cfg.c **** 			{0x82u, 0x01u},
 527:.\Generated_Source\PSoC4/cyfitter_cfg.c **** 			{0x86u, 0x0Eu},
 528:.\Generated_Source\PSoC4/cyfitter_cfg.c **** 			{0x89u, 0x04u},
 529:.\Generated_Source\PSoC4/cyfitter_cfg.c **** 			{0x8Bu, 0x08u},
 530:.\Generated_Source\PSoC4/cyfitter_cfg.c **** 			{0x8Eu, 0x02u},
 531:.\Generated_Source\PSoC4/cyfitter_cfg.c **** 			{0x91u, 0x18u},
 532:.\Generated_Source\PSoC4/cyfitter_cfg.c **** 			{0x92u, 0x01u},
 533:.\Generated_Source\PSoC4/cyfitter_cfg.c **** 			{0x97u, 0x02u},
 534:.\Generated_Source\PSoC4/cyfitter_cfg.c **** 			{0x99u, 0x04u},
 535:.\Generated_Source\PSoC4/cyfitter_cfg.c **** 			{0x9Au, 0x04u},
 536:.\Generated_Source\PSoC4/cyfitter_cfg.c **** 			{0x9Bu, 0x10u},
 537:.\Generated_Source\PSoC4/cyfitter_cfg.c **** 			{0x9Fu, 0x01u},
 538:.\Generated_Source\PSoC4/cyfitter_cfg.c **** 			{0xA0u, 0x10u},
 539:.\Generated_Source\PSoC4/cyfitter_cfg.c **** 			{0xA6u, 0x08u},
 540:.\Generated_Source\PSoC4/cyfitter_cfg.c **** 			{0xA8u, 0x10u},
 541:.\Generated_Source\PSoC4/cyfitter_cfg.c **** 			{0xADu, 0x03u},
 542:.\Generated_Source\PSoC4/cyfitter_cfg.c **** 			{0xB0u, 0x0Cu},
 543:.\Generated_Source\PSoC4/cyfitter_cfg.c **** 			{0xB1u, 0x04u},
 544:.\Generated_Source\PSoC4/cyfitter_cfg.c **** 			{0xB2u, 0x02u},
 545:.\Generated_Source\PSoC4/cyfitter_cfg.c **** 			{0xB4u, 0x01u},
 546:.\Generated_Source\PSoC4/cyfitter_cfg.c **** 			{0xB5u, 0x18u},
 547:.\Generated_Source\PSoC4/cyfitter_cfg.c **** 			{0xB6u, 0x10u},
 548:.\Generated_Source\PSoC4/cyfitter_cfg.c **** 			{0xB7u, 0x03u},
 549:.\Generated_Source\PSoC4/cyfitter_cfg.c **** 			{0xB8u, 0x80u},
 550:.\Generated_Source\PSoC4/cyfitter_cfg.c **** 			{0xB9u, 0x02u},
 551:.\Generated_Source\PSoC4/cyfitter_cfg.c **** 			{0xBEu, 0x04u},
 552:.\Generated_Source\PSoC4/cyfitter_cfg.c **** 			{0xC0u, 0x20u},
 553:.\Generated_Source\PSoC4/cyfitter_cfg.c **** 			{0xC1u, 0x05u},
 554:.\Generated_Source\PSoC4/cyfitter_cfg.c **** 			{0xC5u, 0xD5u},
 555:.\Generated_Source\PSoC4/cyfitter_cfg.c **** 			{0xC6u, 0x40u},
ARM GAS  C:\Users\LAIR\AppData\Local\Temp\ccE6w4yy.s 			page 18


 556:.\Generated_Source\PSoC4/cyfitter_cfg.c **** 			{0xC7u, 0x21u},
 557:.\Generated_Source\PSoC4/cyfitter_cfg.c **** 			{0xC8u, 0x3Fu},
 558:.\Generated_Source\PSoC4/cyfitter_cfg.c **** 			{0xC9u, 0xFFu},
 559:.\Generated_Source\PSoC4/cyfitter_cfg.c **** 			{0xCAu, 0xFFu},
 560:.\Generated_Source\PSoC4/cyfitter_cfg.c **** 			{0xCBu, 0xFFu},
 561:.\Generated_Source\PSoC4/cyfitter_cfg.c **** 			{0xCDu, 0xAFu},
 562:.\Generated_Source\PSoC4/cyfitter_cfg.c **** 			{0xCEu, 0x0Fu},
 563:.\Generated_Source\PSoC4/cyfitter_cfg.c **** 			{0xCFu, 0x04u},
 564:.\Generated_Source\PSoC4/cyfitter_cfg.c **** 			{0xD0u, 0x18u},
 565:.\Generated_Source\PSoC4/cyfitter_cfg.c **** 			{0xD2u, 0x80u},
 566:.\Generated_Source\PSoC4/cyfitter_cfg.c **** 			{0xD4u, 0x07u},
 567:.\Generated_Source\PSoC4/cyfitter_cfg.c **** 			{0xD8u, 0x04u},
 568:.\Generated_Source\PSoC4/cyfitter_cfg.c **** 			{0xD9u, 0x04u},
 569:.\Generated_Source\PSoC4/cyfitter_cfg.c **** 			{0xDAu, 0x04u},
 570:.\Generated_Source\PSoC4/cyfitter_cfg.c **** 			{0xDBu, 0x04u},
 571:.\Generated_Source\PSoC4/cyfitter_cfg.c **** 			{0xDFu, 0x01u},
 572:.\Generated_Source\PSoC4/cyfitter_cfg.c **** 			{0xE0u, 0x40u},
 573:.\Generated_Source\PSoC4/cyfitter_cfg.c **** 			{0xE2u, 0xC0u},
 574:.\Generated_Source\PSoC4/cyfitter_cfg.c **** 			{0xE4u, 0x40u},
 575:.\Generated_Source\PSoC4/cyfitter_cfg.c **** 			{0xE5u, 0x40u},
 576:.\Generated_Source\PSoC4/cyfitter_cfg.c **** 			{0xE6u, 0xC0u},
 577:.\Generated_Source\PSoC4/cyfitter_cfg.c **** 			{0xE8u, 0xC0u},
 578:.\Generated_Source\PSoC4/cyfitter_cfg.c **** 			{0xEAu, 0xC0u},
 579:.\Generated_Source\PSoC4/cyfitter_cfg.c **** 			{0xECu, 0xC0u},
 580:.\Generated_Source\PSoC4/cyfitter_cfg.c **** 			{0xEEu, 0xC0u},
 581:.\Generated_Source\PSoC4/cyfitter_cfg.c **** 			{0x00u, 0x06u},
 582:.\Generated_Source\PSoC4/cyfitter_cfg.c **** 			{0x02u, 0x02u},
 583:.\Generated_Source\PSoC4/cyfitter_cfg.c **** 			{0x09u, 0x20u},
 584:.\Generated_Source\PSoC4/cyfitter_cfg.c **** 			{0x0Au, 0x40u},
 585:.\Generated_Source\PSoC4/cyfitter_cfg.c **** 			{0x10u, 0xA8u},
 586:.\Generated_Source\PSoC4/cyfitter_cfg.c **** 			{0x18u, 0x04u},
 587:.\Generated_Source\PSoC4/cyfitter_cfg.c **** 			{0x19u, 0x44u},
 588:.\Generated_Source\PSoC4/cyfitter_cfg.c **** 			{0x1Bu, 0x11u},
 589:.\Generated_Source\PSoC4/cyfitter_cfg.c **** 			{0x21u, 0x02u},
 590:.\Generated_Source\PSoC4/cyfitter_cfg.c **** 			{0x22u, 0x50u},
 591:.\Generated_Source\PSoC4/cyfitter_cfg.c **** 			{0x27u, 0x20u},
 592:.\Generated_Source\PSoC4/cyfitter_cfg.c **** 			{0x29u, 0x40u},
 593:.\Generated_Source\PSoC4/cyfitter_cfg.c **** 			{0x2Cu, 0x88u},
 594:.\Generated_Source\PSoC4/cyfitter_cfg.c **** 			{0x30u, 0xA8u},
 595:.\Generated_Source\PSoC4/cyfitter_cfg.c **** 			{0x31u, 0x02u},
 596:.\Generated_Source\PSoC4/cyfitter_cfg.c **** 			{0x38u, 0x20u},
 597:.\Generated_Source\PSoC4/cyfitter_cfg.c **** 			{0x3Fu, 0x20u},
 598:.\Generated_Source\PSoC4/cyfitter_cfg.c **** 			{0x40u, 0x04u},
 599:.\Generated_Source\PSoC4/cyfitter_cfg.c **** 			{0x48u, 0x20u},
 600:.\Generated_Source\PSoC4/cyfitter_cfg.c **** 			{0x49u, 0x01u},
 601:.\Generated_Source\PSoC4/cyfitter_cfg.c **** 			{0x4Au, 0x02u},
 602:.\Generated_Source\PSoC4/cyfitter_cfg.c **** 			{0x4Eu, 0x02u},
 603:.\Generated_Source\PSoC4/cyfitter_cfg.c **** 			{0x4Fu, 0x20u},
 604:.\Generated_Source\PSoC4/cyfitter_cfg.c **** 			{0x50u, 0x98u},
 605:.\Generated_Source\PSoC4/cyfitter_cfg.c **** 			{0x51u, 0x20u},
 606:.\Generated_Source\PSoC4/cyfitter_cfg.c **** 			{0x52u, 0x02u},
 607:.\Generated_Source\PSoC4/cyfitter_cfg.c **** 			{0x59u, 0x05u},
 608:.\Generated_Source\PSoC4/cyfitter_cfg.c **** 			{0x5Au, 0xA0u},
 609:.\Generated_Source\PSoC4/cyfitter_cfg.c **** 			{0x72u, 0x40u},
 610:.\Generated_Source\PSoC4/cyfitter_cfg.c **** 			{0x83u, 0x20u},
 611:.\Generated_Source\PSoC4/cyfitter_cfg.c **** 			{0xAEu, 0x14u},
 612:.\Generated_Source\PSoC4/cyfitter_cfg.c **** 			{0xB2u, 0x04u},
ARM GAS  C:\Users\LAIR\AppData\Local\Temp\ccE6w4yy.s 			page 19


 613:.\Generated_Source\PSoC4/cyfitter_cfg.c **** 			{0xC0u, 0x0Du},
 614:.\Generated_Source\PSoC4/cyfitter_cfg.c **** 			{0xC2u, 0x0Au},
 615:.\Generated_Source\PSoC4/cyfitter_cfg.c **** 			{0xC4u, 0x0Eu},
 616:.\Generated_Source\PSoC4/cyfitter_cfg.c **** 			{0xCAu, 0xA8u},
 617:.\Generated_Source\PSoC4/cyfitter_cfg.c **** 			{0xCCu, 0x0Fu},
 618:.\Generated_Source\PSoC4/cyfitter_cfg.c **** 			{0xCEu, 0x24u},
 619:.\Generated_Source\PSoC4/cyfitter_cfg.c **** 			{0xD0u, 0x04u},
 620:.\Generated_Source\PSoC4/cyfitter_cfg.c **** 			{0xD2u, 0x38u},
 621:.\Generated_Source\PSoC4/cyfitter_cfg.c **** 			{0xD6u, 0x0Fu},
 622:.\Generated_Source\PSoC4/cyfitter_cfg.c **** 			{0xE0u, 0x04u},
 623:.\Generated_Source\PSoC4/cyfitter_cfg.c **** 			{0xE4u, 0x80u},
 624:.\Generated_Source\PSoC4/cyfitter_cfg.c **** 			{0xE8u, 0x02u},
 625:.\Generated_Source\PSoC4/cyfitter_cfg.c **** 			{0xECu, 0x08u},
 626:.\Generated_Source\PSoC4/cyfitter_cfg.c **** 			{0x03u, 0x01u},
 627:.\Generated_Source\PSoC4/cyfitter_cfg.c **** 			{0x16u, 0x03u},
 628:.\Generated_Source\PSoC4/cyfitter_cfg.c **** 			{0x26u, 0x01u},
 629:.\Generated_Source\PSoC4/cyfitter_cfg.c **** 			{0x2Au, 0x02u},
 630:.\Generated_Source\PSoC4/cyfitter_cfg.c **** 			{0x2Fu, 0x01u},
 631:.\Generated_Source\PSoC4/cyfitter_cfg.c **** 			{0x33u, 0x01u},
 632:.\Generated_Source\PSoC4/cyfitter_cfg.c **** 			{0x36u, 0x03u},
 633:.\Generated_Source\PSoC4/cyfitter_cfg.c **** 			{0x40u, 0x30u},
 634:.\Generated_Source\PSoC4/cyfitter_cfg.c **** 			{0x41u, 0x04u},
 635:.\Generated_Source\PSoC4/cyfitter_cfg.c **** 			{0x49u, 0xFFu},
 636:.\Generated_Source\PSoC4/cyfitter_cfg.c **** 			{0x4Au, 0xFFu},
 637:.\Generated_Source\PSoC4/cyfitter_cfg.c **** 			{0x4Bu, 0xFFu},
 638:.\Generated_Source\PSoC4/cyfitter_cfg.c **** 			{0x4Du, 0xA0u},
 639:.\Generated_Source\PSoC4/cyfitter_cfg.c **** 			{0x4Fu, 0x04u},
 640:.\Generated_Source\PSoC4/cyfitter_cfg.c **** 			{0x50u, 0x18u},
 641:.\Generated_Source\PSoC4/cyfitter_cfg.c **** 			{0x52u, 0x80u},
 642:.\Generated_Source\PSoC4/cyfitter_cfg.c **** 			{0x58u, 0x04u},
 643:.\Generated_Source\PSoC4/cyfitter_cfg.c **** 			{0x59u, 0x04u},
 644:.\Generated_Source\PSoC4/cyfitter_cfg.c **** 			{0x5Au, 0x04u},
 645:.\Generated_Source\PSoC4/cyfitter_cfg.c **** 			{0x5Bu, 0x04u},
 646:.\Generated_Source\PSoC4/cyfitter_cfg.c **** 			{0x5Fu, 0x01u},
 647:.\Generated_Source\PSoC4/cyfitter_cfg.c **** 			{0x60u, 0x40u},
 648:.\Generated_Source\PSoC4/cyfitter_cfg.c **** 			{0x62u, 0xC0u},
 649:.\Generated_Source\PSoC4/cyfitter_cfg.c **** 			{0x64u, 0x40u},
 650:.\Generated_Source\PSoC4/cyfitter_cfg.c **** 			{0x65u, 0x40u},
 651:.\Generated_Source\PSoC4/cyfitter_cfg.c **** 			{0x66u, 0xC0u},
 652:.\Generated_Source\PSoC4/cyfitter_cfg.c **** 			{0x68u, 0xC0u},
 653:.\Generated_Source\PSoC4/cyfitter_cfg.c **** 			{0x6Au, 0xC0u},
 654:.\Generated_Source\PSoC4/cyfitter_cfg.c **** 			{0x6Cu, 0xC0u},
 655:.\Generated_Source\PSoC4/cyfitter_cfg.c **** 			{0x6Eu, 0xC0u},
 656:.\Generated_Source\PSoC4/cyfitter_cfg.c **** 			{0x81u, 0x04u},
 657:.\Generated_Source\PSoC4/cyfitter_cfg.c **** 			{0x82u, 0x01u},
 658:.\Generated_Source\PSoC4/cyfitter_cfg.c **** 			{0x83u, 0x08u},
 659:.\Generated_Source\PSoC4/cyfitter_cfg.c **** 			{0x86u, 0x04u},
 660:.\Generated_Source\PSoC4/cyfitter_cfg.c **** 			{0x87u, 0x02u},
 661:.\Generated_Source\PSoC4/cyfitter_cfg.c **** 			{0x95u, 0x04u},
 662:.\Generated_Source\PSoC4/cyfitter_cfg.c **** 			{0x96u, 0x07u},
 663:.\Generated_Source\PSoC4/cyfitter_cfg.c **** 			{0x97u, 0x10u},
 664:.\Generated_Source\PSoC4/cyfitter_cfg.c **** 			{0x9Du, 0x18u},
 665:.\Generated_Source\PSoC4/cyfitter_cfg.c **** 			{0xA1u, 0x03u},
 666:.\Generated_Source\PSoC4/cyfitter_cfg.c **** 			{0xA4u, 0x08u},
 667:.\Generated_Source\PSoC4/cyfitter_cfg.c **** 			{0xA7u, 0x01u},
 668:.\Generated_Source\PSoC4/cyfitter_cfg.c **** 			{0xA8u, 0x08u},
 669:.\Generated_Source\PSoC4/cyfitter_cfg.c **** 			{0xAEu, 0x02u},
ARM GAS  C:\Users\LAIR\AppData\Local\Temp\ccE6w4yy.s 			page 20


 670:.\Generated_Source\PSoC4/cyfitter_cfg.c **** 			{0xB0u, 0x06u},
 671:.\Generated_Source\PSoC4/cyfitter_cfg.c **** 			{0xB1u, 0x03u},
 672:.\Generated_Source\PSoC4/cyfitter_cfg.c **** 			{0xB3u, 0x18u},
 673:.\Generated_Source\PSoC4/cyfitter_cfg.c **** 			{0xB4u, 0x01u},
 674:.\Generated_Source\PSoC4/cyfitter_cfg.c **** 			{0xB6u, 0x08u},
 675:.\Generated_Source\PSoC4/cyfitter_cfg.c **** 			{0xB7u, 0x04u},
 676:.\Generated_Source\PSoC4/cyfitter_cfg.c **** 			{0xB8u, 0x80u},
 677:.\Generated_Source\PSoC4/cyfitter_cfg.c **** 			{0xB9u, 0x80u},
 678:.\Generated_Source\PSoC4/cyfitter_cfg.c **** 			{0xBEu, 0x10u},
 679:.\Generated_Source\PSoC4/cyfitter_cfg.c **** 			{0xC0u, 0x30u},
 680:.\Generated_Source\PSoC4/cyfitter_cfg.c **** 			{0xC1u, 0x04u},
 681:.\Generated_Source\PSoC4/cyfitter_cfg.c **** 			{0xC5u, 0xD5u},
 682:.\Generated_Source\PSoC4/cyfitter_cfg.c **** 			{0xC6u, 0x02u},
 683:.\Generated_Source\PSoC4/cyfitter_cfg.c **** 			{0xC7u, 0x41u},
 684:.\Generated_Source\PSoC4/cyfitter_cfg.c **** 			{0xC8u, 0x3Fu},
 685:.\Generated_Source\PSoC4/cyfitter_cfg.c **** 			{0xC9u, 0xFFu},
 686:.\Generated_Source\PSoC4/cyfitter_cfg.c **** 			{0xCAu, 0xFFu},
 687:.\Generated_Source\PSoC4/cyfitter_cfg.c **** 			{0xCBu, 0xFFu},
 688:.\Generated_Source\PSoC4/cyfitter_cfg.c **** 			{0xCDu, 0xAFu},
 689:.\Generated_Source\PSoC4/cyfitter_cfg.c **** 			{0xCEu, 0x0Fu},
 690:.\Generated_Source\PSoC4/cyfitter_cfg.c **** 			{0xCFu, 0x04u},
 691:.\Generated_Source\PSoC4/cyfitter_cfg.c **** 			{0xD0u, 0x18u},
 692:.\Generated_Source\PSoC4/cyfitter_cfg.c **** 			{0xD4u, 0x07u},
 693:.\Generated_Source\PSoC4/cyfitter_cfg.c **** 			{0xD8u, 0x04u},
 694:.\Generated_Source\PSoC4/cyfitter_cfg.c **** 			{0xD9u, 0x04u},
 695:.\Generated_Source\PSoC4/cyfitter_cfg.c **** 			{0xDAu, 0x04u},
 696:.\Generated_Source\PSoC4/cyfitter_cfg.c **** 			{0xDBu, 0x04u},
 697:.\Generated_Source\PSoC4/cyfitter_cfg.c **** 			{0xDFu, 0x01u},
 698:.\Generated_Source\PSoC4/cyfitter_cfg.c **** 			{0xE0u, 0x40u},
 699:.\Generated_Source\PSoC4/cyfitter_cfg.c **** 			{0xE2u, 0xC0u},
 700:.\Generated_Source\PSoC4/cyfitter_cfg.c **** 			{0xE4u, 0x40u},
 701:.\Generated_Source\PSoC4/cyfitter_cfg.c **** 			{0xE5u, 0x40u},
 702:.\Generated_Source\PSoC4/cyfitter_cfg.c **** 			{0xE6u, 0xC0u},
 703:.\Generated_Source\PSoC4/cyfitter_cfg.c **** 			{0xE8u, 0xC0u},
 704:.\Generated_Source\PSoC4/cyfitter_cfg.c **** 			{0xEAu, 0xC0u},
 705:.\Generated_Source\PSoC4/cyfitter_cfg.c **** 			{0xECu, 0xC0u},
 706:.\Generated_Source\PSoC4/cyfitter_cfg.c **** 			{0xEEu, 0xC0u},
 707:.\Generated_Source\PSoC4/cyfitter_cfg.c **** 			{0x05u, 0x08u},
 708:.\Generated_Source\PSoC4/cyfitter_cfg.c **** 			{0x06u, 0x80u},
 709:.\Generated_Source\PSoC4/cyfitter_cfg.c **** 			{0x09u, 0x08u},
 710:.\Generated_Source\PSoC4/cyfitter_cfg.c **** 			{0x0Du, 0x08u},
 711:.\Generated_Source\PSoC4/cyfitter_cfg.c **** 			{0x10u, 0x28u},
 712:.\Generated_Source\PSoC4/cyfitter_cfg.c **** 			{0x16u, 0x2Au},
 713:.\Generated_Source\PSoC4/cyfitter_cfg.c **** 			{0x1Au, 0x02u},
 714:.\Generated_Source\PSoC4/cyfitter_cfg.c **** 			{0x1Du, 0x01u},
 715:.\Generated_Source\PSoC4/cyfitter_cfg.c **** 			{0x1Eu, 0x08u},
 716:.\Generated_Source\PSoC4/cyfitter_cfg.c **** 			{0x1Fu, 0x80u},
 717:.\Generated_Source\PSoC4/cyfitter_cfg.c **** 			{0x20u, 0x10u},
 718:.\Generated_Source\PSoC4/cyfitter_cfg.c **** 			{0x21u, 0x08u},
 719:.\Generated_Source\PSoC4/cyfitter_cfg.c **** 			{0x24u, 0x40u},
 720:.\Generated_Source\PSoC4/cyfitter_cfg.c **** 			{0x26u, 0x80u},
 721:.\Generated_Source\PSoC4/cyfitter_cfg.c **** 			{0x27u, 0x20u},
 722:.\Generated_Source\PSoC4/cyfitter_cfg.c **** 			{0x29u, 0x80u},
 723:.\Generated_Source\PSoC4/cyfitter_cfg.c **** 			{0x2Cu, 0x20u},
 724:.\Generated_Source\PSoC4/cyfitter_cfg.c **** 			{0x2Fu, 0x80u},
 725:.\Generated_Source\PSoC4/cyfitter_cfg.c **** 			{0x35u, 0x08u},
 726:.\Generated_Source\PSoC4/cyfitter_cfg.c **** 			{0x36u, 0x80u},
ARM GAS  C:\Users\LAIR\AppData\Local\Temp\ccE6w4yy.s 			page 21


 727:.\Generated_Source\PSoC4/cyfitter_cfg.c **** 			{0x38u, 0x02u},
 728:.\Generated_Source\PSoC4/cyfitter_cfg.c **** 			{0x3Eu, 0x0Au},
 729:.\Generated_Source\PSoC4/cyfitter_cfg.c **** 			{0x40u, 0x10u},
 730:.\Generated_Source\PSoC4/cyfitter_cfg.c **** 			{0x42u, 0x80u},
 731:.\Generated_Source\PSoC4/cyfitter_cfg.c **** 			{0x45u, 0x08u},
 732:.\Generated_Source\PSoC4/cyfitter_cfg.c **** 			{0x46u, 0x80u},
 733:.\Generated_Source\PSoC4/cyfitter_cfg.c **** 			{0x4Du, 0x09u},
 734:.\Generated_Source\PSoC4/cyfitter_cfg.c **** 			{0x54u, 0x28u},
 735:.\Generated_Source\PSoC4/cyfitter_cfg.c **** 			{0x56u, 0xAAu},
 736:.\Generated_Source\PSoC4/cyfitter_cfg.c **** 			{0x5Cu, 0x40u},
 737:.\Generated_Source\PSoC4/cyfitter_cfg.c **** 			{0x5Du, 0x01u},
 738:.\Generated_Source\PSoC4/cyfitter_cfg.c **** 			{0x5Eu, 0x08u},
 739:.\Generated_Source\PSoC4/cyfitter_cfg.c **** 			{0x5Fu, 0x20u},
 740:.\Generated_Source\PSoC4/cyfitter_cfg.c **** 			{0x70u, 0x01u},
 741:.\Generated_Source\PSoC4/cyfitter_cfg.c **** 			{0xAFu, 0x01u},
 742:.\Generated_Source\PSoC4/cyfitter_cfg.c **** 			{0xB0u, 0x01u},
 743:.\Generated_Source\PSoC4/cyfitter_cfg.c **** 			{0xC0u, 0x30u},
 744:.\Generated_Source\PSoC4/cyfitter_cfg.c **** 			{0xC2u, 0x24u},
 745:.\Generated_Source\PSoC4/cyfitter_cfg.c **** 			{0xC4u, 0xE6u},
 746:.\Generated_Source\PSoC4/cyfitter_cfg.c **** 			{0xCAu, 0xC8u},
 747:.\Generated_Source\PSoC4/cyfitter_cfg.c **** 			{0xCCu, 0x50u},
 748:.\Generated_Source\PSoC4/cyfitter_cfg.c **** 			{0xCEu, 0xC1u},
 749:.\Generated_Source\PSoC4/cyfitter_cfg.c **** 			{0xD0u, 0xC3u},
 750:.\Generated_Source\PSoC4/cyfitter_cfg.c **** 			{0xD6u, 0xF0u},
 751:.\Generated_Source\PSoC4/cyfitter_cfg.c **** 			{0xE0u, 0x01u},
 752:.\Generated_Source\PSoC4/cyfitter_cfg.c **** 			{0xE4u, 0x80u},
 753:.\Generated_Source\PSoC4/cyfitter_cfg.c **** 			{0xE8u, 0x04u},
 754:.\Generated_Source\PSoC4/cyfitter_cfg.c **** 			{0x0Bu, 0x04u},
 755:.\Generated_Source\PSoC4/cyfitter_cfg.c **** 			{0x13u, 0x03u},
 756:.\Generated_Source\PSoC4/cyfitter_cfg.c **** 			{0x23u, 0x02u},
 757:.\Generated_Source\PSoC4/cyfitter_cfg.c **** 			{0x27u, 0x01u},
 758:.\Generated_Source\PSoC4/cyfitter_cfg.c **** 			{0x2Fu, 0x04u},
 759:.\Generated_Source\PSoC4/cyfitter_cfg.c **** 			{0x31u, 0x04u},
 760:.\Generated_Source\PSoC4/cyfitter_cfg.c **** 			{0x33u, 0x03u},
 761:.\Generated_Source\PSoC4/cyfitter_cfg.c **** 			{0x40u, 0x10u},
 762:.\Generated_Source\PSoC4/cyfitter_cfg.c **** 			{0x41u, 0x06u},
 763:.\Generated_Source\PSoC4/cyfitter_cfg.c **** 			{0x49u, 0xFFu},
 764:.\Generated_Source\PSoC4/cyfitter_cfg.c **** 			{0x4Au, 0xFFu},
 765:.\Generated_Source\PSoC4/cyfitter_cfg.c **** 			{0x4Bu, 0xFFu},
 766:.\Generated_Source\PSoC4/cyfitter_cfg.c **** 			{0x4Du, 0xA0u},
 767:.\Generated_Source\PSoC4/cyfitter_cfg.c **** 			{0x4Fu, 0x04u},
 768:.\Generated_Source\PSoC4/cyfitter_cfg.c **** 			{0x50u, 0x18u},
 769:.\Generated_Source\PSoC4/cyfitter_cfg.c **** 			{0x52u, 0x80u},
 770:.\Generated_Source\PSoC4/cyfitter_cfg.c **** 			{0x59u, 0x04u},
 771:.\Generated_Source\PSoC4/cyfitter_cfg.c **** 			{0x5Au, 0x04u},
 772:.\Generated_Source\PSoC4/cyfitter_cfg.c **** 			{0x5Bu, 0x04u},
 773:.\Generated_Source\PSoC4/cyfitter_cfg.c **** 			{0x5Fu, 0x01u},
 774:.\Generated_Source\PSoC4/cyfitter_cfg.c **** 			{0x60u, 0x40u},
 775:.\Generated_Source\PSoC4/cyfitter_cfg.c **** 			{0x62u, 0xC0u},
 776:.\Generated_Source\PSoC4/cyfitter_cfg.c **** 			{0x64u, 0x40u},
 777:.\Generated_Source\PSoC4/cyfitter_cfg.c **** 			{0x65u, 0x40u},
 778:.\Generated_Source\PSoC4/cyfitter_cfg.c **** 			{0x66u, 0xC0u},
 779:.\Generated_Source\PSoC4/cyfitter_cfg.c **** 			{0x68u, 0xC0u},
 780:.\Generated_Source\PSoC4/cyfitter_cfg.c **** 			{0x6Au, 0xC0u},
 781:.\Generated_Source\PSoC4/cyfitter_cfg.c **** 			{0x6Cu, 0xC0u},
 782:.\Generated_Source\PSoC4/cyfitter_cfg.c **** 			{0x6Eu, 0xC0u},
 783:.\Generated_Source\PSoC4/cyfitter_cfg.c **** 			{0x82u, 0x07u},
ARM GAS  C:\Users\LAIR\AppData\Local\Temp\ccE6w4yy.s 			page 22


 784:.\Generated_Source\PSoC4/cyfitter_cfg.c **** 			{0x85u, 0x04u},
 785:.\Generated_Source\PSoC4/cyfitter_cfg.c **** 			{0x87u, 0x08u},
 786:.\Generated_Source\PSoC4/cyfitter_cfg.c **** 			{0x8Au, 0x01u},
 787:.\Generated_Source\PSoC4/cyfitter_cfg.c **** 			{0x8Eu, 0x02u},
 788:.\Generated_Source\PSoC4/cyfitter_cfg.c **** 			{0x91u, 0x18u},
 789:.\Generated_Source\PSoC4/cyfitter_cfg.c **** 			{0x9Bu, 0x01u},
 790:.\Generated_Source\PSoC4/cyfitter_cfg.c **** 			{0x9Fu, 0x02u},
 791:.\Generated_Source\PSoC4/cyfitter_cfg.c **** 			{0xA0u, 0x08u},
 792:.\Generated_Source\PSoC4/cyfitter_cfg.c **** 			{0xA1u, 0x04u},
 793:.\Generated_Source\PSoC4/cyfitter_cfg.c **** 			{0xA3u, 0x10u},
 794:.\Generated_Source\PSoC4/cyfitter_cfg.c **** 			{0xA4u, 0x08u},
 795:.\Generated_Source\PSoC4/cyfitter_cfg.c **** 			{0xAAu, 0x04u},
 796:.\Generated_Source\PSoC4/cyfitter_cfg.c **** 			{0xADu, 0x03u},
 797:.\Generated_Source\PSoC4/cyfitter_cfg.c **** 			{0xB0u, 0x03u},
 798:.\Generated_Source\PSoC4/cyfitter_cfg.c **** 			{0xB1u, 0x04u},
 799:.\Generated_Source\PSoC4/cyfitter_cfg.c **** 			{0xB4u, 0x04u},
 800:.\Generated_Source\PSoC4/cyfitter_cfg.c **** 			{0xB5u, 0x18u},
 801:.\Generated_Source\PSoC4/cyfitter_cfg.c **** 			{0xB6u, 0x08u},
 802:.\Generated_Source\PSoC4/cyfitter_cfg.c **** 			{0xB7u, 0x03u},
 803:.\Generated_Source\PSoC4/cyfitter_cfg.c **** 			{0xB8u, 0x80u},
 804:.\Generated_Source\PSoC4/cyfitter_cfg.c **** 			{0xB9u, 0x02u},
 805:.\Generated_Source\PSoC4/cyfitter_cfg.c **** 			{0xBEu, 0x10u},
 806:.\Generated_Source\PSoC4/cyfitter_cfg.c **** 			{0xC0u, 0x10u},
 807:.\Generated_Source\PSoC4/cyfitter_cfg.c **** 			{0xC1u, 0x06u},
 808:.\Generated_Source\PSoC4/cyfitter_cfg.c **** 			{0xC5u, 0xD4u},
 809:.\Generated_Source\PSoC4/cyfitter_cfg.c **** 			{0xC6u, 0x01u},
 810:.\Generated_Source\PSoC4/cyfitter_cfg.c **** 			{0xC7u, 0x52u},
 811:.\Generated_Source\PSoC4/cyfitter_cfg.c **** 			{0xC8u, 0x3Fu},
 812:.\Generated_Source\PSoC4/cyfitter_cfg.c **** 			{0xC9u, 0xFFu},
 813:.\Generated_Source\PSoC4/cyfitter_cfg.c **** 			{0xCAu, 0xFFu},
 814:.\Generated_Source\PSoC4/cyfitter_cfg.c **** 			{0xCBu, 0xFFu},
 815:.\Generated_Source\PSoC4/cyfitter_cfg.c **** 			{0xCDu, 0xAFu},
 816:.\Generated_Source\PSoC4/cyfitter_cfg.c **** 			{0xCEu, 0x0Fu},
 817:.\Generated_Source\PSoC4/cyfitter_cfg.c **** 			{0xCFu, 0x04u},
 818:.\Generated_Source\PSoC4/cyfitter_cfg.c **** 			{0xD0u, 0x18u},
 819:.\Generated_Source\PSoC4/cyfitter_cfg.c **** 			{0xD4u, 0x07u},
 820:.\Generated_Source\PSoC4/cyfitter_cfg.c **** 			{0xD8u, 0x04u},
 821:.\Generated_Source\PSoC4/cyfitter_cfg.c **** 			{0xD9u, 0x04u},
 822:.\Generated_Source\PSoC4/cyfitter_cfg.c **** 			{0xDAu, 0x04u},
 823:.\Generated_Source\PSoC4/cyfitter_cfg.c **** 			{0xDBu, 0x04u},
 824:.\Generated_Source\PSoC4/cyfitter_cfg.c **** 			{0xDFu, 0x01u},
 825:.\Generated_Source\PSoC4/cyfitter_cfg.c **** 			{0xE0u, 0x40u},
 826:.\Generated_Source\PSoC4/cyfitter_cfg.c **** 			{0xE2u, 0xC0u},
 827:.\Generated_Source\PSoC4/cyfitter_cfg.c **** 			{0xE4u, 0x40u},
 828:.\Generated_Source\PSoC4/cyfitter_cfg.c **** 			{0xE5u, 0x40u},
 829:.\Generated_Source\PSoC4/cyfitter_cfg.c **** 			{0xE6u, 0xC0u},
 830:.\Generated_Source\PSoC4/cyfitter_cfg.c **** 			{0xE8u, 0xC0u},
 831:.\Generated_Source\PSoC4/cyfitter_cfg.c **** 			{0xEAu, 0xC0u},
 832:.\Generated_Source\PSoC4/cyfitter_cfg.c **** 			{0xECu, 0xC0u},
 833:.\Generated_Source\PSoC4/cyfitter_cfg.c **** 			{0xEEu, 0xC0u},
 834:.\Generated_Source\PSoC4/cyfitter_cfg.c **** 			{0x00u, 0x20u},
 835:.\Generated_Source\PSoC4/cyfitter_cfg.c **** 			{0x02u, 0x01u},
 836:.\Generated_Source\PSoC4/cyfitter_cfg.c **** 			{0x03u, 0x40u},
 837:.\Generated_Source\PSoC4/cyfitter_cfg.c **** 			{0x10u, 0xA0u},
 838:.\Generated_Source\PSoC4/cyfitter_cfg.c **** 			{0x12u, 0x08u},
 839:.\Generated_Source\PSoC4/cyfitter_cfg.c **** 			{0x19u, 0x42u},
 840:.\Generated_Source\PSoC4/cyfitter_cfg.c **** 			{0x1Au, 0x04u},
ARM GAS  C:\Users\LAIR\AppData\Local\Temp\ccE6w4yy.s 			page 23


 841:.\Generated_Source\PSoC4/cyfitter_cfg.c **** 			{0x21u, 0x02u},
 842:.\Generated_Source\PSoC4/cyfitter_cfg.c **** 			{0x22u, 0x50u},
 843:.\Generated_Source\PSoC4/cyfitter_cfg.c **** 			{0x26u, 0x02u},
 844:.\Generated_Source\PSoC4/cyfitter_cfg.c **** 			{0x27u, 0x60u},
 845:.\Generated_Source\PSoC4/cyfitter_cfg.c **** 			{0x29u, 0x40u},
 846:.\Generated_Source\PSoC4/cyfitter_cfg.c **** 			{0x2Au, 0x01u},
 847:.\Generated_Source\PSoC4/cyfitter_cfg.c **** 			{0x2Cu, 0xA0u},
 848:.\Generated_Source\PSoC4/cyfitter_cfg.c **** 			{0x2Eu, 0x80u},
 849:.\Generated_Source\PSoC4/cyfitter_cfg.c **** 			{0x30u, 0xA0u},
 850:.\Generated_Source\PSoC4/cyfitter_cfg.c **** 			{0x31u, 0x02u},
 851:.\Generated_Source\PSoC4/cyfitter_cfg.c **** 			{0x36u, 0x02u},
 852:.\Generated_Source\PSoC4/cyfitter_cfg.c **** 			{0x3Bu, 0x04u},
 853:.\Generated_Source\PSoC4/cyfitter_cfg.c **** 			{0x3Fu, 0x20u},
 854:.\Generated_Source\PSoC4/cyfitter_cfg.c **** 			{0x43u, 0x40u},
 855:.\Generated_Source\PSoC4/cyfitter_cfg.c **** 			{0x47u, 0x40u},
 856:.\Generated_Source\PSoC4/cyfitter_cfg.c **** 			{0x48u, 0x10u},
 857:.\Generated_Source\PSoC4/cyfitter_cfg.c **** 			{0x49u, 0x01u},
 858:.\Generated_Source\PSoC4/cyfitter_cfg.c **** 			{0x4Au, 0x08u},
 859:.\Generated_Source\PSoC4/cyfitter_cfg.c **** 			{0x4Bu, 0x04u},
 860:.\Generated_Source\PSoC4/cyfitter_cfg.c **** 			{0x4Eu, 0x08u},
 861:.\Generated_Source\PSoC4/cyfitter_cfg.c **** 			{0x50u, 0xA0u},
 862:.\Generated_Source\PSoC4/cyfitter_cfg.c **** 			{0x52u, 0x09u},
 863:.\Generated_Source\PSoC4/cyfitter_cfg.c **** 			{0x59u, 0x01u},
 864:.\Generated_Source\PSoC4/cyfitter_cfg.c **** 			{0x5Au, 0xA4u},
 865:.\Generated_Source\PSoC4/cyfitter_cfg.c **** 			{0x76u, 0x80u},
 866:.\Generated_Source\PSoC4/cyfitter_cfg.c **** 			{0x83u, 0x20u},
 867:.\Generated_Source\PSoC4/cyfitter_cfg.c **** 			{0x8Au, 0x01u},
 868:.\Generated_Source\PSoC4/cyfitter_cfg.c **** 			{0x92u, 0x02u},
 869:.\Generated_Source\PSoC4/cyfitter_cfg.c **** 			{0x9Du, 0x02u},
 870:.\Generated_Source\PSoC4/cyfitter_cfg.c **** 			{0xA3u, 0x10u},
 871:.\Generated_Source\PSoC4/cyfitter_cfg.c **** 			{0xA9u, 0x80u},
 872:.\Generated_Source\PSoC4/cyfitter_cfg.c **** 			{0xABu, 0x10u},
 873:.\Generated_Source\PSoC4/cyfitter_cfg.c **** 			{0xB5u, 0x03u},
 874:.\Generated_Source\PSoC4/cyfitter_cfg.c **** 			{0xC0u, 0x0Bu},
 875:.\Generated_Source\PSoC4/cyfitter_cfg.c **** 			{0xC4u, 0x0Eu},
 876:.\Generated_Source\PSoC4/cyfitter_cfg.c **** 			{0xCAu, 0xD9u},
 877:.\Generated_Source\PSoC4/cyfitter_cfg.c **** 			{0xCCu, 0x8Du},
 878:.\Generated_Source\PSoC4/cyfitter_cfg.c **** 			{0xCEu, 0x22u},
 879:.\Generated_Source\PSoC4/cyfitter_cfg.c **** 			{0xD0u, 0x18u},
 880:.\Generated_Source\PSoC4/cyfitter_cfg.c **** 			{0xD2u, 0x24u},
 881:.\Generated_Source\PSoC4/cyfitter_cfg.c **** 			{0xD6u, 0x0Fu},
 882:.\Generated_Source\PSoC4/cyfitter_cfg.c **** 			{0xE2u, 0x80u},
 883:.\Generated_Source\PSoC4/cyfitter_cfg.c **** 			{0xE4u, 0x08u},
 884:.\Generated_Source\PSoC4/cyfitter_cfg.c **** 			{0xE8u, 0x90u},
 885:.\Generated_Source\PSoC4/cyfitter_cfg.c **** 			{0xEAu, 0x44u},
 886:.\Generated_Source\PSoC4/cyfitter_cfg.c **** 			{0x57u, 0x01u},
 887:.\Generated_Source\PSoC4/cyfitter_cfg.c **** 			{0x63u, 0x02u},
 888:.\Generated_Source\PSoC4/cyfitter_cfg.c **** 			{0x68u, 0x01u},
 889:.\Generated_Source\PSoC4/cyfitter_cfg.c **** 			{0xD6u, 0x60u},
 890:.\Generated_Source\PSoC4/cyfitter_cfg.c **** 			{0xDAu, 0x40u},
 891:.\Generated_Source\PSoC4/cyfitter_cfg.c **** 			{0x00u, 0x20u},
 892:.\Generated_Source\PSoC4/cyfitter_cfg.c **** 			{0x09u, 0x20u},
 893:.\Generated_Source\PSoC4/cyfitter_cfg.c **** 			{0x0Fu, 0x80u},
 894:.\Generated_Source\PSoC4/cyfitter_cfg.c **** 			{0x5Bu, 0x80u},
 895:.\Generated_Source\PSoC4/cyfitter_cfg.c **** 			{0x67u, 0x08u},
 896:.\Generated_Source\PSoC4/cyfitter_cfg.c **** 			{0x81u, 0x20u},
 897:.\Generated_Source\PSoC4/cyfitter_cfg.c **** 			{0x83u, 0x80u},
ARM GAS  C:\Users\LAIR\AppData\Local\Temp\ccE6w4yy.s 			page 24


 898:.\Generated_Source\PSoC4/cyfitter_cfg.c **** 			{0x88u, 0x10u},
 899:.\Generated_Source\PSoC4/cyfitter_cfg.c **** 			{0xA4u, 0x01u},
 900:.\Generated_Source\PSoC4/cyfitter_cfg.c **** 			{0xAFu, 0x01u},
 901:.\Generated_Source\PSoC4/cyfitter_cfg.c **** 			{0xC0u, 0x40u},
 902:.\Generated_Source\PSoC4/cyfitter_cfg.c **** 			{0xC2u, 0x60u},
 903:.\Generated_Source\PSoC4/cyfitter_cfg.c **** 			{0xD4u, 0x80u},
 904:.\Generated_Source\PSoC4/cyfitter_cfg.c **** 			{0xD8u, 0x80u},
 905:.\Generated_Source\PSoC4/cyfitter_cfg.c **** 			{0xE0u, 0x20u},
 906:.\Generated_Source\PSoC4/cyfitter_cfg.c **** 			{0xE2u, 0x80u},
 907:.\Generated_Source\PSoC4/cyfitter_cfg.c **** 			{0xEEu, 0x10u},
 908:.\Generated_Source\PSoC4/cyfitter_cfg.c **** 			{0x03u, 0x40u},
 909:.\Generated_Source\PSoC4/cyfitter_cfg.c **** 			{0x09u, 0x01u},
 910:.\Generated_Source\PSoC4/cyfitter_cfg.c **** 			{0x14u, 0x20u},
 911:.\Generated_Source\PSoC4/cyfitter_cfg.c **** 			{0x17u, 0x20u},
 912:.\Generated_Source\PSoC4/cyfitter_cfg.c **** 			{0x1Bu, 0x01u},
 913:.\Generated_Source\PSoC4/cyfitter_cfg.c **** 			{0x1Fu, 0x02u},
 914:.\Generated_Source\PSoC4/cyfitter_cfg.c **** 			{0x57u, 0x04u},
 915:.\Generated_Source\PSoC4/cyfitter_cfg.c **** 			{0x5Bu, 0x80u},
 916:.\Generated_Source\PSoC4/cyfitter_cfg.c **** 			{0x83u, 0x20u},
 917:.\Generated_Source\PSoC4/cyfitter_cfg.c **** 			{0x8Bu, 0x02u},
 918:.\Generated_Source\PSoC4/cyfitter_cfg.c **** 			{0xA4u, 0x01u},
 919:.\Generated_Source\PSoC4/cyfitter_cfg.c **** 			{0xABu, 0x40u},
 920:.\Generated_Source\PSoC4/cyfitter_cfg.c **** 			{0xAFu, 0x04u},
 921:.\Generated_Source\PSoC4/cyfitter_cfg.c **** 			{0xC0u, 0x10u},
 922:.\Generated_Source\PSoC4/cyfitter_cfg.c **** 			{0xC2u, 0x10u},
 923:.\Generated_Source\PSoC4/cyfitter_cfg.c **** 			{0xC4u, 0xA0u},
 924:.\Generated_Source\PSoC4/cyfitter_cfg.c **** 			{0xC6u, 0x30u},
 925:.\Generated_Source\PSoC4/cyfitter_cfg.c **** 			{0xD4u, 0xC0u},
 926:.\Generated_Source\PSoC4/cyfitter_cfg.c **** 			{0xE0u, 0x80u},
 927:.\Generated_Source\PSoC4/cyfitter_cfg.c **** 			{0xE8u, 0x20u},
 928:.\Generated_Source\PSoC4/cyfitter_cfg.c **** 			{0xEEu, 0x10u},
 929:.\Generated_Source\PSoC4/cyfitter_cfg.c **** 			{0x83u, 0x80u},
 930:.\Generated_Source\PSoC4/cyfitter_cfg.c **** 			{0x87u, 0x01u},
 931:.\Generated_Source\PSoC4/cyfitter_cfg.c **** 			{0x88u, 0x01u},
 932:.\Generated_Source\PSoC4/cyfitter_cfg.c **** 			{0x9Fu, 0x80u},
 933:.\Generated_Source\PSoC4/cyfitter_cfg.c **** 			{0xA3u, 0x01u},
 934:.\Generated_Source\PSoC4/cyfitter_cfg.c **** 			{0xA4u, 0x01u},
 935:.\Generated_Source\PSoC4/cyfitter_cfg.c **** 			{0xABu, 0x40u},
 936:.\Generated_Source\PSoC4/cyfitter_cfg.c **** 			{0xB0u, 0x20u},
 937:.\Generated_Source\PSoC4/cyfitter_cfg.c **** 			{0xB5u, 0x01u},
 938:.\Generated_Source\PSoC4/cyfitter_cfg.c **** 			{0xB7u, 0x04u},
 939:.\Generated_Source\PSoC4/cyfitter_cfg.c **** 			{0xE2u, 0x80u},
 940:.\Generated_Source\PSoC4/cyfitter_cfg.c **** 			{0xE4u, 0x10u},
 941:.\Generated_Source\PSoC4/cyfitter_cfg.c **** 			{0xECu, 0x80u},
 942:.\Generated_Source\PSoC4/cyfitter_cfg.c **** 			{0x05u, 0x21u},
 943:.\Generated_Source\PSoC4/cyfitter_cfg.c **** 			{0x0Du, 0x01u},
 944:.\Generated_Source\PSoC4/cyfitter_cfg.c **** 			{0x63u, 0x02u},
 945:.\Generated_Source\PSoC4/cyfitter_cfg.c **** 			{0x64u, 0x01u},
 946:.\Generated_Source\PSoC4/cyfitter_cfg.c **** 			{0x67u, 0x08u},
 947:.\Generated_Source\PSoC4/cyfitter_cfg.c **** 			{0x85u, 0x01u},
 948:.\Generated_Source\PSoC4/cyfitter_cfg.c **** 			{0xC0u, 0x05u},
 949:.\Generated_Source\PSoC4/cyfitter_cfg.c **** 			{0xC2u, 0x04u},
 950:.\Generated_Source\PSoC4/cyfitter_cfg.c **** 			{0xD6u, 0x03u},
 951:.\Generated_Source\PSoC4/cyfitter_cfg.c **** 			{0xD8u, 0x01u},
 952:.\Generated_Source\PSoC4/cyfitter_cfg.c **** 			{0x01u, 0x02u},
 953:.\Generated_Source\PSoC4/cyfitter_cfg.c **** 			{0x0Eu, 0x40u},
 954:.\Generated_Source\PSoC4/cyfitter_cfg.c **** 			{0x3Bu, 0x01u},
ARM GAS  C:\Users\LAIR\AppData\Local\Temp\ccE6w4yy.s 			page 25


 955:.\Generated_Source\PSoC4/cyfitter_cfg.c **** 			{0x3Fu, 0x02u},
 956:.\Generated_Source\PSoC4/cyfitter_cfg.c **** 			{0x42u, 0x20u},
 957:.\Generated_Source\PSoC4/cyfitter_cfg.c **** 			{0x47u, 0x08u},
 958:.\Generated_Source\PSoC4/cyfitter_cfg.c **** 			{0x49u, 0x01u},
 959:.\Generated_Source\PSoC4/cyfitter_cfg.c **** 			{0x4Au, 0x08u},
 960:.\Generated_Source\PSoC4/cyfitter_cfg.c **** 			{0x4Du, 0x20u},
 961:.\Generated_Source\PSoC4/cyfitter_cfg.c **** 			{0x50u, 0x10u},
 962:.\Generated_Source\PSoC4/cyfitter_cfg.c **** 			{0x56u, 0x80u},
 963:.\Generated_Source\PSoC4/cyfitter_cfg.c **** 			{0x63u, 0x03u},
 964:.\Generated_Source\PSoC4/cyfitter_cfg.c **** 			{0x82u, 0x08u},
 965:.\Generated_Source\PSoC4/cyfitter_cfg.c **** 			{0x8Bu, 0x08u},
 966:.\Generated_Source\PSoC4/cyfitter_cfg.c **** 			{0x99u, 0x21u},
 967:.\Generated_Source\PSoC4/cyfitter_cfg.c **** 			{0xA3u, 0x01u},
 968:.\Generated_Source\PSoC4/cyfitter_cfg.c **** 			{0xACu, 0x01u},
 969:.\Generated_Source\PSoC4/cyfitter_cfg.c **** 			{0xAFu, 0x01u},
 970:.\Generated_Source\PSoC4/cyfitter_cfg.c **** 			{0xB3u, 0x04u},
 971:.\Generated_Source\PSoC4/cyfitter_cfg.c **** 			{0xC0u, 0x08u},
 972:.\Generated_Source\PSoC4/cyfitter_cfg.c **** 			{0xC2u, 0x04u},
 973:.\Generated_Source\PSoC4/cyfitter_cfg.c **** 			{0xCEu, 0x03u},
 974:.\Generated_Source\PSoC4/cyfitter_cfg.c **** 			{0xD0u, 0x03u},
 975:.\Generated_Source\PSoC4/cyfitter_cfg.c **** 			{0xD2u, 0x0Eu},
 976:.\Generated_Source\PSoC4/cyfitter_cfg.c **** 			{0xD4u, 0x06u},
 977:.\Generated_Source\PSoC4/cyfitter_cfg.c **** 			{0xD6u, 0x02u},
 978:.\Generated_Source\PSoC4/cyfitter_cfg.c **** 			{0xE4u, 0x01u},
 979:.\Generated_Source\PSoC4/cyfitter_cfg.c **** 			{0xE8u, 0x01u},
 980:.\Generated_Source\PSoC4/cyfitter_cfg.c **** 			{0x3Bu, 0x01u},
 981:.\Generated_Source\PSoC4/cyfitter_cfg.c **** 			{0x3Fu, 0x01u},
 982:.\Generated_Source\PSoC4/cyfitter_cfg.c **** 			{0x40u, 0x80u},
 983:.\Generated_Source\PSoC4/cyfitter_cfg.c **** 			{0x46u, 0x20u},
 984:.\Generated_Source\PSoC4/cyfitter_cfg.c **** 			{0x4Bu, 0x20u},
 985:.\Generated_Source\PSoC4/cyfitter_cfg.c **** 			{0x82u, 0x80u},
 986:.\Generated_Source\PSoC4/cyfitter_cfg.c **** 			{0x8Bu, 0x10u},
 987:.\Generated_Source\PSoC4/cyfitter_cfg.c **** 			{0x92u, 0x40u},
 988:.\Generated_Source\PSoC4/cyfitter_cfg.c **** 			{0x93u, 0x01u},
 989:.\Generated_Source\PSoC4/cyfitter_cfg.c **** 			{0x94u, 0x20u},
 990:.\Generated_Source\PSoC4/cyfitter_cfg.c **** 			{0x9Eu, 0x80u},
 991:.\Generated_Source\PSoC4/cyfitter_cfg.c **** 			{0xAAu, 0x20u},
 992:.\Generated_Source\PSoC4/cyfitter_cfg.c **** 			{0xB1u, 0x02u},
 993:.\Generated_Source\PSoC4/cyfitter_cfg.c **** 			{0xCEu, 0x03u},
 994:.\Generated_Source\PSoC4/cyfitter_cfg.c **** 			{0xD0u, 0x03u},
 995:.\Generated_Source\PSoC4/cyfitter_cfg.c **** 			{0xD2u, 0x08u},
 996:.\Generated_Source\PSoC4/cyfitter_cfg.c **** 			{0xE4u, 0x01u},
 997:.\Generated_Source\PSoC4/cyfitter_cfg.c **** 			{0xEAu, 0x01u},
 998:.\Generated_Source\PSoC4/cyfitter_cfg.c **** 			{0x06u, 0x20u},
 999:.\Generated_Source\PSoC4/cyfitter_cfg.c **** 			{0x0Bu, 0x20u},
1000:.\Generated_Source\PSoC4/cyfitter_cfg.c **** 			{0x2Du, 0x08u},
1001:.\Generated_Source\PSoC4/cyfitter_cfg.c **** 			{0x54u, 0x01u},
1002:.\Generated_Source\PSoC4/cyfitter_cfg.c **** 			{0x58u, 0x08u},
1003:.\Generated_Source\PSoC4/cyfitter_cfg.c **** 			{0x5Fu, 0x02u},
1004:.\Generated_Source\PSoC4/cyfitter_cfg.c **** 			{0x67u, 0x10u},
1005:.\Generated_Source\PSoC4/cyfitter_cfg.c **** 			{0x84u, 0x08u},
1006:.\Generated_Source\PSoC4/cyfitter_cfg.c **** 			{0x89u, 0x08u},
1007:.\Generated_Source\PSoC4/cyfitter_cfg.c **** 			{0x8Bu, 0x02u},
1008:.\Generated_Source\PSoC4/cyfitter_cfg.c **** 			{0x93u, 0x10u},
1009:.\Generated_Source\PSoC4/cyfitter_cfg.c **** 			{0x97u, 0x20u},
1010:.\Generated_Source\PSoC4/cyfitter_cfg.c **** 			{0x9Eu, 0x20u},
1011:.\Generated_Source\PSoC4/cyfitter_cfg.c **** 			{0xA0u, 0x01u},
ARM GAS  C:\Users\LAIR\AppData\Local\Temp\ccE6w4yy.s 			page 26


1012:.\Generated_Source\PSoC4/cyfitter_cfg.c **** 			{0xAAu, 0x40u},
1013:.\Generated_Source\PSoC4/cyfitter_cfg.c **** 			{0xB0u, 0x01u},
1014:.\Generated_Source\PSoC4/cyfitter_cfg.c **** 			{0xB4u, 0x90u},
1015:.\Generated_Source\PSoC4/cyfitter_cfg.c **** 			{0xC0u, 0x04u},
1016:.\Generated_Source\PSoC4/cyfitter_cfg.c **** 			{0xC2u, 0x08u},
1017:.\Generated_Source\PSoC4/cyfitter_cfg.c **** 			{0xCAu, 0x01u},
1018:.\Generated_Source\PSoC4/cyfitter_cfg.c **** 			{0xD6u, 0x07u},
1019:.\Generated_Source\PSoC4/cyfitter_cfg.c **** 			{0xD8u, 0x01u},
1020:.\Generated_Source\PSoC4/cyfitter_cfg.c **** 			{0xE0u, 0x04u},
1021:.\Generated_Source\PSoC4/cyfitter_cfg.c **** 			{0xE2u, 0x01u},
1022:.\Generated_Source\PSoC4/cyfitter_cfg.c **** 			{0xE8u, 0x09u},
1023:.\Generated_Source\PSoC4/cyfitter_cfg.c **** 			{0xECu, 0x02u},
1024:.\Generated_Source\PSoC4/cyfitter_cfg.c **** 			{0x01u, 0x01u},
1025:.\Generated_Source\PSoC4/cyfitter_cfg.c **** 			{0x10u, 0x01u},
1026:.\Generated_Source\PSoC4/cyfitter_cfg.c **** 			{0x12u, 0x01u},
1027:.\Generated_Source\PSoC4/cyfitter_cfg.c **** 		};
1028:.\Generated_Source\PSoC4/cyfitter_cfg.c **** 
1029:.\Generated_Source\PSoC4/cyfitter_cfg.c **** 
1030:.\Generated_Source\PSoC4/cyfitter_cfg.c **** 
1031:.\Generated_Source\PSoC4/cyfitter_cfg.c **** 		CYPACKED typedef struct {
1032:.\Generated_Source\PSoC4/cyfitter_cfg.c **** 			void CYFAR *address;
1033:.\Generated_Source\PSoC4/cyfitter_cfg.c **** 			uint16 size;
1034:.\Generated_Source\PSoC4/cyfitter_cfg.c **** 		} CYPACKED_ATTR cfg_memset_t;
1035:.\Generated_Source\PSoC4/cyfitter_cfg.c **** 
1036:.\Generated_Source\PSoC4/cyfitter_cfg.c **** 		static const cfg_memset_t CYCODE cfg_memset_list [] = {
1037:.\Generated_Source\PSoC4/cyfitter_cfg.c **** 			/* address, size */
1038:.\Generated_Source\PSoC4/cyfitter_cfg.c **** 			{(void CYFAR *)(CYDEV_UDB_P0_U0_BASE), 2048u},
1039:.\Generated_Source\PSoC4/cyfitter_cfg.c **** 			{(void CYFAR *)(CYDEV_UDB_DSI0_BASE), 2048u},
1040:.\Generated_Source\PSoC4/cyfitter_cfg.c **** 		};
1041:.\Generated_Source\PSoC4/cyfitter_cfg.c **** 
1042:.\Generated_Source\PSoC4/cyfitter_cfg.c **** 		uint8 CYDATA i;
1043:.\Generated_Source\PSoC4/cyfitter_cfg.c **** 
1044:.\Generated_Source\PSoC4/cyfitter_cfg.c **** 		/* Zero out critical memory blocks before beginning configuration */
1045:.\Generated_Source\PSoC4/cyfitter_cfg.c **** 		for (i = 0u; i < (sizeof(cfg_memset_list)/sizeof(cfg_memset_list[0])); i++)
 400              		.loc 1 1045 0
 401 011a 0024     		mov	r4, #0
 402 011c 10E0     		b	.L19
 403              	.LVL26:
 404              	.L20:
 405              	.LBB4:
1046:.\Generated_Source\PSoC4/cyfitter_cfg.c **** 		{
1047:.\Generated_Source\PSoC4/cyfitter_cfg.c **** 			const cfg_memset_t CYCODE * CYDATA ms = &cfg_memset_list[i];
1048:.\Generated_Source\PSoC4/cyfitter_cfg.c **** 			CYMEMZERO(ms->address, (size_t)(uint32)(ms->size));
 406              		.loc 1 1048 0 discriminator 3
 407 011e 5A48     		ldr	r0, .L21+4
 408 0120 6300     		lsl	r3, r4, #1
 409 0122 1A19     		add	r2, r3, r4
 410 0124 5200     		lsl	r2, r2, #1
 411 0126 8218     		add	r2, r0, r2
 412 0128 9188     		ldrh	r1, [r2, #4]
 413 012a 1B19     		add	r3, r3, r4
 414 012c 5B00     		lsl	r3, r3, #1
 415 012e 1A5A     		ldrh	r2, [r3, r0]
 416 0130 C318     		add	r3, r0, r3
 417 0132 5888     		ldrh	r0, [r3, #2]
 418 0134 0004     		lsl	r0, r0, #16
 419 0136 1043     		orr	r0, r2
ARM GAS  C:\Users\LAIR\AppData\Local\Temp\ccE6w4yy.s 			page 27


 420 0138 FFF7FEFF 		bl	CYMEMZERO
 421              	.LVL27:
 422              	.LBE4:
1045:.\Generated_Source\PSoC4/cyfitter_cfg.c **** 		{
 423              		.loc 1 1045 0 discriminator 3
 424 013c 0134     		add	r4, r4, #1
 425              	.LVL28:
 426 013e E4B2     		uxtb	r4, r4
 427              	.LVL29:
 428              	.L19:
1045:.\Generated_Source\PSoC4/cyfitter_cfg.c **** 		{
 429              		.loc 1 1045 0 is_stmt 0 discriminator 1
 430 0140 012C     		cmp	r4, #1
 431 0142 ECD9     		bls	.L20
1049:.\Generated_Source\PSoC4/cyfitter_cfg.c **** 		}
1050:.\Generated_Source\PSoC4/cyfitter_cfg.c **** 
1051:.\Generated_Source\PSoC4/cyfitter_cfg.c **** 		cfg_write_bytes32(cy_cfg_addr_table, cy_cfg_data_table);
 432              		.loc 1 1051 0 is_stmt 1
 433 0144 5049     		ldr	r1, .L21+4
 434 0146 081C     		mov	r0, r1
 435 0148 0C30     		add	r0, r0, #12
 436 014a 5431     		add	r1, r1, #84
 437 014c FFF7FEFF 		bl	cfg_write_bytes32
 438              	.LVL30:
1052:.\Generated_Source\PSoC4/cyfitter_cfg.c **** 
1053:.\Generated_Source\PSoC4/cyfitter_cfg.c **** 		/* HSIOM Starting address: CYDEV_HSIOM_BASE */
1054:.\Generated_Source\PSoC4/cyfitter_cfg.c **** 		CY_SET_XTND_REG32((void CYFAR *)(CYDEV_HSIOM_BASE), 0x63030000u);
 439              		.loc 1 1054 0
 440 0150 4E4A     		ldr	r2, .L21+8
 441 0152 4F4B     		ldr	r3, .L21+12
 442 0154 1A60     		str	r2, [r3]
1055:.\Generated_Source\PSoC4/cyfitter_cfg.c **** 		CY_SET_XTND_REG32((void CYFAR *)(CYREG_HSIOM_PORT_SEL1), 0x00033099u);
 443              		.loc 1 1055 0
 444 0156 4F4A     		ldr	r2, .L21+16
 445 0158 4F4B     		ldr	r3, .L21+20
 446 015a 1A60     		str	r2, [r3]
1056:.\Generated_Source\PSoC4/cyfitter_cfg.c **** 		CY_SET_XTND_REG32((void CYFAR *)(CYREG_HSIOM_PORT_SEL2), 0x00000330u);
 447              		.loc 1 1056 0
 448 015c CC22     		mov	r2, #204
 449 015e 9200     		lsl	r2, r2, #2
 450 0160 4E4B     		ldr	r3, .L21+24
 451 0162 1A60     		str	r2, [r3]
1057:.\Generated_Source\PSoC4/cyfitter_cfg.c **** 		CY_SET_XTND_REG32((void CYFAR *)(CYREG_HSIOM_PORT_SEL3), 0x3330EE03u);
 452              		.loc 1 1057 0
 453 0164 4E4A     		ldr	r2, .L21+28
 454 0166 4F4B     		ldr	r3, .L21+32
 455 0168 1A60     		str	r2, [r3]
1058:.\Generated_Source\PSoC4/cyfitter_cfg.c **** 		CY_SET_XTND_REG32((void CYFAR *)(CYREG_HSIOM_PORT_SEL4), 0x07000330u);
 456              		.loc 1 1058 0
 457 016a 4F4A     		ldr	r2, .L21+36
 458 016c 4F4B     		ldr	r3, .L21+40
 459 016e 1A60     		str	r2, [r3]
1059:.\Generated_Source\PSoC4/cyfitter_cfg.c **** 		CY_SET_XTND_REG32((void CYFAR *)(CYREG_HSIOM_PORT_SEL5), 0x00607000u);
 460              		.loc 1 1059 0
 461 0170 4F4A     		ldr	r2, .L21+44
 462 0172 504B     		ldr	r3, .L21+48
 463 0174 1A60     		str	r2, [r3]
ARM GAS  C:\Users\LAIR\AppData\Local\Temp\ccE6w4yy.s 			page 28


1060:.\Generated_Source\PSoC4/cyfitter_cfg.c **** 
1061:.\Generated_Source\PSoC4/cyfitter_cfg.c **** 		/* UDB_PA_0 Starting address: CYDEV_UDB_PA0_BASE */
1062:.\Generated_Source\PSoC4/cyfitter_cfg.c **** 		CY_SET_XTND_REG32((void CYFAR *)(CYDEV_UDB_PA0_BASE), 0x00990000u);
 464              		.loc 1 1062 0
 465 0176 9923     		mov	r3, #153
 466 0178 1B04     		lsl	r3, r3, #16
 467 017a 4F4A     		ldr	r2, .L21+52
 468 017c 1360     		str	r3, [r2]
1063:.\Generated_Source\PSoC4/cyfitter_cfg.c **** 		CY_SET_XTND_REG32((void CYFAR *)(CYREG_UDB_PA0_CFG8), 0x51C00000u);
 469              		.loc 1 1063 0
 470 017e 4F49     		ldr	r1, .L21+56
 471 0180 4F4A     		ldr	r2, .L21+60
 472 0182 1160     		str	r1, [r2]
1064:.\Generated_Source\PSoC4/cyfitter_cfg.c **** 
1065:.\Generated_Source\PSoC4/cyfitter_cfg.c **** 		/* UDB_PA_1 Starting address: CYDEV_UDB_PA1_BASE */
1066:.\Generated_Source\PSoC4/cyfitter_cfg.c **** 		CY_SET_XTND_REG32((void CYFAR *)(CYDEV_UDB_PA1_BASE), 0x00990000u);
 473              		.loc 1 1066 0
 474 0184 4F4A     		ldr	r2, .L21+64
 475 0186 1360     		str	r3, [r2]
1067:.\Generated_Source\PSoC4/cyfitter_cfg.c **** 		CY_SET_XTND_REG32((void CYFAR *)(CYREG_UDB_PA1_CFG8), 0x03800000u);
 476              		.loc 1 1067 0
 477 0188 E021     		mov	r1, #224
 478 018a 8904     		lsl	r1, r1, #18
 479 018c 4E4A     		ldr	r2, .L21+68
 480 018e 1160     		str	r1, [r2]
1068:.\Generated_Source\PSoC4/cyfitter_cfg.c **** 
1069:.\Generated_Source\PSoC4/cyfitter_cfg.c **** 		/* UDB_PA_2 Starting address: CYDEV_UDB_PA2_BASE */
1070:.\Generated_Source\PSoC4/cyfitter_cfg.c **** 		CY_SET_XTND_REG32((void CYFAR *)(CYDEV_UDB_PA2_BASE), 0x00990000u);
 481              		.loc 1 1070 0
 482 0190 4E4A     		ldr	r2, .L21+72
 483 0192 1360     		str	r3, [r2]
1071:.\Generated_Source\PSoC4/cyfitter_cfg.c **** 		CY_SET_XTND_REG32((void CYFAR *)(CYREG_UDB_PA2_CFG8), 0x00240000u);
 484              		.loc 1 1071 0
 485 0194 9021     		mov	r1, #144
 486 0196 8903     		lsl	r1, r1, #14
 487 0198 4D4A     		ldr	r2, .L21+76
 488 019a 1160     		str	r1, [r2]
1072:.\Generated_Source\PSoC4/cyfitter_cfg.c **** 
1073:.\Generated_Source\PSoC4/cyfitter_cfg.c **** 		/* UDB_PA_4 Starting address: CYDEV_UDB_PA4_BASE */
1074:.\Generated_Source\PSoC4/cyfitter_cfg.c **** 		CY_SET_XTND_REG32((void CYFAR *)(CYDEV_UDB_PA4_BASE), 0x00990000u);
 489              		.loc 1 1074 0
 490 019c 4D4A     		ldr	r2, .L21+80
 491 019e 1360     		str	r3, [r2]
1075:.\Generated_Source\PSoC4/cyfitter_cfg.c **** 		CY_SET_XTND_REG32((void CYFAR *)(CYREG_UDB_PA4_CFG8), 0x39000000u);
 492              		.loc 1 1075 0
 493 01a0 E421     		mov	r1, #228
 494 01a2 8905     		lsl	r1, r1, #22
 495 01a4 4C4A     		ldr	r2, .L21+84
 496 01a6 1160     		str	r1, [r2]
1076:.\Generated_Source\PSoC4/cyfitter_cfg.c **** 
1077:.\Generated_Source\PSoC4/cyfitter_cfg.c **** 		/* UDB_PA_5 Starting address: CYDEV_UDB_PA5_BASE */
1078:.\Generated_Source\PSoC4/cyfitter_cfg.c **** 		CY_SET_XTND_REG32((void CYFAR *)(CYDEV_UDB_PA5_BASE), 0x00990000u);
 497              		.loc 1 1078 0
 498 01a8 4C4A     		ldr	r2, .L21+88
 499 01aa 1360     		str	r3, [r2]
1079:.\Generated_Source\PSoC4/cyfitter_cfg.c **** 		CY_SET_XTND_REG32((void CYFAR *)(CYREG_UDB_PA5_CFG8), 0x45860000u);
 500              		.loc 1 1079 0
ARM GAS  C:\Users\LAIR\AppData\Local\Temp\ccE6w4yy.s 			page 29


 501 01ac 4C49     		ldr	r1, .L21+92
 502 01ae 4D4A     		ldr	r2, .L21+96
 503 01b0 1160     		str	r1, [r2]
1080:.\Generated_Source\PSoC4/cyfitter_cfg.c **** 
1081:.\Generated_Source\PSoC4/cyfitter_cfg.c **** 		/* UDB_PA_7 Starting address: CYDEV_UDB_PA7_BASE */
1082:.\Generated_Source\PSoC4/cyfitter_cfg.c **** 		CY_SET_XTND_REG32((void CYFAR *)(CYDEV_UDB_PA7_BASE), 0x00990000u);
 504              		.loc 1 1082 0
 505 01b2 4D4A     		ldr	r2, .L21+100
 506 01b4 1360     		str	r3, [r2]
1083:.\Generated_Source\PSoC4/cyfitter_cfg.c **** 		CY_SET_XTND_REG32((void CYFAR *)(CYREG_UDB_PA7_CFG8), 0x72030000u);
 507              		.loc 1 1083 0
 508 01b6 4D4A     		ldr	r2, .L21+104
 509 01b8 4D4B     		ldr	r3, .L21+108
 510 01ba 1A60     		str	r2, [r3]
1084:.\Generated_Source\PSoC4/cyfitter_cfg.c **** 
1085:.\Generated_Source\PSoC4/cyfitter_cfg.c **** 		/* TCPWM_CNT0 Starting address: CYDEV_TCPWM_CNT0_TR_CTRL0 */
1086:.\Generated_Source\PSoC4/cyfitter_cfg.c **** 		CY_SET_XTND_REG32((void CYFAR *)(CYREG_TCPWM_CNT0_TR_CTRL0), 0x000B0040u);
 511              		.loc 1 1086 0
 512 01bc 4D4A     		ldr	r2, .L21+112
 513 01be 4E4B     		ldr	r3, .L21+116
 514 01c0 1A60     		str	r2, [r3]
1087:.\Generated_Source\PSoC4/cyfitter_cfg.c **** 
1088:.\Generated_Source\PSoC4/cyfitter_cfg.c **** 		/* TCPWM_CNT2 Starting address: CYDEV_TCPWM_CNT2_TR_CTRL0 */
1089:.\Generated_Source\PSoC4/cyfitter_cfg.c **** 		CY_SET_XTND_REG32((void CYFAR *)(CYREG_TCPWM_CNT2_TR_CTRL0), 0x000F00D0u);
 515              		.loc 1 1089 0
 516 01c2 4E4A     		ldr	r2, .L21+120
 517 01c4 4E4B     		ldr	r3, .L21+124
 518 01c6 1A60     		str	r2, [r3]
1090:.\Generated_Source\PSoC4/cyfitter_cfg.c **** 
1091:.\Generated_Source\PSoC4/cyfitter_cfg.c **** 		/* TCPWM_CNT6 Starting address: CYDEV_TCPWM_CNT6_TR_CTRL0 */
1092:.\Generated_Source\PSoC4/cyfitter_cfg.c **** 		CY_SET_XTND_REG32((void CYFAR *)(CYREG_TCPWM_CNT6_TR_CTRL0), 0x000E0050u);
 519              		.loc 1 1092 0
 520 01c8 4E4A     		ldr	r2, .L21+128
 521 01ca 4F4B     		ldr	r3, .L21+132
 522 01cc 1A60     		str	r2, [r3]
1093:.\Generated_Source\PSoC4/cyfitter_cfg.c **** 
1094:.\Generated_Source\PSoC4/cyfitter_cfg.c **** 		/* TCPWM_CNT7 Starting address: CYDEV_TCPWM_CNT7_TR_CTRL0 */
1095:.\Generated_Source\PSoC4/cyfitter_cfg.c **** 		CY_SET_XTND_REG32((void CYFAR *)(CYREG_TCPWM_CNT7_TR_CTRL0), 0x000C0060u);
 523              		.loc 1 1095 0
 524 01ce 4F4A     		ldr	r2, .L21+136
 525 01d0 4F4B     		ldr	r3, .L21+140
 526 01d2 1A60     		str	r2, [r3]
1096:.\Generated_Source\PSoC4/cyfitter_cfg.c **** 
1097:.\Generated_Source\PSoC4/cyfitter_cfg.c **** 		/* INT_SELECT Starting address: CYDEV_CPUSS_INT_SEL */
1098:.\Generated_Source\PSoC4/cyfitter_cfg.c **** 		CY_SET_XTND_REG32((void CYFAR *)(CYREG_CPUSS_INT_SEL), 0x00000001u);
 527              		.loc 1 1098 0
 528 01d4 0123     		mov	r3, #1
 529 01d6 4F4A     		ldr	r2, .L21+144
 530 01d8 1360     		str	r3, [r2]
1099:.\Generated_Source\PSoC4/cyfitter_cfg.c **** 
1100:.\Generated_Source\PSoC4/cyfitter_cfg.c **** 		/* TR_GROUP0 Starting address: CYDEV_PERI_TR_GROUP0_TR_OUT_CTL0 */
1101:.\Generated_Source\PSoC4/cyfitter_cfg.c **** 		CY_SET_XTND_REG32((void CYFAR *)(CYREG_PERI_TR_GROUP0_TR_OUT_CTL2), 0x00000019u);
 531              		.loc 1 1101 0
 532 01da 1921     		mov	r1, #25
 533 01dc 4E4A     		ldr	r2, .L21+148
 534 01de 1160     		str	r1, [r2]
1102:.\Generated_Source\PSoC4/cyfitter_cfg.c **** 
ARM GAS  C:\Users\LAIR\AppData\Local\Temp\ccE6w4yy.s 			page 30


1103:.\Generated_Source\PSoC4/cyfitter_cfg.c **** 		/* TR_GROUP1 Starting address: CYDEV_PERI_TR_GROUP1_TR_OUT_CTL0 */
1104:.\Generated_Source\PSoC4/cyfitter_cfg.c **** 		CY_SET_XTND_REG32((void CYFAR *)(CYREG_PERI_TR_GROUP1_TR_OUT_CTL0), 0x00000001u);
 535              		.loc 1 1104 0
 536 01e0 4E4A     		ldr	r2, .L21+152
 537 01e2 1360     		str	r3, [r2]
1105:.\Generated_Source\PSoC4/cyfitter_cfg.c **** 		CY_SET_XTND_REG32((void CYFAR *)(CYREG_PERI_TR_GROUP1_TR_OUT_CTL1), 0x00000002u);
 538              		.loc 1 1105 0
 539 01e4 0222     		mov	r2, #2
 540 01e6 4E49     		ldr	r1, .L21+156
 541 01e8 0A60     		str	r2, [r1]
1106:.\Generated_Source\PSoC4/cyfitter_cfg.c **** 
1107:.\Generated_Source\PSoC4/cyfitter_cfg.c **** 		/* TR_GROUP3 Starting address: CYDEV_PERI_TR_GROUP3_TR_OUT_CTL0 */
1108:.\Generated_Source\PSoC4/cyfitter_cfg.c **** 		CY_SET_XTND_REG32((void CYFAR *)(CYREG_PERI_TR_GROUP3_TR_OUT_CTL0), 0x00000001u);
 542              		.loc 1 1108 0
 543 01ea 4E49     		ldr	r1, .L21+160
 544 01ec 0B60     		str	r3, [r1]
1109:.\Generated_Source\PSoC4/cyfitter_cfg.c **** 		CY_SET_XTND_REG32((void CYFAR *)(CYREG_PERI_TR_GROUP3_TR_OUT_CTL1), 0x00000002u);
 545              		.loc 1 1109 0
 546 01ee 4E4B     		ldr	r3, .L21+164
 547 01f0 1A60     		str	r2, [r3]
1110:.\Generated_Source\PSoC4/cyfitter_cfg.c **** 
1111:.\Generated_Source\PSoC4/cyfitter_cfg.c **** 		/* Enable digital routing */
1112:.\Generated_Source\PSoC4/cyfitter_cfg.c **** 		CY_SET_XTND_REG8((void *)CYREG_UDB_UDB_BANK_CTL, CY_GET_XTND_REG8((void *)CYREG_UDB_UDB_BANK_CTL)
 548              		.loc 1 1112 0
 549 01f2 4E4B     		ldr	r3, .L21+168
 550 01f4 1878     		ldrb	r0, [r3]
 551 01f6 0221     		mov	r1, #2
 552 01f8 0143     		orr	r1, r0
 553 01fa 1970     		strb	r1, [r3]
1113:.\Generated_Source\PSoC4/cyfitter_cfg.c **** 
1114:.\Generated_Source\PSoC4/cyfitter_cfg.c **** 		/* Enable UDB array */
1115:.\Generated_Source\PSoC4/cyfitter_cfg.c **** 		CY_SET_XTND_REG8((void *)CYREG_UDB_UDB_WAIT_CFG, (uint8)((CY_GET_XTND_REG8((void *)CYREG_UDB_UDB_
 554              		.loc 1 1115 0
 555 01fc 4C4C     		ldr	r4, .L21+172
 556              	.LVL31:
 557 01fe 2178     		ldrb	r1, [r4]
 558 0200 3C20     		mov	r0, #60
 559 0202 8143     		bic	r1, r0
 560 0204 2838     		sub	r0, r0, #40
 561 0206 0143     		orr	r1, r0
 562 0208 2170     		strb	r1, [r4]
1116:.\Generated_Source\PSoC4/cyfitter_cfg.c **** 		CY_SET_XTND_REG8((void *)CYREG_UDB_UDB_BANK_CTL, (uint8)(CY_GET_XTND_REG8((void *)CYREG_UDB_UDB_B
 563              		.loc 1 1116 0
 564 020a 1878     		ldrb	r0, [r3]
 565 020c 1621     		mov	r1, #22
 566 020e 0143     		orr	r1, r0
 567 0210 1970     		strb	r1, [r3]
 568              	.LBE3:
1117:.\Generated_Source\PSoC4/cyfitter_cfg.c **** 	}
1118:.\Generated_Source\PSoC4/cyfitter_cfg.c **** 
1119:.\Generated_Source\PSoC4/cyfitter_cfg.c **** 	/* Perform second pass device configuration. These items must be configured in specific order afte
1120:.\Generated_Source\PSoC4/cyfitter_cfg.c **** 	/* IOPINS0_0 Starting address: CYDEV_GPIO_PRT0_BASE */
1121:.\Generated_Source\PSoC4/cyfitter_cfg.c **** 	CY_SET_XTND_REG32((void CYFAR *)(CYDEV_GPIO_PRT0_BASE), 0x000000D0u);
 569              		.loc 1 1121 0
 570 0212 D021     		mov	r1, #208
 571 0214 474B     		ldr	r3, .L21+176
 572 0216 1960     		str	r1, [r3]
ARM GAS  C:\Users\LAIR\AppData\Local\Temp\ccE6w4yy.s 			page 31


1122:.\Generated_Source\PSoC4/cyfitter_cfg.c **** 	CY_SET_XTND_REG32((void CYFAR *)(CYREG_GPIO_PRT0_PC), 0x0018E208u);
 573              		.loc 1 1122 0
 574 0218 4749     		ldr	r1, .L21+180
 575 021a 484B     		ldr	r3, .L21+184
 576 021c 1960     		str	r1, [r3]
1123:.\Generated_Source\PSoC4/cyfitter_cfg.c **** 	CY_SET_XTND_REG32((void CYFAR *)(CYREG_GPIO_PRT0_PC2), 0x00000080u);
 577              		.loc 1 1123 0
 578 021e 8021     		mov	r1, #128
 579 0220 474B     		ldr	r3, .L21+188
 580 0222 1960     		str	r1, [r3]
1124:.\Generated_Source\PSoC4/cyfitter_cfg.c **** 
1125:.\Generated_Source\PSoC4/cyfitter_cfg.c **** 	/* IOPINS0_13 Starting address: CYDEV_GPIO_PRT13_BASE */
1126:.\Generated_Source\PSoC4/cyfitter_cfg.c **** 	CY_SET_XTND_REG32((void CYFAR *)(CYDEV_GPIO_PRT13_BASE), 0x00000003u);
 581              		.loc 1 1126 0
 582 0224 7D39     		sub	r1, r1, #125
 583 0226 474B     		ldr	r3, .L21+192
 584 0228 1960     		str	r1, [r3]
1127:.\Generated_Source\PSoC4/cyfitter_cfg.c **** 	CY_SET_XTND_REG32((void CYFAR *)(CYREG_GPIO_PRT13_INTR_CFG), 0x00000002u);
 585              		.loc 1 1127 0
 586 022a 474B     		ldr	r3, .L21+196
 587 022c 1A60     		str	r2, [r3]
1128:.\Generated_Source\PSoC4/cyfitter_cfg.c **** 
1129:.\Generated_Source\PSoC4/cyfitter_cfg.c **** 	/* IOPINS0_1 Starting address: CYDEV_GPIO_PRT1_BASE */
1130:.\Generated_Source\PSoC4/cyfitter_cfg.c **** 	CY_SET_XTND_REG32((void CYFAR *)(CYDEV_GPIO_PRT1_BASE), 0x0000001Au);
 588              		.loc 1 1130 0
 589 022e 1832     		add	r2, r2, #24
 590 0230 464B     		ldr	r3, .L21+200
 591 0232 1A60     		str	r2, [r3]
1131:.\Generated_Source\PSoC4/cyfitter_cfg.c **** 	CY_SET_XTND_REG32((void CYFAR *)(CYREG_GPIO_PRT1_PC), 0x0004EC71u);
 592              		.loc 1 1131 0
 593 0234 464A     		ldr	r2, .L21+204
 594 0236 474B     		ldr	r3, .L21+208
 595 0238 1A60     		str	r2, [r3]
1132:.\Generated_Source\PSoC4/cyfitter_cfg.c **** 	CY_SET_XTND_REG32((void CYFAR *)(CYREG_GPIO_PRT1_PC2), 0x00000082u);
 596              		.loc 1 1132 0
 597 023a 8222     		mov	r2, #130
 598 023c 464B     		ldr	r3, .L21+212
 599 023e 1A60     		str	r2, [r3]
1133:.\Generated_Source\PSoC4/cyfitter_cfg.c **** 
1134:.\Generated_Source\PSoC4/cyfitter_cfg.c **** 	/* IOPINS0_2 Starting address: CYDEV_GPIO_PRT2_BASE */
1135:.\Generated_Source\PSoC4/cyfitter_cfg.c **** 	CY_SET_XTND_REG32((void CYFAR *)(CYDEV_GPIO_PRT2_BASE), 0x000000EEu);
 600              		.loc 1 1135 0
 601 0240 6C32     		add	r2, r2, #108
 602 0242 464B     		ldr	r3, .L21+216
 603 0244 1A60     		str	r2, [r3]
1136:.\Generated_Source\PSoC4/cyfitter_cfg.c **** 	CY_SET_XTND_REG32((void CYFAR *)(CYREG_GPIO_PRT2_PC), 0x000011B1u);
 604              		.loc 1 1136 0
 605 0246 464A     		ldr	r2, .L21+220
 606 0248 464B     		ldr	r3, .L21+224
 607 024a 1A60     		str	r2, [r3]
1137:.\Generated_Source\PSoC4/cyfitter_cfg.c **** 	CY_SET_XTND_REG32((void CYFAR *)(CYREG_GPIO_PRT2_PC2), 0x000000E8u);
 608              		.loc 1 1137 0
 609 024c E822     		mov	r2, #232
 610 024e 464B     		ldr	r3, .L21+228
 611 0250 1A60     		str	r2, [r3]
1138:.\Generated_Source\PSoC4/cyfitter_cfg.c **** 
1139:.\Generated_Source\PSoC4/cyfitter_cfg.c **** 	/* IOPINS0_3 Starting address: CYDEV_GPIO_PRT3_BASE */
ARM GAS  C:\Users\LAIR\AppData\Local\Temp\ccE6w4yy.s 			page 32


1140:.\Generated_Source\PSoC4/cyfitter_cfg.c **** 	CY_SET_XTND_REG32((void CYFAR *)(CYDEV_GPIO_PRT3_BASE), 0x000000E1u);
 612              		.loc 1 1140 0
 613 0252 073A     		sub	r2, r2, #7
 614 0254 454B     		ldr	r3, .L21+232
 615 0256 1A60     		str	r2, [r3]
1141:.\Generated_Source\PSoC4/cyfitter_cfg.c **** 	CY_SET_XTND_REG32((void CYFAR *)(CYREG_GPIO_PRT3_PC), 0x00DB1D8Eu);
 616              		.loc 1 1141 0
 617 0258 454A     		ldr	r2, .L21+236
 618 025a 464B     		ldr	r3, .L21+240
 619 025c 1A60     		str	r2, [r3]
1142:.\Generated_Source\PSoC4/cyfitter_cfg.c **** 
1143:.\Generated_Source\PSoC4/cyfitter_cfg.c **** 	/* IOPINS0_4 Starting address: CYDEV_GPIO_PRT4_BASE */
1144:.\Generated_Source\PSoC4/cyfitter_cfg.c **** 	CY_SET_XTND_REG32((void CYFAR *)(CYDEV_GPIO_PRT4_BASE), 0x00000046u);
 620              		.loc 1 1144 0
 621 025e 4622     		mov	r2, #70
 622 0260 454B     		ldr	r3, .L21+244
 623 0262 1A60     		str	r2, [r3]
1145:.\Generated_Source\PSoC4/cyfitter_cfg.c **** 	CY_SET_XTND_REG32((void CYFAR *)(CYREG_GPIO_PRT4_PC), 0x000081B1u);
 624              		.loc 1 1145 0
 625 0264 454A     		ldr	r2, .L21+248
 626 0266 464B     		ldr	r3, .L21+252
 627 0268 1A60     		str	r2, [r3]
1146:.\Generated_Source\PSoC4/cyfitter_cfg.c **** 	CY_SET_XTND_REG32((void CYFAR *)(CYREG_GPIO_PRT4_PC2), 0x00000040u);
 628              		.loc 1 1146 0
 629 026a 4022     		mov	r2, #64
 630 026c 454B     		ldr	r3, .L21+256
 631 026e 1A60     		str	r2, [r3]
1147:.\Generated_Source\PSoC4/cyfitter_cfg.c **** 
1148:.\Generated_Source\PSoC4/cyfitter_cfg.c **** 	/* IOPINS0_5 Starting address: CYDEV_GPIO_PRT5_BASE */
1149:.\Generated_Source\PSoC4/cyfitter_cfg.c **** 	CY_SET_XTND_REG32((void CYFAR *)(CYDEV_GPIO_PRT5_BASE), 0x00000028u);
 632              		.loc 1 1149 0
 633 0270 2823     		mov	r3, #40
 634 0272 454A     		ldr	r2, .L21+260
 635 0274 1360     		str	r3, [r2]
1150:.\Generated_Source\PSoC4/cyfitter_cfg.c **** 	CY_SET_XTND_REG32((void CYFAR *)(CYREG_GPIO_PRT5_PC2), 0x00000028u);
 636              		.loc 1 1150 0
 637 0276 454A     		ldr	r2, .L21+264
 638 0278 1360     		str	r3, [r2]
1151:.\Generated_Source\PSoC4/cyfitter_cfg.c **** 
1152:.\Generated_Source\PSoC4/cyfitter_cfg.c **** 
1153:.\Generated_Source\PSoC4/cyfitter_cfg.c **** 	/* Setup clocks based on selections from Clock DWR */
1154:.\Generated_Source\PSoC4/cyfitter_cfg.c **** 	ClockSetup();
 639              		.loc 1 1154 0
 640 027a FFF7C1FE 		bl	ClockSetup
 641              	.LVL32:
1155:.\Generated_Source\PSoC4/cyfitter_cfg.c **** 
1156:.\Generated_Source\PSoC4/cyfitter_cfg.c **** 	/* Perform basic analog initialization to defaults */
1157:.\Generated_Source\PSoC4/cyfitter_cfg.c **** 	AnalogSetDefault();
 642              		.loc 1 1157 0
 643 027e FFF7FEFF 		bl	AnalogSetDefault
 644              	.LVL33:
1158:.\Generated_Source\PSoC4/cyfitter_cfg.c **** 
1159:.\Generated_Source\PSoC4/cyfitter_cfg.c **** }
 645              		.loc 1 1159 0
 646              		@ sp needed
 647 0282 10BD     		pop	{r4, pc}
 648              	.L22:
ARM GAS  C:\Users\LAIR\AppData\Local\Temp\ccE6w4yy.s 			page 33


 649              		.align	2
 650              	.L21:
 651 0284 1C700F40 		.word	1074753564
 652 0288 00000000 		.word	.LANCHOR0
 653 028c 00000363 		.word	1661140992
 654 0290 00000240 		.word	1073872896
 655 0294 99300300 		.word	209049
 656 0298 00010240 		.word	1073873152
 657 029c 00020240 		.word	1073873408
 658 02a0 03EE3033 		.word	858844675
 659 02a4 00030240 		.word	1073873664
 660 02a8 30030007 		.word	117441328
 661 02ac 00040240 		.word	1073873920
 662 02b0 00706000 		.word	6320128
 663 02b4 00050240 		.word	1073874176
 664 02b8 00500F40 		.word	1074745344
 665 02bc 0000C051 		.word	1371537408
 666 02c0 08500F40 		.word	1074745352
 667 02c4 10500F40 		.word	1074745360
 668 02c8 18500F40 		.word	1074745368
 669 02cc 20500F40 		.word	1074745376
 670 02d0 28500F40 		.word	1074745384
 671 02d4 40500F40 		.word	1074745408
 672 02d8 48500F40 		.word	1074745416
 673 02dc 50500F40 		.word	1074745424
 674 02e0 00008645 		.word	1166409728
 675 02e4 58500F40 		.word	1074745432
 676 02e8 70500F40 		.word	1074745456
 677 02ec 00000372 		.word	1912799232
 678 02f0 78500F40 		.word	1074745464
 679 02f4 40000B00 		.word	720960
 680 02f8 20012040 		.word	1075839264
 681 02fc D0000F00 		.word	983248
 682 0300 A0012040 		.word	1075839392
 683 0304 50000E00 		.word	917584
 684 0308 A0022040 		.word	1075839648
 685 030c 60000C00 		.word	786528
 686 0310 E0022040 		.word	1075839712
 687 0314 20001040 		.word	1074790432
 688 0318 08200140 		.word	1073815560
 689 031c 00220140 		.word	1073816064
 690 0320 04220140 		.word	1073816068
 691 0324 00260140 		.word	1073817088
 692 0328 04260140 		.word	1073817092
 693 032c 00700F40 		.word	1074753536
 694 0330 01700F40 		.word	1074753537
 695 0334 00000440 		.word	1074003968
 696 0338 08E21800 		.word	1630728
 697 033c 08000440 		.word	1074003976
 698 0340 18000440 		.word	1074003992
 699 0344 000D0440 		.word	1074007296
 700 0348 0C0D0440 		.word	1074007308
 701 034c 00010440 		.word	1074004224
 702 0350 71EC0400 		.word	322673
 703 0354 08010440 		.word	1074004232
 704 0358 18010440 		.word	1074004248
 705 035c 00020440 		.word	1074004480
ARM GAS  C:\Users\LAIR\AppData\Local\Temp\ccE6w4yy.s 			page 34


 706 0360 B1110000 		.word	4529
 707 0364 08020440 		.word	1074004488
 708 0368 18020440 		.word	1074004504
 709 036c 00030440 		.word	1074004736
 710 0370 8E1DDB00 		.word	14359950
 711 0374 08030440 		.word	1074004744
 712 0378 00040440 		.word	1074004992
 713 037c B1810000 		.word	33201
 714 0380 08040440 		.word	1074005000
 715 0384 18040440 		.word	1074005016
 716 0388 00050440 		.word	1074005248
 717 038c 18050440 		.word	1074005272
 718              		.cfi_endproc
 719              	.LFE8:
 720              		.size	cyfitter_cfg, .-cyfitter_cfg
 721              		.section	.rodata
 722              		.align	2
 723              		.set	.LANCHOR0,. + 0
 724              		.type	cfg_memset_list.4851, %object
 725              		.size	cfg_memset_list.4851, 12
 726              	cfg_memset_list.4851:
 727 0000 00300F40 		.word	1074737152
 728 0004 0008     		.short	2048
 729 0006 00400F40 		.4byte	1074741248
 730 000a 0008     		.short	2048
 731              		.type	cy_cfg_addr_table.4845, %object
 732              		.size	cy_cfg_addr_table.4845, 72
 733              	cy_cfg_addr_table.4845:
 734 000c 04000F40 		.word	1074724868
 735 0010 54300F40 		.word	1074737236
 736 0014 31310F40 		.word	1074737457
 737 0018 4F320F40 		.word	1074737743
 738 001c 2D330F40 		.word	1074737965
 739 0020 51340F40 		.word	1074738257
 740 0024 2F350F40 		.word	1074738479
 741 0028 50360F40 		.word	1074738768
 742 002c 34370F40 		.word	1074738996
 743 0030 05400F40 		.word	1074741253
 744 0034 11410F40 		.word	1074741521
 745 0038 15420F40 		.word	1074741781
 746 003c 0D430F40 		.word	1074742029
 747 0040 0A440F40 		.word	1074742282
 748 0044 1C450F40 		.word	1074742556
 749 0048 12460F40 		.word	1074742802
 750 004c 1A470F40 		.word	1074743066
 751 0050 03600F40 		.word	1074749443
 752              		.type	cy_cfg_data_table.4846, %object
 753              		.size	cy_cfg_data_table.4846, 1324
 754              	cy_cfg_data_table.4846:
 755 0054 81       		.byte	-127
 756 0055 0F       		.byte	15
 757 0056 83       		.byte	-125
 758 0057 0F       		.byte	15
 759 0058 85       		.byte	-123
 760 0059 0F       		.byte	15
 761 005a 87       		.byte	-121
 762 005b 0F       		.byte	15
ARM GAS  C:\Users\LAIR\AppData\Local\Temp\ccE6w4yy.s 			page 35


 763 005c 03       		.byte	3
 764 005d 04       		.byte	4
 765 005e 07       		.byte	7
 766 005f 03       		.byte	3
 767 0060 13       		.byte	19
 768 0061 02       		.byte	2
 769 0062 16       		.byte	22
 770 0063 01       		.byte	1
 771 0064 17       		.byte	23
 772 0065 04       		.byte	4
 773 0066 18       		.byte	24
 774 0067 04       		.byte	4
 775 0068 1B       		.byte	27
 776 0069 01       		.byte	1
 777 006a 26       		.byte	38
 778 006b 03       		.byte	3
 779 006c 2A       		.byte	42
 780 006d 02       		.byte	2
 781 006e 2C       		.byte	44
 782 006f 04       		.byte	4
 783 0070 30       		.byte	48
 784 0071 04       		.byte	4
 785 0072 33       		.byte	51
 786 0073 03       		.byte	3
 787 0074 34       		.byte	52
 788 0075 03       		.byte	3
 789 0076 35       		.byte	53
 790 0077 04       		.byte	4
 791 0078 38       		.byte	56
 792 0079 02       		.byte	2
 793 007a 40       		.byte	64
 794 007b 20       		.byte	32
 795 007c 41       		.byte	65
 796 007d 04       		.byte	4
 797 007e 49       		.byte	73
 798 007f FF       		.byte	-1
 799 0080 4A       		.byte	74
 800 0081 FF       		.byte	-1
 801 0082 4B       		.byte	75
 802 0083 FF       		.byte	-1
 803 0084 4D       		.byte	77
 804 0085 A0       		.byte	-96
 805 0086 4F       		.byte	79
 806 0087 04       		.byte	4
 807 0088 50       		.byte	80
 808 0089 18       		.byte	24
 809 008a 52       		.byte	82
 810 008b 80       		.byte	-128
 811 008c 58       		.byte	88
 812 008d 04       		.byte	4
 813 008e 59       		.byte	89
 814 008f 04       		.byte	4
 815 0090 5A       		.byte	90
 816 0091 04       		.byte	4
 817 0092 5B       		.byte	91
 818 0093 04       		.byte	4
 819 0094 5F       		.byte	95
ARM GAS  C:\Users\LAIR\AppData\Local\Temp\ccE6w4yy.s 			page 36


 820 0095 01       		.byte	1
 821 0096 60       		.byte	96
 822 0097 40       		.byte	64
 823 0098 62       		.byte	98
 824 0099 C0       		.byte	-64
 825 009a 64       		.byte	100
 826 009b 40       		.byte	64
 827 009c 65       		.byte	101
 828 009d 40       		.byte	64
 829 009e 66       		.byte	102
 830 009f C0       		.byte	-64
 831 00a0 68       		.byte	104
 832 00a1 C0       		.byte	-64
 833 00a2 6A       		.byte	106
 834 00a3 C0       		.byte	-64
 835 00a4 6C       		.byte	108
 836 00a5 C0       		.byte	-64
 837 00a6 6E       		.byte	110
 838 00a7 C0       		.byte	-64
 839 00a8 83       		.byte	-125
 840 00a9 08       		.byte	8
 841 00aa 84       		.byte	-124
 842 00ab 02       		.byte	2
 843 00ac 8B       		.byte	-117
 844 00ad 04       		.byte	4
 845 00ae 94       		.byte	-108
 846 00af 02       		.byte	2
 847 00b0 97       		.byte	-105
 848 00b1 01       		.byte	1
 849 00b2 A1       		.byte	-95
 850 00b3 03       		.byte	3
 851 00b4 A2       		.byte	-94
 852 00b5 01       		.byte	1
 853 00b6 A6       		.byte	-90
 854 00b7 01       		.byte	1
 855 00b8 AB       		.byte	-85
 856 00b9 02       		.byte	2
 857 00ba AD       		.byte	-83
 858 00bb 0C       		.byte	12
 859 00bc B3       		.byte	-77
 860 00bd 0C       		.byte	12
 861 00be B4       		.byte	-76
 862 00bf 01       		.byte	1
 863 00c0 B6       		.byte	-74
 864 00c1 02       		.byte	2
 865 00c2 B7       		.byte	-73
 866 00c3 03       		.byte	3
 867 00c4 B8       		.byte	-72
 868 00c5 80       		.byte	-128
 869 00c6 B9       		.byte	-71
 870 00c7 20       		.byte	32
 871 00c8 BE       		.byte	-66
 872 00c9 10       		.byte	16
 873 00ca BF       		.byte	-65
 874 00cb 10       		.byte	16
 875 00cc C0       		.byte	-64
 876 00cd 30       		.byte	48
ARM GAS  C:\Users\LAIR\AppData\Local\Temp\ccE6w4yy.s 			page 37


 877 00ce C1       		.byte	-63
 878 00cf 04       		.byte	4
 879 00d0 C5       		.byte	-59
 880 00d1 D0       		.byte	-48
 881 00d2 C6       		.byte	-58
 882 00d3 42       		.byte	66
 883 00d4 C7       		.byte	-57
 884 00d5 51       		.byte	81
 885 00d6 C8       		.byte	-56
 886 00d7 3F       		.byte	63
 887 00d8 C9       		.byte	-55
 888 00d9 FF       		.byte	-1
 889 00da CA       		.byte	-54
 890 00db FF       		.byte	-1
 891 00dc CB       		.byte	-53
 892 00dd FF       		.byte	-1
 893 00de CD       		.byte	-51
 894 00df AF       		.byte	-81
 895 00e0 CE       		.byte	-50
 896 00e1 0F       		.byte	15
 897 00e2 CF       		.byte	-49
 898 00e3 04       		.byte	4
 899 00e4 D0       		.byte	-48
 900 00e5 18       		.byte	24
 901 00e6 D4       		.byte	-44
 902 00e7 07       		.byte	7
 903 00e8 D8       		.byte	-40
 904 00e9 04       		.byte	4
 905 00ea D9       		.byte	-39
 906 00eb 04       		.byte	4
 907 00ec DA       		.byte	-38
 908 00ed 04       		.byte	4
 909 00ee DB       		.byte	-37
 910 00ef 04       		.byte	4
 911 00f0 DF       		.byte	-33
 912 00f1 01       		.byte	1
 913 00f2 E0       		.byte	-32
 914 00f3 40       		.byte	64
 915 00f4 E2       		.byte	-30
 916 00f5 C0       		.byte	-64
 917 00f6 E4       		.byte	-28
 918 00f7 40       		.byte	64
 919 00f8 E5       		.byte	-27
 920 00f9 40       		.byte	64
 921 00fa E6       		.byte	-26
 922 00fb C0       		.byte	-64
 923 00fc E8       		.byte	-24
 924 00fd C0       		.byte	-64
 925 00fe EA       		.byte	-22
 926 00ff C0       		.byte	-64
 927 0100 EC       		.byte	-20
 928 0101 C0       		.byte	-64
 929 0102 EE       		.byte	-18
 930 0103 C0       		.byte	-64
 931 0104 05       		.byte	5
 932 0105 08       		.byte	8
 933 0106 09       		.byte	9
ARM GAS  C:\Users\LAIR\AppData\Local\Temp\ccE6w4yy.s 			page 38


 934 0107 10       		.byte	16
 935 0108 0A       		.byte	10
 936 0109 20       		.byte	32
 937 010a 0C       		.byte	12
 938 010b 08       		.byte	8
 939 010c 10       		.byte	16
 940 010d 0A       		.byte	10
 941 010e 13       		.byte	19
 942 010f 08       		.byte	8
 943 0110 16       		.byte	22
 944 0111 80       		.byte	-128
 945 0112 17       		.byte	23
 946 0113 08       		.byte	8
 947 0114 1A       		.byte	26
 948 0115 04       		.byte	4
 949 0116 1B       		.byte	27
 950 0117 02       		.byte	2
 951 0118 1E       		.byte	30
 952 0119 08       		.byte	8
 953 011a 1F       		.byte	31
 954 011b 80       		.byte	-128
 955 011c 20       		.byte	32
 956 011d 04       		.byte	4
 957 011e 22       		.byte	34
 958 011f 04       		.byte	4
 959 0120 23       		.byte	35
 960 0121 08       		.byte	8
 961 0122 26       		.byte	38
 962 0123 50       		.byte	80
 963 0124 27       		.byte	39
 964 0125 20       		.byte	32
 965 0126 2C       		.byte	44
 966 0127 08       		.byte	8
 967 0128 2F       		.byte	47
 968 0129 82       		.byte	-126
 969 012a 30       		.byte	48
 970 012b 22       		.byte	34
 971 012c 33       		.byte	51
 972 012d 08       		.byte	8
 973 012e 35       		.byte	53
 974 012f 08       		.byte	8
 975 0130 38       		.byte	56
 976 0131 06       		.byte	6
 977 0132 3D       		.byte	61
 978 0133 20       		.byte	32
 979 0134 3F       		.byte	63
 980 0135 02       		.byte	2
 981 0136 40       		.byte	64
 982 0137 04       		.byte	4
 983 0138 42       		.byte	66
 984 0139 80       		.byte	-128
 985 013a 46       		.byte	70
 986 013b 80       		.byte	-128
 987 013c 47       		.byte	71
 988 013d 08       		.byte	8
 989 013e 4D       		.byte	77
 990 013f 09       		.byte	9
ARM GAS  C:\Users\LAIR\AppData\Local\Temp\ccE6w4yy.s 			page 39


 991 0140 4E       		.byte	78
 992 0141 10       		.byte	16
 993 0142 54       		.byte	84
 994 0143 2A       		.byte	42
 995 0144 55       		.byte	85
 996 0145 10       		.byte	16
 997 0146 56       		.byte	86
 998 0147 80       		.byte	-128
 999 0148 57       		.byte	87
 1000 0149 01       		.byte	1
 1001 014a 5D       		.byte	93
 1002 014b 01       		.byte	1
 1003 014c 5E       		.byte	94
 1004 014d 88       		.byte	-120
 1005 014e 5F       		.byte	95
 1006 014f 20       		.byte	32
 1007 0150 70       		.byte	112
 1008 0151 01       		.byte	1
 1009 0152 87       		.byte	-121
 1010 0153 08       		.byte	8
 1011 0154 C0       		.byte	-64
 1012 0155 20       		.byte	32
 1013 0156 C2       		.byte	-62
 1014 0157 26       		.byte	38
 1015 0158 C4       		.byte	-60
 1016 0159 37       		.byte	55
 1017 015a CA       		.byte	-54
 1018 015b B0       		.byte	-80
 1019 015c CC       		.byte	-52
 1020 015d 47       		.byte	71
 1021 015e CE       		.byte	-50
 1022 015f A3       		.byte	-93
 1023 0160 D0       		.byte	-48
 1024 0161 C5       		.byte	-59
 1025 0162 D6       		.byte	-42
 1026 0163 F0       		.byte	-16
 1027 0164 E6       		.byte	-26
 1028 0165 02       		.byte	2
 1029 0166 0B       		.byte	11
 1030 0167 03       		.byte	3
 1031 0168 23       		.byte	35
 1032 0169 01       		.byte	1
 1033 016a 2B       		.byte	43
 1034 016b 02       		.byte	2
 1035 016c 33       		.byte	51
 1036 016d 03       		.byte	3
 1037 016e 40       		.byte	64
 1038 016f 60       		.byte	96
 1039 0170 41       		.byte	65
 1040 0171 05       		.byte	5
 1041 0172 49       		.byte	73
 1042 0173 FF       		.byte	-1
 1043 0174 4A       		.byte	74
 1044 0175 FF       		.byte	-1
 1045 0176 4B       		.byte	75
 1046 0177 FF       		.byte	-1
 1047 0178 4D       		.byte	77
ARM GAS  C:\Users\LAIR\AppData\Local\Temp\ccE6w4yy.s 			page 40


 1048 0179 A0       		.byte	-96
 1049 017a 4F       		.byte	79
 1050 017b 04       		.byte	4
 1051 017c 50       		.byte	80
 1052 017d 18       		.byte	24
 1053 017e 59       		.byte	89
 1054 017f 04       		.byte	4
 1055 0180 5A       		.byte	90
 1056 0181 04       		.byte	4
 1057 0182 5F       		.byte	95
 1058 0183 01       		.byte	1
 1059 0184 60       		.byte	96
 1060 0185 40       		.byte	64
 1061 0186 62       		.byte	98
 1062 0187 C0       		.byte	-64
 1063 0188 64       		.byte	100
 1064 0189 40       		.byte	64
 1065 018a 65       		.byte	101
 1066 018b 40       		.byte	64
 1067 018c 66       		.byte	102
 1068 018d C0       		.byte	-64
 1069 018e 68       		.byte	104
 1070 018f C0       		.byte	-64
 1071 0190 6A       		.byte	106
 1072 0191 C0       		.byte	-64
 1073 0192 6C       		.byte	108
 1074 0193 C0       		.byte	-64
 1075 0194 6E       		.byte	110
 1076 0195 C0       		.byte	-64
 1077 0196 82       		.byte	-126
 1078 0197 01       		.byte	1
 1079 0198 86       		.byte	-122
 1080 0199 0E       		.byte	14
 1081 019a 89       		.byte	-119
 1082 019b 04       		.byte	4
 1083 019c 8B       		.byte	-117
 1084 019d 08       		.byte	8
 1085 019e 8E       		.byte	-114
 1086 019f 02       		.byte	2
 1087 01a0 91       		.byte	-111
 1088 01a1 18       		.byte	24
 1089 01a2 92       		.byte	-110
 1090 01a3 01       		.byte	1
 1091 01a4 97       		.byte	-105
 1092 01a5 02       		.byte	2
 1093 01a6 99       		.byte	-103
 1094 01a7 04       		.byte	4
 1095 01a8 9A       		.byte	-102
 1096 01a9 04       		.byte	4
 1097 01aa 9B       		.byte	-101
 1098 01ab 10       		.byte	16
 1099 01ac 9F       		.byte	-97
 1100 01ad 01       		.byte	1
 1101 01ae A0       		.byte	-96
 1102 01af 10       		.byte	16
 1103 01b0 A6       		.byte	-90
 1104 01b1 08       		.byte	8
ARM GAS  C:\Users\LAIR\AppData\Local\Temp\ccE6w4yy.s 			page 41


 1105 01b2 A8       		.byte	-88
 1106 01b3 10       		.byte	16
 1107 01b4 AD       		.byte	-83
 1108 01b5 03       		.byte	3
 1109 01b6 B0       		.byte	-80
 1110 01b7 0C       		.byte	12
 1111 01b8 B1       		.byte	-79
 1112 01b9 04       		.byte	4
 1113 01ba B2       		.byte	-78
 1114 01bb 02       		.byte	2
 1115 01bc B4       		.byte	-76
 1116 01bd 01       		.byte	1
 1117 01be B5       		.byte	-75
 1118 01bf 18       		.byte	24
 1119 01c0 B6       		.byte	-74
 1120 01c1 10       		.byte	16
 1121 01c2 B7       		.byte	-73
 1122 01c3 03       		.byte	3
 1123 01c4 B8       		.byte	-72
 1124 01c5 80       		.byte	-128
 1125 01c6 B9       		.byte	-71
 1126 01c7 02       		.byte	2
 1127 01c8 BE       		.byte	-66
 1128 01c9 04       		.byte	4
 1129 01ca C0       		.byte	-64
 1130 01cb 20       		.byte	32
 1131 01cc C1       		.byte	-63
 1132 01cd 05       		.byte	5
 1133 01ce C5       		.byte	-59
 1134 01cf D5       		.byte	-43
 1135 01d0 C6       		.byte	-58
 1136 01d1 40       		.byte	64
 1137 01d2 C7       		.byte	-57
 1138 01d3 21       		.byte	33
 1139 01d4 C8       		.byte	-56
 1140 01d5 3F       		.byte	63
 1141 01d6 C9       		.byte	-55
 1142 01d7 FF       		.byte	-1
 1143 01d8 CA       		.byte	-54
 1144 01d9 FF       		.byte	-1
 1145 01da CB       		.byte	-53
 1146 01db FF       		.byte	-1
 1147 01dc CD       		.byte	-51
 1148 01dd AF       		.byte	-81
 1149 01de CE       		.byte	-50
 1150 01df 0F       		.byte	15
 1151 01e0 CF       		.byte	-49
 1152 01e1 04       		.byte	4
 1153 01e2 D0       		.byte	-48
 1154 01e3 18       		.byte	24
 1155 01e4 D2       		.byte	-46
 1156 01e5 80       		.byte	-128
 1157 01e6 D4       		.byte	-44
 1158 01e7 07       		.byte	7
 1159 01e8 D8       		.byte	-40
 1160 01e9 04       		.byte	4
 1161 01ea D9       		.byte	-39
ARM GAS  C:\Users\LAIR\AppData\Local\Temp\ccE6w4yy.s 			page 42


 1162 01eb 04       		.byte	4
 1163 01ec DA       		.byte	-38
 1164 01ed 04       		.byte	4
 1165 01ee DB       		.byte	-37
 1166 01ef 04       		.byte	4
 1167 01f0 DF       		.byte	-33
 1168 01f1 01       		.byte	1
 1169 01f2 E0       		.byte	-32
 1170 01f3 40       		.byte	64
 1171 01f4 E2       		.byte	-30
 1172 01f5 C0       		.byte	-64
 1173 01f6 E4       		.byte	-28
 1174 01f7 40       		.byte	64
 1175 01f8 E5       		.byte	-27
 1176 01f9 40       		.byte	64
 1177 01fa E6       		.byte	-26
 1178 01fb C0       		.byte	-64
 1179 01fc E8       		.byte	-24
 1180 01fd C0       		.byte	-64
 1181 01fe EA       		.byte	-22
 1182 01ff C0       		.byte	-64
 1183 0200 EC       		.byte	-20
 1184 0201 C0       		.byte	-64
 1185 0202 EE       		.byte	-18
 1186 0203 C0       		.byte	-64
 1187 0204 00       		.byte	0
 1188 0205 06       		.byte	6
 1189 0206 02       		.byte	2
 1190 0207 02       		.byte	2
 1191 0208 09       		.byte	9
 1192 0209 20       		.byte	32
 1193 020a 0A       		.byte	10
 1194 020b 40       		.byte	64
 1195 020c 10       		.byte	16
 1196 020d A8       		.byte	-88
 1197 020e 18       		.byte	24
 1198 020f 04       		.byte	4
 1199 0210 19       		.byte	25
 1200 0211 44       		.byte	68
 1201 0212 1B       		.byte	27
 1202 0213 11       		.byte	17
 1203 0214 21       		.byte	33
 1204 0215 02       		.byte	2
 1205 0216 22       		.byte	34
 1206 0217 50       		.byte	80
 1207 0218 27       		.byte	39
 1208 0219 20       		.byte	32
 1209 021a 29       		.byte	41
 1210 021b 40       		.byte	64
 1211 021c 2C       		.byte	44
 1212 021d 88       		.byte	-120
 1213 021e 30       		.byte	48
 1214 021f A8       		.byte	-88
 1215 0220 31       		.byte	49
 1216 0221 02       		.byte	2
 1217 0222 38       		.byte	56
 1218 0223 20       		.byte	32
ARM GAS  C:\Users\LAIR\AppData\Local\Temp\ccE6w4yy.s 			page 43


 1219 0224 3F       		.byte	63
 1220 0225 20       		.byte	32
 1221 0226 40       		.byte	64
 1222 0227 04       		.byte	4
 1223 0228 48       		.byte	72
 1224 0229 20       		.byte	32
 1225 022a 49       		.byte	73
 1226 022b 01       		.byte	1
 1227 022c 4A       		.byte	74
 1228 022d 02       		.byte	2
 1229 022e 4E       		.byte	78
 1230 022f 02       		.byte	2
 1231 0230 4F       		.byte	79
 1232 0231 20       		.byte	32
 1233 0232 50       		.byte	80
 1234 0233 98       		.byte	-104
 1235 0234 51       		.byte	81
 1236 0235 20       		.byte	32
 1237 0236 52       		.byte	82
 1238 0237 02       		.byte	2
 1239 0238 59       		.byte	89
 1240 0239 05       		.byte	5
 1241 023a 5A       		.byte	90
 1242 023b A0       		.byte	-96
 1243 023c 72       		.byte	114
 1244 023d 40       		.byte	64
 1245 023e 83       		.byte	-125
 1246 023f 20       		.byte	32
 1247 0240 AE       		.byte	-82
 1248 0241 14       		.byte	20
 1249 0242 B2       		.byte	-78
 1250 0243 04       		.byte	4
 1251 0244 C0       		.byte	-64
 1252 0245 0D       		.byte	13
 1253 0246 C2       		.byte	-62
 1254 0247 0A       		.byte	10
 1255 0248 C4       		.byte	-60
 1256 0249 0E       		.byte	14
 1257 024a CA       		.byte	-54
 1258 024b A8       		.byte	-88
 1259 024c CC       		.byte	-52
 1260 024d 0F       		.byte	15
 1261 024e CE       		.byte	-50
 1262 024f 24       		.byte	36
 1263 0250 D0       		.byte	-48
 1264 0251 04       		.byte	4
 1265 0252 D2       		.byte	-46
 1266 0253 38       		.byte	56
 1267 0254 D6       		.byte	-42
 1268 0255 0F       		.byte	15
 1269 0256 E0       		.byte	-32
 1270 0257 04       		.byte	4
 1271 0258 E4       		.byte	-28
 1272 0259 80       		.byte	-128
 1273 025a E8       		.byte	-24
 1274 025b 02       		.byte	2
 1275 025c EC       		.byte	-20
ARM GAS  C:\Users\LAIR\AppData\Local\Temp\ccE6w4yy.s 			page 44


 1276 025d 08       		.byte	8
 1277 025e 03       		.byte	3
 1278 025f 01       		.byte	1
 1279 0260 16       		.byte	22
 1280 0261 03       		.byte	3
 1281 0262 26       		.byte	38
 1282 0263 01       		.byte	1
 1283 0264 2A       		.byte	42
 1284 0265 02       		.byte	2
 1285 0266 2F       		.byte	47
 1286 0267 01       		.byte	1
 1287 0268 33       		.byte	51
 1288 0269 01       		.byte	1
 1289 026a 36       		.byte	54
 1290 026b 03       		.byte	3
 1291 026c 40       		.byte	64
 1292 026d 30       		.byte	48
 1293 026e 41       		.byte	65
 1294 026f 04       		.byte	4
 1295 0270 49       		.byte	73
 1296 0271 FF       		.byte	-1
 1297 0272 4A       		.byte	74
 1298 0273 FF       		.byte	-1
 1299 0274 4B       		.byte	75
 1300 0275 FF       		.byte	-1
 1301 0276 4D       		.byte	77
 1302 0277 A0       		.byte	-96
 1303 0278 4F       		.byte	79
 1304 0279 04       		.byte	4
 1305 027a 50       		.byte	80
 1306 027b 18       		.byte	24
 1307 027c 52       		.byte	82
 1308 027d 80       		.byte	-128
 1309 027e 58       		.byte	88
 1310 027f 04       		.byte	4
 1311 0280 59       		.byte	89
 1312 0281 04       		.byte	4
 1313 0282 5A       		.byte	90
 1314 0283 04       		.byte	4
 1315 0284 5B       		.byte	91
 1316 0285 04       		.byte	4
 1317 0286 5F       		.byte	95
 1318 0287 01       		.byte	1
 1319 0288 60       		.byte	96
 1320 0289 40       		.byte	64
 1321 028a 62       		.byte	98
 1322 028b C0       		.byte	-64
 1323 028c 64       		.byte	100
 1324 028d 40       		.byte	64
 1325 028e 65       		.byte	101
 1326 028f 40       		.byte	64
 1327 0290 66       		.byte	102
 1328 0291 C0       		.byte	-64
 1329 0292 68       		.byte	104
 1330 0293 C0       		.byte	-64
 1331 0294 6A       		.byte	106
 1332 0295 C0       		.byte	-64
ARM GAS  C:\Users\LAIR\AppData\Local\Temp\ccE6w4yy.s 			page 45


 1333 0296 6C       		.byte	108
 1334 0297 C0       		.byte	-64
 1335 0298 6E       		.byte	110
 1336 0299 C0       		.byte	-64
 1337 029a 81       		.byte	-127
 1338 029b 04       		.byte	4
 1339 029c 82       		.byte	-126
 1340 029d 01       		.byte	1
 1341 029e 83       		.byte	-125
 1342 029f 08       		.byte	8
 1343 02a0 86       		.byte	-122
 1344 02a1 04       		.byte	4
 1345 02a2 87       		.byte	-121
 1346 02a3 02       		.byte	2
 1347 02a4 95       		.byte	-107
 1348 02a5 04       		.byte	4
 1349 02a6 96       		.byte	-106
 1350 02a7 07       		.byte	7
 1351 02a8 97       		.byte	-105
 1352 02a9 10       		.byte	16
 1353 02aa 9D       		.byte	-99
 1354 02ab 18       		.byte	24
 1355 02ac A1       		.byte	-95
 1356 02ad 03       		.byte	3
 1357 02ae A4       		.byte	-92
 1358 02af 08       		.byte	8
 1359 02b0 A7       		.byte	-89
 1360 02b1 01       		.byte	1
 1361 02b2 A8       		.byte	-88
 1362 02b3 08       		.byte	8
 1363 02b4 AE       		.byte	-82
 1364 02b5 02       		.byte	2
 1365 02b6 B0       		.byte	-80
 1366 02b7 06       		.byte	6
 1367 02b8 B1       		.byte	-79
 1368 02b9 03       		.byte	3
 1369 02ba B3       		.byte	-77
 1370 02bb 18       		.byte	24
 1371 02bc B4       		.byte	-76
 1372 02bd 01       		.byte	1
 1373 02be B6       		.byte	-74
 1374 02bf 08       		.byte	8
 1375 02c0 B7       		.byte	-73
 1376 02c1 04       		.byte	4
 1377 02c2 B8       		.byte	-72
 1378 02c3 80       		.byte	-128
 1379 02c4 B9       		.byte	-71
 1380 02c5 80       		.byte	-128
 1381 02c6 BE       		.byte	-66
 1382 02c7 10       		.byte	16
 1383 02c8 C0       		.byte	-64
 1384 02c9 30       		.byte	48
 1385 02ca C1       		.byte	-63
 1386 02cb 04       		.byte	4
 1387 02cc C5       		.byte	-59
 1388 02cd D5       		.byte	-43
 1389 02ce C6       		.byte	-58
ARM GAS  C:\Users\LAIR\AppData\Local\Temp\ccE6w4yy.s 			page 46


 1390 02cf 02       		.byte	2
 1391 02d0 C7       		.byte	-57
 1392 02d1 41       		.byte	65
 1393 02d2 C8       		.byte	-56
 1394 02d3 3F       		.byte	63
 1395 02d4 C9       		.byte	-55
 1396 02d5 FF       		.byte	-1
 1397 02d6 CA       		.byte	-54
 1398 02d7 FF       		.byte	-1
 1399 02d8 CB       		.byte	-53
 1400 02d9 FF       		.byte	-1
 1401 02da CD       		.byte	-51
 1402 02db AF       		.byte	-81
 1403 02dc CE       		.byte	-50
 1404 02dd 0F       		.byte	15
 1405 02de CF       		.byte	-49
 1406 02df 04       		.byte	4
 1407 02e0 D0       		.byte	-48
 1408 02e1 18       		.byte	24
 1409 02e2 D4       		.byte	-44
 1410 02e3 07       		.byte	7
 1411 02e4 D8       		.byte	-40
 1412 02e5 04       		.byte	4
 1413 02e6 D9       		.byte	-39
 1414 02e7 04       		.byte	4
 1415 02e8 DA       		.byte	-38
 1416 02e9 04       		.byte	4
 1417 02ea DB       		.byte	-37
 1418 02eb 04       		.byte	4
 1419 02ec DF       		.byte	-33
 1420 02ed 01       		.byte	1
 1421 02ee E0       		.byte	-32
 1422 02ef 40       		.byte	64
 1423 02f0 E2       		.byte	-30
 1424 02f1 C0       		.byte	-64
 1425 02f2 E4       		.byte	-28
 1426 02f3 40       		.byte	64
 1427 02f4 E5       		.byte	-27
 1428 02f5 40       		.byte	64
 1429 02f6 E6       		.byte	-26
 1430 02f7 C0       		.byte	-64
 1431 02f8 E8       		.byte	-24
 1432 02f9 C0       		.byte	-64
 1433 02fa EA       		.byte	-22
 1434 02fb C0       		.byte	-64
 1435 02fc EC       		.byte	-20
 1436 02fd C0       		.byte	-64
 1437 02fe EE       		.byte	-18
 1438 02ff C0       		.byte	-64
 1439 0300 05       		.byte	5
 1440 0301 08       		.byte	8
 1441 0302 06       		.byte	6
 1442 0303 80       		.byte	-128
 1443 0304 09       		.byte	9
 1444 0305 08       		.byte	8
 1445 0306 0D       		.byte	13
 1446 0307 08       		.byte	8
ARM GAS  C:\Users\LAIR\AppData\Local\Temp\ccE6w4yy.s 			page 47


 1447 0308 10       		.byte	16
 1448 0309 28       		.byte	40
 1449 030a 16       		.byte	22
 1450 030b 2A       		.byte	42
 1451 030c 1A       		.byte	26
 1452 030d 02       		.byte	2
 1453 030e 1D       		.byte	29
 1454 030f 01       		.byte	1
 1455 0310 1E       		.byte	30
 1456 0311 08       		.byte	8
 1457 0312 1F       		.byte	31
 1458 0313 80       		.byte	-128
 1459 0314 20       		.byte	32
 1460 0315 10       		.byte	16
 1461 0316 21       		.byte	33
 1462 0317 08       		.byte	8
 1463 0318 24       		.byte	36
 1464 0319 40       		.byte	64
 1465 031a 26       		.byte	38
 1466 031b 80       		.byte	-128
 1467 031c 27       		.byte	39
 1468 031d 20       		.byte	32
 1469 031e 29       		.byte	41
 1470 031f 80       		.byte	-128
 1471 0320 2C       		.byte	44
 1472 0321 20       		.byte	32
 1473 0322 2F       		.byte	47
 1474 0323 80       		.byte	-128
 1475 0324 35       		.byte	53
 1476 0325 08       		.byte	8
 1477 0326 36       		.byte	54
 1478 0327 80       		.byte	-128
 1479 0328 38       		.byte	56
 1480 0329 02       		.byte	2
 1481 032a 3E       		.byte	62
 1482 032b 0A       		.byte	10
 1483 032c 40       		.byte	64
 1484 032d 10       		.byte	16
 1485 032e 42       		.byte	66
 1486 032f 80       		.byte	-128
 1487 0330 45       		.byte	69
 1488 0331 08       		.byte	8
 1489 0332 46       		.byte	70
 1490 0333 80       		.byte	-128
 1491 0334 4D       		.byte	77
 1492 0335 09       		.byte	9
 1493 0336 54       		.byte	84
 1494 0337 28       		.byte	40
 1495 0338 56       		.byte	86
 1496 0339 AA       		.byte	-86
 1497 033a 5C       		.byte	92
 1498 033b 40       		.byte	64
 1499 033c 5D       		.byte	93
 1500 033d 01       		.byte	1
 1501 033e 5E       		.byte	94
 1502 033f 08       		.byte	8
 1503 0340 5F       		.byte	95
ARM GAS  C:\Users\LAIR\AppData\Local\Temp\ccE6w4yy.s 			page 48


 1504 0341 20       		.byte	32
 1505 0342 70       		.byte	112
 1506 0343 01       		.byte	1
 1507 0344 AF       		.byte	-81
 1508 0345 01       		.byte	1
 1509 0346 B0       		.byte	-80
 1510 0347 01       		.byte	1
 1511 0348 C0       		.byte	-64
 1512 0349 30       		.byte	48
 1513 034a C2       		.byte	-62
 1514 034b 24       		.byte	36
 1515 034c C4       		.byte	-60
 1516 034d E6       		.byte	-26
 1517 034e CA       		.byte	-54
 1518 034f C8       		.byte	-56
 1519 0350 CC       		.byte	-52
 1520 0351 50       		.byte	80
 1521 0352 CE       		.byte	-50
 1522 0353 C1       		.byte	-63
 1523 0354 D0       		.byte	-48
 1524 0355 C3       		.byte	-61
 1525 0356 D6       		.byte	-42
 1526 0357 F0       		.byte	-16
 1527 0358 E0       		.byte	-32
 1528 0359 01       		.byte	1
 1529 035a E4       		.byte	-28
 1530 035b 80       		.byte	-128
 1531 035c E8       		.byte	-24
 1532 035d 04       		.byte	4
 1533 035e 0B       		.byte	11
 1534 035f 04       		.byte	4
 1535 0360 13       		.byte	19
 1536 0361 03       		.byte	3
 1537 0362 23       		.byte	35
 1538 0363 02       		.byte	2
 1539 0364 27       		.byte	39
 1540 0365 01       		.byte	1
 1541 0366 2F       		.byte	47
 1542 0367 04       		.byte	4
 1543 0368 31       		.byte	49
 1544 0369 04       		.byte	4
 1545 036a 33       		.byte	51
 1546 036b 03       		.byte	3
 1547 036c 40       		.byte	64
 1548 036d 10       		.byte	16
 1549 036e 41       		.byte	65
 1550 036f 06       		.byte	6
 1551 0370 49       		.byte	73
 1552 0371 FF       		.byte	-1
 1553 0372 4A       		.byte	74
 1554 0373 FF       		.byte	-1
 1555 0374 4B       		.byte	75
 1556 0375 FF       		.byte	-1
 1557 0376 4D       		.byte	77
 1558 0377 A0       		.byte	-96
 1559 0378 4F       		.byte	79
 1560 0379 04       		.byte	4
ARM GAS  C:\Users\LAIR\AppData\Local\Temp\ccE6w4yy.s 			page 49


 1561 037a 50       		.byte	80
 1562 037b 18       		.byte	24
 1563 037c 52       		.byte	82
 1564 037d 80       		.byte	-128
 1565 037e 59       		.byte	89
 1566 037f 04       		.byte	4
 1567 0380 5A       		.byte	90
 1568 0381 04       		.byte	4
 1569 0382 5B       		.byte	91
 1570 0383 04       		.byte	4
 1571 0384 5F       		.byte	95
 1572 0385 01       		.byte	1
 1573 0386 60       		.byte	96
 1574 0387 40       		.byte	64
 1575 0388 62       		.byte	98
 1576 0389 C0       		.byte	-64
 1577 038a 64       		.byte	100
 1578 038b 40       		.byte	64
 1579 038c 65       		.byte	101
 1580 038d 40       		.byte	64
 1581 038e 66       		.byte	102
 1582 038f C0       		.byte	-64
 1583 0390 68       		.byte	104
 1584 0391 C0       		.byte	-64
 1585 0392 6A       		.byte	106
 1586 0393 C0       		.byte	-64
 1587 0394 6C       		.byte	108
 1588 0395 C0       		.byte	-64
 1589 0396 6E       		.byte	110
 1590 0397 C0       		.byte	-64
 1591 0398 82       		.byte	-126
 1592 0399 07       		.byte	7
 1593 039a 85       		.byte	-123
 1594 039b 04       		.byte	4
 1595 039c 87       		.byte	-121
 1596 039d 08       		.byte	8
 1597 039e 8A       		.byte	-118
 1598 039f 01       		.byte	1
 1599 03a0 8E       		.byte	-114
 1600 03a1 02       		.byte	2
 1601 03a2 91       		.byte	-111
 1602 03a3 18       		.byte	24
 1603 03a4 9B       		.byte	-101
 1604 03a5 01       		.byte	1
 1605 03a6 9F       		.byte	-97
 1606 03a7 02       		.byte	2
 1607 03a8 A0       		.byte	-96
 1608 03a9 08       		.byte	8
 1609 03aa A1       		.byte	-95
 1610 03ab 04       		.byte	4
 1611 03ac A3       		.byte	-93
 1612 03ad 10       		.byte	16
 1613 03ae A4       		.byte	-92
 1614 03af 08       		.byte	8
 1615 03b0 AA       		.byte	-86
 1616 03b1 04       		.byte	4
 1617 03b2 AD       		.byte	-83
ARM GAS  C:\Users\LAIR\AppData\Local\Temp\ccE6w4yy.s 			page 50


 1618 03b3 03       		.byte	3
 1619 03b4 B0       		.byte	-80
 1620 03b5 03       		.byte	3
 1621 03b6 B1       		.byte	-79
 1622 03b7 04       		.byte	4
 1623 03b8 B4       		.byte	-76
 1624 03b9 04       		.byte	4
 1625 03ba B5       		.byte	-75
 1626 03bb 18       		.byte	24
 1627 03bc B6       		.byte	-74
 1628 03bd 08       		.byte	8
 1629 03be B7       		.byte	-73
 1630 03bf 03       		.byte	3
 1631 03c0 B8       		.byte	-72
 1632 03c1 80       		.byte	-128
 1633 03c2 B9       		.byte	-71
 1634 03c3 02       		.byte	2
 1635 03c4 BE       		.byte	-66
 1636 03c5 10       		.byte	16
 1637 03c6 C0       		.byte	-64
 1638 03c7 10       		.byte	16
 1639 03c8 C1       		.byte	-63
 1640 03c9 06       		.byte	6
 1641 03ca C5       		.byte	-59
 1642 03cb D4       		.byte	-44
 1643 03cc C6       		.byte	-58
 1644 03cd 01       		.byte	1
 1645 03ce C7       		.byte	-57
 1646 03cf 52       		.byte	82
 1647 03d0 C8       		.byte	-56
 1648 03d1 3F       		.byte	63
 1649 03d2 C9       		.byte	-55
 1650 03d3 FF       		.byte	-1
 1651 03d4 CA       		.byte	-54
 1652 03d5 FF       		.byte	-1
 1653 03d6 CB       		.byte	-53
 1654 03d7 FF       		.byte	-1
 1655 03d8 CD       		.byte	-51
 1656 03d9 AF       		.byte	-81
 1657 03da CE       		.byte	-50
 1658 03db 0F       		.byte	15
 1659 03dc CF       		.byte	-49
 1660 03dd 04       		.byte	4
 1661 03de D0       		.byte	-48
 1662 03df 18       		.byte	24
 1663 03e0 D4       		.byte	-44
 1664 03e1 07       		.byte	7
 1665 03e2 D8       		.byte	-40
 1666 03e3 04       		.byte	4
 1667 03e4 D9       		.byte	-39
 1668 03e5 04       		.byte	4
 1669 03e6 DA       		.byte	-38
 1670 03e7 04       		.byte	4
 1671 03e8 DB       		.byte	-37
 1672 03e9 04       		.byte	4
 1673 03ea DF       		.byte	-33
 1674 03eb 01       		.byte	1
ARM GAS  C:\Users\LAIR\AppData\Local\Temp\ccE6w4yy.s 			page 51


 1675 03ec E0       		.byte	-32
 1676 03ed 40       		.byte	64
 1677 03ee E2       		.byte	-30
 1678 03ef C0       		.byte	-64
 1679 03f0 E4       		.byte	-28
 1680 03f1 40       		.byte	64
 1681 03f2 E5       		.byte	-27
 1682 03f3 40       		.byte	64
 1683 03f4 E6       		.byte	-26
 1684 03f5 C0       		.byte	-64
 1685 03f6 E8       		.byte	-24
 1686 03f7 C0       		.byte	-64
 1687 03f8 EA       		.byte	-22
 1688 03f9 C0       		.byte	-64
 1689 03fa EC       		.byte	-20
 1690 03fb C0       		.byte	-64
 1691 03fc EE       		.byte	-18
 1692 03fd C0       		.byte	-64
 1693 03fe 00       		.byte	0
 1694 03ff 20       		.byte	32
 1695 0400 02       		.byte	2
 1696 0401 01       		.byte	1
 1697 0402 03       		.byte	3
 1698 0403 40       		.byte	64
 1699 0404 10       		.byte	16
 1700 0405 A0       		.byte	-96
 1701 0406 12       		.byte	18
 1702 0407 08       		.byte	8
 1703 0408 19       		.byte	25
 1704 0409 42       		.byte	66
 1705 040a 1A       		.byte	26
 1706 040b 04       		.byte	4
 1707 040c 21       		.byte	33
 1708 040d 02       		.byte	2
 1709 040e 22       		.byte	34
 1710 040f 50       		.byte	80
 1711 0410 26       		.byte	38
 1712 0411 02       		.byte	2
 1713 0412 27       		.byte	39
 1714 0413 60       		.byte	96
 1715 0414 29       		.byte	41
 1716 0415 40       		.byte	64
 1717 0416 2A       		.byte	42
 1718 0417 01       		.byte	1
 1719 0418 2C       		.byte	44
 1720 0419 A0       		.byte	-96
 1721 041a 2E       		.byte	46
 1722 041b 80       		.byte	-128
 1723 041c 30       		.byte	48
 1724 041d A0       		.byte	-96
 1725 041e 31       		.byte	49
 1726 041f 02       		.byte	2
 1727 0420 36       		.byte	54
 1728 0421 02       		.byte	2
 1729 0422 3B       		.byte	59
 1730 0423 04       		.byte	4
 1731 0424 3F       		.byte	63
ARM GAS  C:\Users\LAIR\AppData\Local\Temp\ccE6w4yy.s 			page 52


 1732 0425 20       		.byte	32
 1733 0426 43       		.byte	67
 1734 0427 40       		.byte	64
 1735 0428 47       		.byte	71
 1736 0429 40       		.byte	64
 1737 042a 48       		.byte	72
 1738 042b 10       		.byte	16
 1739 042c 49       		.byte	73
 1740 042d 01       		.byte	1
 1741 042e 4A       		.byte	74
 1742 042f 08       		.byte	8
 1743 0430 4B       		.byte	75
 1744 0431 04       		.byte	4
 1745 0432 4E       		.byte	78
 1746 0433 08       		.byte	8
 1747 0434 50       		.byte	80
 1748 0435 A0       		.byte	-96
 1749 0436 52       		.byte	82
 1750 0437 09       		.byte	9
 1751 0438 59       		.byte	89
 1752 0439 01       		.byte	1
 1753 043a 5A       		.byte	90
 1754 043b A4       		.byte	-92
 1755 043c 76       		.byte	118
 1756 043d 80       		.byte	-128
 1757 043e 83       		.byte	-125
 1758 043f 20       		.byte	32
 1759 0440 8A       		.byte	-118
 1760 0441 01       		.byte	1
 1761 0442 92       		.byte	-110
 1762 0443 02       		.byte	2
 1763 0444 9D       		.byte	-99
 1764 0445 02       		.byte	2
 1765 0446 A3       		.byte	-93
 1766 0447 10       		.byte	16
 1767 0448 A9       		.byte	-87
 1768 0449 80       		.byte	-128
 1769 044a AB       		.byte	-85
 1770 044b 10       		.byte	16
 1771 044c B5       		.byte	-75
 1772 044d 03       		.byte	3
 1773 044e C0       		.byte	-64
 1774 044f 0B       		.byte	11
 1775 0450 C4       		.byte	-60
 1776 0451 0E       		.byte	14
 1777 0452 CA       		.byte	-54
 1778 0453 D9       		.byte	-39
 1779 0454 CC       		.byte	-52
 1780 0455 8D       		.byte	-115
 1781 0456 CE       		.byte	-50
 1782 0457 22       		.byte	34
 1783 0458 D0       		.byte	-48
 1784 0459 18       		.byte	24
 1785 045a D2       		.byte	-46
 1786 045b 24       		.byte	36
 1787 045c D6       		.byte	-42
 1788 045d 0F       		.byte	15
ARM GAS  C:\Users\LAIR\AppData\Local\Temp\ccE6w4yy.s 			page 53


 1789 045e E2       		.byte	-30
 1790 045f 80       		.byte	-128
 1791 0460 E4       		.byte	-28
 1792 0461 08       		.byte	8
 1793 0462 E8       		.byte	-24
 1794 0463 90       		.byte	-112
 1795 0464 EA       		.byte	-22
 1796 0465 44       		.byte	68
 1797 0466 57       		.byte	87
 1798 0467 01       		.byte	1
 1799 0468 63       		.byte	99
 1800 0469 02       		.byte	2
 1801 046a 68       		.byte	104
 1802 046b 01       		.byte	1
 1803 046c D6       		.byte	-42
 1804 046d 60       		.byte	96
 1805 046e DA       		.byte	-38
 1806 046f 40       		.byte	64
 1807 0470 00       		.byte	0
 1808 0471 20       		.byte	32
 1809 0472 09       		.byte	9
 1810 0473 20       		.byte	32
 1811 0474 0F       		.byte	15
 1812 0475 80       		.byte	-128
 1813 0476 5B       		.byte	91
 1814 0477 80       		.byte	-128
 1815 0478 67       		.byte	103
 1816 0479 08       		.byte	8
 1817 047a 81       		.byte	-127
 1818 047b 20       		.byte	32
 1819 047c 83       		.byte	-125
 1820 047d 80       		.byte	-128
 1821 047e 88       		.byte	-120
 1822 047f 10       		.byte	16
 1823 0480 A4       		.byte	-92
 1824 0481 01       		.byte	1
 1825 0482 AF       		.byte	-81
 1826 0483 01       		.byte	1
 1827 0484 C0       		.byte	-64
 1828 0485 40       		.byte	64
 1829 0486 C2       		.byte	-62
 1830 0487 60       		.byte	96
 1831 0488 D4       		.byte	-44
 1832 0489 80       		.byte	-128
 1833 048a D8       		.byte	-40
 1834 048b 80       		.byte	-128
 1835 048c E0       		.byte	-32
 1836 048d 20       		.byte	32
 1837 048e E2       		.byte	-30
 1838 048f 80       		.byte	-128
 1839 0490 EE       		.byte	-18
 1840 0491 10       		.byte	16
 1841 0492 03       		.byte	3
 1842 0493 40       		.byte	64
 1843 0494 09       		.byte	9
 1844 0495 01       		.byte	1
 1845 0496 14       		.byte	20
ARM GAS  C:\Users\LAIR\AppData\Local\Temp\ccE6w4yy.s 			page 54


 1846 0497 20       		.byte	32
 1847 0498 17       		.byte	23
 1848 0499 20       		.byte	32
 1849 049a 1B       		.byte	27
 1850 049b 01       		.byte	1
 1851 049c 1F       		.byte	31
 1852 049d 02       		.byte	2
 1853 049e 57       		.byte	87
 1854 049f 04       		.byte	4
 1855 04a0 5B       		.byte	91
 1856 04a1 80       		.byte	-128
 1857 04a2 83       		.byte	-125
 1858 04a3 20       		.byte	32
 1859 04a4 8B       		.byte	-117
 1860 04a5 02       		.byte	2
 1861 04a6 A4       		.byte	-92
 1862 04a7 01       		.byte	1
 1863 04a8 AB       		.byte	-85
 1864 04a9 40       		.byte	64
 1865 04aa AF       		.byte	-81
 1866 04ab 04       		.byte	4
 1867 04ac C0       		.byte	-64
 1868 04ad 10       		.byte	16
 1869 04ae C2       		.byte	-62
 1870 04af 10       		.byte	16
 1871 04b0 C4       		.byte	-60
 1872 04b1 A0       		.byte	-96
 1873 04b2 C6       		.byte	-58
 1874 04b3 30       		.byte	48
 1875 04b4 D4       		.byte	-44
 1876 04b5 C0       		.byte	-64
 1877 04b6 E0       		.byte	-32
 1878 04b7 80       		.byte	-128
 1879 04b8 E8       		.byte	-24
 1880 04b9 20       		.byte	32
 1881 04ba EE       		.byte	-18
 1882 04bb 10       		.byte	16
 1883 04bc 83       		.byte	-125
 1884 04bd 80       		.byte	-128
 1885 04be 87       		.byte	-121
 1886 04bf 01       		.byte	1
 1887 04c0 88       		.byte	-120
 1888 04c1 01       		.byte	1
 1889 04c2 9F       		.byte	-97
 1890 04c3 80       		.byte	-128
 1891 04c4 A3       		.byte	-93
 1892 04c5 01       		.byte	1
 1893 04c6 A4       		.byte	-92
 1894 04c7 01       		.byte	1
 1895 04c8 AB       		.byte	-85
 1896 04c9 40       		.byte	64
 1897 04ca B0       		.byte	-80
 1898 04cb 20       		.byte	32
 1899 04cc B5       		.byte	-75
 1900 04cd 01       		.byte	1
 1901 04ce B7       		.byte	-73
 1902 04cf 04       		.byte	4
ARM GAS  C:\Users\LAIR\AppData\Local\Temp\ccE6w4yy.s 			page 55


 1903 04d0 E2       		.byte	-30
 1904 04d1 80       		.byte	-128
 1905 04d2 E4       		.byte	-28
 1906 04d3 10       		.byte	16
 1907 04d4 EC       		.byte	-20
 1908 04d5 80       		.byte	-128
 1909 04d6 05       		.byte	5
 1910 04d7 21       		.byte	33
 1911 04d8 0D       		.byte	13
 1912 04d9 01       		.byte	1
 1913 04da 63       		.byte	99
 1914 04db 02       		.byte	2
 1915 04dc 64       		.byte	100
 1916 04dd 01       		.byte	1
 1917 04de 67       		.byte	103
 1918 04df 08       		.byte	8
 1919 04e0 85       		.byte	-123
 1920 04e1 01       		.byte	1
 1921 04e2 C0       		.byte	-64
 1922 04e3 05       		.byte	5
 1923 04e4 C2       		.byte	-62
 1924 04e5 04       		.byte	4
 1925 04e6 D6       		.byte	-42
 1926 04e7 03       		.byte	3
 1927 04e8 D8       		.byte	-40
 1928 04e9 01       		.byte	1
 1929 04ea 01       		.byte	1
 1930 04eb 02       		.byte	2
 1931 04ec 0E       		.byte	14
 1932 04ed 40       		.byte	64
 1933 04ee 3B       		.byte	59
 1934 04ef 01       		.byte	1
 1935 04f0 3F       		.byte	63
 1936 04f1 02       		.byte	2
 1937 04f2 42       		.byte	66
 1938 04f3 20       		.byte	32
 1939 04f4 47       		.byte	71
 1940 04f5 08       		.byte	8
 1941 04f6 49       		.byte	73
 1942 04f7 01       		.byte	1
 1943 04f8 4A       		.byte	74
 1944 04f9 08       		.byte	8
 1945 04fa 4D       		.byte	77
 1946 04fb 20       		.byte	32
 1947 04fc 50       		.byte	80
 1948 04fd 10       		.byte	16
 1949 04fe 56       		.byte	86
 1950 04ff 80       		.byte	-128
 1951 0500 63       		.byte	99
 1952 0501 03       		.byte	3
 1953 0502 82       		.byte	-126
 1954 0503 08       		.byte	8
 1955 0504 8B       		.byte	-117
 1956 0505 08       		.byte	8
 1957 0506 99       		.byte	-103
 1958 0507 21       		.byte	33
 1959 0508 A3       		.byte	-93
ARM GAS  C:\Users\LAIR\AppData\Local\Temp\ccE6w4yy.s 			page 56


 1960 0509 01       		.byte	1
 1961 050a AC       		.byte	-84
 1962 050b 01       		.byte	1
 1963 050c AF       		.byte	-81
 1964 050d 01       		.byte	1
 1965 050e B3       		.byte	-77
 1966 050f 04       		.byte	4
 1967 0510 C0       		.byte	-64
 1968 0511 08       		.byte	8
 1969 0512 C2       		.byte	-62
 1970 0513 04       		.byte	4
 1971 0514 CE       		.byte	-50
 1972 0515 03       		.byte	3
 1973 0516 D0       		.byte	-48
 1974 0517 03       		.byte	3
 1975 0518 D2       		.byte	-46
 1976 0519 0E       		.byte	14
 1977 051a D4       		.byte	-44
 1978 051b 06       		.byte	6
 1979 051c D6       		.byte	-42
 1980 051d 02       		.byte	2
 1981 051e E4       		.byte	-28
 1982 051f 01       		.byte	1
 1983 0520 E8       		.byte	-24
 1984 0521 01       		.byte	1
 1985 0522 3B       		.byte	59
 1986 0523 01       		.byte	1
 1987 0524 3F       		.byte	63
 1988 0525 01       		.byte	1
 1989 0526 40       		.byte	64
 1990 0527 80       		.byte	-128
 1991 0528 46       		.byte	70
 1992 0529 20       		.byte	32
 1993 052a 4B       		.byte	75
 1994 052b 20       		.byte	32
 1995 052c 82       		.byte	-126
 1996 052d 80       		.byte	-128
 1997 052e 8B       		.byte	-117
 1998 052f 10       		.byte	16
 1999 0530 92       		.byte	-110
 2000 0531 40       		.byte	64
 2001 0532 93       		.byte	-109
 2002 0533 01       		.byte	1
 2003 0534 94       		.byte	-108
 2004 0535 20       		.byte	32
 2005 0536 9E       		.byte	-98
 2006 0537 80       		.byte	-128
 2007 0538 AA       		.byte	-86
 2008 0539 20       		.byte	32
 2009 053a B1       		.byte	-79
 2010 053b 02       		.byte	2
 2011 053c CE       		.byte	-50
 2012 053d 03       		.byte	3
 2013 053e D0       		.byte	-48
 2014 053f 03       		.byte	3
 2015 0540 D2       		.byte	-46
 2016 0541 08       		.byte	8
ARM GAS  C:\Users\LAIR\AppData\Local\Temp\ccE6w4yy.s 			page 57


 2017 0542 E4       		.byte	-28
 2018 0543 01       		.byte	1
 2019 0544 EA       		.byte	-22
 2020 0545 01       		.byte	1
 2021 0546 06       		.byte	6
 2022 0547 20       		.byte	32
 2023 0548 0B       		.byte	11
 2024 0549 20       		.byte	32
 2025 054a 2D       		.byte	45
 2026 054b 08       		.byte	8
 2027 054c 54       		.byte	84
 2028 054d 01       		.byte	1
 2029 054e 58       		.byte	88
 2030 054f 08       		.byte	8
 2031 0550 5F       		.byte	95
 2032 0551 02       		.byte	2
 2033 0552 67       		.byte	103
 2034 0553 10       		.byte	16
 2035 0554 84       		.byte	-124
 2036 0555 08       		.byte	8
 2037 0556 89       		.byte	-119
 2038 0557 08       		.byte	8
 2039 0558 8B       		.byte	-117
 2040 0559 02       		.byte	2
 2041 055a 93       		.byte	-109
 2042 055b 10       		.byte	16
 2043 055c 97       		.byte	-105
 2044 055d 20       		.byte	32
 2045 055e 9E       		.byte	-98
 2046 055f 20       		.byte	32
 2047 0560 A0       		.byte	-96
 2048 0561 01       		.byte	1
 2049 0562 AA       		.byte	-86
 2050 0563 40       		.byte	64
 2051 0564 B0       		.byte	-80
 2052 0565 01       		.byte	1
 2053 0566 B4       		.byte	-76
 2054 0567 90       		.byte	-112
 2055 0568 C0       		.byte	-64
 2056 0569 04       		.byte	4
 2057 056a C2       		.byte	-62
 2058 056b 08       		.byte	8
 2059 056c CA       		.byte	-54
 2060 056d 01       		.byte	1
 2061 056e D6       		.byte	-42
 2062 056f 07       		.byte	7
 2063 0570 D8       		.byte	-40
 2064 0571 01       		.byte	1
 2065 0572 E0       		.byte	-32
 2066 0573 04       		.byte	4
 2067 0574 E2       		.byte	-30
 2068 0575 01       		.byte	1
 2069 0576 E8       		.byte	-24
 2070 0577 09       		.byte	9
 2071 0578 EC       		.byte	-20
 2072 0579 02       		.byte	2
 2073 057a 01       		.byte	1
ARM GAS  C:\Users\LAIR\AppData\Local\Temp\ccE6w4yy.s 			page 58


 2074 057b 01       		.byte	1
 2075 057c 10       		.byte	16
 2076 057d 01       		.byte	1
 2077 057e 12       		.byte	18
 2078 057f 01       		.byte	1
 2079              		.text
 2080              	.Letext0:
 2081              		.file 2 "c:\\program files (x86)\\cypress\\psoc creator\\3.3\\psoc creator\\import\\gnu\\arm\\4.9.
 2082              		.file 3 ".\\Generated_Source\\PSoC4\\cytypes.h"
 2083              		.file 4 ".\\Generated_Source\\PSoC4\\CyLib.h"