ARM GAS  C:\Users\LAIR\AppData\Local\Temp\cc63h7DG.s 			page 1


   1              		.cpu cortex-m0
   2              		.fpu softvfp
   3              		.eabi_attribute 20, 1
   4              		.eabi_attribute 21, 1
   5              		.eabi_attribute 23, 3
   6              		.eabi_attribute 24, 1
   7              		.eabi_attribute 25, 1
   8              		.eabi_attribute 26, 1
   9              		.eabi_attribute 30, 1
  10              		.eabi_attribute 34, 0
  11              		.eabi_attribute 18, 4
  12              		.code	16
  13              		.file	"IDAC1.c"
  14              		.text
  15              	.Ltext0:
  16              		.cfi_sections	.debug_frame
  17              		.section	.text.IDAC1_Init,"ax",%progbits
  18              		.align	2
  19              		.global	IDAC1_Init
  20              		.code	16
  21              		.thumb_func
  22              		.type	IDAC1_Init, %function
  23              	IDAC1_Init:
  24              	.LFB1:
  25              		.file 1 ".\\Generated_Source\\PSoC4\\IDAC1.c"
   1:.\Generated_Source\PSoC4/IDAC1.c **** /*******************************************************************************
   2:.\Generated_Source\PSoC4/IDAC1.c **** * File Name: IDAC1.c
   3:.\Generated_Source\PSoC4/IDAC1.c **** * Version 1.10
   4:.\Generated_Source\PSoC4/IDAC1.c **** *
   5:.\Generated_Source\PSoC4/IDAC1.c **** * Description:
   6:.\Generated_Source\PSoC4/IDAC1.c **** *  This file provides the source code of APIs for the IDAC_P4 component.
   7:.\Generated_Source\PSoC4/IDAC1.c **** *
   8:.\Generated_Source\PSoC4/IDAC1.c **** *******************************************************************************
   9:.\Generated_Source\PSoC4/IDAC1.c **** * Copyright 2013-2015, Cypress Semiconductor Corporation.  All rights reserved.
  10:.\Generated_Source\PSoC4/IDAC1.c **** * You may use this file only in accordance with the license, terms, conditions,
  11:.\Generated_Source\PSoC4/IDAC1.c **** * disclaimers, and limitations in the end user license agreement accompanying
  12:.\Generated_Source\PSoC4/IDAC1.c **** * the software package with which this file was provided.
  13:.\Generated_Source\PSoC4/IDAC1.c **** *******************************************************************************/
  14:.\Generated_Source\PSoC4/IDAC1.c **** 
  15:.\Generated_Source\PSoC4/IDAC1.c **** #include "IDAC1.h"
  16:.\Generated_Source\PSoC4/IDAC1.c **** 
  17:.\Generated_Source\PSoC4/IDAC1.c **** uint32 IDAC1_initVar = 0u;
  18:.\Generated_Source\PSoC4/IDAC1.c **** 
  19:.\Generated_Source\PSoC4/IDAC1.c **** 
  20:.\Generated_Source\PSoC4/IDAC1.c **** /*******************************************************************************
  21:.\Generated_Source\PSoC4/IDAC1.c **** * Function Name: IDAC1_Init
  22:.\Generated_Source\PSoC4/IDAC1.c **** ********************************************************************************
  23:.\Generated_Source\PSoC4/IDAC1.c **** *
  24:.\Generated_Source\PSoC4/IDAC1.c **** * Summary:
  25:.\Generated_Source\PSoC4/IDAC1.c **** *  Initializes IDAC registers with initial values provided from customizer.
  26:.\Generated_Source\PSoC4/IDAC1.c **** *
  27:.\Generated_Source\PSoC4/IDAC1.c **** * Parameters:
  28:.\Generated_Source\PSoC4/IDAC1.c **** *  None
  29:.\Generated_Source\PSoC4/IDAC1.c **** *
  30:.\Generated_Source\PSoC4/IDAC1.c **** * Return:
  31:.\Generated_Source\PSoC4/IDAC1.c **** *  None
  32:.\Generated_Source\PSoC4/IDAC1.c **** *
ARM GAS  C:\Users\LAIR\AppData\Local\Temp\cc63h7DG.s 			page 2


  33:.\Generated_Source\PSoC4/IDAC1.c **** * Global variables:
  34:.\Generated_Source\PSoC4/IDAC1.c **** *  None
  35:.\Generated_Source\PSoC4/IDAC1.c **** *
  36:.\Generated_Source\PSoC4/IDAC1.c **** *******************************************************************************/
  37:.\Generated_Source\PSoC4/IDAC1.c **** void IDAC1_Init(void)
  38:.\Generated_Source\PSoC4/IDAC1.c **** {
  26              		.loc 1 38 0
  27              		.cfi_startproc
  28 0000 10B5     		push	{r4, lr}
  29              		.cfi_def_cfa_offset 8
  30              		.cfi_offset 4, -8
  31              		.cfi_offset 14, -4
  39:.\Generated_Source\PSoC4/IDAC1.c ****     uint32 regVal;
  40:.\Generated_Source\PSoC4/IDAC1.c ****     uint8 enableInterrupts;
  41:.\Generated_Source\PSoC4/IDAC1.c **** 
  42:.\Generated_Source\PSoC4/IDAC1.c ****     /* Set initial configuration */
  43:.\Generated_Source\PSoC4/IDAC1.c ****     enableInterrupts = CyEnterCriticalSection();
  32              		.loc 1 43 0
  33 0002 FFF7FEFF 		bl	CyEnterCriticalSection
  34              	.LVL0:
  44:.\Generated_Source\PSoC4/IDAC1.c ****     
  45:.\Generated_Source\PSoC4/IDAC1.c ****     #if(IDAC1_MODE_SOURCE == IDAC1_IDAC_POLARITY)
  46:.\Generated_Source\PSoC4/IDAC1.c ****         regVal  = IDAC1_CSD_TRIM1_REG & ~(IDAC1_CSD_IDAC_TRIM1_MASK);
  35              		.loc 1 46 0
  36 0006 0E49     		ldr	r1, .L2
  37 0008 0B68     		ldr	r3, [r1]
  38 000a 0F22     		mov	r2, #15
  39 000c 9343     		bic	r3, r2
  40 000e 1A1C     		mov	r2, r3
  41              	.LVL1:
  47:.\Generated_Source\PSoC4/IDAC1.c ****         regVal |=  (IDAC1_SFLASH_TRIM1_REG & IDAC1_CSD_IDAC_TRIM1_MASK);
  42              		.loc 1 47 0
  43 0010 0C4B     		ldr	r3, .L2+4
  44 0012 1C78     		ldrb	r4, [r3]
  45 0014 0F23     		mov	r3, #15
  46 0016 2340     		and	r3, r4
  47 0018 1343     		orr	r3, r2
  48              	.LVL2:
  48:.\Generated_Source\PSoC4/IDAC1.c ****         IDAC1_CSD_TRIM1_REG = regVal;
  49              		.loc 1 48 0
  50 001a 0B60     		str	r3, [r1]
  49:.\Generated_Source\PSoC4/IDAC1.c ****     #else
  50:.\Generated_Source\PSoC4/IDAC1.c ****         regVal  = IDAC1_CSD_TRIM2_REG & ~(IDAC1_CSD_IDAC_TRIM2_MASK);
  51:.\Generated_Source\PSoC4/IDAC1.c ****         regVal |=  (IDAC1_SFLASH_TRIM2_REG & IDAC1_CSD_IDAC_TRIM2_MASK);
  52:.\Generated_Source\PSoC4/IDAC1.c ****         IDAC1_CSD_TRIM2_REG = regVal;
  53:.\Generated_Source\PSoC4/IDAC1.c ****     #endif /* (IDAC1_MODE_SOURCE == IDAC1_IDAC_POLARITY) */
  54:.\Generated_Source\PSoC4/IDAC1.c **** 
  55:.\Generated_Source\PSoC4/IDAC1.c ****     /* clear previous values */
  56:.\Generated_Source\PSoC4/IDAC1.c ****     IDAC1_IDAC_CONTROL_REG &= ((uint32)~((uint32)IDAC1_IDAC_VALUE_MASK <<
  51              		.loc 1 56 0
  52 001c 0A4A     		ldr	r2, .L2+8
  53 001e 1368     		ldr	r3, [r2]
  54              	.LVL3:
  55 0020 1360     		str	r3, [r2]
  56              	.LVL4:
  57:.\Generated_Source\PSoC4/IDAC1.c ****         IDAC1_IDAC_VALUE_POSITION)) | ((uint32)~((uint32)IDAC1_IDAC_MODE_MASK <<
  58:.\Generated_Source\PSoC4/IDAC1.c ****         IDAC1_IDAC_MODE_POSITION))  | ((uint32)~((uint32)IDAC1_IDAC_RANGE_MASK  <<
ARM GAS  C:\Users\LAIR\AppData\Local\Temp\cc63h7DG.s 			page 3


  59:.\Generated_Source\PSoC4/IDAC1.c ****         IDAC1_IDAC_RANGE_POSITION));
  60:.\Generated_Source\PSoC4/IDAC1.c **** 
  61:.\Generated_Source\PSoC4/IDAC1.c ****     IDAC1_IDAC_POLARITY_CONTROL_REG &= (~(uint32)((uint32)IDAC1_IDAC_POLARITY_MASK <<
  57              		.loc 1 61 0
  58 0022 0A4B     		ldr	r3, .L2+12
  59 0024 1C68     		ldr	r4, [r3]
  60 0026 0A49     		ldr	r1, .L2+16
  61 0028 2140     		and	r1, r4
  62 002a 1960     		str	r1, [r3]
  62:.\Generated_Source\PSoC4/IDAC1.c ****         IDAC1_IDAC_POLARITY_POSITION));
  63:.\Generated_Source\PSoC4/IDAC1.c **** 
  64:.\Generated_Source\PSoC4/IDAC1.c ****     /* set new configuration */
  65:.\Generated_Source\PSoC4/IDAC1.c ****     IDAC1_IDAC_CONTROL_REG |= (((uint32)IDAC1_IDAC_INIT_VALUE <<
  63              		.loc 1 65 0
  64 002c 1168     		ldr	r1, [r2]
  65 002e 8024     		mov	r4, #128
  66 0030 E400     		lsl	r4, r4, #3
  67 0032 2143     		orr	r1, r4
  68 0034 1160     		str	r1, [r2]
  66:.\Generated_Source\PSoC4/IDAC1.c ****         IDAC1_IDAC_VALUE_POSITION) | ((uint32)IDAC1_IDAC_RANGE <<
  67:.\Generated_Source\PSoC4/IDAC1.c ****         IDAC1_IDAC_RANGE_POSITION));
  68:.\Generated_Source\PSoC4/IDAC1.c **** 
  69:.\Generated_Source\PSoC4/IDAC1.c ****     IDAC1_IDAC_POLARITY_CONTROL_REG |= ((uint32)IDAC1_IDAC_POLARITY <<
  69              		.loc 1 69 0
  70 0036 1A68     		ldr	r2, [r3]
  71 0038 1A60     		str	r2, [r3]
  70:.\Generated_Source\PSoC4/IDAC1.c ****                                                            IDAC1_IDAC_POLARITY_POSITION);
  71:.\Generated_Source\PSoC4/IDAC1.c **** 
  72:.\Generated_Source\PSoC4/IDAC1.c ****     CyExitCriticalSection(enableInterrupts);
  72              		.loc 1 72 0
  73 003a FFF7FEFF 		bl	CyExitCriticalSection
  74              	.LVL5:
  73:.\Generated_Source\PSoC4/IDAC1.c **** 
  74:.\Generated_Source\PSoC4/IDAC1.c **** }
  75              		.loc 1 74 0
  76              		@ sp needed
  77 003e 10BD     		pop	{r4, pc}
  78              	.L3:
  79              		.align	2
  80              	.L2:
  81 0040 00FF2940 		.word	1076494080
  82 0044 60F2FF0F 		.word	268431968
  83 0048 08002940 		.word	1076428808
  84 004c 04002940 		.word	1076428804
  85 0050 FFFFFEFF 		.word	-65537
  86              		.cfi_endproc
  87              	.LFE1:
  88              		.size	IDAC1_Init, .-IDAC1_Init
  89              		.section	.text.IDAC1_Enable,"ax",%progbits
  90              		.align	2
  91              		.global	IDAC1_Enable
  92              		.code	16
  93              		.thumb_func
  94              		.type	IDAC1_Enable, %function
  95              	IDAC1_Enable:
  96              	.LFB2:
  75:.\Generated_Source\PSoC4/IDAC1.c **** 
ARM GAS  C:\Users\LAIR\AppData\Local\Temp\cc63h7DG.s 			page 4


  76:.\Generated_Source\PSoC4/IDAC1.c **** 
  77:.\Generated_Source\PSoC4/IDAC1.c **** /*******************************************************************************
  78:.\Generated_Source\PSoC4/IDAC1.c **** * Function Name: IDAC1_Enable
  79:.\Generated_Source\PSoC4/IDAC1.c **** ********************************************************************************
  80:.\Generated_Source\PSoC4/IDAC1.c **** *
  81:.\Generated_Source\PSoC4/IDAC1.c **** * Summary:
  82:.\Generated_Source\PSoC4/IDAC1.c **** *  Enables IDAC operations.
  83:.\Generated_Source\PSoC4/IDAC1.c **** *
  84:.\Generated_Source\PSoC4/IDAC1.c **** * Parameters:
  85:.\Generated_Source\PSoC4/IDAC1.c **** *  None
  86:.\Generated_Source\PSoC4/IDAC1.c **** *
  87:.\Generated_Source\PSoC4/IDAC1.c **** * Return:
  88:.\Generated_Source\PSoC4/IDAC1.c **** *  None
  89:.\Generated_Source\PSoC4/IDAC1.c **** *
  90:.\Generated_Source\PSoC4/IDAC1.c **** * Global variables:
  91:.\Generated_Source\PSoC4/IDAC1.c **** *  None
  92:.\Generated_Source\PSoC4/IDAC1.c **** *
  93:.\Generated_Source\PSoC4/IDAC1.c **** *******************************************************************************/
  94:.\Generated_Source\PSoC4/IDAC1.c **** void IDAC1_Enable(void)
  95:.\Generated_Source\PSoC4/IDAC1.c **** {
  97              		.loc 1 95 0
  98              		.cfi_startproc
  99 0000 08B5     		push	{r3, lr}
 100              		.cfi_def_cfa_offset 8
 101              		.cfi_offset 3, -8
 102              		.cfi_offset 14, -4
  96:.\Generated_Source\PSoC4/IDAC1.c ****     uint8 enableInterrupts;
  97:.\Generated_Source\PSoC4/IDAC1.c **** 
  98:.\Generated_Source\PSoC4/IDAC1.c ****     enableInterrupts = CyEnterCriticalSection();
 103              		.loc 1 98 0
 104 0002 FFF7FEFF 		bl	CyEnterCriticalSection
 105              	.LVL6:
  99:.\Generated_Source\PSoC4/IDAC1.c **** 
 100:.\Generated_Source\PSoC4/IDAC1.c ****     /* Enable the IDAC */
 101:.\Generated_Source\PSoC4/IDAC1.c ****     IDAC1_IDAC_CONTROL_REG |= ((uint32)IDAC1_IDAC_EN_MODE <<
 106              		.loc 1 101 0
 107 0006 074A     		ldr	r2, .L5
 108 0008 1368     		ldr	r3, [r2]
 109 000a C021     		mov	r1, #192
 110 000c 8900     		lsl	r1, r1, #2
 111 000e 0B43     		orr	r3, r1
 112 0010 1360     		str	r3, [r2]
 102:.\Generated_Source\PSoC4/IDAC1.c ****                                                   IDAC1_IDAC_MODE_POSITION);
 103:.\Generated_Source\PSoC4/IDAC1.c ****     IDAC1_IDAC_POLARITY_CONTROL_REG |= ((uint32)IDAC1_IDAC_CSD_EN <<
 113              		.loc 1 103 0
 114 0012 054A     		ldr	r2, .L5+4
 115 0014 1368     		ldr	r3, [r2]
 116 0016 8021     		mov	r1, #128
 117 0018 0906     		lsl	r1, r1, #24
 118 001a 0B43     		orr	r3, r1
 119 001c 1360     		str	r3, [r2]
 104:.\Generated_Source\PSoC4/IDAC1.c ****                                                            IDAC1_IDAC_CSD_EN_POSITION);
 105:.\Generated_Source\PSoC4/IDAC1.c ****     CyExitCriticalSection(enableInterrupts);
 120              		.loc 1 105 0
 121 001e FFF7FEFF 		bl	CyExitCriticalSection
 122              	.LVL7:
 106:.\Generated_Source\PSoC4/IDAC1.c **** 
ARM GAS  C:\Users\LAIR\AppData\Local\Temp\cc63h7DG.s 			page 5


 107:.\Generated_Source\PSoC4/IDAC1.c **** }
 123              		.loc 1 107 0
 124              		@ sp needed
 125 0022 08BD     		pop	{r3, pc}
 126              	.L6:
 127              		.align	2
 128              	.L5:
 129 0024 08002940 		.word	1076428808
 130 0028 04002940 		.word	1076428804
 131              		.cfi_endproc
 132              	.LFE2:
 133              		.size	IDAC1_Enable, .-IDAC1_Enable
 134              		.section	.text.IDAC1_Start,"ax",%progbits
 135              		.align	2
 136              		.global	IDAC1_Start
 137              		.code	16
 138              		.thumb_func
 139              		.type	IDAC1_Start, %function
 140              	IDAC1_Start:
 141              	.LFB3:
 108:.\Generated_Source\PSoC4/IDAC1.c **** 
 109:.\Generated_Source\PSoC4/IDAC1.c **** 
 110:.\Generated_Source\PSoC4/IDAC1.c **** /*******************************************************************************
 111:.\Generated_Source\PSoC4/IDAC1.c **** * Function Name: IDAC1_Start
 112:.\Generated_Source\PSoC4/IDAC1.c **** ********************************************************************************
 113:.\Generated_Source\PSoC4/IDAC1.c **** *
 114:.\Generated_Source\PSoC4/IDAC1.c **** * Summary:
 115:.\Generated_Source\PSoC4/IDAC1.c **** *  Starts the IDAC hardware.
 116:.\Generated_Source\PSoC4/IDAC1.c **** *
 117:.\Generated_Source\PSoC4/IDAC1.c **** * Parameters:
 118:.\Generated_Source\PSoC4/IDAC1.c **** *  None
 119:.\Generated_Source\PSoC4/IDAC1.c **** *
 120:.\Generated_Source\PSoC4/IDAC1.c **** * Return:
 121:.\Generated_Source\PSoC4/IDAC1.c **** *  None
 122:.\Generated_Source\PSoC4/IDAC1.c **** *
 123:.\Generated_Source\PSoC4/IDAC1.c **** * Global variables:
 124:.\Generated_Source\PSoC4/IDAC1.c **** *  IDAC1_initVar
 125:.\Generated_Source\PSoC4/IDAC1.c **** *
 126:.\Generated_Source\PSoC4/IDAC1.c **** *******************************************************************************/
 127:.\Generated_Source\PSoC4/IDAC1.c **** void IDAC1_Start(void)
 128:.\Generated_Source\PSoC4/IDAC1.c **** {
 142              		.loc 1 128 0
 143              		.cfi_startproc
 144 0000 08B5     		push	{r3, lr}
 145              		.cfi_def_cfa_offset 8
 146              		.cfi_offset 3, -8
 147              		.cfi_offset 14, -4
 129:.\Generated_Source\PSoC4/IDAC1.c ****     if(0u == IDAC1_initVar)
 148              		.loc 1 129 0
 149 0002 064B     		ldr	r3, .L9
 150 0004 1B68     		ldr	r3, [r3]
 151 0006 002B     		cmp	r3, #0
 152 0008 04D1     		bne	.L8
 130:.\Generated_Source\PSoC4/IDAC1.c ****     {
 131:.\Generated_Source\PSoC4/IDAC1.c ****         IDAC1_Init();
 153              		.loc 1 131 0
 154 000a FFF7FEFF 		bl	IDAC1_Init
ARM GAS  C:\Users\LAIR\AppData\Local\Temp\cc63h7DG.s 			page 6


 155              	.LVL8:
 132:.\Generated_Source\PSoC4/IDAC1.c ****         IDAC1_initVar = 1u;
 156              		.loc 1 132 0
 157 000e 0122     		mov	r2, #1
 158 0010 024B     		ldr	r3, .L9
 159 0012 1A60     		str	r2, [r3]
 160              	.L8:
 133:.\Generated_Source\PSoC4/IDAC1.c ****     }
 134:.\Generated_Source\PSoC4/IDAC1.c **** 
 135:.\Generated_Source\PSoC4/IDAC1.c ****     IDAC1_Enable();
 161              		.loc 1 135 0
 162 0014 FFF7FEFF 		bl	IDAC1_Enable
 163              	.LVL9:
 136:.\Generated_Source\PSoC4/IDAC1.c **** 
 137:.\Generated_Source\PSoC4/IDAC1.c **** }
 164              		.loc 1 137 0
 165              		@ sp needed
 166 0018 08BD     		pop	{r3, pc}
 167              	.L10:
 168 001a C046     		.align	2
 169              	.L9:
 170 001c 00000000 		.word	.LANCHOR0
 171              		.cfi_endproc
 172              	.LFE3:
 173              		.size	IDAC1_Start, .-IDAC1_Start
 174              		.section	.text.IDAC1_Stop,"ax",%progbits
 175              		.align	2
 176              		.global	IDAC1_Stop
 177              		.code	16
 178              		.thumb_func
 179              		.type	IDAC1_Stop, %function
 180              	IDAC1_Stop:
 181              	.LFB4:
 138:.\Generated_Source\PSoC4/IDAC1.c **** 
 139:.\Generated_Source\PSoC4/IDAC1.c **** 
 140:.\Generated_Source\PSoC4/IDAC1.c **** /*******************************************************************************
 141:.\Generated_Source\PSoC4/IDAC1.c **** * Function Name: IDAC1_Stop
 142:.\Generated_Source\PSoC4/IDAC1.c **** ********************************************************************************
 143:.\Generated_Source\PSoC4/IDAC1.c **** *
 144:.\Generated_Source\PSoC4/IDAC1.c **** * Summary:
 145:.\Generated_Source\PSoC4/IDAC1.c **** *  Stops the IDAC hardware.
 146:.\Generated_Source\PSoC4/IDAC1.c **** *
 147:.\Generated_Source\PSoC4/IDAC1.c **** * Parameters:
 148:.\Generated_Source\PSoC4/IDAC1.c **** *  None
 149:.\Generated_Source\PSoC4/IDAC1.c **** *
 150:.\Generated_Source\PSoC4/IDAC1.c **** * Return:
 151:.\Generated_Source\PSoC4/IDAC1.c **** *  None
 152:.\Generated_Source\PSoC4/IDAC1.c **** *
 153:.\Generated_Source\PSoC4/IDAC1.c **** * Global variables:
 154:.\Generated_Source\PSoC4/IDAC1.c **** *  None
 155:.\Generated_Source\PSoC4/IDAC1.c **** *
 156:.\Generated_Source\PSoC4/IDAC1.c **** *******************************************************************************/
 157:.\Generated_Source\PSoC4/IDAC1.c **** void IDAC1_Stop(void)
 158:.\Generated_Source\PSoC4/IDAC1.c **** {
 182              		.loc 1 158 0
 183              		.cfi_startproc
 184 0000 08B5     		push	{r3, lr}
ARM GAS  C:\Users\LAIR\AppData\Local\Temp\cc63h7DG.s 			page 7


 185              		.cfi_def_cfa_offset 8
 186              		.cfi_offset 3, -8
 187              		.cfi_offset 14, -4
 159:.\Generated_Source\PSoC4/IDAC1.c ****     uint8 enableInterrupts;
 160:.\Generated_Source\PSoC4/IDAC1.c **** 
 161:.\Generated_Source\PSoC4/IDAC1.c ****     enableInterrupts = CyEnterCriticalSection();
 188              		.loc 1 161 0
 189 0002 FFF7FEFF 		bl	CyEnterCriticalSection
 190              	.LVL10:
 162:.\Generated_Source\PSoC4/IDAC1.c **** 
 163:.\Generated_Source\PSoC4/IDAC1.c ****     /* Disable the IDAC */
 164:.\Generated_Source\PSoC4/IDAC1.c ****     IDAC1_IDAC_CONTROL_REG &= ((uint32)~((uint32)IDAC1_IDAC_MODE_MASK <<
 191              		.loc 1 164 0
 192 0006 044A     		ldr	r2, .L12
 193 0008 1168     		ldr	r1, [r2]
 194 000a 044B     		ldr	r3, .L12+4
 195 000c 0B40     		and	r3, r1
 196 000e 1360     		str	r3, [r2]
 165:.\Generated_Source\PSoC4/IDAC1.c ****         IDAC1_IDAC_MODE_POSITION));
 166:.\Generated_Source\PSoC4/IDAC1.c ****     CyExitCriticalSection(enableInterrupts);
 197              		.loc 1 166 0
 198 0010 FFF7FEFF 		bl	CyExitCriticalSection
 199              	.LVL11:
 167:.\Generated_Source\PSoC4/IDAC1.c **** }
 200              		.loc 1 167 0
 201              		@ sp needed
 202 0014 08BD     		pop	{r3, pc}
 203              	.L13:
 204 0016 C046     		.align	2
 205              	.L12:
 206 0018 08002940 		.word	1076428808
 207 001c FFFCFFFF 		.word	-769
 208              		.cfi_endproc
 209              	.LFE4:
 210              		.size	IDAC1_Stop, .-IDAC1_Stop
 211              		.section	.text.IDAC1_SetValue,"ax",%progbits
 212              		.align	2
 213              		.global	IDAC1_SetValue
 214              		.code	16
 215              		.thumb_func
 216              		.type	IDAC1_SetValue, %function
 217              	IDAC1_SetValue:
 218              	.LFB5:
 168:.\Generated_Source\PSoC4/IDAC1.c **** 
 169:.\Generated_Source\PSoC4/IDAC1.c **** 
 170:.\Generated_Source\PSoC4/IDAC1.c **** /*******************************************************************************
 171:.\Generated_Source\PSoC4/IDAC1.c **** * Function Name: IDAC1_SetValue
 172:.\Generated_Source\PSoC4/IDAC1.c **** ********************************************************************************
 173:.\Generated_Source\PSoC4/IDAC1.c **** *
 174:.\Generated_Source\PSoC4/IDAC1.c **** * Summary:
 175:.\Generated_Source\PSoC4/IDAC1.c **** *  Sets the IDAC value.
 176:.\Generated_Source\PSoC4/IDAC1.c **** *
 177:.\Generated_Source\PSoC4/IDAC1.c **** * Parameters:
 178:.\Generated_Source\PSoC4/IDAC1.c **** *  uint32 value
 179:.\Generated_Source\PSoC4/IDAC1.c **** *
 180:.\Generated_Source\PSoC4/IDAC1.c **** * Return:
 181:.\Generated_Source\PSoC4/IDAC1.c **** *  None
ARM GAS  C:\Users\LAIR\AppData\Local\Temp\cc63h7DG.s 			page 8


 182:.\Generated_Source\PSoC4/IDAC1.c **** *
 183:.\Generated_Source\PSoC4/IDAC1.c **** * Global variables:
 184:.\Generated_Source\PSoC4/IDAC1.c **** *  None
 185:.\Generated_Source\PSoC4/IDAC1.c **** *
 186:.\Generated_Source\PSoC4/IDAC1.c **** *******************************************************************************/
 187:.\Generated_Source\PSoC4/IDAC1.c **** void IDAC1_SetValue(uint32 value)
 188:.\Generated_Source\PSoC4/IDAC1.c **** {
 219              		.loc 1 188 0
 220              		.cfi_startproc
 221              	.LVL12:
 222 0000 10B5     		push	{r4, lr}
 223              		.cfi_def_cfa_offset 8
 224              		.cfi_offset 4, -8
 225              		.cfi_offset 14, -4
 226 0002 041C     		mov	r4, r0
 189:.\Generated_Source\PSoC4/IDAC1.c ****     uint8 enableInterrupts;
 190:.\Generated_Source\PSoC4/IDAC1.c ****     uint32 newRegisterValue;
 191:.\Generated_Source\PSoC4/IDAC1.c **** 
 192:.\Generated_Source\PSoC4/IDAC1.c ****     enableInterrupts = CyEnterCriticalSection();
 227              		.loc 1 192 0
 228 0004 FFF7FEFF 		bl	CyEnterCriticalSection
 229              	.LVL13:
 193:.\Generated_Source\PSoC4/IDAC1.c **** 
 194:.\Generated_Source\PSoC4/IDAC1.c ****     #if(IDAC1_IDAC_VALUE_POSITION != 0u)
 195:.\Generated_Source\PSoC4/IDAC1.c ****         newRegisterValue = ((IDAC1_IDAC_CONTROL_REG & (~(uint32)((uint32)IDAC1_IDAC_VALUE_MASK <<
 196:.\Generated_Source\PSoC4/IDAC1.c ****         IDAC1_IDAC_VALUE_POSITION))) | (value << IDAC1_IDAC_VALUE_POSITION));
 197:.\Generated_Source\PSoC4/IDAC1.c ****     #else
 198:.\Generated_Source\PSoC4/IDAC1.c ****         newRegisterValue = ((IDAC1_IDAC_CONTROL_REG & (~(uint32)IDAC1_IDAC_VALUE_MASK)) | value);
 230              		.loc 1 198 0
 231 0008 044A     		ldr	r2, .L15
 232 000a 1368     		ldr	r3, [r2]
 233 000c FF21     		mov	r1, #255
 234 000e 8B43     		bic	r3, r1
 235 0010 1C43     		orr	r4, r3
 236              	.LVL14:
 199:.\Generated_Source\PSoC4/IDAC1.c ****     #endif /* IDAC1_IDAC_VALUE_POSITION != 0u */
 200:.\Generated_Source\PSoC4/IDAC1.c **** 
 201:.\Generated_Source\PSoC4/IDAC1.c ****     IDAC1_IDAC_CONTROL_REG = newRegisterValue;
 237              		.loc 1 201 0
 238 0012 1460     		str	r4, [r2]
 202:.\Generated_Source\PSoC4/IDAC1.c **** 
 203:.\Generated_Source\PSoC4/IDAC1.c ****     CyExitCriticalSection(enableInterrupts);
 239              		.loc 1 203 0
 240 0014 FFF7FEFF 		bl	CyExitCriticalSection
 241              	.LVL15:
 204:.\Generated_Source\PSoC4/IDAC1.c **** }
 242              		.loc 1 204 0
 243              		@ sp needed
 244              	.LVL16:
 245 0018 10BD     		pop	{r4, pc}
 246              	.L16:
 247 001a C046     		.align	2
 248              	.L15:
 249 001c 08002940 		.word	1076428808
 250              		.cfi_endproc
 251              	.LFE5:
 252              		.size	IDAC1_SetValue, .-IDAC1_SetValue
ARM GAS  C:\Users\LAIR\AppData\Local\Temp\cc63h7DG.s 			page 9


 253              		.global	IDAC1_initVar
 254              		.bss
 255              		.align	2
 256              		.set	.LANCHOR0,. + 0
 257              		.type	IDAC1_initVar, %object
 258              		.size	IDAC1_initVar, 4
 259              	IDAC1_initVar:
 260 0000 00000000 		.space	4
 261              		.text
 262              	.Letext0:
 263              		.file 2 ".\\Generated_Source\\PSoC4\\cytypes.h"
 264              		.file 3 ".\\Generated_Source\\PSoC4\\CyLib.h"