ARM GAS  C:\Users\LAIR\AppData\Local\Temp\cc4ZtvJP.s 			page 1


   1              		.cpu cortex-m0
   2              		.fpu softvfp
   3              		.eabi_attribute 20, 1
   4              		.eabi_attribute 21, 1
   5              		.eabi_attribute 23, 3
   6              		.eabi_attribute 24, 1
   7              		.eabi_attribute 25, 1
   8              		.eabi_attribute 26, 1
   9              		.eabi_attribute 30, 1
  10              		.eabi_attribute 34, 0
  11              		.eabi_attribute 18, 4
  12              		.code	16
  13              		.file	"QD0.c"
  14              		.text
  15              	.Ltext0:
  16              		.cfi_sections	.debug_frame
  17              		.section	.text.QD0_Stop,"ax",%progbits
  18              		.align	2
  19              		.global	QD0_Stop
  20              		.code	16
  21              		.thumb_func
  22              		.type	QD0_Stop, %function
  23              	QD0_Stop:
  24              	.LFB4:
  25              		.file 1 ".\\Generated_Source\\PSoC4\\QD0.c"
   1:.\Generated_Source\PSoC4/QD0.c **** /*******************************************************************************
   2:.\Generated_Source\PSoC4/QD0.c **** * File Name: QD0.c
   3:.\Generated_Source\PSoC4/QD0.c **** * Version 2.10
   4:.\Generated_Source\PSoC4/QD0.c **** *
   5:.\Generated_Source\PSoC4/QD0.c **** * Description:
   6:.\Generated_Source\PSoC4/QD0.c **** *  This file provides the source code to the API for the QD0
   7:.\Generated_Source\PSoC4/QD0.c **** *  component
   8:.\Generated_Source\PSoC4/QD0.c **** *
   9:.\Generated_Source\PSoC4/QD0.c **** * Note:
  10:.\Generated_Source\PSoC4/QD0.c **** *  None
  11:.\Generated_Source\PSoC4/QD0.c **** *
  12:.\Generated_Source\PSoC4/QD0.c **** ********************************************************************************
  13:.\Generated_Source\PSoC4/QD0.c **** * Copyright 2013-2015, Cypress Semiconductor Corporation.  All rights reserved.
  14:.\Generated_Source\PSoC4/QD0.c **** * You may use this file only in accordance with the license, terms, conditions,
  15:.\Generated_Source\PSoC4/QD0.c **** * disclaimers, and limitations in the end user license agreement accompanying
  16:.\Generated_Source\PSoC4/QD0.c **** * the software package with which this file was provided.
  17:.\Generated_Source\PSoC4/QD0.c **** *******************************************************************************/
  18:.\Generated_Source\PSoC4/QD0.c **** 
  19:.\Generated_Source\PSoC4/QD0.c **** #include "QD0.h"
  20:.\Generated_Source\PSoC4/QD0.c **** 
  21:.\Generated_Source\PSoC4/QD0.c **** uint8 QD0_initVar = 0u;
  22:.\Generated_Source\PSoC4/QD0.c **** 
  23:.\Generated_Source\PSoC4/QD0.c **** 
  24:.\Generated_Source\PSoC4/QD0.c **** /*******************************************************************************
  25:.\Generated_Source\PSoC4/QD0.c **** * Function Name: QD0_Init
  26:.\Generated_Source\PSoC4/QD0.c **** ********************************************************************************
  27:.\Generated_Source\PSoC4/QD0.c **** *
  28:.\Generated_Source\PSoC4/QD0.c **** * Summary:
  29:.\Generated_Source\PSoC4/QD0.c **** *  Initialize/Restore default QD0 configuration.
  30:.\Generated_Source\PSoC4/QD0.c **** *
  31:.\Generated_Source\PSoC4/QD0.c **** * Parameters:
  32:.\Generated_Source\PSoC4/QD0.c **** *  None
ARM GAS  C:\Users\LAIR\AppData\Local\Temp\cc4ZtvJP.s 			page 2


  33:.\Generated_Source\PSoC4/QD0.c **** *
  34:.\Generated_Source\PSoC4/QD0.c **** * Return:
  35:.\Generated_Source\PSoC4/QD0.c **** *  None
  36:.\Generated_Source\PSoC4/QD0.c **** *
  37:.\Generated_Source\PSoC4/QD0.c **** *******************************************************************************/
  38:.\Generated_Source\PSoC4/QD0.c **** void QD0_Init(void)
  39:.\Generated_Source\PSoC4/QD0.c **** {
  40:.\Generated_Source\PSoC4/QD0.c **** 
  41:.\Generated_Source\PSoC4/QD0.c ****     /* Set values from customizer to CTRL */
  42:.\Generated_Source\PSoC4/QD0.c ****     #if (QD0__QUAD == QD0_CONFIG)
  43:.\Generated_Source\PSoC4/QD0.c ****         QD0_CONTROL_REG = QD0_CTRL_QUAD_BASE_CONFIG;
  44:.\Generated_Source\PSoC4/QD0.c ****         
  45:.\Generated_Source\PSoC4/QD0.c ****         /* Set values from customizer to CTRL1 */
  46:.\Generated_Source\PSoC4/QD0.c ****         QD0_TRIG_CONTROL1_REG  = QD0_QUAD_SIGNALS_MODES;
  47:.\Generated_Source\PSoC4/QD0.c **** 
  48:.\Generated_Source\PSoC4/QD0.c ****         /* Set values from customizer to INTR */
  49:.\Generated_Source\PSoC4/QD0.c ****         QD0_SetInterruptMode(QD0_QUAD_INTERRUPT_MASK);
  50:.\Generated_Source\PSoC4/QD0.c ****         
  51:.\Generated_Source\PSoC4/QD0.c ****          /* Set other values */
  52:.\Generated_Source\PSoC4/QD0.c ****         QD0_SetCounterMode(QD0_COUNT_DOWN);
  53:.\Generated_Source\PSoC4/QD0.c ****         QD0_WritePeriod(QD0_QUAD_PERIOD_INIT_VALUE);
  54:.\Generated_Source\PSoC4/QD0.c ****         QD0_WriteCounter(QD0_QUAD_PERIOD_INIT_VALUE);
  55:.\Generated_Source\PSoC4/QD0.c ****     #endif  /* (QD0__QUAD == QD0_CONFIG) */
  56:.\Generated_Source\PSoC4/QD0.c **** 
  57:.\Generated_Source\PSoC4/QD0.c ****     #if (QD0__TIMER == QD0_CONFIG)
  58:.\Generated_Source\PSoC4/QD0.c ****         QD0_CONTROL_REG = QD0_CTRL_TIMER_BASE_CONFIG;
  59:.\Generated_Source\PSoC4/QD0.c ****         
  60:.\Generated_Source\PSoC4/QD0.c ****         /* Set values from customizer to CTRL1 */
  61:.\Generated_Source\PSoC4/QD0.c ****         QD0_TRIG_CONTROL1_REG  = QD0_TIMER_SIGNALS_MODES;
  62:.\Generated_Source\PSoC4/QD0.c ****     
  63:.\Generated_Source\PSoC4/QD0.c ****         /* Set values from customizer to INTR */
  64:.\Generated_Source\PSoC4/QD0.c ****         QD0_SetInterruptMode(QD0_TC_INTERRUPT_MASK);
  65:.\Generated_Source\PSoC4/QD0.c ****         
  66:.\Generated_Source\PSoC4/QD0.c ****         /* Set other values from customizer */
  67:.\Generated_Source\PSoC4/QD0.c ****         QD0_WritePeriod(QD0_TC_PERIOD_VALUE );
  68:.\Generated_Source\PSoC4/QD0.c **** 
  69:.\Generated_Source\PSoC4/QD0.c ****         #if (QD0__COMPARE == QD0_TC_COMP_CAP_MODE)
  70:.\Generated_Source\PSoC4/QD0.c ****             QD0_WriteCompare(QD0_TC_COMPARE_VALUE);
  71:.\Generated_Source\PSoC4/QD0.c **** 
  72:.\Generated_Source\PSoC4/QD0.c ****             #if (1u == QD0_TC_COMPARE_SWAP)
  73:.\Generated_Source\PSoC4/QD0.c ****                 QD0_SetCompareSwap(1u);
  74:.\Generated_Source\PSoC4/QD0.c ****                 QD0_WriteCompareBuf(QD0_TC_COMPARE_BUF_VALUE);
  75:.\Generated_Source\PSoC4/QD0.c ****             #endif  /* (1u == QD0_TC_COMPARE_SWAP) */
  76:.\Generated_Source\PSoC4/QD0.c ****         #endif  /* (QD0__COMPARE == QD0_TC_COMP_CAP_MODE) */
  77:.\Generated_Source\PSoC4/QD0.c **** 
  78:.\Generated_Source\PSoC4/QD0.c ****         /* Initialize counter value */
  79:.\Generated_Source\PSoC4/QD0.c ****         #if (QD0_CY_TCPWM_V2 && QD0_TIMER_UPDOWN_CNT_USED && !QD0_CY_TCPWM_4000)
  80:.\Generated_Source\PSoC4/QD0.c ****             QD0_WriteCounter(1u);
  81:.\Generated_Source\PSoC4/QD0.c ****         #elif(QD0__COUNT_DOWN == QD0_TC_COUNTER_MODE)
  82:.\Generated_Source\PSoC4/QD0.c ****             QD0_WriteCounter(QD0_TC_PERIOD_VALUE);
  83:.\Generated_Source\PSoC4/QD0.c ****         #else
  84:.\Generated_Source\PSoC4/QD0.c ****             QD0_WriteCounter(0u);
  85:.\Generated_Source\PSoC4/QD0.c ****         #endif /* (QD0_CY_TCPWM_V2 && QD0_TIMER_UPDOWN_CNT_USED && !QD0_CY_TCPWM_4000) */
  86:.\Generated_Source\PSoC4/QD0.c ****     #endif  /* (QD0__TIMER == QD0_CONFIG) */
  87:.\Generated_Source\PSoC4/QD0.c **** 
  88:.\Generated_Source\PSoC4/QD0.c ****     #if (QD0__PWM_SEL == QD0_CONFIG)
  89:.\Generated_Source\PSoC4/QD0.c ****         QD0_CONTROL_REG = QD0_CTRL_PWM_BASE_CONFIG;
ARM GAS  C:\Users\LAIR\AppData\Local\Temp\cc4ZtvJP.s 			page 3


  90:.\Generated_Source\PSoC4/QD0.c **** 
  91:.\Generated_Source\PSoC4/QD0.c ****         #if (QD0__PWM_PR == QD0_PWM_MODE)
  92:.\Generated_Source\PSoC4/QD0.c ****             QD0_CONTROL_REG |= QD0_CTRL_PWM_RUN_MODE;
  93:.\Generated_Source\PSoC4/QD0.c ****             QD0_WriteCounter(QD0_PWM_PR_INIT_VALUE);
  94:.\Generated_Source\PSoC4/QD0.c ****         #else
  95:.\Generated_Source\PSoC4/QD0.c ****             QD0_CONTROL_REG |= QD0_CTRL_PWM_ALIGN | QD0_CTRL_PWM_KILL_EVENT;
  96:.\Generated_Source\PSoC4/QD0.c ****             
  97:.\Generated_Source\PSoC4/QD0.c ****             /* Initialize counter value */
  98:.\Generated_Source\PSoC4/QD0.c ****             #if (QD0_CY_TCPWM_V2 && QD0_PWM_UPDOWN_CNT_USED && !QD0_CY_TCPWM_4000)
  99:.\Generated_Source\PSoC4/QD0.c ****                 QD0_WriteCounter(1u);
 100:.\Generated_Source\PSoC4/QD0.c ****             #elif (QD0__RIGHT == QD0_PWM_ALIGN)
 101:.\Generated_Source\PSoC4/QD0.c ****                 QD0_WriteCounter(QD0_PWM_PERIOD_VALUE);
 102:.\Generated_Source\PSoC4/QD0.c ****             #else 
 103:.\Generated_Source\PSoC4/QD0.c ****                 QD0_WriteCounter(0u);
 104:.\Generated_Source\PSoC4/QD0.c ****             #endif  /* (QD0_CY_TCPWM_V2 && QD0_PWM_UPDOWN_CNT_USED && !QD0_CY_TCPWM_4000) */
 105:.\Generated_Source\PSoC4/QD0.c ****         #endif  /* (QD0__PWM_PR == QD0_PWM_MODE) */
 106:.\Generated_Source\PSoC4/QD0.c **** 
 107:.\Generated_Source\PSoC4/QD0.c ****         #if (QD0__PWM_DT == QD0_PWM_MODE)
 108:.\Generated_Source\PSoC4/QD0.c ****             QD0_CONTROL_REG |= QD0_CTRL_PWM_DEAD_TIME_CYCLE;
 109:.\Generated_Source\PSoC4/QD0.c ****         #endif  /* (QD0__PWM_DT == QD0_PWM_MODE) */
 110:.\Generated_Source\PSoC4/QD0.c **** 
 111:.\Generated_Source\PSoC4/QD0.c ****         #if (QD0__PWM == QD0_PWM_MODE)
 112:.\Generated_Source\PSoC4/QD0.c ****             QD0_CONTROL_REG |= QD0_CTRL_PWM_PRESCALER;
 113:.\Generated_Source\PSoC4/QD0.c ****         #endif  /* (QD0__PWM == QD0_PWM_MODE) */
 114:.\Generated_Source\PSoC4/QD0.c **** 
 115:.\Generated_Source\PSoC4/QD0.c ****         /* Set values from customizer to CTRL1 */
 116:.\Generated_Source\PSoC4/QD0.c ****         QD0_TRIG_CONTROL1_REG  = QD0_PWM_SIGNALS_MODES;
 117:.\Generated_Source\PSoC4/QD0.c ****     
 118:.\Generated_Source\PSoC4/QD0.c ****         /* Set values from customizer to INTR */
 119:.\Generated_Source\PSoC4/QD0.c ****         QD0_SetInterruptMode(QD0_PWM_INTERRUPT_MASK);
 120:.\Generated_Source\PSoC4/QD0.c **** 
 121:.\Generated_Source\PSoC4/QD0.c ****         /* Set values from customizer to CTRL2 */
 122:.\Generated_Source\PSoC4/QD0.c ****         #if (QD0__PWM_PR == QD0_PWM_MODE)
 123:.\Generated_Source\PSoC4/QD0.c ****             QD0_TRIG_CONTROL2_REG =
 124:.\Generated_Source\PSoC4/QD0.c ****                     (QD0_CC_MATCH_NO_CHANGE    |
 125:.\Generated_Source\PSoC4/QD0.c ****                     QD0_OVERLOW_NO_CHANGE      |
 126:.\Generated_Source\PSoC4/QD0.c ****                     QD0_UNDERFLOW_NO_CHANGE);
 127:.\Generated_Source\PSoC4/QD0.c ****         #else
 128:.\Generated_Source\PSoC4/QD0.c ****             #if (QD0__LEFT == QD0_PWM_ALIGN)
 129:.\Generated_Source\PSoC4/QD0.c ****                 QD0_TRIG_CONTROL2_REG = QD0_PWM_MODE_LEFT;
 130:.\Generated_Source\PSoC4/QD0.c ****             #endif  /* ( QD0_PWM_LEFT == QD0_PWM_ALIGN) */
 131:.\Generated_Source\PSoC4/QD0.c **** 
 132:.\Generated_Source\PSoC4/QD0.c ****             #if (QD0__RIGHT == QD0_PWM_ALIGN)
 133:.\Generated_Source\PSoC4/QD0.c ****                 QD0_TRIG_CONTROL2_REG = QD0_PWM_MODE_RIGHT;
 134:.\Generated_Source\PSoC4/QD0.c ****             #endif  /* ( QD0_PWM_RIGHT == QD0_PWM_ALIGN) */
 135:.\Generated_Source\PSoC4/QD0.c **** 
 136:.\Generated_Source\PSoC4/QD0.c ****             #if (QD0__CENTER == QD0_PWM_ALIGN)
 137:.\Generated_Source\PSoC4/QD0.c ****                 QD0_TRIG_CONTROL2_REG = QD0_PWM_MODE_CENTER;
 138:.\Generated_Source\PSoC4/QD0.c ****             #endif  /* ( QD0_PWM_CENTER == QD0_PWM_ALIGN) */
 139:.\Generated_Source\PSoC4/QD0.c **** 
 140:.\Generated_Source\PSoC4/QD0.c ****             #if (QD0__ASYMMETRIC == QD0_PWM_ALIGN)
 141:.\Generated_Source\PSoC4/QD0.c ****                 QD0_TRIG_CONTROL2_REG = QD0_PWM_MODE_ASYM;
 142:.\Generated_Source\PSoC4/QD0.c ****             #endif  /* (QD0__ASYMMETRIC == QD0_PWM_ALIGN) */
 143:.\Generated_Source\PSoC4/QD0.c ****         #endif  /* (QD0__PWM_PR == QD0_PWM_MODE) */
 144:.\Generated_Source\PSoC4/QD0.c **** 
 145:.\Generated_Source\PSoC4/QD0.c ****         /* Set other values from customizer */
 146:.\Generated_Source\PSoC4/QD0.c ****         QD0_WritePeriod(QD0_PWM_PERIOD_VALUE );
ARM GAS  C:\Users\LAIR\AppData\Local\Temp\cc4ZtvJP.s 			page 4


 147:.\Generated_Source\PSoC4/QD0.c ****         QD0_WriteCompare(QD0_PWM_COMPARE_VALUE);
 148:.\Generated_Source\PSoC4/QD0.c **** 
 149:.\Generated_Source\PSoC4/QD0.c ****         #if (1u == QD0_PWM_COMPARE_SWAP)
 150:.\Generated_Source\PSoC4/QD0.c ****             QD0_SetCompareSwap(1u);
 151:.\Generated_Source\PSoC4/QD0.c ****             QD0_WriteCompareBuf(QD0_PWM_COMPARE_BUF_VALUE);
 152:.\Generated_Source\PSoC4/QD0.c ****         #endif  /* (1u == QD0_PWM_COMPARE_SWAP) */
 153:.\Generated_Source\PSoC4/QD0.c **** 
 154:.\Generated_Source\PSoC4/QD0.c ****         #if (1u == QD0_PWM_PERIOD_SWAP)
 155:.\Generated_Source\PSoC4/QD0.c ****             QD0_SetPeriodSwap(1u);
 156:.\Generated_Source\PSoC4/QD0.c ****             QD0_WritePeriodBuf(QD0_PWM_PERIOD_BUF_VALUE);
 157:.\Generated_Source\PSoC4/QD0.c ****         #endif  /* (1u == QD0_PWM_PERIOD_SWAP) */
 158:.\Generated_Source\PSoC4/QD0.c ****     #endif  /* (QD0__PWM_SEL == QD0_CONFIG) */
 159:.\Generated_Source\PSoC4/QD0.c ****     
 160:.\Generated_Source\PSoC4/QD0.c **** }
 161:.\Generated_Source\PSoC4/QD0.c **** 
 162:.\Generated_Source\PSoC4/QD0.c **** 
 163:.\Generated_Source\PSoC4/QD0.c **** /*******************************************************************************
 164:.\Generated_Source\PSoC4/QD0.c **** * Function Name: QD0_Enable
 165:.\Generated_Source\PSoC4/QD0.c **** ********************************************************************************
 166:.\Generated_Source\PSoC4/QD0.c **** *
 167:.\Generated_Source\PSoC4/QD0.c **** * Summary:
 168:.\Generated_Source\PSoC4/QD0.c **** *  Enables the QD0.
 169:.\Generated_Source\PSoC4/QD0.c **** *
 170:.\Generated_Source\PSoC4/QD0.c **** * Parameters:
 171:.\Generated_Source\PSoC4/QD0.c **** *  None
 172:.\Generated_Source\PSoC4/QD0.c **** *
 173:.\Generated_Source\PSoC4/QD0.c **** * Return:
 174:.\Generated_Source\PSoC4/QD0.c **** *  None
 175:.\Generated_Source\PSoC4/QD0.c **** *
 176:.\Generated_Source\PSoC4/QD0.c **** *******************************************************************************/
 177:.\Generated_Source\PSoC4/QD0.c **** void QD0_Enable(void)
 178:.\Generated_Source\PSoC4/QD0.c **** {
 179:.\Generated_Source\PSoC4/QD0.c ****     uint8 enableInterrupts;
 180:.\Generated_Source\PSoC4/QD0.c **** 
 181:.\Generated_Source\PSoC4/QD0.c ****     enableInterrupts = CyEnterCriticalSection();
 182:.\Generated_Source\PSoC4/QD0.c ****     QD0_BLOCK_CONTROL_REG |= QD0_MASK;
 183:.\Generated_Source\PSoC4/QD0.c ****     CyExitCriticalSection(enableInterrupts);
 184:.\Generated_Source\PSoC4/QD0.c **** 
 185:.\Generated_Source\PSoC4/QD0.c ****     /* Start Timer or PWM if start input is absent */
 186:.\Generated_Source\PSoC4/QD0.c ****     #if (QD0__PWM_SEL == QD0_CONFIG)
 187:.\Generated_Source\PSoC4/QD0.c ****         #if (0u == QD0_PWM_START_SIGNAL_PRESENT)
 188:.\Generated_Source\PSoC4/QD0.c ****             QD0_TriggerCommand(QD0_MASK, QD0_CMD_START);
 189:.\Generated_Source\PSoC4/QD0.c ****         #endif /* (0u == QD0_PWM_START_SIGNAL_PRESENT) */
 190:.\Generated_Source\PSoC4/QD0.c ****     #endif /* (QD0__PWM_SEL == QD0_CONFIG) */
 191:.\Generated_Source\PSoC4/QD0.c **** 
 192:.\Generated_Source\PSoC4/QD0.c ****     #if (QD0__TIMER == QD0_CONFIG)
 193:.\Generated_Source\PSoC4/QD0.c ****         #if (0u == QD0_TC_START_SIGNAL_PRESENT)
 194:.\Generated_Source\PSoC4/QD0.c ****             QD0_TriggerCommand(QD0_MASK, QD0_CMD_START);
 195:.\Generated_Source\PSoC4/QD0.c ****         #endif /* (0u == QD0_TC_START_SIGNAL_PRESENT) */
 196:.\Generated_Source\PSoC4/QD0.c ****     #endif /* (QD0__TIMER == QD0_CONFIG) */
 197:.\Generated_Source\PSoC4/QD0.c ****     
 198:.\Generated_Source\PSoC4/QD0.c ****     #if (QD0__QUAD == QD0_CONFIG)
 199:.\Generated_Source\PSoC4/QD0.c ****         #if (0u != QD0_QUAD_AUTO_START)
 200:.\Generated_Source\PSoC4/QD0.c ****             QD0_TriggerCommand(QD0_MASK, QD0_CMD_RELOAD);
 201:.\Generated_Source\PSoC4/QD0.c ****         #endif /* (0u != QD0_QUAD_AUTO_START) */
 202:.\Generated_Source\PSoC4/QD0.c ****     #endif  /* (QD0__QUAD == QD0_CONFIG) */
 203:.\Generated_Source\PSoC4/QD0.c **** }
ARM GAS  C:\Users\LAIR\AppData\Local\Temp\cc4ZtvJP.s 			page 5


 204:.\Generated_Source\PSoC4/QD0.c **** 
 205:.\Generated_Source\PSoC4/QD0.c **** 
 206:.\Generated_Source\PSoC4/QD0.c **** /*******************************************************************************
 207:.\Generated_Source\PSoC4/QD0.c **** * Function Name: QD0_Start
 208:.\Generated_Source\PSoC4/QD0.c **** ********************************************************************************
 209:.\Generated_Source\PSoC4/QD0.c **** *
 210:.\Generated_Source\PSoC4/QD0.c **** * Summary:
 211:.\Generated_Source\PSoC4/QD0.c **** *  Initializes the QD0 with default customizer
 212:.\Generated_Source\PSoC4/QD0.c **** *  values when called the first time and enables the QD0.
 213:.\Generated_Source\PSoC4/QD0.c **** *  For subsequent calls the configuration is left unchanged and the component is
 214:.\Generated_Source\PSoC4/QD0.c **** *  just enabled.
 215:.\Generated_Source\PSoC4/QD0.c **** *
 216:.\Generated_Source\PSoC4/QD0.c **** * Parameters:
 217:.\Generated_Source\PSoC4/QD0.c **** *  None
 218:.\Generated_Source\PSoC4/QD0.c **** *
 219:.\Generated_Source\PSoC4/QD0.c **** * Return:
 220:.\Generated_Source\PSoC4/QD0.c **** *  None
 221:.\Generated_Source\PSoC4/QD0.c **** *
 222:.\Generated_Source\PSoC4/QD0.c **** * Global variables:
 223:.\Generated_Source\PSoC4/QD0.c **** *  QD0_initVar: global variable is used to indicate initial
 224:.\Generated_Source\PSoC4/QD0.c **** *  configuration of this component.  The variable is initialized to zero and set
 225:.\Generated_Source\PSoC4/QD0.c **** *  to 1 the first time QD0_Start() is called. This allows
 226:.\Generated_Source\PSoC4/QD0.c **** *  enabling/disabling a component without re-initialization in all subsequent
 227:.\Generated_Source\PSoC4/QD0.c **** *  calls to the QD0_Start() routine.
 228:.\Generated_Source\PSoC4/QD0.c **** *
 229:.\Generated_Source\PSoC4/QD0.c **** *******************************************************************************/
 230:.\Generated_Source\PSoC4/QD0.c **** void QD0_Start(void)
 231:.\Generated_Source\PSoC4/QD0.c **** {
 232:.\Generated_Source\PSoC4/QD0.c ****     if (0u == QD0_initVar)
 233:.\Generated_Source\PSoC4/QD0.c ****     {
 234:.\Generated_Source\PSoC4/QD0.c ****         QD0_Init();
 235:.\Generated_Source\PSoC4/QD0.c ****         QD0_initVar = 1u;
 236:.\Generated_Source\PSoC4/QD0.c ****     }
 237:.\Generated_Source\PSoC4/QD0.c **** 
 238:.\Generated_Source\PSoC4/QD0.c ****     QD0_Enable();
 239:.\Generated_Source\PSoC4/QD0.c **** }
 240:.\Generated_Source\PSoC4/QD0.c **** 
 241:.\Generated_Source\PSoC4/QD0.c **** 
 242:.\Generated_Source\PSoC4/QD0.c **** /*******************************************************************************
 243:.\Generated_Source\PSoC4/QD0.c **** * Function Name: QD0_Stop
 244:.\Generated_Source\PSoC4/QD0.c **** ********************************************************************************
 245:.\Generated_Source\PSoC4/QD0.c **** *
 246:.\Generated_Source\PSoC4/QD0.c **** * Summary:
 247:.\Generated_Source\PSoC4/QD0.c **** *  Disables the QD0.
 248:.\Generated_Source\PSoC4/QD0.c **** *
 249:.\Generated_Source\PSoC4/QD0.c **** * Parameters:
 250:.\Generated_Source\PSoC4/QD0.c **** *  None
 251:.\Generated_Source\PSoC4/QD0.c **** *
 252:.\Generated_Source\PSoC4/QD0.c **** * Return:
 253:.\Generated_Source\PSoC4/QD0.c **** *  None
 254:.\Generated_Source\PSoC4/QD0.c **** *
 255:.\Generated_Source\PSoC4/QD0.c **** *******************************************************************************/
 256:.\Generated_Source\PSoC4/QD0.c **** void QD0_Stop(void)
 257:.\Generated_Source\PSoC4/QD0.c **** {
  26              		.loc 1 257 0
  27              		.cfi_startproc
  28 0000 08B5     		push	{r3, lr}
ARM GAS  C:\Users\LAIR\AppData\Local\Temp\cc4ZtvJP.s 			page 6


  29              		.cfi_def_cfa_offset 8
  30              		.cfi_offset 3, -8
  31              		.cfi_offset 14, -4
 258:.\Generated_Source\PSoC4/QD0.c ****     uint8 enableInterrupts;
 259:.\Generated_Source\PSoC4/QD0.c **** 
 260:.\Generated_Source\PSoC4/QD0.c ****     enableInterrupts = CyEnterCriticalSection();
  32              		.loc 1 260 0
  33 0002 FFF7FEFF 		bl	CyEnterCriticalSection
  34              	.LVL0:
 261:.\Generated_Source\PSoC4/QD0.c **** 
 262:.\Generated_Source\PSoC4/QD0.c ****     QD0_BLOCK_CONTROL_REG &= (uint32)~QD0_MASK;
  35              		.loc 1 262 0
  36 0006 044A     		ldr	r2, .L2
  37 0008 1368     		ldr	r3, [r2]
  38 000a 0421     		mov	r1, #4
  39 000c 8B43     		bic	r3, r1
  40 000e 1360     		str	r3, [r2]
 263:.\Generated_Source\PSoC4/QD0.c **** 
 264:.\Generated_Source\PSoC4/QD0.c ****     CyExitCriticalSection(enableInterrupts);
  41              		.loc 1 264 0
  42 0010 FFF7FEFF 		bl	CyExitCriticalSection
  43              	.LVL1:
 265:.\Generated_Source\PSoC4/QD0.c **** }
  44              		.loc 1 265 0
  45              		@ sp needed
  46 0014 08BD     		pop	{r3, pc}
  47              	.L3:
  48 0016 C046     		.align	2
  49              	.L2:
  50 0018 00002040 		.word	1075838976
  51              		.cfi_endproc
  52              	.LFE4:
  53              		.size	QD0_Stop, .-QD0_Stop
  54              		.section	.text.QD0_SetMode,"ax",%progbits
  55              		.align	2
  56              		.global	QD0_SetMode
  57              		.code	16
  58              		.thumb_func
  59              		.type	QD0_SetMode, %function
  60              	QD0_SetMode:
  61              	.LFB5:
 266:.\Generated_Source\PSoC4/QD0.c **** 
 267:.\Generated_Source\PSoC4/QD0.c **** 
 268:.\Generated_Source\PSoC4/QD0.c **** /*******************************************************************************
 269:.\Generated_Source\PSoC4/QD0.c **** * Function Name: QD0_SetMode
 270:.\Generated_Source\PSoC4/QD0.c **** ********************************************************************************
 271:.\Generated_Source\PSoC4/QD0.c **** *
 272:.\Generated_Source\PSoC4/QD0.c **** * Summary:
 273:.\Generated_Source\PSoC4/QD0.c **** *  Sets the operation mode of the QD0. This function is used when
 274:.\Generated_Source\PSoC4/QD0.c **** *  configured as a generic QD0 and the actual mode of operation is
 275:.\Generated_Source\PSoC4/QD0.c **** *  set at runtime. The mode must be set while the component is disabled.
 276:.\Generated_Source\PSoC4/QD0.c **** *
 277:.\Generated_Source\PSoC4/QD0.c **** * Parameters:
 278:.\Generated_Source\PSoC4/QD0.c **** *  mode: Mode for the QD0 to operate in
 279:.\Generated_Source\PSoC4/QD0.c **** *   Values:
 280:.\Generated_Source\PSoC4/QD0.c **** *   - QD0_MODE_TIMER_COMPARE - Timer / Counter with
 281:.\Generated_Source\PSoC4/QD0.c **** *                                                 compare capability
ARM GAS  C:\Users\LAIR\AppData\Local\Temp\cc4ZtvJP.s 			page 7


 282:.\Generated_Source\PSoC4/QD0.c **** *         - QD0_MODE_TIMER_CAPTURE - Timer / Counter with
 283:.\Generated_Source\PSoC4/QD0.c **** *                                                 capture capability
 284:.\Generated_Source\PSoC4/QD0.c **** *         - QD0_MODE_QUAD - Quadrature decoder
 285:.\Generated_Source\PSoC4/QD0.c **** *         - QD0_MODE_PWM - PWM
 286:.\Generated_Source\PSoC4/QD0.c **** *         - QD0_MODE_PWM_DT - PWM with dead time
 287:.\Generated_Source\PSoC4/QD0.c **** *         - QD0_MODE_PWM_PR - PWM with pseudo random capability
 288:.\Generated_Source\PSoC4/QD0.c **** *
 289:.\Generated_Source\PSoC4/QD0.c **** * Return:
 290:.\Generated_Source\PSoC4/QD0.c **** *  None
 291:.\Generated_Source\PSoC4/QD0.c **** *
 292:.\Generated_Source\PSoC4/QD0.c **** *******************************************************************************/
 293:.\Generated_Source\PSoC4/QD0.c **** void QD0_SetMode(uint32 mode)
 294:.\Generated_Source\PSoC4/QD0.c **** {
  62              		.loc 1 294 0
  63              		.cfi_startproc
  64              	.LVL2:
  65 0000 10B5     		push	{r4, lr}
  66              		.cfi_def_cfa_offset 8
  67              		.cfi_offset 4, -8
  68              		.cfi_offset 14, -4
  69 0002 041C     		mov	r4, r0
 295:.\Generated_Source\PSoC4/QD0.c ****     uint8 enableInterrupts;
 296:.\Generated_Source\PSoC4/QD0.c **** 
 297:.\Generated_Source\PSoC4/QD0.c ****     enableInterrupts = CyEnterCriticalSection();
  70              		.loc 1 297 0
  71 0004 FFF7FEFF 		bl	CyEnterCriticalSection
  72              	.LVL3:
 298:.\Generated_Source\PSoC4/QD0.c **** 
 299:.\Generated_Source\PSoC4/QD0.c ****     QD0_CONTROL_REG &= (uint32)~QD0_MODE_MASK;
  73              		.loc 1 299 0
  74 0008 054B     		ldr	r3, .L5
  75 000a 1968     		ldr	r1, [r3]
  76 000c 054A     		ldr	r2, .L5+4
  77 000e 0A40     		and	r2, r1
  78 0010 1A60     		str	r2, [r3]
 300:.\Generated_Source\PSoC4/QD0.c ****     QD0_CONTROL_REG |= mode;
  79              		.loc 1 300 0
  80 0012 1A68     		ldr	r2, [r3]
  81 0014 1443     		orr	r4, r2
  82              	.LVL4:
  83 0016 1C60     		str	r4, [r3]
 301:.\Generated_Source\PSoC4/QD0.c **** 
 302:.\Generated_Source\PSoC4/QD0.c ****     CyExitCriticalSection(enableInterrupts);
  84              		.loc 1 302 0
  85 0018 FFF7FEFF 		bl	CyExitCriticalSection
  86              	.LVL5:
 303:.\Generated_Source\PSoC4/QD0.c **** }
  87              		.loc 1 303 0
  88              		@ sp needed
  89 001c 10BD     		pop	{r4, pc}
  90              	.L6:
  91 001e C046     		.align	2
  92              	.L5:
  93 0020 80012040 		.word	1075839360
  94 0024 FFFFFFF8 		.word	-117440513
  95              		.cfi_endproc
  96              	.LFE5:
ARM GAS  C:\Users\LAIR\AppData\Local\Temp\cc4ZtvJP.s 			page 8


  97              		.size	QD0_SetMode, .-QD0_SetMode
  98              		.section	.text.QD0_SetQDMode,"ax",%progbits
  99              		.align	2
 100              		.global	QD0_SetQDMode
 101              		.code	16
 102              		.thumb_func
 103              		.type	QD0_SetQDMode, %function
 104              	QD0_SetQDMode:
 105              	.LFB6:
 304:.\Generated_Source\PSoC4/QD0.c **** 
 305:.\Generated_Source\PSoC4/QD0.c **** 
 306:.\Generated_Source\PSoC4/QD0.c **** /*******************************************************************************
 307:.\Generated_Source\PSoC4/QD0.c **** * Function Name: QD0_SetQDMode
 308:.\Generated_Source\PSoC4/QD0.c **** ********************************************************************************
 309:.\Generated_Source\PSoC4/QD0.c **** *
 310:.\Generated_Source\PSoC4/QD0.c **** * Summary:
 311:.\Generated_Source\PSoC4/QD0.c **** *  Sets the the Quadrature Decoder to one of the 3 supported modes.
 312:.\Generated_Source\PSoC4/QD0.c **** *  Its functionality is only applicable to Quadrature Decoder operation.
 313:.\Generated_Source\PSoC4/QD0.c **** *
 314:.\Generated_Source\PSoC4/QD0.c **** * Parameters:
 315:.\Generated_Source\PSoC4/QD0.c **** *  qdMode: Quadrature Decoder mode
 316:.\Generated_Source\PSoC4/QD0.c **** *   Values:
 317:.\Generated_Source\PSoC4/QD0.c **** *         - QD0_MODE_X1 - Counts on phi 1 rising
 318:.\Generated_Source\PSoC4/QD0.c **** *         - QD0_MODE_X2 - Counts on both edges of phi1 (2x faster)
 319:.\Generated_Source\PSoC4/QD0.c **** *         - QD0_MODE_X4 - Counts on both edges of phi1 and phi2
 320:.\Generated_Source\PSoC4/QD0.c **** *                                        (4x faster)
 321:.\Generated_Source\PSoC4/QD0.c **** *
 322:.\Generated_Source\PSoC4/QD0.c **** * Return:
 323:.\Generated_Source\PSoC4/QD0.c **** *  None
 324:.\Generated_Source\PSoC4/QD0.c **** *
 325:.\Generated_Source\PSoC4/QD0.c **** *******************************************************************************/
 326:.\Generated_Source\PSoC4/QD0.c **** void QD0_SetQDMode(uint32 qdMode)
 327:.\Generated_Source\PSoC4/QD0.c **** {
 106              		.loc 1 327 0
 107              		.cfi_startproc
 108              	.LVL6:
 109 0000 10B5     		push	{r4, lr}
 110              		.cfi_def_cfa_offset 8
 111              		.cfi_offset 4, -8
 112              		.cfi_offset 14, -4
 113 0002 041C     		mov	r4, r0
 328:.\Generated_Source\PSoC4/QD0.c ****     uint8 enableInterrupts;
 329:.\Generated_Source\PSoC4/QD0.c **** 
 330:.\Generated_Source\PSoC4/QD0.c ****     enableInterrupts = CyEnterCriticalSection();
 114              		.loc 1 330 0
 115 0004 FFF7FEFF 		bl	CyEnterCriticalSection
 116              	.LVL7:
 331:.\Generated_Source\PSoC4/QD0.c **** 
 332:.\Generated_Source\PSoC4/QD0.c ****     QD0_CONTROL_REG &= (uint32)~QD0_QUAD_MODE_MASK;
 117              		.loc 1 332 0
 118 0008 054B     		ldr	r3, .L8
 119 000a 1968     		ldr	r1, [r3]
 120 000c 054A     		ldr	r2, .L8+4
 121 000e 0A40     		and	r2, r1
 122 0010 1A60     		str	r2, [r3]
 333:.\Generated_Source\PSoC4/QD0.c ****     QD0_CONTROL_REG |= qdMode;
 123              		.loc 1 333 0
ARM GAS  C:\Users\LAIR\AppData\Local\Temp\cc4ZtvJP.s 			page 9


 124 0012 1A68     		ldr	r2, [r3]
 125 0014 1443     		orr	r4, r2
 126              	.LVL8:
 127 0016 1C60     		str	r4, [r3]
 334:.\Generated_Source\PSoC4/QD0.c **** 
 335:.\Generated_Source\PSoC4/QD0.c ****     CyExitCriticalSection(enableInterrupts);
 128              		.loc 1 335 0
 129 0018 FFF7FEFF 		bl	CyExitCriticalSection
 130              	.LVL9:
 336:.\Generated_Source\PSoC4/QD0.c **** }
 131              		.loc 1 336 0
 132              		@ sp needed
 133 001c 10BD     		pop	{r4, pc}
 134              	.L9:
 135 001e C046     		.align	2
 136              	.L8:
 137 0020 80012040 		.word	1075839360
 138 0024 FFFF8FFF 		.word	-7340033
 139              		.cfi_endproc
 140              	.LFE6:
 141              		.size	QD0_SetQDMode, .-QD0_SetQDMode
 142              		.section	.text.QD0_SetPrescaler,"ax",%progbits
 143              		.align	2
 144              		.global	QD0_SetPrescaler
 145              		.code	16
 146              		.thumb_func
 147              		.type	QD0_SetPrescaler, %function
 148              	QD0_SetPrescaler:
 149              	.LFB7:
 337:.\Generated_Source\PSoC4/QD0.c **** 
 338:.\Generated_Source\PSoC4/QD0.c **** 
 339:.\Generated_Source\PSoC4/QD0.c **** /*******************************************************************************
 340:.\Generated_Source\PSoC4/QD0.c **** * Function Name: QD0_SetPrescaler
 341:.\Generated_Source\PSoC4/QD0.c **** ********************************************************************************
 342:.\Generated_Source\PSoC4/QD0.c **** *
 343:.\Generated_Source\PSoC4/QD0.c **** * Summary:
 344:.\Generated_Source\PSoC4/QD0.c **** *  Sets the prescaler value that is applied to the clock input.  Not applicable
 345:.\Generated_Source\PSoC4/QD0.c **** *  to a PWM with the dead time mode or Quadrature Decoder mode.
 346:.\Generated_Source\PSoC4/QD0.c **** *
 347:.\Generated_Source\PSoC4/QD0.c **** * Parameters:
 348:.\Generated_Source\PSoC4/QD0.c **** *  prescaler: Prescaler divider value
 349:.\Generated_Source\PSoC4/QD0.c **** *   Values:
 350:.\Generated_Source\PSoC4/QD0.c **** *         - QD0_PRESCALE_DIVBY1    - Divide by 1 (no prescaling)
 351:.\Generated_Source\PSoC4/QD0.c **** *         - QD0_PRESCALE_DIVBY2    - Divide by 2
 352:.\Generated_Source\PSoC4/QD0.c **** *         - QD0_PRESCALE_DIVBY4    - Divide by 4
 353:.\Generated_Source\PSoC4/QD0.c **** *         - QD0_PRESCALE_DIVBY8    - Divide by 8
 354:.\Generated_Source\PSoC4/QD0.c **** *         - QD0_PRESCALE_DIVBY16   - Divide by 16
 355:.\Generated_Source\PSoC4/QD0.c **** *         - QD0_PRESCALE_DIVBY32   - Divide by 32
 356:.\Generated_Source\PSoC4/QD0.c **** *         - QD0_PRESCALE_DIVBY64   - Divide by 64
 357:.\Generated_Source\PSoC4/QD0.c **** *         - QD0_PRESCALE_DIVBY128  - Divide by 128
 358:.\Generated_Source\PSoC4/QD0.c **** *
 359:.\Generated_Source\PSoC4/QD0.c **** * Return:
 360:.\Generated_Source\PSoC4/QD0.c **** *  None
 361:.\Generated_Source\PSoC4/QD0.c **** *
 362:.\Generated_Source\PSoC4/QD0.c **** *******************************************************************************/
 363:.\Generated_Source\PSoC4/QD0.c **** void QD0_SetPrescaler(uint32 prescaler)
 364:.\Generated_Source\PSoC4/QD0.c **** {
ARM GAS  C:\Users\LAIR\AppData\Local\Temp\cc4ZtvJP.s 			page 10


 150              		.loc 1 364 0
 151              		.cfi_startproc
 152              	.LVL10:
 153 0000 10B5     		push	{r4, lr}
 154              		.cfi_def_cfa_offset 8
 155              		.cfi_offset 4, -8
 156              		.cfi_offset 14, -4
 157 0002 041C     		mov	r4, r0
 365:.\Generated_Source\PSoC4/QD0.c ****     uint8 enableInterrupts;
 366:.\Generated_Source\PSoC4/QD0.c **** 
 367:.\Generated_Source\PSoC4/QD0.c ****     enableInterrupts = CyEnterCriticalSection();
 158              		.loc 1 367 0
 159 0004 FFF7FEFF 		bl	CyEnterCriticalSection
 160              	.LVL11:
 368:.\Generated_Source\PSoC4/QD0.c **** 
 369:.\Generated_Source\PSoC4/QD0.c ****     QD0_CONTROL_REG &= (uint32)~QD0_PRESCALER_MASK;
 161              		.loc 1 369 0
 162 0008 054B     		ldr	r3, .L11
 163 000a 1968     		ldr	r1, [r3]
 164 000c 054A     		ldr	r2, .L11+4
 165 000e 0A40     		and	r2, r1
 166 0010 1A60     		str	r2, [r3]
 370:.\Generated_Source\PSoC4/QD0.c ****     QD0_CONTROL_REG |= prescaler;
 167              		.loc 1 370 0
 168 0012 1A68     		ldr	r2, [r3]
 169 0014 1443     		orr	r4, r2
 170              	.LVL12:
 171 0016 1C60     		str	r4, [r3]
 371:.\Generated_Source\PSoC4/QD0.c **** 
 372:.\Generated_Source\PSoC4/QD0.c ****     CyExitCriticalSection(enableInterrupts);
 172              		.loc 1 372 0
 173 0018 FFF7FEFF 		bl	CyExitCriticalSection
 174              	.LVL13:
 373:.\Generated_Source\PSoC4/QD0.c **** }
 175              		.loc 1 373 0
 176              		@ sp needed
 177 001c 10BD     		pop	{r4, pc}
 178              	.L12:
 179 001e C046     		.align	2
 180              	.L11:
 181 0020 80012040 		.word	1075839360
 182 0024 FF00FFFF 		.word	-65281
 183              		.cfi_endproc
 184              	.LFE7:
 185              		.size	QD0_SetPrescaler, .-QD0_SetPrescaler
 186              		.section	.text.QD0_SetOneShot,"ax",%progbits
 187              		.align	2
 188              		.global	QD0_SetOneShot
 189              		.code	16
 190              		.thumb_func
 191              		.type	QD0_SetOneShot, %function
 192              	QD0_SetOneShot:
 193              	.LFB8:
 374:.\Generated_Source\PSoC4/QD0.c **** 
 375:.\Generated_Source\PSoC4/QD0.c **** 
 376:.\Generated_Source\PSoC4/QD0.c **** /*******************************************************************************
 377:.\Generated_Source\PSoC4/QD0.c **** * Function Name: QD0_SetOneShot
ARM GAS  C:\Users\LAIR\AppData\Local\Temp\cc4ZtvJP.s 			page 11


 378:.\Generated_Source\PSoC4/QD0.c **** ********************************************************************************
 379:.\Generated_Source\PSoC4/QD0.c **** *
 380:.\Generated_Source\PSoC4/QD0.c **** * Summary:
 381:.\Generated_Source\PSoC4/QD0.c **** *  Writes the register that controls whether the QD0 runs
 382:.\Generated_Source\PSoC4/QD0.c **** *  continuously or stops when terminal count is reached.  By default the
 383:.\Generated_Source\PSoC4/QD0.c **** *  QD0 operates in the continuous mode.
 384:.\Generated_Source\PSoC4/QD0.c **** *
 385:.\Generated_Source\PSoC4/QD0.c **** * Parameters:
 386:.\Generated_Source\PSoC4/QD0.c **** *  oneShotEnable
 387:.\Generated_Source\PSoC4/QD0.c **** *   Values:
 388:.\Generated_Source\PSoC4/QD0.c **** *     - 0 - Continuous
 389:.\Generated_Source\PSoC4/QD0.c **** *     - 1 - Enable One Shot
 390:.\Generated_Source\PSoC4/QD0.c **** *
 391:.\Generated_Source\PSoC4/QD0.c **** * Return:
 392:.\Generated_Source\PSoC4/QD0.c **** *  None
 393:.\Generated_Source\PSoC4/QD0.c **** *
 394:.\Generated_Source\PSoC4/QD0.c **** *******************************************************************************/
 395:.\Generated_Source\PSoC4/QD0.c **** void QD0_SetOneShot(uint32 oneShotEnable)
 396:.\Generated_Source\PSoC4/QD0.c **** {
 194              		.loc 1 396 0
 195              		.cfi_startproc
 196              	.LVL14:
 197 0000 10B5     		push	{r4, lr}
 198              		.cfi_def_cfa_offset 8
 199              		.cfi_offset 4, -8
 200              		.cfi_offset 14, -4
 201 0002 041C     		mov	r4, r0
 397:.\Generated_Source\PSoC4/QD0.c ****     uint8 enableInterrupts;
 398:.\Generated_Source\PSoC4/QD0.c **** 
 399:.\Generated_Source\PSoC4/QD0.c ****     enableInterrupts = CyEnterCriticalSection();
 202              		.loc 1 399 0
 203 0004 FFF7FEFF 		bl	CyEnterCriticalSection
 204              	.LVL15:
 400:.\Generated_Source\PSoC4/QD0.c **** 
 401:.\Generated_Source\PSoC4/QD0.c ****     QD0_CONTROL_REG &= (uint32)~QD0_ONESHOT_MASK;
 205              		.loc 1 401 0
 206 0008 064B     		ldr	r3, .L14
 207 000a 1968     		ldr	r1, [r3]
 208 000c 064A     		ldr	r2, .L14+4
 209 000e 0A40     		and	r2, r1
 210 0010 1A60     		str	r2, [r3]
 402:.\Generated_Source\PSoC4/QD0.c ****     QD0_CONTROL_REG |= ((uint32)((oneShotEnable & QD0_1BIT_MASK) <<
 211              		.loc 1 402 0
 212 0012 1A68     		ldr	r2, [r3]
 213 0014 0121     		mov	r1, #1
 214 0016 0C40     		and	r4, r1
 215              	.LVL16:
 216 0018 A404     		lsl	r4, r4, #18
 217 001a 1443     		orr	r4, r2
 218 001c 1C60     		str	r4, [r3]
 403:.\Generated_Source\PSoC4/QD0.c ****                                                                QD0_ONESHOT_SHIFT));
 404:.\Generated_Source\PSoC4/QD0.c **** 
 405:.\Generated_Source\PSoC4/QD0.c ****     CyExitCriticalSection(enableInterrupts);
 219              		.loc 1 405 0
 220 001e FFF7FEFF 		bl	CyExitCriticalSection
 221              	.LVL17:
 406:.\Generated_Source\PSoC4/QD0.c **** }
ARM GAS  C:\Users\LAIR\AppData\Local\Temp\cc4ZtvJP.s 			page 12


 222              		.loc 1 406 0
 223              		@ sp needed
 224 0022 10BD     		pop	{r4, pc}
 225              	.L15:
 226              		.align	2
 227              	.L14:
 228 0024 80012040 		.word	1075839360
 229 0028 FFFFFBFF 		.word	-262145
 230              		.cfi_endproc
 231              	.LFE8:
 232              		.size	QD0_SetOneShot, .-QD0_SetOneShot
 233              		.section	.text.QD0_SetPWMMode,"ax",%progbits
 234              		.align	2
 235              		.global	QD0_SetPWMMode
 236              		.code	16
 237              		.thumb_func
 238              		.type	QD0_SetPWMMode, %function
 239              	QD0_SetPWMMode:
 240              	.LFB9:
 407:.\Generated_Source\PSoC4/QD0.c **** 
 408:.\Generated_Source\PSoC4/QD0.c **** 
 409:.\Generated_Source\PSoC4/QD0.c **** /*******************************************************************************
 410:.\Generated_Source\PSoC4/QD0.c **** * Function Name: QD0_SetPWMMode
 411:.\Generated_Source\PSoC4/QD0.c **** ********************************************************************************
 412:.\Generated_Source\PSoC4/QD0.c **** *
 413:.\Generated_Source\PSoC4/QD0.c **** * Summary:
 414:.\Generated_Source\PSoC4/QD0.c **** *  Writes the control register that determines what mode of operation the PWM
 415:.\Generated_Source\PSoC4/QD0.c **** *  output lines are driven in.  There is a setting for what to do on a
 416:.\Generated_Source\PSoC4/QD0.c **** *  comparison match (CC_MATCH), on an overflow (OVERFLOW) and on an underflow
 417:.\Generated_Source\PSoC4/QD0.c **** *  (UNDERFLOW).  The value for each of the three must be ORed together to form
 418:.\Generated_Source\PSoC4/QD0.c **** *  the mode.
 419:.\Generated_Source\PSoC4/QD0.c **** *
 420:.\Generated_Source\PSoC4/QD0.c **** * Parameters:
 421:.\Generated_Source\PSoC4/QD0.c **** *  modeMask: A combination of three mode settings.  Mask must include a value
 422:.\Generated_Source\PSoC4/QD0.c **** *  for each of the three or use one of the preconfigured PWM settings.
 423:.\Generated_Source\PSoC4/QD0.c **** *   Values:
 424:.\Generated_Source\PSoC4/QD0.c **** *     - CC_MATCH_SET        - Set on comparison match
 425:.\Generated_Source\PSoC4/QD0.c **** *     - CC_MATCH_CLEAR      - Clear on comparison match
 426:.\Generated_Source\PSoC4/QD0.c **** *     - CC_MATCH_INVERT     - Invert on comparison match
 427:.\Generated_Source\PSoC4/QD0.c **** *     - CC_MATCH_NO_CHANGE  - No change on comparison match
 428:.\Generated_Source\PSoC4/QD0.c **** *     - OVERLOW_SET         - Set on overflow
 429:.\Generated_Source\PSoC4/QD0.c **** *     - OVERLOW_CLEAR       - Clear on  overflow
 430:.\Generated_Source\PSoC4/QD0.c **** *     - OVERLOW_INVERT      - Invert on overflow
 431:.\Generated_Source\PSoC4/QD0.c **** *     - OVERLOW_NO_CHANGE   - No change on overflow
 432:.\Generated_Source\PSoC4/QD0.c **** *     - UNDERFLOW_SET       - Set on underflow
 433:.\Generated_Source\PSoC4/QD0.c **** *     - UNDERFLOW_CLEAR     - Clear on underflow
 434:.\Generated_Source\PSoC4/QD0.c **** *     - UNDERFLOW_INVERT    - Invert on underflow
 435:.\Generated_Source\PSoC4/QD0.c **** *     - UNDERFLOW_NO_CHANGE - No change on underflow
 436:.\Generated_Source\PSoC4/QD0.c **** *     - PWM_MODE_LEFT       - Setting for left aligned PWM.  Should be combined
 437:.\Generated_Source\PSoC4/QD0.c **** *                             with up counting mode
 438:.\Generated_Source\PSoC4/QD0.c **** *     - PWM_MODE_RIGHT      - Setting for right aligned PWM.  Should be combined
 439:.\Generated_Source\PSoC4/QD0.c **** *                             with down counting mode
 440:.\Generated_Source\PSoC4/QD0.c **** *     - PWM_MODE_CENTER     - Setting for center aligned PWM.  Should be
 441:.\Generated_Source\PSoC4/QD0.c **** *                             combined with up/down 0 mode
 442:.\Generated_Source\PSoC4/QD0.c **** *     - PWM_MODE_ASYM       - Setting for asymmetric PWM.  Should be combined
 443:.\Generated_Source\PSoC4/QD0.c **** *                             with up/down 1 mode
 444:.\Generated_Source\PSoC4/QD0.c **** *
ARM GAS  C:\Users\LAIR\AppData\Local\Temp\cc4ZtvJP.s 			page 13


 445:.\Generated_Source\PSoC4/QD0.c **** * Return:
 446:.\Generated_Source\PSoC4/QD0.c **** *  None
 447:.\Generated_Source\PSoC4/QD0.c **** *
 448:.\Generated_Source\PSoC4/QD0.c **** *******************************************************************************/
 449:.\Generated_Source\PSoC4/QD0.c **** void QD0_SetPWMMode(uint32 modeMask)
 450:.\Generated_Source\PSoC4/QD0.c **** {
 241              		.loc 1 450 0
 242              		.cfi_startproc
 243              	.LVL18:
 451:.\Generated_Source\PSoC4/QD0.c ****     QD0_TRIG_CONTROL2_REG = (modeMask & QD0_6BIT_MASK);
 244              		.loc 1 451 0
 245 0000 3F23     		mov	r3, #63
 246 0002 1840     		and	r0, r3
 247              	.LVL19:
 248 0004 014B     		ldr	r3, .L17
 249 0006 1860     		str	r0, [r3]
 452:.\Generated_Source\PSoC4/QD0.c **** }
 250              		.loc 1 452 0
 251              		@ sp needed
 252 0008 7047     		bx	lr
 253              	.L18:
 254 000a C046     		.align	2
 255              	.L17:
 256 000c A8012040 		.word	1075839400
 257              		.cfi_endproc
 258              	.LFE9:
 259              		.size	QD0_SetPWMMode, .-QD0_SetPWMMode
 260              		.section	.text.QD0_SetPWMSyncKill,"ax",%progbits
 261              		.align	2
 262              		.global	QD0_SetPWMSyncKill
 263              		.code	16
 264              		.thumb_func
 265              		.type	QD0_SetPWMSyncKill, %function
 266              	QD0_SetPWMSyncKill:
 267              	.LFB10:
 453:.\Generated_Source\PSoC4/QD0.c **** 
 454:.\Generated_Source\PSoC4/QD0.c **** 
 455:.\Generated_Source\PSoC4/QD0.c **** 
 456:.\Generated_Source\PSoC4/QD0.c **** /*******************************************************************************
 457:.\Generated_Source\PSoC4/QD0.c **** * Function Name: QD0_SetPWMSyncKill
 458:.\Generated_Source\PSoC4/QD0.c **** ********************************************************************************
 459:.\Generated_Source\PSoC4/QD0.c **** *
 460:.\Generated_Source\PSoC4/QD0.c **** * Summary:
 461:.\Generated_Source\PSoC4/QD0.c **** *  Writes the register that controls whether the PWM kill signal (stop input)
 462:.\Generated_Source\PSoC4/QD0.c **** *  causes asynchronous or synchronous kill operation.  By default the kill
 463:.\Generated_Source\PSoC4/QD0.c **** *  operation is asynchronous.  This functionality is only applicable to the PWM
 464:.\Generated_Source\PSoC4/QD0.c **** *  and PWM with dead time modes.
 465:.\Generated_Source\PSoC4/QD0.c **** *
 466:.\Generated_Source\PSoC4/QD0.c **** *  For Synchronous mode the kill signal disables both the line and line_n
 467:.\Generated_Source\PSoC4/QD0.c **** *  signals until the next terminal count.
 468:.\Generated_Source\PSoC4/QD0.c **** *
 469:.\Generated_Source\PSoC4/QD0.c **** *  For Asynchronous mode the kill signal disables both the line and line_n
 470:.\Generated_Source\PSoC4/QD0.c **** *  signals when the kill signal is present.  This mode should only be used
 471:.\Generated_Source\PSoC4/QD0.c **** *  when the kill signal (stop input) is configured in the pass through mode
 472:.\Generated_Source\PSoC4/QD0.c **** *  (Level sensitive signal).
 473:.\Generated_Source\PSoC4/QD0.c **** 
 474:.\Generated_Source\PSoC4/QD0.c **** *
ARM GAS  C:\Users\LAIR\AppData\Local\Temp\cc4ZtvJP.s 			page 14


 475:.\Generated_Source\PSoC4/QD0.c **** * Parameters:
 476:.\Generated_Source\PSoC4/QD0.c **** *  syncKillEnable
 477:.\Generated_Source\PSoC4/QD0.c **** *   Values:
 478:.\Generated_Source\PSoC4/QD0.c **** *     - 0 - Asynchronous
 479:.\Generated_Source\PSoC4/QD0.c **** *     - 1 - Synchronous
 480:.\Generated_Source\PSoC4/QD0.c **** *
 481:.\Generated_Source\PSoC4/QD0.c **** * Return:
 482:.\Generated_Source\PSoC4/QD0.c **** *  None
 483:.\Generated_Source\PSoC4/QD0.c **** *
 484:.\Generated_Source\PSoC4/QD0.c **** *******************************************************************************/
 485:.\Generated_Source\PSoC4/QD0.c **** void QD0_SetPWMSyncKill(uint32 syncKillEnable)
 486:.\Generated_Source\PSoC4/QD0.c **** {
 268              		.loc 1 486 0
 269              		.cfi_startproc
 270              	.LVL20:
 271 0000 10B5     		push	{r4, lr}
 272              		.cfi_def_cfa_offset 8
 273              		.cfi_offset 4, -8
 274              		.cfi_offset 14, -4
 275 0002 041C     		mov	r4, r0
 487:.\Generated_Source\PSoC4/QD0.c ****     uint8 enableInterrupts;
 488:.\Generated_Source\PSoC4/QD0.c **** 
 489:.\Generated_Source\PSoC4/QD0.c ****     enableInterrupts = CyEnterCriticalSection();
 276              		.loc 1 489 0
 277 0004 FFF7FEFF 		bl	CyEnterCriticalSection
 278              	.LVL21:
 490:.\Generated_Source\PSoC4/QD0.c **** 
 491:.\Generated_Source\PSoC4/QD0.c ****     QD0_CONTROL_REG &= (uint32)~QD0_PWM_SYNC_KILL_MASK;
 279              		.loc 1 491 0
 280 0008 064B     		ldr	r3, .L20
 281 000a 1A68     		ldr	r2, [r3]
 282 000c 0421     		mov	r1, #4
 283 000e 8A43     		bic	r2, r1
 284 0010 1A60     		str	r2, [r3]
 492:.\Generated_Source\PSoC4/QD0.c ****     QD0_CONTROL_REG |= ((uint32)((syncKillEnable & QD0_1BIT_MASK)  <<
 285              		.loc 1 492 0
 286 0012 1A68     		ldr	r2, [r3]
 287 0014 0339     		sub	r1, r1, #3
 288 0016 0C40     		and	r4, r1
 289              	.LVL22:
 290 0018 A400     		lsl	r4, r4, #2
 291 001a 1443     		orr	r4, r2
 292 001c 1C60     		str	r4, [r3]
 493:.\Generated_Source\PSoC4/QD0.c ****                                                QD0_PWM_SYNC_KILL_SHIFT));
 494:.\Generated_Source\PSoC4/QD0.c **** 
 495:.\Generated_Source\PSoC4/QD0.c ****     CyExitCriticalSection(enableInterrupts);
 293              		.loc 1 495 0
 294 001e FFF7FEFF 		bl	CyExitCriticalSection
 295              	.LVL23:
 496:.\Generated_Source\PSoC4/QD0.c **** }
 296              		.loc 1 496 0
 297              		@ sp needed
 298 0022 10BD     		pop	{r4, pc}
 299              	.L21:
 300              		.align	2
 301              	.L20:
 302 0024 80012040 		.word	1075839360
ARM GAS  C:\Users\LAIR\AppData\Local\Temp\cc4ZtvJP.s 			page 15


 303              		.cfi_endproc
 304              	.LFE10:
 305              		.size	QD0_SetPWMSyncKill, .-QD0_SetPWMSyncKill
 306              		.section	.text.QD0_SetPWMStopOnKill,"ax",%progbits
 307              		.align	2
 308              		.global	QD0_SetPWMStopOnKill
 309              		.code	16
 310              		.thumb_func
 311              		.type	QD0_SetPWMStopOnKill, %function
 312              	QD0_SetPWMStopOnKill:
 313              	.LFB11:
 497:.\Generated_Source\PSoC4/QD0.c **** 
 498:.\Generated_Source\PSoC4/QD0.c **** 
 499:.\Generated_Source\PSoC4/QD0.c **** /*******************************************************************************
 500:.\Generated_Source\PSoC4/QD0.c **** * Function Name: QD0_SetPWMStopOnKill
 501:.\Generated_Source\PSoC4/QD0.c **** ********************************************************************************
 502:.\Generated_Source\PSoC4/QD0.c **** *
 503:.\Generated_Source\PSoC4/QD0.c **** * Summary:
 504:.\Generated_Source\PSoC4/QD0.c **** *  Writes the register that controls whether the PWM kill signal (stop input)
 505:.\Generated_Source\PSoC4/QD0.c **** *  causes the PWM counter to stop.  By default the kill operation does not stop
 506:.\Generated_Source\PSoC4/QD0.c **** *  the counter.  This functionality is only applicable to the three PWM modes.
 507:.\Generated_Source\PSoC4/QD0.c **** *
 508:.\Generated_Source\PSoC4/QD0.c **** *
 509:.\Generated_Source\PSoC4/QD0.c **** * Parameters:
 510:.\Generated_Source\PSoC4/QD0.c **** *  stopOnKillEnable
 511:.\Generated_Source\PSoC4/QD0.c **** *   Values:
 512:.\Generated_Source\PSoC4/QD0.c **** *     - 0 - Don't stop
 513:.\Generated_Source\PSoC4/QD0.c **** *     - 1 - Stop
 514:.\Generated_Source\PSoC4/QD0.c **** *
 515:.\Generated_Source\PSoC4/QD0.c **** * Return:
 516:.\Generated_Source\PSoC4/QD0.c **** *  None
 517:.\Generated_Source\PSoC4/QD0.c **** *
 518:.\Generated_Source\PSoC4/QD0.c **** *******************************************************************************/
 519:.\Generated_Source\PSoC4/QD0.c **** void QD0_SetPWMStopOnKill(uint32 stopOnKillEnable)
 520:.\Generated_Source\PSoC4/QD0.c **** {
 314              		.loc 1 520 0
 315              		.cfi_startproc
 316              	.LVL24:
 317 0000 10B5     		push	{r4, lr}
 318              		.cfi_def_cfa_offset 8
 319              		.cfi_offset 4, -8
 320              		.cfi_offset 14, -4
 321 0002 041C     		mov	r4, r0
 521:.\Generated_Source\PSoC4/QD0.c ****     uint8 enableInterrupts;
 522:.\Generated_Source\PSoC4/QD0.c **** 
 523:.\Generated_Source\PSoC4/QD0.c ****     enableInterrupts = CyEnterCriticalSection();
 322              		.loc 1 523 0
 323 0004 FFF7FEFF 		bl	CyEnterCriticalSection
 324              	.LVL25:
 524:.\Generated_Source\PSoC4/QD0.c **** 
 525:.\Generated_Source\PSoC4/QD0.c ****     QD0_CONTROL_REG &= (uint32)~QD0_PWM_STOP_KILL_MASK;
 325              		.loc 1 525 0
 326 0008 064B     		ldr	r3, .L23
 327 000a 1A68     		ldr	r2, [r3]
 328 000c 0821     		mov	r1, #8
 329 000e 8A43     		bic	r2, r1
 330 0010 1A60     		str	r2, [r3]
ARM GAS  C:\Users\LAIR\AppData\Local\Temp\cc4ZtvJP.s 			page 16


 526:.\Generated_Source\PSoC4/QD0.c ****     QD0_CONTROL_REG |= ((uint32)((stopOnKillEnable & QD0_1BIT_MASK)  <<
 331              		.loc 1 526 0
 332 0012 1A68     		ldr	r2, [r3]
 333 0014 0739     		sub	r1, r1, #7
 334 0016 0C40     		and	r4, r1
 335              	.LVL26:
 336 0018 E400     		lsl	r4, r4, #3
 337 001a 1443     		orr	r4, r2
 338 001c 1C60     		str	r4, [r3]
 527:.\Generated_Source\PSoC4/QD0.c ****                                                          QD0_PWM_STOP_KILL_SHIFT));
 528:.\Generated_Source\PSoC4/QD0.c **** 
 529:.\Generated_Source\PSoC4/QD0.c ****     CyExitCriticalSection(enableInterrupts);
 339              		.loc 1 529 0
 340 001e FFF7FEFF 		bl	CyExitCriticalSection
 341              	.LVL27:
 530:.\Generated_Source\PSoC4/QD0.c **** }
 342              		.loc 1 530 0
 343              		@ sp needed
 344 0022 10BD     		pop	{r4, pc}
 345              	.L24:
 346              		.align	2
 347              	.L23:
 348 0024 80012040 		.word	1075839360
 349              		.cfi_endproc
 350              	.LFE11:
 351              		.size	QD0_SetPWMStopOnKill, .-QD0_SetPWMStopOnKill
 352              		.section	.text.QD0_SetPWMDeadTime,"ax",%progbits
 353              		.align	2
 354              		.global	QD0_SetPWMDeadTime
 355              		.code	16
 356              		.thumb_func
 357              		.type	QD0_SetPWMDeadTime, %function
 358              	QD0_SetPWMDeadTime:
 359              	.LFB12:
 531:.\Generated_Source\PSoC4/QD0.c **** 
 532:.\Generated_Source\PSoC4/QD0.c **** 
 533:.\Generated_Source\PSoC4/QD0.c **** /*******************************************************************************
 534:.\Generated_Source\PSoC4/QD0.c **** * Function Name: QD0_SetPWMDeadTime
 535:.\Generated_Source\PSoC4/QD0.c **** ********************************************************************************
 536:.\Generated_Source\PSoC4/QD0.c **** *
 537:.\Generated_Source\PSoC4/QD0.c **** * Summary:
 538:.\Generated_Source\PSoC4/QD0.c **** *  Writes the dead time control value.  This value delays the rising edge of
 539:.\Generated_Source\PSoC4/QD0.c **** *  both the line and line_n signals the designated number of cycles resulting
 540:.\Generated_Source\PSoC4/QD0.c **** *  in both signals being inactive for that many cycles.  This functionality is
 541:.\Generated_Source\PSoC4/QD0.c **** *  only applicable to the PWM in the dead time mode.
 542:.\Generated_Source\PSoC4/QD0.c **** 
 543:.\Generated_Source\PSoC4/QD0.c **** *
 544:.\Generated_Source\PSoC4/QD0.c **** * Parameters:
 545:.\Generated_Source\PSoC4/QD0.c **** *  Dead time to insert
 546:.\Generated_Source\PSoC4/QD0.c **** *   Values: 0 to 255
 547:.\Generated_Source\PSoC4/QD0.c **** *
 548:.\Generated_Source\PSoC4/QD0.c **** * Return:
 549:.\Generated_Source\PSoC4/QD0.c **** *  None
 550:.\Generated_Source\PSoC4/QD0.c **** *
 551:.\Generated_Source\PSoC4/QD0.c **** *******************************************************************************/
 552:.\Generated_Source\PSoC4/QD0.c **** void QD0_SetPWMDeadTime(uint32 deadTime)
 553:.\Generated_Source\PSoC4/QD0.c **** {
ARM GAS  C:\Users\LAIR\AppData\Local\Temp\cc4ZtvJP.s 			page 17


 360              		.loc 1 553 0
 361              		.cfi_startproc
 362              	.LVL28:
 363 0000 10B5     		push	{r4, lr}
 364              		.cfi_def_cfa_offset 8
 365              		.cfi_offset 4, -8
 366              		.cfi_offset 14, -4
 367 0002 041C     		mov	r4, r0
 554:.\Generated_Source\PSoC4/QD0.c ****     uint8 enableInterrupts;
 555:.\Generated_Source\PSoC4/QD0.c **** 
 556:.\Generated_Source\PSoC4/QD0.c ****     enableInterrupts = CyEnterCriticalSection();
 368              		.loc 1 556 0
 369 0004 FFF7FEFF 		bl	CyEnterCriticalSection
 370              	.LVL29:
 557:.\Generated_Source\PSoC4/QD0.c **** 
 558:.\Generated_Source\PSoC4/QD0.c ****     QD0_CONTROL_REG &= (uint32)~QD0_PRESCALER_MASK;
 371              		.loc 1 558 0
 372 0008 064B     		ldr	r3, .L26
 373 000a 1968     		ldr	r1, [r3]
 374 000c 064A     		ldr	r2, .L26+4
 375 000e 0A40     		and	r2, r1
 376 0010 1A60     		str	r2, [r3]
 559:.\Generated_Source\PSoC4/QD0.c ****     QD0_CONTROL_REG |= ((uint32)((deadTime & QD0_8BIT_MASK) <<
 377              		.loc 1 559 0
 378 0012 1A68     		ldr	r2, [r3]
 379 0014 2406     		lsl	r4, r4, #24
 380              	.LVL30:
 381 0016 240C     		lsr	r4, r4, #16
 382 0018 1443     		orr	r4, r2
 383 001a 1C60     		str	r4, [r3]
 560:.\Generated_Source\PSoC4/QD0.c ****                                                           QD0_PRESCALER_SHIFT));
 561:.\Generated_Source\PSoC4/QD0.c **** 
 562:.\Generated_Source\PSoC4/QD0.c ****     CyExitCriticalSection(enableInterrupts);
 384              		.loc 1 562 0
 385 001c FFF7FEFF 		bl	CyExitCriticalSection
 386              	.LVL31:
 563:.\Generated_Source\PSoC4/QD0.c **** }
 387              		.loc 1 563 0
 388              		@ sp needed
 389 0020 10BD     		pop	{r4, pc}
 390              	.L27:
 391 0022 C046     		.align	2
 392              	.L26:
 393 0024 80012040 		.word	1075839360
 394 0028 FF00FFFF 		.word	-65281
 395              		.cfi_endproc
 396              	.LFE12:
 397              		.size	QD0_SetPWMDeadTime, .-QD0_SetPWMDeadTime
 398              		.section	.text.QD0_SetPWMInvert,"ax",%progbits
 399              		.align	2
 400              		.global	QD0_SetPWMInvert
 401              		.code	16
 402              		.thumb_func
 403              		.type	QD0_SetPWMInvert, %function
 404              	QD0_SetPWMInvert:
 405              	.LFB13:
 564:.\Generated_Source\PSoC4/QD0.c **** 
ARM GAS  C:\Users\LAIR\AppData\Local\Temp\cc4ZtvJP.s 			page 18


 565:.\Generated_Source\PSoC4/QD0.c **** 
 566:.\Generated_Source\PSoC4/QD0.c **** /*******************************************************************************
 567:.\Generated_Source\PSoC4/QD0.c **** * Function Name: QD0_SetPWMInvert
 568:.\Generated_Source\PSoC4/QD0.c **** ********************************************************************************
 569:.\Generated_Source\PSoC4/QD0.c **** *
 570:.\Generated_Source\PSoC4/QD0.c **** * Summary:
 571:.\Generated_Source\PSoC4/QD0.c **** *  Writes the bits that control whether the line and line_n outputs are
 572:.\Generated_Source\PSoC4/QD0.c **** *  inverted from their normal output values.  This functionality is only
 573:.\Generated_Source\PSoC4/QD0.c **** *  applicable to the three PWM modes.
 574:.\Generated_Source\PSoC4/QD0.c **** *
 575:.\Generated_Source\PSoC4/QD0.c **** * Parameters:
 576:.\Generated_Source\PSoC4/QD0.c **** *  mask: Mask of outputs to invert.
 577:.\Generated_Source\PSoC4/QD0.c **** *   Values:
 578:.\Generated_Source\PSoC4/QD0.c **** *         - QD0_INVERT_LINE   - Inverts the line output
 579:.\Generated_Source\PSoC4/QD0.c **** *         - QD0_INVERT_LINE_N - Inverts the line_n output
 580:.\Generated_Source\PSoC4/QD0.c **** *
 581:.\Generated_Source\PSoC4/QD0.c **** * Return:
 582:.\Generated_Source\PSoC4/QD0.c **** *  None
 583:.\Generated_Source\PSoC4/QD0.c **** *
 584:.\Generated_Source\PSoC4/QD0.c **** *******************************************************************************/
 585:.\Generated_Source\PSoC4/QD0.c **** void QD0_SetPWMInvert(uint32 mask)
 586:.\Generated_Source\PSoC4/QD0.c **** {
 406              		.loc 1 586 0
 407              		.cfi_startproc
 408              	.LVL32:
 409 0000 10B5     		push	{r4, lr}
 410              		.cfi_def_cfa_offset 8
 411              		.cfi_offset 4, -8
 412              		.cfi_offset 14, -4
 413 0002 041C     		mov	r4, r0
 587:.\Generated_Source\PSoC4/QD0.c ****     uint8 enableInterrupts;
 588:.\Generated_Source\PSoC4/QD0.c **** 
 589:.\Generated_Source\PSoC4/QD0.c ****     enableInterrupts = CyEnterCriticalSection();
 414              		.loc 1 589 0
 415 0004 FFF7FEFF 		bl	CyEnterCriticalSection
 416              	.LVL33:
 590:.\Generated_Source\PSoC4/QD0.c **** 
 591:.\Generated_Source\PSoC4/QD0.c ****     QD0_CONTROL_REG &= (uint32)~QD0_INV_OUT_MASK;
 417              		.loc 1 591 0
 418 0008 054B     		ldr	r3, .L29
 419 000a 1968     		ldr	r1, [r3]
 420 000c 054A     		ldr	r2, .L29+4
 421 000e 0A40     		and	r2, r1
 422 0010 1A60     		str	r2, [r3]
 592:.\Generated_Source\PSoC4/QD0.c ****     QD0_CONTROL_REG |= mask;
 423              		.loc 1 592 0
 424 0012 1A68     		ldr	r2, [r3]
 425 0014 1443     		orr	r4, r2
 426              	.LVL34:
 427 0016 1C60     		str	r4, [r3]
 593:.\Generated_Source\PSoC4/QD0.c **** 
 594:.\Generated_Source\PSoC4/QD0.c ****     CyExitCriticalSection(enableInterrupts);
 428              		.loc 1 594 0
 429 0018 FFF7FEFF 		bl	CyExitCriticalSection
 430              	.LVL35:
 595:.\Generated_Source\PSoC4/QD0.c **** }
 431              		.loc 1 595 0
ARM GAS  C:\Users\LAIR\AppData\Local\Temp\cc4ZtvJP.s 			page 19


 432              		@ sp needed
 433 001c 10BD     		pop	{r4, pc}
 434              	.L30:
 435 001e C046     		.align	2
 436              	.L29:
 437 0020 80012040 		.word	1075839360
 438 0024 FFFFCFFF 		.word	-3145729
 439              		.cfi_endproc
 440              	.LFE13:
 441              		.size	QD0_SetPWMInvert, .-QD0_SetPWMInvert
 442              		.section	.text.QD0_WriteCounter,"ax",%progbits
 443              		.align	2
 444              		.global	QD0_WriteCounter
 445              		.code	16
 446              		.thumb_func
 447              		.type	QD0_WriteCounter, %function
 448              	QD0_WriteCounter:
 449              	.LFB14:
 596:.\Generated_Source\PSoC4/QD0.c **** 
 597:.\Generated_Source\PSoC4/QD0.c **** 
 598:.\Generated_Source\PSoC4/QD0.c **** 
 599:.\Generated_Source\PSoC4/QD0.c **** /*******************************************************************************
 600:.\Generated_Source\PSoC4/QD0.c **** * Function Name: QD0_WriteCounter
 601:.\Generated_Source\PSoC4/QD0.c **** ********************************************************************************
 602:.\Generated_Source\PSoC4/QD0.c **** *
 603:.\Generated_Source\PSoC4/QD0.c **** * Summary:
 604:.\Generated_Source\PSoC4/QD0.c **** *  Writes a new 16bit counter value directly into the counter register, thus
 605:.\Generated_Source\PSoC4/QD0.c **** *  setting the counter (not the period) to the value written. It is not
 606:.\Generated_Source\PSoC4/QD0.c **** *  advised to write to this field when the counter is running.
 607:.\Generated_Source\PSoC4/QD0.c **** *
 608:.\Generated_Source\PSoC4/QD0.c **** * Parameters:
 609:.\Generated_Source\PSoC4/QD0.c **** *  count: value to write
 610:.\Generated_Source\PSoC4/QD0.c **** *
 611:.\Generated_Source\PSoC4/QD0.c **** * Return:
 612:.\Generated_Source\PSoC4/QD0.c **** *  None
 613:.\Generated_Source\PSoC4/QD0.c **** *
 614:.\Generated_Source\PSoC4/QD0.c **** *******************************************************************************/
 615:.\Generated_Source\PSoC4/QD0.c **** void QD0_WriteCounter(uint32 count)
 616:.\Generated_Source\PSoC4/QD0.c **** {
 450              		.loc 1 616 0
 451              		.cfi_startproc
 452              	.LVL36:
 617:.\Generated_Source\PSoC4/QD0.c ****     QD0_COUNTER_REG = (count & QD0_16BIT_MASK);
 453              		.loc 1 617 0
 454 0000 0004     		lsl	r0, r0, #16
 455              	.LVL37:
 456 0002 000C     		lsr	r0, r0, #16
 457 0004 014B     		ldr	r3, .L32
 458 0006 1860     		str	r0, [r3]
 618:.\Generated_Source\PSoC4/QD0.c **** }
 459              		.loc 1 618 0
 460              		@ sp needed
 461 0008 7047     		bx	lr
 462              	.L33:
 463 000a C046     		.align	2
 464              	.L32:
 465 000c 88012040 		.word	1075839368
ARM GAS  C:\Users\LAIR\AppData\Local\Temp\cc4ZtvJP.s 			page 20


 466              		.cfi_endproc
 467              	.LFE14:
 468              		.size	QD0_WriteCounter, .-QD0_WriteCounter
 469              		.section	.text.QD0_ReadCounter,"ax",%progbits
 470              		.align	2
 471              		.global	QD0_ReadCounter
 472              		.code	16
 473              		.thumb_func
 474              		.type	QD0_ReadCounter, %function
 475              	QD0_ReadCounter:
 476              	.LFB15:
 619:.\Generated_Source\PSoC4/QD0.c **** 
 620:.\Generated_Source\PSoC4/QD0.c **** 
 621:.\Generated_Source\PSoC4/QD0.c **** /*******************************************************************************
 622:.\Generated_Source\PSoC4/QD0.c **** * Function Name: QD0_ReadCounter
 623:.\Generated_Source\PSoC4/QD0.c **** ********************************************************************************
 624:.\Generated_Source\PSoC4/QD0.c **** *
 625:.\Generated_Source\PSoC4/QD0.c **** * Summary:
 626:.\Generated_Source\PSoC4/QD0.c **** *  Reads the current counter value.
 627:.\Generated_Source\PSoC4/QD0.c **** *
 628:.\Generated_Source\PSoC4/QD0.c **** * Parameters:
 629:.\Generated_Source\PSoC4/QD0.c **** *  None
 630:.\Generated_Source\PSoC4/QD0.c **** *
 631:.\Generated_Source\PSoC4/QD0.c **** * Return:
 632:.\Generated_Source\PSoC4/QD0.c **** *  Current counter value
 633:.\Generated_Source\PSoC4/QD0.c **** *
 634:.\Generated_Source\PSoC4/QD0.c **** *******************************************************************************/
 635:.\Generated_Source\PSoC4/QD0.c **** uint32 QD0_ReadCounter(void)
 636:.\Generated_Source\PSoC4/QD0.c **** {
 477              		.loc 1 636 0
 478              		.cfi_startproc
 637:.\Generated_Source\PSoC4/QD0.c ****     return (QD0_COUNTER_REG & QD0_16BIT_MASK);
 479              		.loc 1 637 0
 480 0000 024B     		ldr	r3, .L35
 481 0002 1868     		ldr	r0, [r3]
 482 0004 0004     		lsl	r0, r0, #16
 483 0006 000C     		lsr	r0, r0, #16
 638:.\Generated_Source\PSoC4/QD0.c **** }
 484              		.loc 1 638 0
 485              		@ sp needed
 486 0008 7047     		bx	lr
 487              	.L36:
 488 000a C046     		.align	2
 489              	.L35:
 490 000c 88012040 		.word	1075839368
 491              		.cfi_endproc
 492              	.LFE15:
 493              		.size	QD0_ReadCounter, .-QD0_ReadCounter
 494              		.section	.text.QD0_SetCounterMode,"ax",%progbits
 495              		.align	2
 496              		.global	QD0_SetCounterMode
 497              		.code	16
 498              		.thumb_func
 499              		.type	QD0_SetCounterMode, %function
 500              	QD0_SetCounterMode:
 501              	.LFB16:
 639:.\Generated_Source\PSoC4/QD0.c **** 
ARM GAS  C:\Users\LAIR\AppData\Local\Temp\cc4ZtvJP.s 			page 21


 640:.\Generated_Source\PSoC4/QD0.c **** 
 641:.\Generated_Source\PSoC4/QD0.c **** /*******************************************************************************
 642:.\Generated_Source\PSoC4/QD0.c **** * Function Name: QD0_SetCounterMode
 643:.\Generated_Source\PSoC4/QD0.c **** ********************************************************************************
 644:.\Generated_Source\PSoC4/QD0.c **** *
 645:.\Generated_Source\PSoC4/QD0.c **** * Summary:
 646:.\Generated_Source\PSoC4/QD0.c **** *  Sets the counter mode.  Applicable to all modes except Quadrature Decoder
 647:.\Generated_Source\PSoC4/QD0.c **** *  and the PWM with a pseudo random output.
 648:.\Generated_Source\PSoC4/QD0.c **** *
 649:.\Generated_Source\PSoC4/QD0.c **** * Parameters:
 650:.\Generated_Source\PSoC4/QD0.c **** *  counterMode: Enumerated counter type values
 651:.\Generated_Source\PSoC4/QD0.c **** *   Values:
 652:.\Generated_Source\PSoC4/QD0.c **** *     - QD0_COUNT_UP       - Counts up
 653:.\Generated_Source\PSoC4/QD0.c **** *     - QD0_COUNT_DOWN     - Counts down
 654:.\Generated_Source\PSoC4/QD0.c **** *     - QD0_COUNT_UPDOWN0  - Counts up and down. Terminal count
 655:.\Generated_Source\PSoC4/QD0.c **** *                                         generated when counter reaches 0
 656:.\Generated_Source\PSoC4/QD0.c **** *     - QD0_COUNT_UPDOWN1  - Counts up and down. Terminal count
 657:.\Generated_Source\PSoC4/QD0.c **** *                                         generated both when counter reaches 0
 658:.\Generated_Source\PSoC4/QD0.c **** *                                         and period
 659:.\Generated_Source\PSoC4/QD0.c **** *
 660:.\Generated_Source\PSoC4/QD0.c **** * Return:
 661:.\Generated_Source\PSoC4/QD0.c **** *  None
 662:.\Generated_Source\PSoC4/QD0.c **** *
 663:.\Generated_Source\PSoC4/QD0.c **** *******************************************************************************/
 664:.\Generated_Source\PSoC4/QD0.c **** void QD0_SetCounterMode(uint32 counterMode)
 665:.\Generated_Source\PSoC4/QD0.c **** {
 502              		.loc 1 665 0
 503              		.cfi_startproc
 504              	.LVL38:
 505 0000 10B5     		push	{r4, lr}
 506              		.cfi_def_cfa_offset 8
 507              		.cfi_offset 4, -8
 508              		.cfi_offset 14, -4
 509 0002 041C     		mov	r4, r0
 666:.\Generated_Source\PSoC4/QD0.c ****     uint8 enableInterrupts;
 667:.\Generated_Source\PSoC4/QD0.c **** 
 668:.\Generated_Source\PSoC4/QD0.c ****     enableInterrupts = CyEnterCriticalSection();
 510              		.loc 1 668 0
 511 0004 FFF7FEFF 		bl	CyEnterCriticalSection
 512              	.LVL39:
 669:.\Generated_Source\PSoC4/QD0.c **** 
 670:.\Generated_Source\PSoC4/QD0.c ****     QD0_CONTROL_REG &= (uint32)~QD0_UPDOWN_MASK;
 513              		.loc 1 670 0
 514 0008 054B     		ldr	r3, .L38
 515 000a 1968     		ldr	r1, [r3]
 516 000c 054A     		ldr	r2, .L38+4
 517 000e 0A40     		and	r2, r1
 518 0010 1A60     		str	r2, [r3]
 671:.\Generated_Source\PSoC4/QD0.c ****     QD0_CONTROL_REG |= counterMode;
 519              		.loc 1 671 0
 520 0012 1A68     		ldr	r2, [r3]
 521 0014 1443     		orr	r4, r2
 522              	.LVL40:
 523 0016 1C60     		str	r4, [r3]
 672:.\Generated_Source\PSoC4/QD0.c **** 
 673:.\Generated_Source\PSoC4/QD0.c ****     CyExitCriticalSection(enableInterrupts);
 524              		.loc 1 673 0
ARM GAS  C:\Users\LAIR\AppData\Local\Temp\cc4ZtvJP.s 			page 22


 525 0018 FFF7FEFF 		bl	CyExitCriticalSection
 526              	.LVL41:
 674:.\Generated_Source\PSoC4/QD0.c **** }
 527              		.loc 1 674 0
 528              		@ sp needed
 529 001c 10BD     		pop	{r4, pc}
 530              	.L39:
 531 001e C046     		.align	2
 532              	.L38:
 533 0020 80012040 		.word	1075839360
 534 0024 FFFFFCFF 		.word	-196609
 535              		.cfi_endproc
 536              	.LFE16:
 537              		.size	QD0_SetCounterMode, .-QD0_SetCounterMode
 538              		.section	.text.QD0_WritePeriod,"ax",%progbits
 539              		.align	2
 540              		.global	QD0_WritePeriod
 541              		.code	16
 542              		.thumb_func
 543              		.type	QD0_WritePeriod, %function
 544              	QD0_WritePeriod:
 545              	.LFB17:
 675:.\Generated_Source\PSoC4/QD0.c **** 
 676:.\Generated_Source\PSoC4/QD0.c **** 
 677:.\Generated_Source\PSoC4/QD0.c **** /*******************************************************************************
 678:.\Generated_Source\PSoC4/QD0.c **** * Function Name: QD0_WritePeriod
 679:.\Generated_Source\PSoC4/QD0.c **** ********************************************************************************
 680:.\Generated_Source\PSoC4/QD0.c **** *
 681:.\Generated_Source\PSoC4/QD0.c **** * Summary:
 682:.\Generated_Source\PSoC4/QD0.c **** *  Writes the 16 bit period register with the new period value.
 683:.\Generated_Source\PSoC4/QD0.c **** *  To cause the counter to count for N cycles this register should be written
 684:.\Generated_Source\PSoC4/QD0.c **** *  with N-1 (counts from 0 to period inclusive).
 685:.\Generated_Source\PSoC4/QD0.c **** *
 686:.\Generated_Source\PSoC4/QD0.c **** * Parameters:
 687:.\Generated_Source\PSoC4/QD0.c **** *  period: Period value
 688:.\Generated_Source\PSoC4/QD0.c **** *
 689:.\Generated_Source\PSoC4/QD0.c **** * Return:
 690:.\Generated_Source\PSoC4/QD0.c **** *  None
 691:.\Generated_Source\PSoC4/QD0.c **** *
 692:.\Generated_Source\PSoC4/QD0.c **** *******************************************************************************/
 693:.\Generated_Source\PSoC4/QD0.c **** void QD0_WritePeriod(uint32 period)
 694:.\Generated_Source\PSoC4/QD0.c **** {
 546              		.loc 1 694 0
 547              		.cfi_startproc
 548              	.LVL42:
 695:.\Generated_Source\PSoC4/QD0.c ****     QD0_PERIOD_REG = (period & QD0_16BIT_MASK);
 549              		.loc 1 695 0
 550 0000 0004     		lsl	r0, r0, #16
 551              	.LVL43:
 552 0002 000C     		lsr	r0, r0, #16
 553 0004 014B     		ldr	r3, .L41
 554 0006 1860     		str	r0, [r3]
 696:.\Generated_Source\PSoC4/QD0.c **** }
 555              		.loc 1 696 0
 556              		@ sp needed
 557 0008 7047     		bx	lr
 558              	.L42:
ARM GAS  C:\Users\LAIR\AppData\Local\Temp\cc4ZtvJP.s 			page 23


 559 000a C046     		.align	2
 560              	.L41:
 561 000c 94012040 		.word	1075839380
 562              		.cfi_endproc
 563              	.LFE17:
 564              		.size	QD0_WritePeriod, .-QD0_WritePeriod
 565              		.section	.text.QD0_ReadPeriod,"ax",%progbits
 566              		.align	2
 567              		.global	QD0_ReadPeriod
 568              		.code	16
 569              		.thumb_func
 570              		.type	QD0_ReadPeriod, %function
 571              	QD0_ReadPeriod:
 572              	.LFB18:
 697:.\Generated_Source\PSoC4/QD0.c **** 
 698:.\Generated_Source\PSoC4/QD0.c **** 
 699:.\Generated_Source\PSoC4/QD0.c **** /*******************************************************************************
 700:.\Generated_Source\PSoC4/QD0.c **** * Function Name: QD0_ReadPeriod
 701:.\Generated_Source\PSoC4/QD0.c **** ********************************************************************************
 702:.\Generated_Source\PSoC4/QD0.c **** *
 703:.\Generated_Source\PSoC4/QD0.c **** * Summary:
 704:.\Generated_Source\PSoC4/QD0.c **** *  Reads the 16 bit period register.
 705:.\Generated_Source\PSoC4/QD0.c **** *
 706:.\Generated_Source\PSoC4/QD0.c **** * Parameters:
 707:.\Generated_Source\PSoC4/QD0.c **** *  None
 708:.\Generated_Source\PSoC4/QD0.c **** *
 709:.\Generated_Source\PSoC4/QD0.c **** * Return:
 710:.\Generated_Source\PSoC4/QD0.c **** *  Period value
 711:.\Generated_Source\PSoC4/QD0.c **** *
 712:.\Generated_Source\PSoC4/QD0.c **** *******************************************************************************/
 713:.\Generated_Source\PSoC4/QD0.c **** uint32 QD0_ReadPeriod(void)
 714:.\Generated_Source\PSoC4/QD0.c **** {
 573              		.loc 1 714 0
 574              		.cfi_startproc
 715:.\Generated_Source\PSoC4/QD0.c ****     return (QD0_PERIOD_REG & QD0_16BIT_MASK);
 575              		.loc 1 715 0
 576 0000 024B     		ldr	r3, .L44
 577 0002 1868     		ldr	r0, [r3]
 578 0004 0004     		lsl	r0, r0, #16
 579 0006 000C     		lsr	r0, r0, #16
 716:.\Generated_Source\PSoC4/QD0.c **** }
 580              		.loc 1 716 0
 581              		@ sp needed
 582 0008 7047     		bx	lr
 583              	.L45:
 584 000a C046     		.align	2
 585              	.L44:
 586 000c 94012040 		.word	1075839380
 587              		.cfi_endproc
 588              	.LFE18:
 589              		.size	QD0_ReadPeriod, .-QD0_ReadPeriod
 590              		.section	.text.QD0_SetCompareSwap,"ax",%progbits
 591              		.align	2
 592              		.global	QD0_SetCompareSwap
 593              		.code	16
 594              		.thumb_func
 595              		.type	QD0_SetCompareSwap, %function
ARM GAS  C:\Users\LAIR\AppData\Local\Temp\cc4ZtvJP.s 			page 24


 596              	QD0_SetCompareSwap:
 597              	.LFB19:
 717:.\Generated_Source\PSoC4/QD0.c **** 
 718:.\Generated_Source\PSoC4/QD0.c **** 
 719:.\Generated_Source\PSoC4/QD0.c **** /*******************************************************************************
 720:.\Generated_Source\PSoC4/QD0.c **** * Function Name: QD0_SetCompareSwap
 721:.\Generated_Source\PSoC4/QD0.c **** ********************************************************************************
 722:.\Generated_Source\PSoC4/QD0.c **** *
 723:.\Generated_Source\PSoC4/QD0.c **** * Summary:
 724:.\Generated_Source\PSoC4/QD0.c **** *  Writes the register that controls whether the compare registers are
 725:.\Generated_Source\PSoC4/QD0.c **** *  swapped. When enabled in the Timer/Counter mode(without capture) the swap
 726:.\Generated_Source\PSoC4/QD0.c **** *  occurs at a TC event. In the PWM mode the swap occurs at the next TC event
 727:.\Generated_Source\PSoC4/QD0.c **** *  following a hardware switch event.
 728:.\Generated_Source\PSoC4/QD0.c **** *
 729:.\Generated_Source\PSoC4/QD0.c **** * Parameters:
 730:.\Generated_Source\PSoC4/QD0.c **** *  swapEnable
 731:.\Generated_Source\PSoC4/QD0.c **** *   Values:
 732:.\Generated_Source\PSoC4/QD0.c **** *     - 0 - Disable swap
 733:.\Generated_Source\PSoC4/QD0.c **** *     - 1 - Enable swap
 734:.\Generated_Source\PSoC4/QD0.c **** *
 735:.\Generated_Source\PSoC4/QD0.c **** * Return:
 736:.\Generated_Source\PSoC4/QD0.c **** *  None
 737:.\Generated_Source\PSoC4/QD0.c **** *
 738:.\Generated_Source\PSoC4/QD0.c **** *******************************************************************************/
 739:.\Generated_Source\PSoC4/QD0.c **** void QD0_SetCompareSwap(uint32 swapEnable)
 740:.\Generated_Source\PSoC4/QD0.c **** {
 598              		.loc 1 740 0
 599              		.cfi_startproc
 600              	.LVL44:
 601 0000 10B5     		push	{r4, lr}
 602              		.cfi_def_cfa_offset 8
 603              		.cfi_offset 4, -8
 604              		.cfi_offset 14, -4
 605 0002 041C     		mov	r4, r0
 741:.\Generated_Source\PSoC4/QD0.c ****     uint8 enableInterrupts;
 742:.\Generated_Source\PSoC4/QD0.c **** 
 743:.\Generated_Source\PSoC4/QD0.c ****     enableInterrupts = CyEnterCriticalSection();
 606              		.loc 1 743 0
 607 0004 FFF7FEFF 		bl	CyEnterCriticalSection
 608              	.LVL45:
 744:.\Generated_Source\PSoC4/QD0.c **** 
 745:.\Generated_Source\PSoC4/QD0.c ****     QD0_CONTROL_REG &= (uint32)~QD0_RELOAD_CC_MASK;
 609              		.loc 1 745 0
 610 0008 054B     		ldr	r3, .L47
 611 000a 1A68     		ldr	r2, [r3]
 612 000c 0121     		mov	r1, #1
 613 000e 8A43     		bic	r2, r1
 614 0010 1A60     		str	r2, [r3]
 746:.\Generated_Source\PSoC4/QD0.c ****     QD0_CONTROL_REG |= (swapEnable & QD0_1BIT_MASK);
 615              		.loc 1 746 0
 616 0012 1A68     		ldr	r2, [r3]
 617 0014 0C40     		and	r4, r1
 618              	.LVL46:
 619 0016 1443     		orr	r4, r2
 620 0018 1C60     		str	r4, [r3]
 747:.\Generated_Source\PSoC4/QD0.c **** 
 748:.\Generated_Source\PSoC4/QD0.c ****     CyExitCriticalSection(enableInterrupts);
ARM GAS  C:\Users\LAIR\AppData\Local\Temp\cc4ZtvJP.s 			page 25


 621              		.loc 1 748 0
 622 001a FFF7FEFF 		bl	CyExitCriticalSection
 623              	.LVL47:
 749:.\Generated_Source\PSoC4/QD0.c **** }
 624              		.loc 1 749 0
 625              		@ sp needed
 626 001e 10BD     		pop	{r4, pc}
 627              	.L48:
 628              		.align	2
 629              	.L47:
 630 0020 80012040 		.word	1075839360
 631              		.cfi_endproc
 632              	.LFE19:
 633              		.size	QD0_SetCompareSwap, .-QD0_SetCompareSwap
 634              		.section	.text.QD0_WritePeriodBuf,"ax",%progbits
 635              		.align	2
 636              		.global	QD0_WritePeriodBuf
 637              		.code	16
 638              		.thumb_func
 639              		.type	QD0_WritePeriodBuf, %function
 640              	QD0_WritePeriodBuf:
 641              	.LFB20:
 750:.\Generated_Source\PSoC4/QD0.c **** 
 751:.\Generated_Source\PSoC4/QD0.c **** 
 752:.\Generated_Source\PSoC4/QD0.c **** /*******************************************************************************
 753:.\Generated_Source\PSoC4/QD0.c **** * Function Name: QD0_WritePeriodBuf
 754:.\Generated_Source\PSoC4/QD0.c **** ********************************************************************************
 755:.\Generated_Source\PSoC4/QD0.c **** *
 756:.\Generated_Source\PSoC4/QD0.c **** * Summary:
 757:.\Generated_Source\PSoC4/QD0.c **** *  Writes the 16 bit period buf register with the new period value.
 758:.\Generated_Source\PSoC4/QD0.c **** *
 759:.\Generated_Source\PSoC4/QD0.c **** * Parameters:
 760:.\Generated_Source\PSoC4/QD0.c **** *  periodBuf: Period value
 761:.\Generated_Source\PSoC4/QD0.c **** *
 762:.\Generated_Source\PSoC4/QD0.c **** * Return:
 763:.\Generated_Source\PSoC4/QD0.c **** *  None
 764:.\Generated_Source\PSoC4/QD0.c **** *
 765:.\Generated_Source\PSoC4/QD0.c **** *******************************************************************************/
 766:.\Generated_Source\PSoC4/QD0.c **** void QD0_WritePeriodBuf(uint32 periodBuf)
 767:.\Generated_Source\PSoC4/QD0.c **** {
 642              		.loc 1 767 0
 643              		.cfi_startproc
 644              	.LVL48:
 768:.\Generated_Source\PSoC4/QD0.c ****     QD0_PERIOD_BUF_REG = (periodBuf & QD0_16BIT_MASK);
 645              		.loc 1 768 0
 646 0000 0004     		lsl	r0, r0, #16
 647              	.LVL49:
 648 0002 000C     		lsr	r0, r0, #16
 649 0004 014B     		ldr	r3, .L50
 650 0006 1860     		str	r0, [r3]
 769:.\Generated_Source\PSoC4/QD0.c **** }
 651              		.loc 1 769 0
 652              		@ sp needed
 653 0008 7047     		bx	lr
 654              	.L51:
 655 000a C046     		.align	2
 656              	.L50:
ARM GAS  C:\Users\LAIR\AppData\Local\Temp\cc4ZtvJP.s 			page 26


 657 000c 98012040 		.word	1075839384
 658              		.cfi_endproc
 659              	.LFE20:
 660              		.size	QD0_WritePeriodBuf, .-QD0_WritePeriodBuf
 661              		.section	.text.QD0_ReadPeriodBuf,"ax",%progbits
 662              		.align	2
 663              		.global	QD0_ReadPeriodBuf
 664              		.code	16
 665              		.thumb_func
 666              		.type	QD0_ReadPeriodBuf, %function
 667              	QD0_ReadPeriodBuf:
 668              	.LFB21:
 770:.\Generated_Source\PSoC4/QD0.c **** 
 771:.\Generated_Source\PSoC4/QD0.c **** 
 772:.\Generated_Source\PSoC4/QD0.c **** /*******************************************************************************
 773:.\Generated_Source\PSoC4/QD0.c **** * Function Name: QD0_ReadPeriodBuf
 774:.\Generated_Source\PSoC4/QD0.c **** ********************************************************************************
 775:.\Generated_Source\PSoC4/QD0.c **** *
 776:.\Generated_Source\PSoC4/QD0.c **** * Summary:
 777:.\Generated_Source\PSoC4/QD0.c **** *  Reads the 16 bit period buf register.
 778:.\Generated_Source\PSoC4/QD0.c **** *
 779:.\Generated_Source\PSoC4/QD0.c **** * Parameters:
 780:.\Generated_Source\PSoC4/QD0.c **** *  None
 781:.\Generated_Source\PSoC4/QD0.c **** *
 782:.\Generated_Source\PSoC4/QD0.c **** * Return:
 783:.\Generated_Source\PSoC4/QD0.c **** *  Period value
 784:.\Generated_Source\PSoC4/QD0.c **** *
 785:.\Generated_Source\PSoC4/QD0.c **** *******************************************************************************/
 786:.\Generated_Source\PSoC4/QD0.c **** uint32 QD0_ReadPeriodBuf(void)
 787:.\Generated_Source\PSoC4/QD0.c **** {
 669              		.loc 1 787 0
 670              		.cfi_startproc
 788:.\Generated_Source\PSoC4/QD0.c ****     return (QD0_PERIOD_BUF_REG & QD0_16BIT_MASK);
 671              		.loc 1 788 0
 672 0000 024B     		ldr	r3, .L53
 673 0002 1868     		ldr	r0, [r3]
 674 0004 0004     		lsl	r0, r0, #16
 675 0006 000C     		lsr	r0, r0, #16
 789:.\Generated_Source\PSoC4/QD0.c **** }
 676              		.loc 1 789 0
 677              		@ sp needed
 678 0008 7047     		bx	lr
 679              	.L54:
 680 000a C046     		.align	2
 681              	.L53:
 682 000c 98012040 		.word	1075839384
 683              		.cfi_endproc
 684              	.LFE21:
 685              		.size	QD0_ReadPeriodBuf, .-QD0_ReadPeriodBuf
 686              		.section	.text.QD0_SetPeriodSwap,"ax",%progbits
 687              		.align	2
 688              		.global	QD0_SetPeriodSwap
 689              		.code	16
 690              		.thumb_func
 691              		.type	QD0_SetPeriodSwap, %function
 692              	QD0_SetPeriodSwap:
 693              	.LFB22:
ARM GAS  C:\Users\LAIR\AppData\Local\Temp\cc4ZtvJP.s 			page 27


 790:.\Generated_Source\PSoC4/QD0.c **** 
 791:.\Generated_Source\PSoC4/QD0.c **** 
 792:.\Generated_Source\PSoC4/QD0.c **** /*******************************************************************************
 793:.\Generated_Source\PSoC4/QD0.c **** * Function Name: QD0_SetPeriodSwap
 794:.\Generated_Source\PSoC4/QD0.c **** ********************************************************************************
 795:.\Generated_Source\PSoC4/QD0.c **** *
 796:.\Generated_Source\PSoC4/QD0.c **** * Summary:
 797:.\Generated_Source\PSoC4/QD0.c **** *  Writes the register that controls whether the period registers are
 798:.\Generated_Source\PSoC4/QD0.c **** *  swapped. When enabled in Timer/Counter mode the swap occurs at a TC event.
 799:.\Generated_Source\PSoC4/QD0.c **** *  In the PWM mode the swap occurs at the next TC event following a hardware
 800:.\Generated_Source\PSoC4/QD0.c **** *  switch event.
 801:.\Generated_Source\PSoC4/QD0.c **** *
 802:.\Generated_Source\PSoC4/QD0.c **** * Parameters:
 803:.\Generated_Source\PSoC4/QD0.c **** *  swapEnable
 804:.\Generated_Source\PSoC4/QD0.c **** *   Values:
 805:.\Generated_Source\PSoC4/QD0.c **** *     - 0 - Disable swap
 806:.\Generated_Source\PSoC4/QD0.c **** *     - 1 - Enable swap
 807:.\Generated_Source\PSoC4/QD0.c **** *
 808:.\Generated_Source\PSoC4/QD0.c **** * Return:
 809:.\Generated_Source\PSoC4/QD0.c **** *  None
 810:.\Generated_Source\PSoC4/QD0.c **** *
 811:.\Generated_Source\PSoC4/QD0.c **** *******************************************************************************/
 812:.\Generated_Source\PSoC4/QD0.c **** void QD0_SetPeriodSwap(uint32 swapEnable)
 813:.\Generated_Source\PSoC4/QD0.c **** {
 694              		.loc 1 813 0
 695              		.cfi_startproc
 696              	.LVL50:
 697 0000 10B5     		push	{r4, lr}
 698              		.cfi_def_cfa_offset 8
 699              		.cfi_offset 4, -8
 700              		.cfi_offset 14, -4
 701 0002 041C     		mov	r4, r0
 814:.\Generated_Source\PSoC4/QD0.c ****     uint8 enableInterrupts;
 815:.\Generated_Source\PSoC4/QD0.c **** 
 816:.\Generated_Source\PSoC4/QD0.c ****     enableInterrupts = CyEnterCriticalSection();
 702              		.loc 1 816 0
 703 0004 FFF7FEFF 		bl	CyEnterCriticalSection
 704              	.LVL51:
 817:.\Generated_Source\PSoC4/QD0.c **** 
 818:.\Generated_Source\PSoC4/QD0.c ****     QD0_CONTROL_REG &= (uint32)~QD0_RELOAD_PERIOD_MASK;
 705              		.loc 1 818 0
 706 0008 064B     		ldr	r3, .L56
 707 000a 1A68     		ldr	r2, [r3]
 708 000c 0221     		mov	r1, #2
 709 000e 8A43     		bic	r2, r1
 710 0010 1A60     		str	r2, [r3]
 819:.\Generated_Source\PSoC4/QD0.c ****     QD0_CONTROL_REG |= ((uint32)((swapEnable & QD0_1BIT_MASK) <<
 711              		.loc 1 819 0
 712 0012 1A68     		ldr	r2, [r3]
 713 0014 0139     		sub	r1, r1, #1
 714 0016 0C40     		and	r4, r1
 715              	.LVL52:
 716 0018 6400     		lsl	r4, r4, #1
 717 001a 1443     		orr	r4, r2
 718 001c 1C60     		str	r4, [r3]
 820:.\Generated_Source\PSoC4/QD0.c ****                                                             QD0_RELOAD_PERIOD_SHIFT));
 821:.\Generated_Source\PSoC4/QD0.c **** 
ARM GAS  C:\Users\LAIR\AppData\Local\Temp\cc4ZtvJP.s 			page 28


 822:.\Generated_Source\PSoC4/QD0.c ****     CyExitCriticalSection(enableInterrupts);
 719              		.loc 1 822 0
 720 001e FFF7FEFF 		bl	CyExitCriticalSection
 721              	.LVL53:
 823:.\Generated_Source\PSoC4/QD0.c **** }
 722              		.loc 1 823 0
 723              		@ sp needed
 724 0022 10BD     		pop	{r4, pc}
 725              	.L57:
 726              		.align	2
 727              	.L56:
 728 0024 80012040 		.word	1075839360
 729              		.cfi_endproc
 730              	.LFE22:
 731              		.size	QD0_SetPeriodSwap, .-QD0_SetPeriodSwap
 732              		.section	.text.QD0_WriteCompare,"ax",%progbits
 733              		.align	2
 734              		.global	QD0_WriteCompare
 735              		.code	16
 736              		.thumb_func
 737              		.type	QD0_WriteCompare, %function
 738              	QD0_WriteCompare:
 739              	.LFB23:
 824:.\Generated_Source\PSoC4/QD0.c **** 
 825:.\Generated_Source\PSoC4/QD0.c **** 
 826:.\Generated_Source\PSoC4/QD0.c **** /*******************************************************************************
 827:.\Generated_Source\PSoC4/QD0.c **** * Function Name: QD0_WriteCompare
 828:.\Generated_Source\PSoC4/QD0.c **** ********************************************************************************
 829:.\Generated_Source\PSoC4/QD0.c **** *
 830:.\Generated_Source\PSoC4/QD0.c **** * Summary:
 831:.\Generated_Source\PSoC4/QD0.c **** *  Writes the 16 bit compare register with the new compare value. Not
 832:.\Generated_Source\PSoC4/QD0.c **** *  applicable for Timer/Counter with Capture or in Quadrature Decoder modes.
 833:.\Generated_Source\PSoC4/QD0.c **** *
 834:.\Generated_Source\PSoC4/QD0.c **** * Parameters:
 835:.\Generated_Source\PSoC4/QD0.c **** *  compare: Compare value
 836:.\Generated_Source\PSoC4/QD0.c **** *
 837:.\Generated_Source\PSoC4/QD0.c **** * Return:
 838:.\Generated_Source\PSoC4/QD0.c **** *  None
 839:.\Generated_Source\PSoC4/QD0.c **** *
 840:.\Generated_Source\PSoC4/QD0.c **** * Note:
 841:.\Generated_Source\PSoC4/QD0.c **** *  It is not recommended to use the value equal to "0" or equal to 
 842:.\Generated_Source\PSoC4/QD0.c **** *  "period value" in Center or Asymmetric align PWM modes on the 
 843:.\Generated_Source\PSoC4/QD0.c **** *  PSoC 4100/PSoC 4200 devices.
 844:.\Generated_Source\PSoC4/QD0.c **** *  PSoC 4000 devices write the 16 bit compare register with the decremented 
 845:.\Generated_Source\PSoC4/QD0.c **** *  compare value in the Up counting mode (except 0x0u), and the incremented 
 846:.\Generated_Source\PSoC4/QD0.c **** *  compare value in the Down counting mode (except 0xFFFFu).
 847:.\Generated_Source\PSoC4/QD0.c **** *
 848:.\Generated_Source\PSoC4/QD0.c **** *******************************************************************************/
 849:.\Generated_Source\PSoC4/QD0.c **** void QD0_WriteCompare(uint32 compare)
 850:.\Generated_Source\PSoC4/QD0.c **** {
 740              		.loc 1 850 0
 741              		.cfi_startproc
 742              	.LVL54:
 851:.\Generated_Source\PSoC4/QD0.c ****     #if (QD0_CY_TCPWM_4000)
 852:.\Generated_Source\PSoC4/QD0.c ****         uint32 currentMode;
 853:.\Generated_Source\PSoC4/QD0.c ****     #endif /* (QD0_CY_TCPWM_4000) */
 854:.\Generated_Source\PSoC4/QD0.c **** 
ARM GAS  C:\Users\LAIR\AppData\Local\Temp\cc4ZtvJP.s 			page 29


 855:.\Generated_Source\PSoC4/QD0.c ****     #if (QD0_CY_TCPWM_4000)
 856:.\Generated_Source\PSoC4/QD0.c ****         currentMode = ((QD0_CONTROL_REG & QD0_UPDOWN_MASK) >> QD0_UPDOWN_SHIFT);
 857:.\Generated_Source\PSoC4/QD0.c **** 
 858:.\Generated_Source\PSoC4/QD0.c ****         if (((uint32)QD0__COUNT_DOWN == currentMode) && (0xFFFFu != compare))
 859:.\Generated_Source\PSoC4/QD0.c ****         {
 860:.\Generated_Source\PSoC4/QD0.c ****             compare++;
 861:.\Generated_Source\PSoC4/QD0.c ****         }
 862:.\Generated_Source\PSoC4/QD0.c ****         else if (((uint32)QD0__COUNT_UP == currentMode) && (0u != compare))
 863:.\Generated_Source\PSoC4/QD0.c ****         {
 864:.\Generated_Source\PSoC4/QD0.c ****             compare--;
 865:.\Generated_Source\PSoC4/QD0.c ****         }
 866:.\Generated_Source\PSoC4/QD0.c ****         else
 867:.\Generated_Source\PSoC4/QD0.c ****         {
 868:.\Generated_Source\PSoC4/QD0.c ****         }
 869:.\Generated_Source\PSoC4/QD0.c ****         
 870:.\Generated_Source\PSoC4/QD0.c ****     
 871:.\Generated_Source\PSoC4/QD0.c ****     #endif /* (QD0_CY_TCPWM_4000) */
 872:.\Generated_Source\PSoC4/QD0.c ****     
 873:.\Generated_Source\PSoC4/QD0.c ****     QD0_COMP_CAP_REG = (compare & QD0_16BIT_MASK);
 743              		.loc 1 873 0
 744 0000 0004     		lsl	r0, r0, #16
 745              	.LVL55:
 746 0002 000C     		lsr	r0, r0, #16
 747 0004 014B     		ldr	r3, .L59
 748 0006 1860     		str	r0, [r3]
 874:.\Generated_Source\PSoC4/QD0.c **** }
 749              		.loc 1 874 0
 750              		@ sp needed
 751 0008 7047     		bx	lr
 752              	.L60:
 753 000a C046     		.align	2
 754              	.L59:
 755 000c 8C012040 		.word	1075839372
 756              		.cfi_endproc
 757              	.LFE23:
 758              		.size	QD0_WriteCompare, .-QD0_WriteCompare
 759              		.section	.text.QD0_ReadCompare,"ax",%progbits
 760              		.align	2
 761              		.global	QD0_ReadCompare
 762              		.code	16
 763              		.thumb_func
 764              		.type	QD0_ReadCompare, %function
 765              	QD0_ReadCompare:
 766              	.LFB24:
 875:.\Generated_Source\PSoC4/QD0.c **** 
 876:.\Generated_Source\PSoC4/QD0.c **** 
 877:.\Generated_Source\PSoC4/QD0.c **** /*******************************************************************************
 878:.\Generated_Source\PSoC4/QD0.c **** * Function Name: QD0_ReadCompare
 879:.\Generated_Source\PSoC4/QD0.c **** ********************************************************************************
 880:.\Generated_Source\PSoC4/QD0.c **** *
 881:.\Generated_Source\PSoC4/QD0.c **** * Summary:
 882:.\Generated_Source\PSoC4/QD0.c **** *  Reads the compare register. Not applicable for Timer/Counter with Capture
 883:.\Generated_Source\PSoC4/QD0.c **** *  or in Quadrature Decoder modes.
 884:.\Generated_Source\PSoC4/QD0.c **** *  PSoC 4000 devices read the incremented compare register value in the 
 885:.\Generated_Source\PSoC4/QD0.c **** *  Up counting mode (except 0xFFFFu), and the decremented value in the 
 886:.\Generated_Source\PSoC4/QD0.c **** *  Down counting mode (except 0x0u).
 887:.\Generated_Source\PSoC4/QD0.c **** *
ARM GAS  C:\Users\LAIR\AppData\Local\Temp\cc4ZtvJP.s 			page 30


 888:.\Generated_Source\PSoC4/QD0.c **** * Parameters:
 889:.\Generated_Source\PSoC4/QD0.c **** *  None
 890:.\Generated_Source\PSoC4/QD0.c **** *
 891:.\Generated_Source\PSoC4/QD0.c **** * Return:
 892:.\Generated_Source\PSoC4/QD0.c **** *  Compare value
 893:.\Generated_Source\PSoC4/QD0.c **** *
 894:.\Generated_Source\PSoC4/QD0.c **** * Note:
 895:.\Generated_Source\PSoC4/QD0.c **** *  PSoC 4000 devices read the incremented compare register value in the 
 896:.\Generated_Source\PSoC4/QD0.c **** *  Up counting mode (except 0xFFFFu), and the decremented value in the 
 897:.\Generated_Source\PSoC4/QD0.c **** *  Down counting mode (except 0x0u).
 898:.\Generated_Source\PSoC4/QD0.c **** *
 899:.\Generated_Source\PSoC4/QD0.c **** *******************************************************************************/
 900:.\Generated_Source\PSoC4/QD0.c **** uint32 QD0_ReadCompare(void)
 901:.\Generated_Source\PSoC4/QD0.c **** {
 767              		.loc 1 901 0
 768              		.cfi_startproc
 902:.\Generated_Source\PSoC4/QD0.c ****     #if (QD0_CY_TCPWM_4000)
 903:.\Generated_Source\PSoC4/QD0.c ****         uint32 currentMode;
 904:.\Generated_Source\PSoC4/QD0.c ****         uint32 regVal;
 905:.\Generated_Source\PSoC4/QD0.c ****     #endif /* (QD0_CY_TCPWM_4000) */
 906:.\Generated_Source\PSoC4/QD0.c **** 
 907:.\Generated_Source\PSoC4/QD0.c ****     #if (QD0_CY_TCPWM_4000)
 908:.\Generated_Source\PSoC4/QD0.c ****         currentMode = ((QD0_CONTROL_REG & QD0_UPDOWN_MASK) >> QD0_UPDOWN_SHIFT);
 909:.\Generated_Source\PSoC4/QD0.c ****         
 910:.\Generated_Source\PSoC4/QD0.c ****         regVal = QD0_COMP_CAP_REG;
 911:.\Generated_Source\PSoC4/QD0.c ****         
 912:.\Generated_Source\PSoC4/QD0.c ****         if (((uint32)QD0__COUNT_DOWN == currentMode) && (0u != regVal))
 913:.\Generated_Source\PSoC4/QD0.c ****         {
 914:.\Generated_Source\PSoC4/QD0.c ****             regVal--;
 915:.\Generated_Source\PSoC4/QD0.c ****         }
 916:.\Generated_Source\PSoC4/QD0.c ****         else if (((uint32)QD0__COUNT_UP == currentMode) && (0xFFFFu != regVal))
 917:.\Generated_Source\PSoC4/QD0.c ****         {
 918:.\Generated_Source\PSoC4/QD0.c ****             regVal++;
 919:.\Generated_Source\PSoC4/QD0.c ****         }
 920:.\Generated_Source\PSoC4/QD0.c ****         else
 921:.\Generated_Source\PSoC4/QD0.c ****         {
 922:.\Generated_Source\PSoC4/QD0.c ****         }
 923:.\Generated_Source\PSoC4/QD0.c **** 
 924:.\Generated_Source\PSoC4/QD0.c ****         return (regVal & QD0_16BIT_MASK);
 925:.\Generated_Source\PSoC4/QD0.c ****     #else
 926:.\Generated_Source\PSoC4/QD0.c ****         return (QD0_COMP_CAP_REG & QD0_16BIT_MASK);
 769              		.loc 1 926 0
 770 0000 024B     		ldr	r3, .L62
 771 0002 1868     		ldr	r0, [r3]
 772 0004 0004     		lsl	r0, r0, #16
 773 0006 000C     		lsr	r0, r0, #16
 927:.\Generated_Source\PSoC4/QD0.c ****     #endif /* (QD0_CY_TCPWM_4000) */
 928:.\Generated_Source\PSoC4/QD0.c **** }
 774              		.loc 1 928 0
 775              		@ sp needed
 776 0008 7047     		bx	lr
 777              	.L63:
 778 000a C046     		.align	2
 779              	.L62:
 780 000c 8C012040 		.word	1075839372
 781              		.cfi_endproc
 782              	.LFE24:
ARM GAS  C:\Users\LAIR\AppData\Local\Temp\cc4ZtvJP.s 			page 31


 783              		.size	QD0_ReadCompare, .-QD0_ReadCompare
 784              		.section	.text.QD0_WriteCompareBuf,"ax",%progbits
 785              		.align	2
 786              		.global	QD0_WriteCompareBuf
 787              		.code	16
 788              		.thumb_func
 789              		.type	QD0_WriteCompareBuf, %function
 790              	QD0_WriteCompareBuf:
 791              	.LFB25:
 929:.\Generated_Source\PSoC4/QD0.c **** 
 930:.\Generated_Source\PSoC4/QD0.c **** 
 931:.\Generated_Source\PSoC4/QD0.c **** /*******************************************************************************
 932:.\Generated_Source\PSoC4/QD0.c **** * Function Name: QD0_WriteCompareBuf
 933:.\Generated_Source\PSoC4/QD0.c **** ********************************************************************************
 934:.\Generated_Source\PSoC4/QD0.c **** *
 935:.\Generated_Source\PSoC4/QD0.c **** * Summary:
 936:.\Generated_Source\PSoC4/QD0.c **** *  Writes the 16 bit compare buffer register with the new compare value. Not
 937:.\Generated_Source\PSoC4/QD0.c **** *  applicable for Timer/Counter with Capture or in Quadrature Decoder modes.
 938:.\Generated_Source\PSoC4/QD0.c **** *
 939:.\Generated_Source\PSoC4/QD0.c **** * Parameters:
 940:.\Generated_Source\PSoC4/QD0.c **** *  compareBuf: Compare value
 941:.\Generated_Source\PSoC4/QD0.c **** *
 942:.\Generated_Source\PSoC4/QD0.c **** * Return:
 943:.\Generated_Source\PSoC4/QD0.c **** *  None
 944:.\Generated_Source\PSoC4/QD0.c **** *
 945:.\Generated_Source\PSoC4/QD0.c **** * Note:
 946:.\Generated_Source\PSoC4/QD0.c **** *  It is not recommended to use the value equal to "0" or equal to 
 947:.\Generated_Source\PSoC4/QD0.c **** *  "period value" in Center or Asymmetric align PWM modes on the 
 948:.\Generated_Source\PSoC4/QD0.c **** *  PSoC 4100/PSoC 4200 devices.
 949:.\Generated_Source\PSoC4/QD0.c **** *  PSoC 4000 devices write the 16 bit compare register with the decremented 
 950:.\Generated_Source\PSoC4/QD0.c **** *  compare value in the Up counting mode (except 0x0u), and the incremented 
 951:.\Generated_Source\PSoC4/QD0.c **** *  compare value in the Down counting mode (except 0xFFFFu).
 952:.\Generated_Source\PSoC4/QD0.c **** *
 953:.\Generated_Source\PSoC4/QD0.c **** *******************************************************************************/
 954:.\Generated_Source\PSoC4/QD0.c **** void QD0_WriteCompareBuf(uint32 compareBuf)
 955:.\Generated_Source\PSoC4/QD0.c **** {
 792              		.loc 1 955 0
 793              		.cfi_startproc
 794              	.LVL56:
 956:.\Generated_Source\PSoC4/QD0.c ****     #if (QD0_CY_TCPWM_4000)
 957:.\Generated_Source\PSoC4/QD0.c ****         uint32 currentMode;
 958:.\Generated_Source\PSoC4/QD0.c ****     #endif /* (QD0_CY_TCPWM_4000) */
 959:.\Generated_Source\PSoC4/QD0.c **** 
 960:.\Generated_Source\PSoC4/QD0.c ****     #if (QD0_CY_TCPWM_4000)
 961:.\Generated_Source\PSoC4/QD0.c ****         currentMode = ((QD0_CONTROL_REG & QD0_UPDOWN_MASK) >> QD0_UPDOWN_SHIFT);
 962:.\Generated_Source\PSoC4/QD0.c **** 
 963:.\Generated_Source\PSoC4/QD0.c ****         if (((uint32)QD0__COUNT_DOWN == currentMode) && (0xFFFFu != compareBuf))
 964:.\Generated_Source\PSoC4/QD0.c ****         {
 965:.\Generated_Source\PSoC4/QD0.c ****             compareBuf++;
 966:.\Generated_Source\PSoC4/QD0.c ****         }
 967:.\Generated_Source\PSoC4/QD0.c ****         else if (((uint32)QD0__COUNT_UP == currentMode) && (0u != compareBuf))
 968:.\Generated_Source\PSoC4/QD0.c ****         {
 969:.\Generated_Source\PSoC4/QD0.c ****             compareBuf --;
 970:.\Generated_Source\PSoC4/QD0.c ****         }
 971:.\Generated_Source\PSoC4/QD0.c ****         else
 972:.\Generated_Source\PSoC4/QD0.c ****         {
 973:.\Generated_Source\PSoC4/QD0.c ****         }
ARM GAS  C:\Users\LAIR\AppData\Local\Temp\cc4ZtvJP.s 			page 32


 974:.\Generated_Source\PSoC4/QD0.c ****     #endif /* (QD0_CY_TCPWM_4000) */
 975:.\Generated_Source\PSoC4/QD0.c ****     
 976:.\Generated_Source\PSoC4/QD0.c ****     QD0_COMP_CAP_BUF_REG = (compareBuf & QD0_16BIT_MASK);
 795              		.loc 1 976 0
 796 0000 0004     		lsl	r0, r0, #16
 797              	.LVL57:
 798 0002 000C     		lsr	r0, r0, #16
 799 0004 014B     		ldr	r3, .L65
 800 0006 1860     		str	r0, [r3]
 977:.\Generated_Source\PSoC4/QD0.c **** }
 801              		.loc 1 977 0
 802              		@ sp needed
 803 0008 7047     		bx	lr
 804              	.L66:
 805 000a C046     		.align	2
 806              	.L65:
 807 000c 90012040 		.word	1075839376
 808              		.cfi_endproc
 809              	.LFE25:
 810              		.size	QD0_WriteCompareBuf, .-QD0_WriteCompareBuf
 811              		.section	.text.QD0_ReadCompareBuf,"ax",%progbits
 812              		.align	2
 813              		.global	QD0_ReadCompareBuf
 814              		.code	16
 815              		.thumb_func
 816              		.type	QD0_ReadCompareBuf, %function
 817              	QD0_ReadCompareBuf:
 818              	.LFB26:
 978:.\Generated_Source\PSoC4/QD0.c **** 
 979:.\Generated_Source\PSoC4/QD0.c **** 
 980:.\Generated_Source\PSoC4/QD0.c **** /*******************************************************************************
 981:.\Generated_Source\PSoC4/QD0.c **** * Function Name: QD0_ReadCompareBuf
 982:.\Generated_Source\PSoC4/QD0.c **** ********************************************************************************
 983:.\Generated_Source\PSoC4/QD0.c **** *
 984:.\Generated_Source\PSoC4/QD0.c **** * Summary:
 985:.\Generated_Source\PSoC4/QD0.c **** *  Reads the compare buffer register. Not applicable for Timer/Counter with
 986:.\Generated_Source\PSoC4/QD0.c **** *  Capture or in Quadrature Decoder modes.
 987:.\Generated_Source\PSoC4/QD0.c **** *
 988:.\Generated_Source\PSoC4/QD0.c **** * Parameters:
 989:.\Generated_Source\PSoC4/QD0.c **** *  None
 990:.\Generated_Source\PSoC4/QD0.c **** *
 991:.\Generated_Source\PSoC4/QD0.c **** * Return:
 992:.\Generated_Source\PSoC4/QD0.c **** *  Compare buffer value
 993:.\Generated_Source\PSoC4/QD0.c **** *
 994:.\Generated_Source\PSoC4/QD0.c **** * Note:
 995:.\Generated_Source\PSoC4/QD0.c **** *  PSoC 4000 devices read the incremented compare register value in the 
 996:.\Generated_Source\PSoC4/QD0.c **** *  Up counting mode (except 0xFFFFu), and the decremented value in the 
 997:.\Generated_Source\PSoC4/QD0.c **** *  Down counting mode (except 0x0u).
 998:.\Generated_Source\PSoC4/QD0.c **** *
 999:.\Generated_Source\PSoC4/QD0.c **** *******************************************************************************/
1000:.\Generated_Source\PSoC4/QD0.c **** uint32 QD0_ReadCompareBuf(void)
1001:.\Generated_Source\PSoC4/QD0.c **** {
 819              		.loc 1 1001 0
 820              		.cfi_startproc
1002:.\Generated_Source\PSoC4/QD0.c ****     #if (QD0_CY_TCPWM_4000)
1003:.\Generated_Source\PSoC4/QD0.c ****         uint32 currentMode;
1004:.\Generated_Source\PSoC4/QD0.c ****         uint32 regVal;
ARM GAS  C:\Users\LAIR\AppData\Local\Temp\cc4ZtvJP.s 			page 33


1005:.\Generated_Source\PSoC4/QD0.c ****     #endif /* (QD0_CY_TCPWM_4000) */
1006:.\Generated_Source\PSoC4/QD0.c **** 
1007:.\Generated_Source\PSoC4/QD0.c ****     #if (QD0_CY_TCPWM_4000)
1008:.\Generated_Source\PSoC4/QD0.c ****         currentMode = ((QD0_CONTROL_REG & QD0_UPDOWN_MASK) >> QD0_UPDOWN_SHIFT);
1009:.\Generated_Source\PSoC4/QD0.c **** 
1010:.\Generated_Source\PSoC4/QD0.c ****         regVal = QD0_COMP_CAP_BUF_REG;
1011:.\Generated_Source\PSoC4/QD0.c ****         
1012:.\Generated_Source\PSoC4/QD0.c ****         if (((uint32)QD0__COUNT_DOWN == currentMode) && (0u != regVal))
1013:.\Generated_Source\PSoC4/QD0.c ****         {
1014:.\Generated_Source\PSoC4/QD0.c ****             regVal--;
1015:.\Generated_Source\PSoC4/QD0.c ****         }
1016:.\Generated_Source\PSoC4/QD0.c ****         else if (((uint32)QD0__COUNT_UP == currentMode) && (0xFFFFu != regVal))
1017:.\Generated_Source\PSoC4/QD0.c ****         {
1018:.\Generated_Source\PSoC4/QD0.c ****             regVal++;
1019:.\Generated_Source\PSoC4/QD0.c ****         }
1020:.\Generated_Source\PSoC4/QD0.c ****         else
1021:.\Generated_Source\PSoC4/QD0.c ****         {
1022:.\Generated_Source\PSoC4/QD0.c ****         }
1023:.\Generated_Source\PSoC4/QD0.c **** 
1024:.\Generated_Source\PSoC4/QD0.c ****         return (regVal & QD0_16BIT_MASK);
1025:.\Generated_Source\PSoC4/QD0.c ****     #else
1026:.\Generated_Source\PSoC4/QD0.c ****         return (QD0_COMP_CAP_BUF_REG & QD0_16BIT_MASK);
 821              		.loc 1 1026 0
 822 0000 024B     		ldr	r3, .L68
 823 0002 1868     		ldr	r0, [r3]
 824 0004 0004     		lsl	r0, r0, #16
 825 0006 000C     		lsr	r0, r0, #16
1027:.\Generated_Source\PSoC4/QD0.c ****     #endif /* (QD0_CY_TCPWM_4000) */
1028:.\Generated_Source\PSoC4/QD0.c **** }
 826              		.loc 1 1028 0
 827              		@ sp needed
 828 0008 7047     		bx	lr
 829              	.L69:
 830 000a C046     		.align	2
 831              	.L68:
 832 000c 90012040 		.word	1075839376
 833              		.cfi_endproc
 834              	.LFE26:
 835              		.size	QD0_ReadCompareBuf, .-QD0_ReadCompareBuf
 836              		.section	.text.QD0_ReadCapture,"ax",%progbits
 837              		.align	2
 838              		.global	QD0_ReadCapture
 839              		.code	16
 840              		.thumb_func
 841              		.type	QD0_ReadCapture, %function
 842              	QD0_ReadCapture:
 843              	.LFB27:
1029:.\Generated_Source\PSoC4/QD0.c **** 
1030:.\Generated_Source\PSoC4/QD0.c **** 
1031:.\Generated_Source\PSoC4/QD0.c **** /*******************************************************************************
1032:.\Generated_Source\PSoC4/QD0.c **** * Function Name: QD0_ReadCapture
1033:.\Generated_Source\PSoC4/QD0.c **** ********************************************************************************
1034:.\Generated_Source\PSoC4/QD0.c **** *
1035:.\Generated_Source\PSoC4/QD0.c **** * Summary:
1036:.\Generated_Source\PSoC4/QD0.c **** *  Reads the captured counter value. This API is applicable only for
1037:.\Generated_Source\PSoC4/QD0.c **** *  Timer/Counter with the capture mode and Quadrature Decoder modes.
1038:.\Generated_Source\PSoC4/QD0.c **** *
ARM GAS  C:\Users\LAIR\AppData\Local\Temp\cc4ZtvJP.s 			page 34


1039:.\Generated_Source\PSoC4/QD0.c **** * Parameters:
1040:.\Generated_Source\PSoC4/QD0.c **** *  None
1041:.\Generated_Source\PSoC4/QD0.c **** *
1042:.\Generated_Source\PSoC4/QD0.c **** * Return:
1043:.\Generated_Source\PSoC4/QD0.c **** *  Capture value
1044:.\Generated_Source\PSoC4/QD0.c **** *
1045:.\Generated_Source\PSoC4/QD0.c **** *******************************************************************************/
1046:.\Generated_Source\PSoC4/QD0.c **** uint32 QD0_ReadCapture(void)
1047:.\Generated_Source\PSoC4/QD0.c **** {
 844              		.loc 1 1047 0
 845              		.cfi_startproc
1048:.\Generated_Source\PSoC4/QD0.c ****     return (QD0_COMP_CAP_REG & QD0_16BIT_MASK);
 846              		.loc 1 1048 0
 847 0000 024B     		ldr	r3, .L71
 848 0002 1868     		ldr	r0, [r3]
 849 0004 0004     		lsl	r0, r0, #16
 850 0006 000C     		lsr	r0, r0, #16
1049:.\Generated_Source\PSoC4/QD0.c **** }
 851              		.loc 1 1049 0
 852              		@ sp needed
 853 0008 7047     		bx	lr
 854              	.L72:
 855 000a C046     		.align	2
 856              	.L71:
 857 000c 8C012040 		.word	1075839372
 858              		.cfi_endproc
 859              	.LFE27:
 860              		.size	QD0_ReadCapture, .-QD0_ReadCapture
 861              		.section	.text.QD0_ReadCaptureBuf,"ax",%progbits
 862              		.align	2
 863              		.global	QD0_ReadCaptureBuf
 864              		.code	16
 865              		.thumb_func
 866              		.type	QD0_ReadCaptureBuf, %function
 867              	QD0_ReadCaptureBuf:
 868              	.LFB28:
1050:.\Generated_Source\PSoC4/QD0.c **** 
1051:.\Generated_Source\PSoC4/QD0.c **** 
1052:.\Generated_Source\PSoC4/QD0.c **** /*******************************************************************************
1053:.\Generated_Source\PSoC4/QD0.c **** * Function Name: QD0_ReadCaptureBuf
1054:.\Generated_Source\PSoC4/QD0.c **** ********************************************************************************
1055:.\Generated_Source\PSoC4/QD0.c **** *
1056:.\Generated_Source\PSoC4/QD0.c **** * Summary:
1057:.\Generated_Source\PSoC4/QD0.c **** *  Reads the capture buffer register. This API is applicable only for
1058:.\Generated_Source\PSoC4/QD0.c **** *  Timer/Counter with the capture mode and Quadrature Decoder modes.
1059:.\Generated_Source\PSoC4/QD0.c **** *
1060:.\Generated_Source\PSoC4/QD0.c **** * Parameters:
1061:.\Generated_Source\PSoC4/QD0.c **** *  None
1062:.\Generated_Source\PSoC4/QD0.c **** *
1063:.\Generated_Source\PSoC4/QD0.c **** * Return:
1064:.\Generated_Source\PSoC4/QD0.c **** *  Capture buffer value
1065:.\Generated_Source\PSoC4/QD0.c **** *
1066:.\Generated_Source\PSoC4/QD0.c **** *******************************************************************************/
1067:.\Generated_Source\PSoC4/QD0.c **** uint32 QD0_ReadCaptureBuf(void)
1068:.\Generated_Source\PSoC4/QD0.c **** {
 869              		.loc 1 1068 0
 870              		.cfi_startproc
ARM GAS  C:\Users\LAIR\AppData\Local\Temp\cc4ZtvJP.s 			page 35


1069:.\Generated_Source\PSoC4/QD0.c ****     return (QD0_COMP_CAP_BUF_REG & QD0_16BIT_MASK);
 871              		.loc 1 1069 0
 872 0000 024B     		ldr	r3, .L74
 873 0002 1868     		ldr	r0, [r3]
 874 0004 0004     		lsl	r0, r0, #16
 875 0006 000C     		lsr	r0, r0, #16
1070:.\Generated_Source\PSoC4/QD0.c **** }
 876              		.loc 1 1070 0
 877              		@ sp needed
 878 0008 7047     		bx	lr
 879              	.L75:
 880 000a C046     		.align	2
 881              	.L74:
 882 000c 90012040 		.word	1075839376
 883              		.cfi_endproc
 884              	.LFE28:
 885              		.size	QD0_ReadCaptureBuf, .-QD0_ReadCaptureBuf
 886              		.section	.text.QD0_SetCaptureMode,"ax",%progbits
 887              		.align	2
 888              		.global	QD0_SetCaptureMode
 889              		.code	16
 890              		.thumb_func
 891              		.type	QD0_SetCaptureMode, %function
 892              	QD0_SetCaptureMode:
 893              	.LFB29:
1071:.\Generated_Source\PSoC4/QD0.c **** 
1072:.\Generated_Source\PSoC4/QD0.c **** 
1073:.\Generated_Source\PSoC4/QD0.c **** /*******************************************************************************
1074:.\Generated_Source\PSoC4/QD0.c **** * Function Name: QD0_SetCaptureMode
1075:.\Generated_Source\PSoC4/QD0.c **** ********************************************************************************
1076:.\Generated_Source\PSoC4/QD0.c **** *
1077:.\Generated_Source\PSoC4/QD0.c **** * Summary:
1078:.\Generated_Source\PSoC4/QD0.c **** *  Sets the capture trigger mode. For PWM mode this is the switch input.
1079:.\Generated_Source\PSoC4/QD0.c **** *  This input is not applicable to the Timer/Counter without Capture and
1080:.\Generated_Source\PSoC4/QD0.c **** *  Quadrature Decoder modes.
1081:.\Generated_Source\PSoC4/QD0.c **** *
1082:.\Generated_Source\PSoC4/QD0.c **** * Parameters:
1083:.\Generated_Source\PSoC4/QD0.c **** *  triggerMode: Enumerated trigger mode value
1084:.\Generated_Source\PSoC4/QD0.c **** *   Values:
1085:.\Generated_Source\PSoC4/QD0.c **** *     - QD0_TRIG_LEVEL     - Level
1086:.\Generated_Source\PSoC4/QD0.c **** *     - QD0_TRIG_RISING    - Rising edge
1087:.\Generated_Source\PSoC4/QD0.c **** *     - QD0_TRIG_FALLING   - Falling edge
1088:.\Generated_Source\PSoC4/QD0.c **** *     - QD0_TRIG_BOTH      - Both rising and falling edge
1089:.\Generated_Source\PSoC4/QD0.c **** *
1090:.\Generated_Source\PSoC4/QD0.c **** * Return:
1091:.\Generated_Source\PSoC4/QD0.c **** *  None
1092:.\Generated_Source\PSoC4/QD0.c **** *
1093:.\Generated_Source\PSoC4/QD0.c **** *******************************************************************************/
1094:.\Generated_Source\PSoC4/QD0.c **** void QD0_SetCaptureMode(uint32 triggerMode)
1095:.\Generated_Source\PSoC4/QD0.c **** {
 894              		.loc 1 1095 0
 895              		.cfi_startproc
 896              	.LVL58:
 897 0000 10B5     		push	{r4, lr}
 898              		.cfi_def_cfa_offset 8
 899              		.cfi_offset 4, -8
 900              		.cfi_offset 14, -4
ARM GAS  C:\Users\LAIR\AppData\Local\Temp\cc4ZtvJP.s 			page 36


 901 0002 041C     		mov	r4, r0
1096:.\Generated_Source\PSoC4/QD0.c ****     uint8 enableInterrupts;
1097:.\Generated_Source\PSoC4/QD0.c **** 
1098:.\Generated_Source\PSoC4/QD0.c ****     enableInterrupts = CyEnterCriticalSection();
 902              		.loc 1 1098 0
 903 0004 FFF7FEFF 		bl	CyEnterCriticalSection
 904              	.LVL59:
1099:.\Generated_Source\PSoC4/QD0.c **** 
1100:.\Generated_Source\PSoC4/QD0.c ****     QD0_TRIG_CONTROL1_REG &= (uint32)~QD0_CAPTURE_MASK;
 905              		.loc 1 1100 0
 906 0008 054B     		ldr	r3, .L77
 907 000a 1A68     		ldr	r2, [r3]
 908 000c 0321     		mov	r1, #3
 909 000e 8A43     		bic	r2, r1
 910 0010 1A60     		str	r2, [r3]
1101:.\Generated_Source\PSoC4/QD0.c ****     QD0_TRIG_CONTROL1_REG |= triggerMode;
 911              		.loc 1 1101 0
 912 0012 1A68     		ldr	r2, [r3]
 913 0014 1443     		orr	r4, r2
 914              	.LVL60:
 915 0016 1C60     		str	r4, [r3]
1102:.\Generated_Source\PSoC4/QD0.c **** 
1103:.\Generated_Source\PSoC4/QD0.c ****     CyExitCriticalSection(enableInterrupts);
 916              		.loc 1 1103 0
 917 0018 FFF7FEFF 		bl	CyExitCriticalSection
 918              	.LVL61:
1104:.\Generated_Source\PSoC4/QD0.c **** }
 919              		.loc 1 1104 0
 920              		@ sp needed
 921 001c 10BD     		pop	{r4, pc}
 922              	.L78:
 923 001e C046     		.align	2
 924              	.L77:
 925 0020 A4012040 		.word	1075839396
 926              		.cfi_endproc
 927              	.LFE29:
 928              		.size	QD0_SetCaptureMode, .-QD0_SetCaptureMode
 929              		.section	.text.QD0_SetReloadMode,"ax",%progbits
 930              		.align	2
 931              		.global	QD0_SetReloadMode
 932              		.code	16
 933              		.thumb_func
 934              		.type	QD0_SetReloadMode, %function
 935              	QD0_SetReloadMode:
 936              	.LFB30:
1105:.\Generated_Source\PSoC4/QD0.c **** 
1106:.\Generated_Source\PSoC4/QD0.c **** 
1107:.\Generated_Source\PSoC4/QD0.c **** /*******************************************************************************
1108:.\Generated_Source\PSoC4/QD0.c **** * Function Name: QD0_SetReloadMode
1109:.\Generated_Source\PSoC4/QD0.c **** ********************************************************************************
1110:.\Generated_Source\PSoC4/QD0.c **** *
1111:.\Generated_Source\PSoC4/QD0.c **** * Summary:
1112:.\Generated_Source\PSoC4/QD0.c **** *  Sets the reload trigger mode. For Quadrature Decoder mode this is the index
1113:.\Generated_Source\PSoC4/QD0.c **** *  input.
1114:.\Generated_Source\PSoC4/QD0.c **** *
1115:.\Generated_Source\PSoC4/QD0.c **** * Parameters:
1116:.\Generated_Source\PSoC4/QD0.c **** *  triggerMode: Enumerated trigger mode value
ARM GAS  C:\Users\LAIR\AppData\Local\Temp\cc4ZtvJP.s 			page 37


1117:.\Generated_Source\PSoC4/QD0.c **** *   Values:
1118:.\Generated_Source\PSoC4/QD0.c **** *     - QD0_TRIG_LEVEL     - Level
1119:.\Generated_Source\PSoC4/QD0.c **** *     - QD0_TRIG_RISING    - Rising edge
1120:.\Generated_Source\PSoC4/QD0.c **** *     - QD0_TRIG_FALLING   - Falling edge
1121:.\Generated_Source\PSoC4/QD0.c **** *     - QD0_TRIG_BOTH      - Both rising and falling edge
1122:.\Generated_Source\PSoC4/QD0.c **** *
1123:.\Generated_Source\PSoC4/QD0.c **** * Return:
1124:.\Generated_Source\PSoC4/QD0.c **** *  None
1125:.\Generated_Source\PSoC4/QD0.c **** *
1126:.\Generated_Source\PSoC4/QD0.c **** *******************************************************************************/
1127:.\Generated_Source\PSoC4/QD0.c **** void QD0_SetReloadMode(uint32 triggerMode)
1128:.\Generated_Source\PSoC4/QD0.c **** {
 937              		.loc 1 1128 0
 938              		.cfi_startproc
 939              	.LVL62:
 940 0000 10B5     		push	{r4, lr}
 941              		.cfi_def_cfa_offset 8
 942              		.cfi_offset 4, -8
 943              		.cfi_offset 14, -4
 944 0002 041C     		mov	r4, r0
1129:.\Generated_Source\PSoC4/QD0.c ****     uint8 enableInterrupts;
1130:.\Generated_Source\PSoC4/QD0.c **** 
1131:.\Generated_Source\PSoC4/QD0.c ****     enableInterrupts = CyEnterCriticalSection();
 945              		.loc 1 1131 0
 946 0004 FFF7FEFF 		bl	CyEnterCriticalSection
 947              	.LVL63:
1132:.\Generated_Source\PSoC4/QD0.c **** 
1133:.\Generated_Source\PSoC4/QD0.c ****     QD0_TRIG_CONTROL1_REG &= (uint32)~QD0_RELOAD_MASK;
 948              		.loc 1 1133 0
 949 0008 054B     		ldr	r3, .L80
 950 000a 1A68     		ldr	r2, [r3]
 951 000c 3021     		mov	r1, #48
 952 000e 8A43     		bic	r2, r1
 953 0010 1A60     		str	r2, [r3]
1134:.\Generated_Source\PSoC4/QD0.c ****     QD0_TRIG_CONTROL1_REG |= ((uint32)(triggerMode << QD0_RELOAD_SHIFT));
 954              		.loc 1 1134 0
 955 0012 1A68     		ldr	r2, [r3]
 956 0014 2401     		lsl	r4, r4, #4
 957              	.LVL64:
 958 0016 1443     		orr	r4, r2
 959 0018 1C60     		str	r4, [r3]
1135:.\Generated_Source\PSoC4/QD0.c **** 
1136:.\Generated_Source\PSoC4/QD0.c ****     CyExitCriticalSection(enableInterrupts);
 960              		.loc 1 1136 0
 961 001a FFF7FEFF 		bl	CyExitCriticalSection
 962              	.LVL65:
1137:.\Generated_Source\PSoC4/QD0.c **** }
 963              		.loc 1 1137 0
 964              		@ sp needed
 965 001e 10BD     		pop	{r4, pc}
 966              	.L81:
 967              		.align	2
 968              	.L80:
 969 0020 A4012040 		.word	1075839396
 970              		.cfi_endproc
 971              	.LFE30:
 972              		.size	QD0_SetReloadMode, .-QD0_SetReloadMode
ARM GAS  C:\Users\LAIR\AppData\Local\Temp\cc4ZtvJP.s 			page 38


 973              		.section	.text.QD0_SetStartMode,"ax",%progbits
 974              		.align	2
 975              		.global	QD0_SetStartMode
 976              		.code	16
 977              		.thumb_func
 978              		.type	QD0_SetStartMode, %function
 979              	QD0_SetStartMode:
 980              	.LFB31:
1138:.\Generated_Source\PSoC4/QD0.c **** 
1139:.\Generated_Source\PSoC4/QD0.c **** 
1140:.\Generated_Source\PSoC4/QD0.c **** /*******************************************************************************
1141:.\Generated_Source\PSoC4/QD0.c **** * Function Name: QD0_SetStartMode
1142:.\Generated_Source\PSoC4/QD0.c **** ********************************************************************************
1143:.\Generated_Source\PSoC4/QD0.c **** *
1144:.\Generated_Source\PSoC4/QD0.c **** * Summary:
1145:.\Generated_Source\PSoC4/QD0.c **** *  Sets the start trigger mode. For Quadrature Decoder mode this is the
1146:.\Generated_Source\PSoC4/QD0.c **** *  phiB input.
1147:.\Generated_Source\PSoC4/QD0.c **** *
1148:.\Generated_Source\PSoC4/QD0.c **** * Parameters:
1149:.\Generated_Source\PSoC4/QD0.c **** *  triggerMode: Enumerated trigger mode value
1150:.\Generated_Source\PSoC4/QD0.c **** *   Values:
1151:.\Generated_Source\PSoC4/QD0.c **** *     - QD0_TRIG_LEVEL     - Level
1152:.\Generated_Source\PSoC4/QD0.c **** *     - QD0_TRIG_RISING    - Rising edge
1153:.\Generated_Source\PSoC4/QD0.c **** *     - QD0_TRIG_FALLING   - Falling edge
1154:.\Generated_Source\PSoC4/QD0.c **** *     - QD0_TRIG_BOTH      - Both rising and falling edge
1155:.\Generated_Source\PSoC4/QD0.c **** *
1156:.\Generated_Source\PSoC4/QD0.c **** * Return:
1157:.\Generated_Source\PSoC4/QD0.c **** *  None
1158:.\Generated_Source\PSoC4/QD0.c **** *
1159:.\Generated_Source\PSoC4/QD0.c **** *******************************************************************************/
1160:.\Generated_Source\PSoC4/QD0.c **** void QD0_SetStartMode(uint32 triggerMode)
1161:.\Generated_Source\PSoC4/QD0.c **** {
 981              		.loc 1 1161 0
 982              		.cfi_startproc
 983              	.LVL66:
 984 0000 10B5     		push	{r4, lr}
 985              		.cfi_def_cfa_offset 8
 986              		.cfi_offset 4, -8
 987              		.cfi_offset 14, -4
 988 0002 041C     		mov	r4, r0
1162:.\Generated_Source\PSoC4/QD0.c ****     uint8 enableInterrupts;
1163:.\Generated_Source\PSoC4/QD0.c **** 
1164:.\Generated_Source\PSoC4/QD0.c ****     enableInterrupts = CyEnterCriticalSection();
 989              		.loc 1 1164 0
 990 0004 FFF7FEFF 		bl	CyEnterCriticalSection
 991              	.LVL67:
1165:.\Generated_Source\PSoC4/QD0.c **** 
1166:.\Generated_Source\PSoC4/QD0.c ****     QD0_TRIG_CONTROL1_REG &= (uint32)~QD0_START_MASK;
 992              		.loc 1 1166 0
 993 0008 054B     		ldr	r3, .L83
 994 000a 1968     		ldr	r1, [r3]
 995 000c 054A     		ldr	r2, .L83+4
 996 000e 0A40     		and	r2, r1
 997 0010 1A60     		str	r2, [r3]
1167:.\Generated_Source\PSoC4/QD0.c ****     QD0_TRIG_CONTROL1_REG |= ((uint32)(triggerMode << QD0_START_SHIFT));
 998              		.loc 1 1167 0
 999 0012 1A68     		ldr	r2, [r3]
ARM GAS  C:\Users\LAIR\AppData\Local\Temp\cc4ZtvJP.s 			page 39


 1000 0014 2402     		lsl	r4, r4, #8
 1001              	.LVL68:
 1002 0016 1443     		orr	r4, r2
 1003 0018 1C60     		str	r4, [r3]
1168:.\Generated_Source\PSoC4/QD0.c **** 
1169:.\Generated_Source\PSoC4/QD0.c ****     CyExitCriticalSection(enableInterrupts);
 1004              		.loc 1 1169 0
 1005 001a FFF7FEFF 		bl	CyExitCriticalSection
 1006              	.LVL69:
1170:.\Generated_Source\PSoC4/QD0.c **** }
 1007              		.loc 1 1170 0
 1008              		@ sp needed
 1009 001e 10BD     		pop	{r4, pc}
 1010              	.L84:
 1011              		.align	2
 1012              	.L83:
 1013 0020 A4012040 		.word	1075839396
 1014 0024 FFFCFFFF 		.word	-769
 1015              		.cfi_endproc
 1016              	.LFE31:
 1017              		.size	QD0_SetStartMode, .-QD0_SetStartMode
 1018              		.section	.text.QD0_SetStopMode,"ax",%progbits
 1019              		.align	2
 1020              		.global	QD0_SetStopMode
 1021              		.code	16
 1022              		.thumb_func
 1023              		.type	QD0_SetStopMode, %function
 1024              	QD0_SetStopMode:
 1025              	.LFB32:
1171:.\Generated_Source\PSoC4/QD0.c **** 
1172:.\Generated_Source\PSoC4/QD0.c **** 
1173:.\Generated_Source\PSoC4/QD0.c **** /*******************************************************************************
1174:.\Generated_Source\PSoC4/QD0.c **** * Function Name: QD0_SetStopMode
1175:.\Generated_Source\PSoC4/QD0.c **** ********************************************************************************
1176:.\Generated_Source\PSoC4/QD0.c **** *
1177:.\Generated_Source\PSoC4/QD0.c **** * Summary:
1178:.\Generated_Source\PSoC4/QD0.c **** *  Sets the stop trigger mode. For PWM mode this is the kill input.
1179:.\Generated_Source\PSoC4/QD0.c **** *
1180:.\Generated_Source\PSoC4/QD0.c **** * Parameters:
1181:.\Generated_Source\PSoC4/QD0.c **** *  triggerMode: Enumerated trigger mode value
1182:.\Generated_Source\PSoC4/QD0.c **** *   Values:
1183:.\Generated_Source\PSoC4/QD0.c **** *     - QD0_TRIG_LEVEL     - Level
1184:.\Generated_Source\PSoC4/QD0.c **** *     - QD0_TRIG_RISING    - Rising edge
1185:.\Generated_Source\PSoC4/QD0.c **** *     - QD0_TRIG_FALLING   - Falling edge
1186:.\Generated_Source\PSoC4/QD0.c **** *     - QD0_TRIG_BOTH      - Both rising and falling edge
1187:.\Generated_Source\PSoC4/QD0.c **** *
1188:.\Generated_Source\PSoC4/QD0.c **** * Return:
1189:.\Generated_Source\PSoC4/QD0.c **** *  None
1190:.\Generated_Source\PSoC4/QD0.c **** *
1191:.\Generated_Source\PSoC4/QD0.c **** *******************************************************************************/
1192:.\Generated_Source\PSoC4/QD0.c **** void QD0_SetStopMode(uint32 triggerMode)
1193:.\Generated_Source\PSoC4/QD0.c **** {
 1026              		.loc 1 1193 0
 1027              		.cfi_startproc
 1028              	.LVL70:
 1029 0000 10B5     		push	{r4, lr}
 1030              		.cfi_def_cfa_offset 8
ARM GAS  C:\Users\LAIR\AppData\Local\Temp\cc4ZtvJP.s 			page 40


 1031              		.cfi_offset 4, -8
 1032              		.cfi_offset 14, -4
 1033 0002 041C     		mov	r4, r0
1194:.\Generated_Source\PSoC4/QD0.c ****     uint8 enableInterrupts;
1195:.\Generated_Source\PSoC4/QD0.c **** 
1196:.\Generated_Source\PSoC4/QD0.c ****     enableInterrupts = CyEnterCriticalSection();
 1034              		.loc 1 1196 0
 1035 0004 FFF7FEFF 		bl	CyEnterCriticalSection
 1036              	.LVL71:
1197:.\Generated_Source\PSoC4/QD0.c **** 
1198:.\Generated_Source\PSoC4/QD0.c ****     QD0_TRIG_CONTROL1_REG &= (uint32)~QD0_STOP_MASK;
 1037              		.loc 1 1198 0
 1038 0008 054B     		ldr	r3, .L86
 1039 000a 1A68     		ldr	r2, [r3]
 1040 000c C021     		mov	r1, #192
 1041 000e 8A43     		bic	r2, r1
 1042 0010 1A60     		str	r2, [r3]
1199:.\Generated_Source\PSoC4/QD0.c ****     QD0_TRIG_CONTROL1_REG |= ((uint32)(triggerMode << QD0_STOP_SHIFT));
 1043              		.loc 1 1199 0
 1044 0012 1A68     		ldr	r2, [r3]
 1045 0014 A401     		lsl	r4, r4, #6
 1046              	.LVL72:
 1047 0016 1443     		orr	r4, r2
 1048 0018 1C60     		str	r4, [r3]
1200:.\Generated_Source\PSoC4/QD0.c **** 
1201:.\Generated_Source\PSoC4/QD0.c ****     CyExitCriticalSection(enableInterrupts);
 1049              		.loc 1 1201 0
 1050 001a FFF7FEFF 		bl	CyExitCriticalSection
 1051              	.LVL73:
1202:.\Generated_Source\PSoC4/QD0.c **** }
 1052              		.loc 1 1202 0
 1053              		@ sp needed
 1054 001e 10BD     		pop	{r4, pc}
 1055              	.L87:
 1056              		.align	2
 1057              	.L86:
 1058 0020 A4012040 		.word	1075839396
 1059              		.cfi_endproc
 1060              	.LFE32:
 1061              		.size	QD0_SetStopMode, .-QD0_SetStopMode
 1062              		.section	.text.QD0_SetCountMode,"ax",%progbits
 1063              		.align	2
 1064              		.global	QD0_SetCountMode
 1065              		.code	16
 1066              		.thumb_func
 1067              		.type	QD0_SetCountMode, %function
 1068              	QD0_SetCountMode:
 1069              	.LFB33:
1203:.\Generated_Source\PSoC4/QD0.c **** 
1204:.\Generated_Source\PSoC4/QD0.c **** 
1205:.\Generated_Source\PSoC4/QD0.c **** /*******************************************************************************
1206:.\Generated_Source\PSoC4/QD0.c **** * Function Name: QD0_SetCountMode
1207:.\Generated_Source\PSoC4/QD0.c **** ********************************************************************************
1208:.\Generated_Source\PSoC4/QD0.c **** *
1209:.\Generated_Source\PSoC4/QD0.c **** * Summary:
1210:.\Generated_Source\PSoC4/QD0.c **** *  Sets the count trigger mode. For Quadrature Decoder mode this is the phiA
1211:.\Generated_Source\PSoC4/QD0.c **** *  input.
ARM GAS  C:\Users\LAIR\AppData\Local\Temp\cc4ZtvJP.s 			page 41


1212:.\Generated_Source\PSoC4/QD0.c **** *
1213:.\Generated_Source\PSoC4/QD0.c **** * Parameters:
1214:.\Generated_Source\PSoC4/QD0.c **** *  triggerMode: Enumerated trigger mode value
1215:.\Generated_Source\PSoC4/QD0.c **** *   Values:
1216:.\Generated_Source\PSoC4/QD0.c **** *     - QD0_TRIG_LEVEL     - Level
1217:.\Generated_Source\PSoC4/QD0.c **** *     - QD0_TRIG_RISING    - Rising edge
1218:.\Generated_Source\PSoC4/QD0.c **** *     - QD0_TRIG_FALLING   - Falling edge
1219:.\Generated_Source\PSoC4/QD0.c **** *     - QD0_TRIG_BOTH      - Both rising and falling edge
1220:.\Generated_Source\PSoC4/QD0.c **** *
1221:.\Generated_Source\PSoC4/QD0.c **** * Return:
1222:.\Generated_Source\PSoC4/QD0.c **** *  None
1223:.\Generated_Source\PSoC4/QD0.c **** *
1224:.\Generated_Source\PSoC4/QD0.c **** *******************************************************************************/
1225:.\Generated_Source\PSoC4/QD0.c **** void QD0_SetCountMode(uint32 triggerMode)
1226:.\Generated_Source\PSoC4/QD0.c **** {
 1070              		.loc 1 1226 0
 1071              		.cfi_startproc
 1072              	.LVL74:
 1073 0000 10B5     		push	{r4, lr}
 1074              		.cfi_def_cfa_offset 8
 1075              		.cfi_offset 4, -8
 1076              		.cfi_offset 14, -4
 1077 0002 041C     		mov	r4, r0
1227:.\Generated_Source\PSoC4/QD0.c ****     uint8 enableInterrupts;
1228:.\Generated_Source\PSoC4/QD0.c **** 
1229:.\Generated_Source\PSoC4/QD0.c ****     enableInterrupts = CyEnterCriticalSection();
 1078              		.loc 1 1229 0
 1079 0004 FFF7FEFF 		bl	CyEnterCriticalSection
 1080              	.LVL75:
1230:.\Generated_Source\PSoC4/QD0.c **** 
1231:.\Generated_Source\PSoC4/QD0.c ****     QD0_TRIG_CONTROL1_REG &= (uint32)~QD0_COUNT_MASK;
 1081              		.loc 1 1231 0
 1082 0008 054B     		ldr	r3, .L89
 1083 000a 1A68     		ldr	r2, [r3]
 1084 000c 0C21     		mov	r1, #12
 1085 000e 8A43     		bic	r2, r1
 1086 0010 1A60     		str	r2, [r3]
1232:.\Generated_Source\PSoC4/QD0.c ****     QD0_TRIG_CONTROL1_REG |= ((uint32)(triggerMode << QD0_COUNT_SHIFT));
 1087              		.loc 1 1232 0
 1088 0012 1A68     		ldr	r2, [r3]
 1089 0014 A400     		lsl	r4, r4, #2
 1090              	.LVL76:
 1091 0016 1443     		orr	r4, r2
 1092 0018 1C60     		str	r4, [r3]
1233:.\Generated_Source\PSoC4/QD0.c **** 
1234:.\Generated_Source\PSoC4/QD0.c ****     CyExitCriticalSection(enableInterrupts);
 1093              		.loc 1 1234 0
 1094 001a FFF7FEFF 		bl	CyExitCriticalSection
 1095              	.LVL77:
1235:.\Generated_Source\PSoC4/QD0.c **** }
 1096              		.loc 1 1235 0
 1097              		@ sp needed
 1098 001e 10BD     		pop	{r4, pc}
 1099              	.L90:
 1100              		.align	2
 1101              	.L89:
 1102 0020 A4012040 		.word	1075839396
ARM GAS  C:\Users\LAIR\AppData\Local\Temp\cc4ZtvJP.s 			page 42


 1103              		.cfi_endproc
 1104              	.LFE33:
 1105              		.size	QD0_SetCountMode, .-QD0_SetCountMode
 1106              		.section	.text.QD0_TriggerCommand,"ax",%progbits
 1107              		.align	2
 1108              		.global	QD0_TriggerCommand
 1109              		.code	16
 1110              		.thumb_func
 1111              		.type	QD0_TriggerCommand, %function
 1112              	QD0_TriggerCommand:
 1113              	.LFB34:
1236:.\Generated_Source\PSoC4/QD0.c **** 
1237:.\Generated_Source\PSoC4/QD0.c **** 
1238:.\Generated_Source\PSoC4/QD0.c **** /*******************************************************************************
1239:.\Generated_Source\PSoC4/QD0.c **** * Function Name: QD0_TriggerCommand
1240:.\Generated_Source\PSoC4/QD0.c **** ********************************************************************************
1241:.\Generated_Source\PSoC4/QD0.c **** *
1242:.\Generated_Source\PSoC4/QD0.c **** * Summary:
1243:.\Generated_Source\PSoC4/QD0.c **** *  Triggers the designated command to occur on the designated TCPWM instances.
1244:.\Generated_Source\PSoC4/QD0.c **** *  The mask can be used to apply this command simultaneously to more than one
1245:.\Generated_Source\PSoC4/QD0.c **** *  instance.  This allows multiple TCPWM instances to be synchronized.
1246:.\Generated_Source\PSoC4/QD0.c **** *
1247:.\Generated_Source\PSoC4/QD0.c **** * Parameters:
1248:.\Generated_Source\PSoC4/QD0.c **** *  mask: A combination of mask bits for each instance of the TCPWM that the
1249:.\Generated_Source\PSoC4/QD0.c **** *        command should apply to.  This function from one instance can be used
1250:.\Generated_Source\PSoC4/QD0.c **** *        to apply the command to any of the instances in the design.
1251:.\Generated_Source\PSoC4/QD0.c **** *        The mask value for a specific instance is available with the MASK
1252:.\Generated_Source\PSoC4/QD0.c **** *        define.
1253:.\Generated_Source\PSoC4/QD0.c **** *  command: Enumerated command values. Capture command only applicable for
1254:.\Generated_Source\PSoC4/QD0.c **** *           Timer/Counter with Capture and PWM modes.
1255:.\Generated_Source\PSoC4/QD0.c **** *   Values:
1256:.\Generated_Source\PSoC4/QD0.c **** *     - QD0_CMD_CAPTURE    - Trigger Capture/Switch command
1257:.\Generated_Source\PSoC4/QD0.c **** *     - QD0_CMD_RELOAD     - Trigger Reload/Index command
1258:.\Generated_Source\PSoC4/QD0.c **** *     - QD0_CMD_STOP       - Trigger Stop/Kill command
1259:.\Generated_Source\PSoC4/QD0.c **** *     - QD0_CMD_START      - Trigger Start/phiB command
1260:.\Generated_Source\PSoC4/QD0.c **** *
1261:.\Generated_Source\PSoC4/QD0.c **** * Return:
1262:.\Generated_Source\PSoC4/QD0.c **** *  None
1263:.\Generated_Source\PSoC4/QD0.c **** *
1264:.\Generated_Source\PSoC4/QD0.c **** *******************************************************************************/
1265:.\Generated_Source\PSoC4/QD0.c **** void QD0_TriggerCommand(uint32 mask, uint32 command)
1266:.\Generated_Source\PSoC4/QD0.c **** {
 1114              		.loc 1 1266 0
 1115              		.cfi_startproc
 1116              	.LVL78:
 1117 0000 38B5     		push	{r3, r4, r5, lr}
 1118              		.cfi_def_cfa_offset 16
 1119              		.cfi_offset 3, -16
 1120              		.cfi_offset 4, -12
 1121              		.cfi_offset 5, -8
 1122              		.cfi_offset 14, -4
 1123 0002 041C     		mov	r4, r0
 1124 0004 0D1C     		mov	r5, r1
1267:.\Generated_Source\PSoC4/QD0.c ****     uint8 enableInterrupts;
1268:.\Generated_Source\PSoC4/QD0.c **** 
1269:.\Generated_Source\PSoC4/QD0.c ****     enableInterrupts = CyEnterCriticalSection();
 1125              		.loc 1 1269 0
ARM GAS  C:\Users\LAIR\AppData\Local\Temp\cc4ZtvJP.s 			page 43


 1126 0006 FFF7FEFF 		bl	CyEnterCriticalSection
 1127              	.LVL79:
1270:.\Generated_Source\PSoC4/QD0.c **** 
1271:.\Generated_Source\PSoC4/QD0.c ****     QD0_COMMAND_REG = ((uint32)(mask << command));
 1128              		.loc 1 1271 0
 1129 000a AC40     		lsl	r4, r4, r5
 1130              	.LVL80:
 1131 000c 024B     		ldr	r3, .L92
 1132 000e 1C60     		str	r4, [r3]
1272:.\Generated_Source\PSoC4/QD0.c **** 
1273:.\Generated_Source\PSoC4/QD0.c ****     CyExitCriticalSection(enableInterrupts);
 1133              		.loc 1 1273 0
 1134 0010 FFF7FEFF 		bl	CyExitCriticalSection
 1135              	.LVL81:
1274:.\Generated_Source\PSoC4/QD0.c **** }
 1136              		.loc 1 1274 0
 1137              		@ sp needed
 1138              	.LVL82:
 1139 0014 38BD     		pop	{r3, r4, r5, pc}
 1140              	.L93:
 1141 0016 C046     		.align	2
 1142              	.L92:
 1143 0018 08002040 		.word	1075838984
 1144              		.cfi_endproc
 1145              	.LFE34:
 1146              		.size	QD0_TriggerCommand, .-QD0_TriggerCommand
 1147              		.section	.text.QD0_Enable,"ax",%progbits
 1148              		.align	2
 1149              		.global	QD0_Enable
 1150              		.code	16
 1151              		.thumb_func
 1152              		.type	QD0_Enable, %function
 1153              	QD0_Enable:
 1154              	.LFB2:
 178:.\Generated_Source\PSoC4/QD0.c ****     uint8 enableInterrupts;
 1155              		.loc 1 178 0
 1156              		.cfi_startproc
 1157 0000 08B5     		push	{r3, lr}
 1158              		.cfi_def_cfa_offset 8
 1159              		.cfi_offset 3, -8
 1160              		.cfi_offset 14, -4
 181:.\Generated_Source\PSoC4/QD0.c ****     QD0_BLOCK_CONTROL_REG |= QD0_MASK;
 1161              		.loc 1 181 0
 1162 0002 FFF7FEFF 		bl	CyEnterCriticalSection
 1163              	.LVL83:
 182:.\Generated_Source\PSoC4/QD0.c ****     CyExitCriticalSection(enableInterrupts);
 1164              		.loc 1 182 0
 1165 0006 064A     		ldr	r2, .L95
 1166 0008 1168     		ldr	r1, [r2]
 1167 000a 0423     		mov	r3, #4
 1168 000c 0B43     		orr	r3, r1
 1169 000e 1360     		str	r3, [r2]
 183:.\Generated_Source\PSoC4/QD0.c **** 
 1170              		.loc 1 183 0
 1171 0010 FFF7FEFF 		bl	CyExitCriticalSection
 1172              	.LVL84:
 200:.\Generated_Source\PSoC4/QD0.c ****         #endif /* (0u != QD0_QUAD_AUTO_START) */
ARM GAS  C:\Users\LAIR\AppData\Local\Temp\cc4ZtvJP.s 			page 44


 1173              		.loc 1 200 0
 1174 0014 0420     		mov	r0, #4
 1175 0016 0821     		mov	r1, #8
 1176 0018 FFF7FEFF 		bl	QD0_TriggerCommand
 1177              	.LVL85:
 203:.\Generated_Source\PSoC4/QD0.c **** 
 1178              		.loc 1 203 0
 1179              		@ sp needed
 1180 001c 08BD     		pop	{r3, pc}
 1181              	.L96:
 1182 001e C046     		.align	2
 1183              	.L95:
 1184 0020 00002040 		.word	1075838976
 1185              		.cfi_endproc
 1186              	.LFE2:
 1187              		.size	QD0_Enable, .-QD0_Enable
 1188              		.section	.text.QD0_ReadStatus,"ax",%progbits
 1189              		.align	2
 1190              		.global	QD0_ReadStatus
 1191              		.code	16
 1192              		.thumb_func
 1193              		.type	QD0_ReadStatus, %function
 1194              	QD0_ReadStatus:
 1195              	.LFB35:
1275:.\Generated_Source\PSoC4/QD0.c **** 
1276:.\Generated_Source\PSoC4/QD0.c **** 
1277:.\Generated_Source\PSoC4/QD0.c **** /*******************************************************************************
1278:.\Generated_Source\PSoC4/QD0.c **** * Function Name: QD0_ReadStatus
1279:.\Generated_Source\PSoC4/QD0.c **** ********************************************************************************
1280:.\Generated_Source\PSoC4/QD0.c **** *
1281:.\Generated_Source\PSoC4/QD0.c **** * Summary:
1282:.\Generated_Source\PSoC4/QD0.c **** *  Reads the status of the QD0.
1283:.\Generated_Source\PSoC4/QD0.c **** *
1284:.\Generated_Source\PSoC4/QD0.c **** * Parameters:
1285:.\Generated_Source\PSoC4/QD0.c **** *  None
1286:.\Generated_Source\PSoC4/QD0.c **** *
1287:.\Generated_Source\PSoC4/QD0.c **** * Return:
1288:.\Generated_Source\PSoC4/QD0.c **** *  Status
1289:.\Generated_Source\PSoC4/QD0.c **** *   Values:
1290:.\Generated_Source\PSoC4/QD0.c **** *     - QD0_STATUS_DOWN    - Set if counting down
1291:.\Generated_Source\PSoC4/QD0.c **** *     - QD0_STATUS_RUNNING - Set if counter is running
1292:.\Generated_Source\PSoC4/QD0.c **** *
1293:.\Generated_Source\PSoC4/QD0.c **** *******************************************************************************/
1294:.\Generated_Source\PSoC4/QD0.c **** uint32 QD0_ReadStatus(void)
1295:.\Generated_Source\PSoC4/QD0.c **** {
 1196              		.loc 1 1295 0
 1197              		.cfi_startproc
1296:.\Generated_Source\PSoC4/QD0.c ****     return ((QD0_STATUS_REG >> QD0_RUNNING_STATUS_SHIFT) |
 1198              		.loc 1 1296 0
 1199 0000 034B     		ldr	r3, .L98
 1200 0002 1868     		ldr	r0, [r3]
 1201 0004 820F     		lsr	r2, r0, #30
1297:.\Generated_Source\PSoC4/QD0.c ****             (QD0_STATUS_REG & QD0_STATUS_DOWN));
 1202              		.loc 1 1297 0
 1203 0006 1B68     		ldr	r3, [r3]
 1204 0008 0120     		mov	r0, #1
 1205 000a 1840     		and	r0, r3
ARM GAS  C:\Users\LAIR\AppData\Local\Temp\cc4ZtvJP.s 			page 45


1296:.\Generated_Source\PSoC4/QD0.c ****     return ((QD0_STATUS_REG >> QD0_RUNNING_STATUS_SHIFT) |
 1206              		.loc 1 1296 0
 1207 000c 1043     		orr	r0, r2
1298:.\Generated_Source\PSoC4/QD0.c **** }
 1208              		.loc 1 1298 0
 1209              		@ sp needed
 1210 000e 7047     		bx	lr
 1211              	.L99:
 1212              		.align	2
 1213              	.L98:
 1214 0010 84012040 		.word	1075839364
 1215              		.cfi_endproc
 1216              	.LFE35:
 1217              		.size	QD0_ReadStatus, .-QD0_ReadStatus
 1218              		.section	.text.QD0_SetInterruptMode,"ax",%progbits
 1219              		.align	2
 1220              		.global	QD0_SetInterruptMode
 1221              		.code	16
 1222              		.thumb_func
 1223              		.type	QD0_SetInterruptMode, %function
 1224              	QD0_SetInterruptMode:
 1225              	.LFB36:
1299:.\Generated_Source\PSoC4/QD0.c **** 
1300:.\Generated_Source\PSoC4/QD0.c **** 
1301:.\Generated_Source\PSoC4/QD0.c **** /*******************************************************************************
1302:.\Generated_Source\PSoC4/QD0.c **** * Function Name: QD0_SetInterruptMode
1303:.\Generated_Source\PSoC4/QD0.c **** ********************************************************************************
1304:.\Generated_Source\PSoC4/QD0.c **** *
1305:.\Generated_Source\PSoC4/QD0.c **** * Summary:
1306:.\Generated_Source\PSoC4/QD0.c **** *  Sets the interrupt mask to control which interrupt
1307:.\Generated_Source\PSoC4/QD0.c **** *  requests generate the interrupt signal.
1308:.\Generated_Source\PSoC4/QD0.c **** *
1309:.\Generated_Source\PSoC4/QD0.c **** * Parameters:
1310:.\Generated_Source\PSoC4/QD0.c **** *   interruptMask: Mask of bits to be enabled
1311:.\Generated_Source\PSoC4/QD0.c **** *   Values:
1312:.\Generated_Source\PSoC4/QD0.c **** *     - QD0_INTR_MASK_TC       - Terminal count mask
1313:.\Generated_Source\PSoC4/QD0.c **** *     - QD0_INTR_MASK_CC_MATCH - Compare count / capture mask
1314:.\Generated_Source\PSoC4/QD0.c **** *
1315:.\Generated_Source\PSoC4/QD0.c **** * Return:
1316:.\Generated_Source\PSoC4/QD0.c **** *  None
1317:.\Generated_Source\PSoC4/QD0.c **** *
1318:.\Generated_Source\PSoC4/QD0.c **** *******************************************************************************/
1319:.\Generated_Source\PSoC4/QD0.c **** void QD0_SetInterruptMode(uint32 interruptMask)
1320:.\Generated_Source\PSoC4/QD0.c **** {
 1226              		.loc 1 1320 0
 1227              		.cfi_startproc
 1228              	.LVL86:
1321:.\Generated_Source\PSoC4/QD0.c ****     QD0_INTERRUPT_MASK_REG =  interruptMask;
 1229              		.loc 1 1321 0
 1230 0000 014B     		ldr	r3, .L101
 1231 0002 1860     		str	r0, [r3]
1322:.\Generated_Source\PSoC4/QD0.c **** }
 1232              		.loc 1 1322 0
 1233              		@ sp needed
 1234 0004 7047     		bx	lr
 1235              	.L102:
 1236 0006 C046     		.align	2
ARM GAS  C:\Users\LAIR\AppData\Local\Temp\cc4ZtvJP.s 			page 46


 1237              	.L101:
 1238 0008 B8012040 		.word	1075839416
 1239              		.cfi_endproc
 1240              	.LFE36:
 1241              		.size	QD0_SetInterruptMode, .-QD0_SetInterruptMode
 1242              		.section	.text.QD0_Init,"ax",%progbits
 1243              		.align	2
 1244              		.global	QD0_Init
 1245              		.code	16
 1246              		.thumb_func
 1247              		.type	QD0_Init, %function
 1248              	QD0_Init:
 1249              	.LFB1:
  39:.\Generated_Source\PSoC4/QD0.c **** 
 1250              		.loc 1 39 0
 1251              		.cfi_startproc
 1252 0000 10B5     		push	{r4, lr}
 1253              		.cfi_def_cfa_offset 8
 1254              		.cfi_offset 4, -8
 1255              		.cfi_offset 14, -4
  43:.\Generated_Source\PSoC4/QD0.c ****         
 1256              		.loc 1 43 0
 1257 0002 C822     		mov	r2, #200
 1258 0004 9204     		lsl	r2, r2, #18
 1259 0006 0B4B     		ldr	r3, .L104
 1260 0008 1A60     		str	r2, [r3]
  46:.\Generated_Source\PSoC4/QD0.c **** 
 1261              		.loc 1 46 0
 1262 000a C322     		mov	r2, #195
 1263 000c 9200     		lsl	r2, r2, #2
 1264 000e 0A4B     		ldr	r3, .L104+4
 1265 0010 1A60     		str	r2, [r3]
  49:.\Generated_Source\PSoC4/QD0.c ****         
 1266              		.loc 1 49 0
 1267 0012 0020     		mov	r0, #0
 1268 0014 FFF7FEFF 		bl	QD0_SetInterruptMode
 1269              	.LVL87:
  52:.\Generated_Source\PSoC4/QD0.c ****         QD0_WritePeriod(QD0_QUAD_PERIOD_INIT_VALUE);
 1270              		.loc 1 52 0
 1271 0018 8020     		mov	r0, #128
 1272 001a 4002     		lsl	r0, r0, #9
 1273 001c FFF7FEFF 		bl	QD0_SetCounterMode
 1274              	.LVL88:
  53:.\Generated_Source\PSoC4/QD0.c ****         QD0_WriteCounter(QD0_QUAD_PERIOD_INIT_VALUE);
 1275              		.loc 1 53 0
 1276 0020 8024     		mov	r4, #128
 1277 0022 2402     		lsl	r4, r4, #8
 1278 0024 201C     		mov	r0, r4
 1279 0026 FFF7FEFF 		bl	QD0_WritePeriod
 1280              	.LVL89:
  54:.\Generated_Source\PSoC4/QD0.c ****     #endif  /* (QD0__QUAD == QD0_CONFIG) */
 1281              		.loc 1 54 0
 1282 002a 201C     		mov	r0, r4
 1283 002c FFF7FEFF 		bl	QD0_WriteCounter
 1284              	.LVL90:
 160:.\Generated_Source\PSoC4/QD0.c **** 
 1285              		.loc 1 160 0
ARM GAS  C:\Users\LAIR\AppData\Local\Temp\cc4ZtvJP.s 			page 47


 1286              		@ sp needed
 1287 0030 10BD     		pop	{r4, pc}
 1288              	.L105:
 1289 0032 C046     		.align	2
 1290              	.L104:
 1291 0034 80012040 		.word	1075839360
 1292 0038 A4012040 		.word	1075839396
 1293              		.cfi_endproc
 1294              	.LFE1:
 1295              		.size	QD0_Init, .-QD0_Init
 1296              		.section	.text.QD0_Start,"ax",%progbits
 1297              		.align	2
 1298              		.global	QD0_Start
 1299              		.code	16
 1300              		.thumb_func
 1301              		.type	QD0_Start, %function
 1302              	QD0_Start:
 1303              	.LFB3:
 231:.\Generated_Source\PSoC4/QD0.c ****     if (0u == QD0_initVar)
 1304              		.loc 1 231 0
 1305              		.cfi_startproc
 1306 0000 08B5     		push	{r3, lr}
 1307              		.cfi_def_cfa_offset 8
 1308              		.cfi_offset 3, -8
 1309              		.cfi_offset 14, -4
 232:.\Generated_Source\PSoC4/QD0.c ****     {
 1310              		.loc 1 232 0
 1311 0002 064B     		ldr	r3, .L108
 1312 0004 1B78     		ldrb	r3, [r3]
 1313 0006 002B     		cmp	r3, #0
 1314 0008 04D1     		bne	.L107
 234:.\Generated_Source\PSoC4/QD0.c ****         QD0_initVar = 1u;
 1315              		.loc 1 234 0
 1316 000a FFF7FEFF 		bl	QD0_Init
 1317              	.LVL91:
 235:.\Generated_Source\PSoC4/QD0.c ****     }
 1318              		.loc 1 235 0
 1319 000e 0122     		mov	r2, #1
 1320 0010 024B     		ldr	r3, .L108
 1321 0012 1A70     		strb	r2, [r3]
 1322              	.L107:
 238:.\Generated_Source\PSoC4/QD0.c **** }
 1323              		.loc 1 238 0
 1324 0014 FFF7FEFF 		bl	QD0_Enable
 1325              	.LVL92:
 239:.\Generated_Source\PSoC4/QD0.c **** 
 1326              		.loc 1 239 0
 1327              		@ sp needed
 1328 0018 08BD     		pop	{r3, pc}
 1329              	.L109:
 1330 001a C046     		.align	2
 1331              	.L108:
 1332 001c 00000000 		.word	.LANCHOR0
 1333              		.cfi_endproc
 1334              	.LFE3:
 1335              		.size	QD0_Start, .-QD0_Start
 1336              		.section	.text.QD0_GetInterruptSourceMasked,"ax",%progbits
ARM GAS  C:\Users\LAIR\AppData\Local\Temp\cc4ZtvJP.s 			page 48


 1337              		.align	2
 1338              		.global	QD0_GetInterruptSourceMasked
 1339              		.code	16
 1340              		.thumb_func
 1341              		.type	QD0_GetInterruptSourceMasked, %function
 1342              	QD0_GetInterruptSourceMasked:
 1343              	.LFB37:
1323:.\Generated_Source\PSoC4/QD0.c **** 
1324:.\Generated_Source\PSoC4/QD0.c **** 
1325:.\Generated_Source\PSoC4/QD0.c **** /*******************************************************************************
1326:.\Generated_Source\PSoC4/QD0.c **** * Function Name: QD0_GetInterruptSourceMasked
1327:.\Generated_Source\PSoC4/QD0.c **** ********************************************************************************
1328:.\Generated_Source\PSoC4/QD0.c **** *
1329:.\Generated_Source\PSoC4/QD0.c **** * Summary:
1330:.\Generated_Source\PSoC4/QD0.c **** *  Gets the interrupt requests masked by the interrupt mask.
1331:.\Generated_Source\PSoC4/QD0.c **** *
1332:.\Generated_Source\PSoC4/QD0.c **** * Parameters:
1333:.\Generated_Source\PSoC4/QD0.c **** *   None
1334:.\Generated_Source\PSoC4/QD0.c **** *
1335:.\Generated_Source\PSoC4/QD0.c **** * Return:
1336:.\Generated_Source\PSoC4/QD0.c **** *  Masked interrupt source
1337:.\Generated_Source\PSoC4/QD0.c **** *   Values:
1338:.\Generated_Source\PSoC4/QD0.c **** *     - QD0_INTR_MASK_TC       - Terminal count mask
1339:.\Generated_Source\PSoC4/QD0.c **** *     - QD0_INTR_MASK_CC_MATCH - Compare count / capture mask
1340:.\Generated_Source\PSoC4/QD0.c **** *
1341:.\Generated_Source\PSoC4/QD0.c **** *******************************************************************************/
1342:.\Generated_Source\PSoC4/QD0.c **** uint32 QD0_GetInterruptSourceMasked(void)
1343:.\Generated_Source\PSoC4/QD0.c **** {
 1344              		.loc 1 1343 0
 1345              		.cfi_startproc
1344:.\Generated_Source\PSoC4/QD0.c ****     return (QD0_INTERRUPT_MASKED_REG);
 1346              		.loc 1 1344 0
 1347 0000 014B     		ldr	r3, .L111
 1348 0002 1868     		ldr	r0, [r3]
1345:.\Generated_Source\PSoC4/QD0.c **** }
 1349              		.loc 1 1345 0
 1350              		@ sp needed
 1351 0004 7047     		bx	lr
 1352              	.L112:
 1353 0006 C046     		.align	2
 1354              	.L111:
 1355 0008 BC012040 		.word	1075839420
 1356              		.cfi_endproc
 1357              	.LFE37:
 1358              		.size	QD0_GetInterruptSourceMasked, .-QD0_GetInterruptSourceMasked
 1359              		.section	.text.QD0_GetInterruptSource,"ax",%progbits
 1360              		.align	2
 1361              		.global	QD0_GetInterruptSource
 1362              		.code	16
 1363              		.thumb_func
 1364              		.type	QD0_GetInterruptSource, %function
 1365              	QD0_GetInterruptSource:
 1366              	.LFB38:
1346:.\Generated_Source\PSoC4/QD0.c **** 
1347:.\Generated_Source\PSoC4/QD0.c **** 
1348:.\Generated_Source\PSoC4/QD0.c **** /*******************************************************************************
1349:.\Generated_Source\PSoC4/QD0.c **** * Function Name: QD0_GetInterruptSource
ARM GAS  C:\Users\LAIR\AppData\Local\Temp\cc4ZtvJP.s 			page 49


1350:.\Generated_Source\PSoC4/QD0.c **** ********************************************************************************
1351:.\Generated_Source\PSoC4/QD0.c **** *
1352:.\Generated_Source\PSoC4/QD0.c **** * Summary:
1353:.\Generated_Source\PSoC4/QD0.c **** *  Gets the interrupt requests (without masking).
1354:.\Generated_Source\PSoC4/QD0.c **** *
1355:.\Generated_Source\PSoC4/QD0.c **** * Parameters:
1356:.\Generated_Source\PSoC4/QD0.c **** *  None
1357:.\Generated_Source\PSoC4/QD0.c **** *
1358:.\Generated_Source\PSoC4/QD0.c **** * Return:
1359:.\Generated_Source\PSoC4/QD0.c **** *  Interrupt request value
1360:.\Generated_Source\PSoC4/QD0.c **** *   Values:
1361:.\Generated_Source\PSoC4/QD0.c **** *     - QD0_INTR_MASK_TC       - Terminal count mask
1362:.\Generated_Source\PSoC4/QD0.c **** *     - QD0_INTR_MASK_CC_MATCH - Compare count / capture mask
1363:.\Generated_Source\PSoC4/QD0.c **** *
1364:.\Generated_Source\PSoC4/QD0.c **** *******************************************************************************/
1365:.\Generated_Source\PSoC4/QD0.c **** uint32 QD0_GetInterruptSource(void)
1366:.\Generated_Source\PSoC4/QD0.c **** {
 1367              		.loc 1 1366 0
 1368              		.cfi_startproc
1367:.\Generated_Source\PSoC4/QD0.c ****     return (QD0_INTERRUPT_REQ_REG);
 1369              		.loc 1 1367 0
 1370 0000 014B     		ldr	r3, .L114
 1371 0002 1868     		ldr	r0, [r3]
1368:.\Generated_Source\PSoC4/QD0.c **** }
 1372              		.loc 1 1368 0
 1373              		@ sp needed
 1374 0004 7047     		bx	lr
 1375              	.L115:
 1376 0006 C046     		.align	2
 1377              	.L114:
 1378 0008 B0012040 		.word	1075839408
 1379              		.cfi_endproc
 1380              	.LFE38:
 1381              		.size	QD0_GetInterruptSource, .-QD0_GetInterruptSource
 1382              		.section	.text.QD0_ClearInterrupt,"ax",%progbits
 1383              		.align	2
 1384              		.global	QD0_ClearInterrupt
 1385              		.code	16
 1386              		.thumb_func
 1387              		.type	QD0_ClearInterrupt, %function
 1388              	QD0_ClearInterrupt:
 1389              	.LFB39:
1369:.\Generated_Source\PSoC4/QD0.c **** 
1370:.\Generated_Source\PSoC4/QD0.c **** 
1371:.\Generated_Source\PSoC4/QD0.c **** /*******************************************************************************
1372:.\Generated_Source\PSoC4/QD0.c **** * Function Name: QD0_ClearInterrupt
1373:.\Generated_Source\PSoC4/QD0.c **** ********************************************************************************
1374:.\Generated_Source\PSoC4/QD0.c **** *
1375:.\Generated_Source\PSoC4/QD0.c **** * Summary:
1376:.\Generated_Source\PSoC4/QD0.c **** *  Clears the interrupt request.
1377:.\Generated_Source\PSoC4/QD0.c **** *
1378:.\Generated_Source\PSoC4/QD0.c **** * Parameters:
1379:.\Generated_Source\PSoC4/QD0.c **** *   interruptMask: Mask of interrupts to clear
1380:.\Generated_Source\PSoC4/QD0.c **** *   Values:
1381:.\Generated_Source\PSoC4/QD0.c **** *     - QD0_INTR_MASK_TC       - Terminal count mask
1382:.\Generated_Source\PSoC4/QD0.c **** *     - QD0_INTR_MASK_CC_MATCH - Compare count / capture mask
1383:.\Generated_Source\PSoC4/QD0.c **** *
ARM GAS  C:\Users\LAIR\AppData\Local\Temp\cc4ZtvJP.s 			page 50


1384:.\Generated_Source\PSoC4/QD0.c **** * Return:
1385:.\Generated_Source\PSoC4/QD0.c **** *  None
1386:.\Generated_Source\PSoC4/QD0.c **** *
1387:.\Generated_Source\PSoC4/QD0.c **** *******************************************************************************/
1388:.\Generated_Source\PSoC4/QD0.c **** void QD0_ClearInterrupt(uint32 interruptMask)
1389:.\Generated_Source\PSoC4/QD0.c **** {
 1390              		.loc 1 1389 0
 1391              		.cfi_startproc
 1392              	.LVL93:
1390:.\Generated_Source\PSoC4/QD0.c ****     QD0_INTERRUPT_REQ_REG = interruptMask;
 1393              		.loc 1 1390 0
 1394 0000 014B     		ldr	r3, .L117
 1395 0002 1860     		str	r0, [r3]
1391:.\Generated_Source\PSoC4/QD0.c **** }
 1396              		.loc 1 1391 0
 1397              		@ sp needed
 1398 0004 7047     		bx	lr
 1399              	.L118:
 1400 0006 C046     		.align	2
 1401              	.L117:
 1402 0008 B0012040 		.word	1075839408
 1403              		.cfi_endproc
 1404              	.LFE39:
 1405              		.size	QD0_ClearInterrupt, .-QD0_ClearInterrupt
 1406              		.section	.text.QD0_SetInterrupt,"ax",%progbits
 1407              		.align	2
 1408              		.global	QD0_SetInterrupt
 1409              		.code	16
 1410              		.thumb_func
 1411              		.type	QD0_SetInterrupt, %function
 1412              	QD0_SetInterrupt:
 1413              	.LFB40:
1392:.\Generated_Source\PSoC4/QD0.c **** 
1393:.\Generated_Source\PSoC4/QD0.c **** 
1394:.\Generated_Source\PSoC4/QD0.c **** /*******************************************************************************
1395:.\Generated_Source\PSoC4/QD0.c **** * Function Name: QD0_SetInterrupt
1396:.\Generated_Source\PSoC4/QD0.c **** ********************************************************************************
1397:.\Generated_Source\PSoC4/QD0.c **** *
1398:.\Generated_Source\PSoC4/QD0.c **** * Summary:
1399:.\Generated_Source\PSoC4/QD0.c **** *  Sets a software interrupt request.
1400:.\Generated_Source\PSoC4/QD0.c **** *
1401:.\Generated_Source\PSoC4/QD0.c **** * Parameters:
1402:.\Generated_Source\PSoC4/QD0.c **** *   interruptMask: Mask of interrupts to set
1403:.\Generated_Source\PSoC4/QD0.c **** *   Values:
1404:.\Generated_Source\PSoC4/QD0.c **** *     - QD0_INTR_MASK_TC       - Terminal count mask
1405:.\Generated_Source\PSoC4/QD0.c **** *     - QD0_INTR_MASK_CC_MATCH - Compare count / capture mask
1406:.\Generated_Source\PSoC4/QD0.c **** *
1407:.\Generated_Source\PSoC4/QD0.c **** * Return:
1408:.\Generated_Source\PSoC4/QD0.c **** *  None
1409:.\Generated_Source\PSoC4/QD0.c **** *
1410:.\Generated_Source\PSoC4/QD0.c **** *******************************************************************************/
1411:.\Generated_Source\PSoC4/QD0.c **** void QD0_SetInterrupt(uint32 interruptMask)
1412:.\Generated_Source\PSoC4/QD0.c **** {
 1414              		.loc 1 1412 0
 1415              		.cfi_startproc
 1416              	.LVL94:
1413:.\Generated_Source\PSoC4/QD0.c ****     QD0_INTERRUPT_SET_REG = interruptMask;
ARM GAS  C:\Users\LAIR\AppData\Local\Temp\cc4ZtvJP.s 			page 51


 1417              		.loc 1 1413 0
 1418 0000 014B     		ldr	r3, .L120
 1419 0002 1860     		str	r0, [r3]
1414:.\Generated_Source\PSoC4/QD0.c **** }
 1420              		.loc 1 1414 0
 1421              		@ sp needed
 1422 0004 7047     		bx	lr
 1423              	.L121:
 1424 0006 C046     		.align	2
 1425              	.L120:
 1426 0008 B4012040 		.word	1075839412
 1427              		.cfi_endproc
 1428              	.LFE40:
 1429              		.size	QD0_SetInterrupt, .-QD0_SetInterrupt
 1430              		.global	QD0_initVar
 1431              		.bss
 1432              		.set	.LANCHOR0,. + 0
 1433              		.type	QD0_initVar, %object
 1434              		.size	QD0_initVar, 1
 1435              	QD0_initVar:
 1436 0000 00       		.space	1
 1437              		.text
 1438              	.Letext0:
 1439              		.file 2 ".\\Generated_Source\\PSoC4\\cytypes.h"
 1440              		.file 3 ".\\Generated_Source\\PSoC4\\CyLib.h"