ARM GAS  C:\Users\LAIR\AppData\Local\Temp\ccHYhSZV.s 			page 1


   1              		.cpu cortex-m0
   2              		.fpu softvfp
   3              		.eabi_attribute 20, 1
   4              		.eabi_attribute 21, 1
   5              		.eabi_attribute 23, 3
   6              		.eabi_attribute 24, 1
   7              		.eabi_attribute 25, 1
   8              		.eabi_attribute 26, 1
   9              		.eabi_attribute 30, 1
  10              		.eabi_attribute 34, 0
  11              		.eabi_attribute 18, 4
  12              		.code	16
  13              		.file	"UART.c"
  14              		.text
  15              	.Ltext0:
  16              		.cfi_sections	.debug_frame
  17              		.section	.text.UART_ScbModePostEnable,"ax",%progbits
  18              		.align	2
  19              		.code	16
  20              		.thumb_func
  21              		.type	UART_ScbModePostEnable, %function
  22              	UART_ScbModePostEnable:
  23              	.LFB8:
  24              		.file 1 ".\\Generated_Source\\PSoC4\\UART.c"
   1:.\Generated_Source\PSoC4/UART.c **** /***************************************************************************//**
   2:.\Generated_Source\PSoC4/UART.c **** * \file UART.c
   3:.\Generated_Source\PSoC4/UART.c **** * \version 3.20
   4:.\Generated_Source\PSoC4/UART.c **** *
   5:.\Generated_Source\PSoC4/UART.c **** * \brief
   6:.\Generated_Source\PSoC4/UART.c **** *  This file provides the source code to the API for the SCB Component.
   7:.\Generated_Source\PSoC4/UART.c **** *
   8:.\Generated_Source\PSoC4/UART.c **** * Note:
   9:.\Generated_Source\PSoC4/UART.c **** *
  10:.\Generated_Source\PSoC4/UART.c **** *******************************************************************************
  11:.\Generated_Source\PSoC4/UART.c **** * \copyright
  12:.\Generated_Source\PSoC4/UART.c **** * Copyright 2013-2016, Cypress Semiconductor Corporation.  All rights reserved.
  13:.\Generated_Source\PSoC4/UART.c **** * You may use this file only in accordance with the license, terms, conditions,
  14:.\Generated_Source\PSoC4/UART.c **** * disclaimers, and limitations in the end user license agreement accompanying
  15:.\Generated_Source\PSoC4/UART.c **** * the software package with which this file was provided.
  16:.\Generated_Source\PSoC4/UART.c **** *******************************************************************************/
  17:.\Generated_Source\PSoC4/UART.c **** 
  18:.\Generated_Source\PSoC4/UART.c **** #include "UART_PVT.h"
  19:.\Generated_Source\PSoC4/UART.c **** 
  20:.\Generated_Source\PSoC4/UART.c **** #if (UART_SCB_MODE_I2C_INC)
  21:.\Generated_Source\PSoC4/UART.c ****     #include "UART_I2C_PVT.h"
  22:.\Generated_Source\PSoC4/UART.c **** #endif /* (UART_SCB_MODE_I2C_INC) */
  23:.\Generated_Source\PSoC4/UART.c **** 
  24:.\Generated_Source\PSoC4/UART.c **** #if (UART_SCB_MODE_EZI2C_INC)
  25:.\Generated_Source\PSoC4/UART.c ****     #include "UART_EZI2C_PVT.h"
  26:.\Generated_Source\PSoC4/UART.c **** #endif /* (UART_SCB_MODE_EZI2C_INC) */
  27:.\Generated_Source\PSoC4/UART.c **** 
  28:.\Generated_Source\PSoC4/UART.c **** #if (UART_SCB_MODE_SPI_INC || UART_SCB_MODE_UART_INC)
  29:.\Generated_Source\PSoC4/UART.c ****     #include "UART_SPI_UART_PVT.h"
  30:.\Generated_Source\PSoC4/UART.c **** #endif /* (UART_SCB_MODE_SPI_INC || UART_SCB_MODE_UART_INC) */
  31:.\Generated_Source\PSoC4/UART.c **** 
  32:.\Generated_Source\PSoC4/UART.c **** 
  33:.\Generated_Source\PSoC4/UART.c **** /***************************************
ARM GAS  C:\Users\LAIR\AppData\Local\Temp\ccHYhSZV.s 			page 2


  34:.\Generated_Source\PSoC4/UART.c **** *    Run Time Configuration Vars
  35:.\Generated_Source\PSoC4/UART.c **** ***************************************/
  36:.\Generated_Source\PSoC4/UART.c **** 
  37:.\Generated_Source\PSoC4/UART.c **** /* Stores internal component configuration for Unconfigured mode */
  38:.\Generated_Source\PSoC4/UART.c **** #if (UART_SCB_MODE_UNCONFIG_CONST_CFG)
  39:.\Generated_Source\PSoC4/UART.c ****     /* Common configuration variables */
  40:.\Generated_Source\PSoC4/UART.c ****     uint8 UART_scbMode = UART_SCB_MODE_UNCONFIG;
  41:.\Generated_Source\PSoC4/UART.c ****     uint8 UART_scbEnableWake;
  42:.\Generated_Source\PSoC4/UART.c ****     uint8 UART_scbEnableIntr;
  43:.\Generated_Source\PSoC4/UART.c **** 
  44:.\Generated_Source\PSoC4/UART.c ****     /* I2C configuration variables */
  45:.\Generated_Source\PSoC4/UART.c ****     uint8 UART_mode;
  46:.\Generated_Source\PSoC4/UART.c ****     uint8 UART_acceptAddr;
  47:.\Generated_Source\PSoC4/UART.c **** 
  48:.\Generated_Source\PSoC4/UART.c ****     /* SPI/UART configuration variables */
  49:.\Generated_Source\PSoC4/UART.c ****     volatile uint8 * UART_rxBuffer;
  50:.\Generated_Source\PSoC4/UART.c ****     uint8  UART_rxDataBits;
  51:.\Generated_Source\PSoC4/UART.c ****     uint32 UART_rxBufferSize;
  52:.\Generated_Source\PSoC4/UART.c **** 
  53:.\Generated_Source\PSoC4/UART.c ****     volatile uint8 * UART_txBuffer;
  54:.\Generated_Source\PSoC4/UART.c ****     uint8  UART_txDataBits;
  55:.\Generated_Source\PSoC4/UART.c ****     uint32 UART_txBufferSize;
  56:.\Generated_Source\PSoC4/UART.c **** 
  57:.\Generated_Source\PSoC4/UART.c ****     /* EZI2C configuration variables */
  58:.\Generated_Source\PSoC4/UART.c ****     uint8 UART_numberOfAddr;
  59:.\Generated_Source\PSoC4/UART.c ****     uint8 UART_subAddrSize;
  60:.\Generated_Source\PSoC4/UART.c **** #endif /* (UART_SCB_MODE_UNCONFIG_CONST_CFG) */
  61:.\Generated_Source\PSoC4/UART.c **** 
  62:.\Generated_Source\PSoC4/UART.c **** 
  63:.\Generated_Source\PSoC4/UART.c **** /***************************************
  64:.\Generated_Source\PSoC4/UART.c **** *     Common SCB Vars
  65:.\Generated_Source\PSoC4/UART.c **** ***************************************/
  66:.\Generated_Source\PSoC4/UART.c **** /**
  67:.\Generated_Source\PSoC4/UART.c **** * \addtogroup group_general
  68:.\Generated_Source\PSoC4/UART.c **** * \{
  69:.\Generated_Source\PSoC4/UART.c **** */
  70:.\Generated_Source\PSoC4/UART.c **** 
  71:.\Generated_Source\PSoC4/UART.c **** /** UART_initVar indicates whether the UART 
  72:.\Generated_Source\PSoC4/UART.c **** *  component has been initialized. The variable is initialized to 0 
  73:.\Generated_Source\PSoC4/UART.c **** *  and set to 1 the first time SCB_Start() is called. This allows 
  74:.\Generated_Source\PSoC4/UART.c **** *  the component to restart without reinitialization after the first 
  75:.\Generated_Source\PSoC4/UART.c **** *  call to the UART_Start() routine.
  76:.\Generated_Source\PSoC4/UART.c **** *
  77:.\Generated_Source\PSoC4/UART.c **** *  If re-initialization of the component is required, then the 
  78:.\Generated_Source\PSoC4/UART.c **** *  UART_Init() function can be called before the 
  79:.\Generated_Source\PSoC4/UART.c **** *  UART_Start() or UART_Enable() function.
  80:.\Generated_Source\PSoC4/UART.c **** */
  81:.\Generated_Source\PSoC4/UART.c **** uint8 UART_initVar = 0u;
  82:.\Generated_Source\PSoC4/UART.c **** 
  83:.\Generated_Source\PSoC4/UART.c **** 
  84:.\Generated_Source\PSoC4/UART.c **** #if (! (UART_SCB_MODE_I2C_CONST_CFG || \
  85:.\Generated_Source\PSoC4/UART.c ****         UART_SCB_MODE_EZI2C_CONST_CFG))
  86:.\Generated_Source\PSoC4/UART.c ****     /** This global variable stores TX interrupt sources after 
  87:.\Generated_Source\PSoC4/UART.c ****     * UART_Stop() is called. Only these TX interrupt sources 
  88:.\Generated_Source\PSoC4/UART.c ****     * will be restored on a subsequent UART_Enable() call.
  89:.\Generated_Source\PSoC4/UART.c ****     */
  90:.\Generated_Source\PSoC4/UART.c ****     uint16 UART_IntrTxMask = 0u;
ARM GAS  C:\Users\LAIR\AppData\Local\Temp\ccHYhSZV.s 			page 3


  91:.\Generated_Source\PSoC4/UART.c **** #endif /* (! (UART_SCB_MODE_I2C_CONST_CFG || \
  92:.\Generated_Source\PSoC4/UART.c ****               UART_SCB_MODE_EZI2C_CONST_CFG)) */
  93:.\Generated_Source\PSoC4/UART.c **** /** \} globals */
  94:.\Generated_Source\PSoC4/UART.c **** 
  95:.\Generated_Source\PSoC4/UART.c **** #if (UART_SCB_IRQ_INTERNAL)
  96:.\Generated_Source\PSoC4/UART.c **** #if !defined (CY_REMOVE_UART_CUSTOM_INTR_HANDLER)
  97:.\Generated_Source\PSoC4/UART.c ****     void (*UART_customIntrHandler)(void) = NULL;
  98:.\Generated_Source\PSoC4/UART.c **** #endif /* !defined (CY_REMOVE_UART_CUSTOM_INTR_HANDLER) */
  99:.\Generated_Source\PSoC4/UART.c **** #endif /* (UART_SCB_IRQ_INTERNAL) */
 100:.\Generated_Source\PSoC4/UART.c **** 
 101:.\Generated_Source\PSoC4/UART.c **** 
 102:.\Generated_Source\PSoC4/UART.c **** /***************************************
 103:.\Generated_Source\PSoC4/UART.c **** *    Private Function Prototypes
 104:.\Generated_Source\PSoC4/UART.c **** ***************************************/
 105:.\Generated_Source\PSoC4/UART.c **** 
 106:.\Generated_Source\PSoC4/UART.c **** static void UART_ScbEnableIntr(void);
 107:.\Generated_Source\PSoC4/UART.c **** static void UART_ScbModeStop(void);
 108:.\Generated_Source\PSoC4/UART.c **** static void UART_ScbModePostEnable(void);
 109:.\Generated_Source\PSoC4/UART.c **** 
 110:.\Generated_Source\PSoC4/UART.c **** 
 111:.\Generated_Source\PSoC4/UART.c **** /*******************************************************************************
 112:.\Generated_Source\PSoC4/UART.c **** * Function Name: UART_Init
 113:.\Generated_Source\PSoC4/UART.c **** ****************************************************************************//**
 114:.\Generated_Source\PSoC4/UART.c **** *
 115:.\Generated_Source\PSoC4/UART.c **** *  Initializes the UART component to operate in one of the selected
 116:.\Generated_Source\PSoC4/UART.c **** *  configurations: I2C, SPI, UART or EZI2C.
 117:.\Generated_Source\PSoC4/UART.c **** *  When the configuration is set to "Unconfigured SCB", this function does
 118:.\Generated_Source\PSoC4/UART.c **** *  not do any initialization. Use mode-specific initialization APIs instead:
 119:.\Generated_Source\PSoC4/UART.c **** *  UART_I2CInit, UART_SpiInit, 
 120:.\Generated_Source\PSoC4/UART.c **** *  UART_UartInit or UART_EzI2CInit.
 121:.\Generated_Source\PSoC4/UART.c **** *
 122:.\Generated_Source\PSoC4/UART.c **** *******************************************************************************/
 123:.\Generated_Source\PSoC4/UART.c **** void UART_Init(void)
 124:.\Generated_Source\PSoC4/UART.c **** {
 125:.\Generated_Source\PSoC4/UART.c **** #if (UART_SCB_MODE_UNCONFIG_CONST_CFG)
 126:.\Generated_Source\PSoC4/UART.c ****     if (UART_SCB_MODE_UNCONFIG_RUNTM_CFG)
 127:.\Generated_Source\PSoC4/UART.c ****     {
 128:.\Generated_Source\PSoC4/UART.c ****         UART_initVar = 0u;
 129:.\Generated_Source\PSoC4/UART.c ****     }
 130:.\Generated_Source\PSoC4/UART.c ****     else
 131:.\Generated_Source\PSoC4/UART.c ****     {
 132:.\Generated_Source\PSoC4/UART.c ****         /* Initialization was done before this function call */
 133:.\Generated_Source\PSoC4/UART.c ****     }
 134:.\Generated_Source\PSoC4/UART.c **** 
 135:.\Generated_Source\PSoC4/UART.c **** #elif (UART_SCB_MODE_I2C_CONST_CFG)
 136:.\Generated_Source\PSoC4/UART.c ****     UART_I2CInit();
 137:.\Generated_Source\PSoC4/UART.c **** 
 138:.\Generated_Source\PSoC4/UART.c **** #elif (UART_SCB_MODE_SPI_CONST_CFG)
 139:.\Generated_Source\PSoC4/UART.c ****     UART_SpiInit();
 140:.\Generated_Source\PSoC4/UART.c **** 
 141:.\Generated_Source\PSoC4/UART.c **** #elif (UART_SCB_MODE_UART_CONST_CFG)
 142:.\Generated_Source\PSoC4/UART.c ****     UART_UartInit();
 143:.\Generated_Source\PSoC4/UART.c **** 
 144:.\Generated_Source\PSoC4/UART.c **** #elif (UART_SCB_MODE_EZI2C_CONST_CFG)
 145:.\Generated_Source\PSoC4/UART.c ****     UART_EzI2CInit();
 146:.\Generated_Source\PSoC4/UART.c **** 
 147:.\Generated_Source\PSoC4/UART.c **** #endif /* (UART_SCB_MODE_UNCONFIG_CONST_CFG) */
ARM GAS  C:\Users\LAIR\AppData\Local\Temp\ccHYhSZV.s 			page 4


 148:.\Generated_Source\PSoC4/UART.c **** }
 149:.\Generated_Source\PSoC4/UART.c **** 
 150:.\Generated_Source\PSoC4/UART.c **** 
 151:.\Generated_Source\PSoC4/UART.c **** /*******************************************************************************
 152:.\Generated_Source\PSoC4/UART.c **** * Function Name: UART_Enable
 153:.\Generated_Source\PSoC4/UART.c **** ****************************************************************************//**
 154:.\Generated_Source\PSoC4/UART.c **** *
 155:.\Generated_Source\PSoC4/UART.c **** *  Enables UART component operation: activates the hardware and 
 156:.\Generated_Source\PSoC4/UART.c **** *  internal interrupt. It also restores TX interrupt sources disabled after the 
 157:.\Generated_Source\PSoC4/UART.c **** *  UART_Stop() function was called (note that level-triggered TX 
 158:.\Generated_Source\PSoC4/UART.c **** *  interrupt sources remain disabled to not cause code lock-up).
 159:.\Generated_Source\PSoC4/UART.c **** *  For I2C and EZI2C modes the interrupt is internal and mandatory for 
 160:.\Generated_Source\PSoC4/UART.c **** *  operation. For SPI and UART modes the interrupt can be configured as none, 
 161:.\Generated_Source\PSoC4/UART.c **** *  internal or external.
 162:.\Generated_Source\PSoC4/UART.c **** *  The UART configuration should be not changed when the component
 163:.\Generated_Source\PSoC4/UART.c **** *  is enabled. Any configuration changes should be made after disabling the 
 164:.\Generated_Source\PSoC4/UART.c **** *  component.
 165:.\Generated_Source\PSoC4/UART.c **** *  When configuration is set to “Unconfigured UART”, the component 
 166:.\Generated_Source\PSoC4/UART.c **** *  must first be initialized to operate in one of the following configurations: 
 167:.\Generated_Source\PSoC4/UART.c **** *  I2C, SPI, UART or EZ I2C, using the mode-specific initialization API. 
 168:.\Generated_Source\PSoC4/UART.c **** *  Otherwise this function does not enable the component.
 169:.\Generated_Source\PSoC4/UART.c **** *
 170:.\Generated_Source\PSoC4/UART.c **** *******************************************************************************/
 171:.\Generated_Source\PSoC4/UART.c **** void UART_Enable(void)
 172:.\Generated_Source\PSoC4/UART.c **** {
 173:.\Generated_Source\PSoC4/UART.c **** #if (UART_SCB_MODE_UNCONFIG_CONST_CFG)
 174:.\Generated_Source\PSoC4/UART.c ****     /* Enable SCB block, only if it is already configured */
 175:.\Generated_Source\PSoC4/UART.c ****     if (!UART_SCB_MODE_UNCONFIG_RUNTM_CFG)
 176:.\Generated_Source\PSoC4/UART.c ****     {
 177:.\Generated_Source\PSoC4/UART.c ****         UART_CTRL_REG |= UART_CTRL_ENABLED;
 178:.\Generated_Source\PSoC4/UART.c **** 
 179:.\Generated_Source\PSoC4/UART.c ****         UART_ScbEnableIntr();
 180:.\Generated_Source\PSoC4/UART.c **** 
 181:.\Generated_Source\PSoC4/UART.c ****         /* Call PostEnable function specific to current operation mode */
 182:.\Generated_Source\PSoC4/UART.c ****         UART_ScbModePostEnable();
 183:.\Generated_Source\PSoC4/UART.c ****     }
 184:.\Generated_Source\PSoC4/UART.c **** #else
 185:.\Generated_Source\PSoC4/UART.c ****     UART_CTRL_REG |= UART_CTRL_ENABLED;
 186:.\Generated_Source\PSoC4/UART.c **** 
 187:.\Generated_Source\PSoC4/UART.c ****     UART_ScbEnableIntr();
 188:.\Generated_Source\PSoC4/UART.c **** 
 189:.\Generated_Source\PSoC4/UART.c ****     /* Call PostEnable function specific to current operation mode */
 190:.\Generated_Source\PSoC4/UART.c ****     UART_ScbModePostEnable();
 191:.\Generated_Source\PSoC4/UART.c **** #endif /* (UART_SCB_MODE_UNCONFIG_CONST_CFG) */
 192:.\Generated_Source\PSoC4/UART.c **** }
 193:.\Generated_Source\PSoC4/UART.c **** 
 194:.\Generated_Source\PSoC4/UART.c **** 
 195:.\Generated_Source\PSoC4/UART.c **** /*******************************************************************************
 196:.\Generated_Source\PSoC4/UART.c **** * Function Name: UART_Start
 197:.\Generated_Source\PSoC4/UART.c **** ****************************************************************************//**
 198:.\Generated_Source\PSoC4/UART.c **** *
 199:.\Generated_Source\PSoC4/UART.c **** *  Invokes UART_Init() and UART_Enable().
 200:.\Generated_Source\PSoC4/UART.c **** *  After this function call, the component is enabled and ready for operation.
 201:.\Generated_Source\PSoC4/UART.c **** *  When configuration is set to "Unconfigured SCB", the component must first be
 202:.\Generated_Source\PSoC4/UART.c **** *  initialized to operate in one of the following configurations: I2C, SPI, UART
 203:.\Generated_Source\PSoC4/UART.c **** *  or EZI2C. Otherwise this function does not enable the component.
 204:.\Generated_Source\PSoC4/UART.c **** *
ARM GAS  C:\Users\LAIR\AppData\Local\Temp\ccHYhSZV.s 			page 5


 205:.\Generated_Source\PSoC4/UART.c **** * \globalvars
 206:.\Generated_Source\PSoC4/UART.c **** *  UART_initVar - used to check initial configuration, modified
 207:.\Generated_Source\PSoC4/UART.c **** *  on first function call.
 208:.\Generated_Source\PSoC4/UART.c **** *
 209:.\Generated_Source\PSoC4/UART.c **** *******************************************************************************/
 210:.\Generated_Source\PSoC4/UART.c **** void UART_Start(void)
 211:.\Generated_Source\PSoC4/UART.c **** {
 212:.\Generated_Source\PSoC4/UART.c ****     if (0u == UART_initVar)
 213:.\Generated_Source\PSoC4/UART.c ****     {
 214:.\Generated_Source\PSoC4/UART.c ****         UART_Init();
 215:.\Generated_Source\PSoC4/UART.c ****         UART_initVar = 1u; /* Component was initialized */
 216:.\Generated_Source\PSoC4/UART.c ****     }
 217:.\Generated_Source\PSoC4/UART.c **** 
 218:.\Generated_Source\PSoC4/UART.c ****     UART_Enable();
 219:.\Generated_Source\PSoC4/UART.c **** }
 220:.\Generated_Source\PSoC4/UART.c **** 
 221:.\Generated_Source\PSoC4/UART.c **** 
 222:.\Generated_Source\PSoC4/UART.c **** /*******************************************************************************
 223:.\Generated_Source\PSoC4/UART.c **** * Function Name: UART_Stop
 224:.\Generated_Source\PSoC4/UART.c **** ****************************************************************************//**
 225:.\Generated_Source\PSoC4/UART.c **** *
 226:.\Generated_Source\PSoC4/UART.c **** *  Disables the UART component: disable the hardware and internal 
 227:.\Generated_Source\PSoC4/UART.c **** *  interrupt. It also disables all TX interrupt sources so as not to cause an 
 228:.\Generated_Source\PSoC4/UART.c **** *  unexpected interrupt trigger because after the component is enabled, the 
 229:.\Generated_Source\PSoC4/UART.c **** *  TX FIFO is empty.
 230:.\Generated_Source\PSoC4/UART.c **** *  Refer to the function UART_Enable() for the interrupt 
 231:.\Generated_Source\PSoC4/UART.c **** *  configuration details.
 232:.\Generated_Source\PSoC4/UART.c **** *  This function disables the SCB component without checking to see if 
 233:.\Generated_Source\PSoC4/UART.c **** *  communication is in progress. Before calling this function it may be 
 234:.\Generated_Source\PSoC4/UART.c **** *  necessary to check the status of communication to make sure communication 
 235:.\Generated_Source\PSoC4/UART.c **** *  is complete. If this is not done then communication could be stopped mid 
 236:.\Generated_Source\PSoC4/UART.c **** *  byte and corrupted data could result.
 237:.\Generated_Source\PSoC4/UART.c **** *
 238:.\Generated_Source\PSoC4/UART.c **** *******************************************************************************/
 239:.\Generated_Source\PSoC4/UART.c **** void UART_Stop(void)
 240:.\Generated_Source\PSoC4/UART.c **** {
 241:.\Generated_Source\PSoC4/UART.c **** #if (UART_SCB_IRQ_INTERNAL)
 242:.\Generated_Source\PSoC4/UART.c ****     UART_DisableInt();
 243:.\Generated_Source\PSoC4/UART.c **** #endif /* (UART_SCB_IRQ_INTERNAL) */
 244:.\Generated_Source\PSoC4/UART.c **** 
 245:.\Generated_Source\PSoC4/UART.c ****     /* Call Stop function specific to current operation mode */
 246:.\Generated_Source\PSoC4/UART.c ****     UART_ScbModeStop();
 247:.\Generated_Source\PSoC4/UART.c **** 
 248:.\Generated_Source\PSoC4/UART.c ****     /* Disable SCB IP */
 249:.\Generated_Source\PSoC4/UART.c ****     UART_CTRL_REG &= (uint32) ~UART_CTRL_ENABLED;
 250:.\Generated_Source\PSoC4/UART.c **** 
 251:.\Generated_Source\PSoC4/UART.c ****     /* Disable all TX interrupt sources so as not to cause an unexpected
 252:.\Generated_Source\PSoC4/UART.c ****     * interrupt trigger after the component will be enabled because the 
 253:.\Generated_Source\PSoC4/UART.c ****     * TX FIFO is empty.
 254:.\Generated_Source\PSoC4/UART.c ****     * For SCB IP v0, it is critical as it does not mask-out interrupt
 255:.\Generated_Source\PSoC4/UART.c ****     * sources when it is disabled. This can cause a code lock-up in the
 256:.\Generated_Source\PSoC4/UART.c ****     * interrupt handler because TX FIFO cannot be loaded after the block
 257:.\Generated_Source\PSoC4/UART.c ****     * is disabled.
 258:.\Generated_Source\PSoC4/UART.c ****     */
 259:.\Generated_Source\PSoC4/UART.c ****     UART_SetTxInterruptMode(UART_NO_INTR_SOURCES);
 260:.\Generated_Source\PSoC4/UART.c **** 
 261:.\Generated_Source\PSoC4/UART.c **** #if (UART_SCB_IRQ_INTERNAL)
ARM GAS  C:\Users\LAIR\AppData\Local\Temp\ccHYhSZV.s 			page 6


 262:.\Generated_Source\PSoC4/UART.c ****     UART_ClearPendingInt();
 263:.\Generated_Source\PSoC4/UART.c **** #endif /* (UART_SCB_IRQ_INTERNAL) */
 264:.\Generated_Source\PSoC4/UART.c **** }
 265:.\Generated_Source\PSoC4/UART.c **** 
 266:.\Generated_Source\PSoC4/UART.c **** 
 267:.\Generated_Source\PSoC4/UART.c **** /*******************************************************************************
 268:.\Generated_Source\PSoC4/UART.c **** * Function Name: UART_SetRxFifoLevel
 269:.\Generated_Source\PSoC4/UART.c **** ****************************************************************************//**
 270:.\Generated_Source\PSoC4/UART.c **** *
 271:.\Generated_Source\PSoC4/UART.c **** *  Sets level in the RX FIFO to generate a RX level interrupt.
 272:.\Generated_Source\PSoC4/UART.c **** *  When the RX FIFO has more entries than the RX FIFO level an RX level
 273:.\Generated_Source\PSoC4/UART.c **** *  interrupt request is generated.
 274:.\Generated_Source\PSoC4/UART.c **** *
 275:.\Generated_Source\PSoC4/UART.c **** *  \param level: Level in the RX FIFO to generate RX level interrupt.
 276:.\Generated_Source\PSoC4/UART.c **** *   The range of valid level values is between 0 and RX FIFO depth - 1.
 277:.\Generated_Source\PSoC4/UART.c **** *
 278:.\Generated_Source\PSoC4/UART.c **** *******************************************************************************/
 279:.\Generated_Source\PSoC4/UART.c **** void UART_SetRxFifoLevel(uint32 level)
 280:.\Generated_Source\PSoC4/UART.c **** {
 281:.\Generated_Source\PSoC4/UART.c ****     uint32 rxFifoCtrl;
 282:.\Generated_Source\PSoC4/UART.c **** 
 283:.\Generated_Source\PSoC4/UART.c ****     rxFifoCtrl = UART_RX_FIFO_CTRL_REG;
 284:.\Generated_Source\PSoC4/UART.c **** 
 285:.\Generated_Source\PSoC4/UART.c ****     rxFifoCtrl &= ((uint32) ~UART_RX_FIFO_CTRL_TRIGGER_LEVEL_MASK); /* Clear level mask bits */
 286:.\Generated_Source\PSoC4/UART.c ****     rxFifoCtrl |= ((uint32) (UART_RX_FIFO_CTRL_TRIGGER_LEVEL_MASK & level));
 287:.\Generated_Source\PSoC4/UART.c **** 
 288:.\Generated_Source\PSoC4/UART.c ****     UART_RX_FIFO_CTRL_REG = rxFifoCtrl;
 289:.\Generated_Source\PSoC4/UART.c **** }
 290:.\Generated_Source\PSoC4/UART.c **** 
 291:.\Generated_Source\PSoC4/UART.c **** 
 292:.\Generated_Source\PSoC4/UART.c **** /*******************************************************************************
 293:.\Generated_Source\PSoC4/UART.c **** * Function Name: UART_SetTxFifoLevel
 294:.\Generated_Source\PSoC4/UART.c **** ****************************************************************************//**
 295:.\Generated_Source\PSoC4/UART.c **** *
 296:.\Generated_Source\PSoC4/UART.c **** *  Sets level in the TX FIFO to generate a TX level interrupt.
 297:.\Generated_Source\PSoC4/UART.c **** *  When the TX FIFO has less entries than the TX FIFO level an TX level
 298:.\Generated_Source\PSoC4/UART.c **** *  interrupt request is generated.
 299:.\Generated_Source\PSoC4/UART.c **** *
 300:.\Generated_Source\PSoC4/UART.c **** *  \param level: Level in the TX FIFO to generate TX level interrupt.
 301:.\Generated_Source\PSoC4/UART.c **** *   The range of valid level values is between 0 and TX FIFO depth - 1.
 302:.\Generated_Source\PSoC4/UART.c **** *
 303:.\Generated_Source\PSoC4/UART.c **** *******************************************************************************/
 304:.\Generated_Source\PSoC4/UART.c **** void UART_SetTxFifoLevel(uint32 level)
 305:.\Generated_Source\PSoC4/UART.c **** {
 306:.\Generated_Source\PSoC4/UART.c ****     uint32 txFifoCtrl;
 307:.\Generated_Source\PSoC4/UART.c **** 
 308:.\Generated_Source\PSoC4/UART.c ****     txFifoCtrl = UART_TX_FIFO_CTRL_REG;
 309:.\Generated_Source\PSoC4/UART.c **** 
 310:.\Generated_Source\PSoC4/UART.c ****     txFifoCtrl &= ((uint32) ~UART_TX_FIFO_CTRL_TRIGGER_LEVEL_MASK); /* Clear level mask bits */
 311:.\Generated_Source\PSoC4/UART.c ****     txFifoCtrl |= ((uint32) (UART_TX_FIFO_CTRL_TRIGGER_LEVEL_MASK & level));
 312:.\Generated_Source\PSoC4/UART.c **** 
 313:.\Generated_Source\PSoC4/UART.c ****     UART_TX_FIFO_CTRL_REG = txFifoCtrl;
 314:.\Generated_Source\PSoC4/UART.c **** }
 315:.\Generated_Source\PSoC4/UART.c **** 
 316:.\Generated_Source\PSoC4/UART.c **** 
 317:.\Generated_Source\PSoC4/UART.c **** #if (UART_SCB_IRQ_INTERNAL)
 318:.\Generated_Source\PSoC4/UART.c ****     /*******************************************************************************
ARM GAS  C:\Users\LAIR\AppData\Local\Temp\ccHYhSZV.s 			page 7


 319:.\Generated_Source\PSoC4/UART.c ****     * Function Name: UART_SetCustomInterruptHandler
 320:.\Generated_Source\PSoC4/UART.c ****     ****************************************************************************//**
 321:.\Generated_Source\PSoC4/UART.c ****     *
 322:.\Generated_Source\PSoC4/UART.c ****     *  Registers a function to be called by the internal interrupt handler.
 323:.\Generated_Source\PSoC4/UART.c ****     *  First the function that is registered is called, then the internal interrupt
 324:.\Generated_Source\PSoC4/UART.c ****     *  handler performs any operation such as software buffer management functions
 325:.\Generated_Source\PSoC4/UART.c ****     *  before the interrupt returns.  It is the user's responsibility not to break
 326:.\Generated_Source\PSoC4/UART.c ****     *  the software buffer operations. Only one custom handler is supported, which
 327:.\Generated_Source\PSoC4/UART.c ****     *  is the function provided by the most recent call.
 328:.\Generated_Source\PSoC4/UART.c ****     *  At the initialization time no custom handler is registered.
 329:.\Generated_Source\PSoC4/UART.c ****     *
 330:.\Generated_Source\PSoC4/UART.c ****     *  \param func: Pointer to the function to register.
 331:.\Generated_Source\PSoC4/UART.c ****     *        The value NULL indicates to remove the current custom interrupt
 332:.\Generated_Source\PSoC4/UART.c ****     *        handler.
 333:.\Generated_Source\PSoC4/UART.c ****     *
 334:.\Generated_Source\PSoC4/UART.c ****     *******************************************************************************/
 335:.\Generated_Source\PSoC4/UART.c ****     void UART_SetCustomInterruptHandler(void (*func)(void))
 336:.\Generated_Source\PSoC4/UART.c ****     {
 337:.\Generated_Source\PSoC4/UART.c ****     #if !defined (CY_REMOVE_UART_CUSTOM_INTR_HANDLER)
 338:.\Generated_Source\PSoC4/UART.c ****         UART_customIntrHandler = func; /* Register interrupt handler */
 339:.\Generated_Source\PSoC4/UART.c ****     #else
 340:.\Generated_Source\PSoC4/UART.c ****         if (NULL != func)
 341:.\Generated_Source\PSoC4/UART.c ****         {
 342:.\Generated_Source\PSoC4/UART.c ****             /* Suppress compiler warning */
 343:.\Generated_Source\PSoC4/UART.c ****         }
 344:.\Generated_Source\PSoC4/UART.c ****     #endif /* !defined (CY_REMOVE_UART_CUSTOM_INTR_HANDLER) */
 345:.\Generated_Source\PSoC4/UART.c ****     }
 346:.\Generated_Source\PSoC4/UART.c **** #endif /* (UART_SCB_IRQ_INTERNAL) */
 347:.\Generated_Source\PSoC4/UART.c **** 
 348:.\Generated_Source\PSoC4/UART.c **** 
 349:.\Generated_Source\PSoC4/UART.c **** /*******************************************************************************
 350:.\Generated_Source\PSoC4/UART.c **** * Function Name: UART_ScbModeEnableIntr
 351:.\Generated_Source\PSoC4/UART.c **** ****************************************************************************//**
 352:.\Generated_Source\PSoC4/UART.c **** *
 353:.\Generated_Source\PSoC4/UART.c **** *  Enables an interrupt for a specific mode.
 354:.\Generated_Source\PSoC4/UART.c **** *
 355:.\Generated_Source\PSoC4/UART.c **** *******************************************************************************/
 356:.\Generated_Source\PSoC4/UART.c **** static void UART_ScbEnableIntr(void)
 357:.\Generated_Source\PSoC4/UART.c **** {
 358:.\Generated_Source\PSoC4/UART.c **** #if (UART_SCB_IRQ_INTERNAL)
 359:.\Generated_Source\PSoC4/UART.c ****     /* Enable interrupt in NVIC */
 360:.\Generated_Source\PSoC4/UART.c ****     #if (UART_SCB_MODE_UNCONFIG_CONST_CFG)
 361:.\Generated_Source\PSoC4/UART.c ****         if (0u != UART_scbEnableIntr)
 362:.\Generated_Source\PSoC4/UART.c ****         {
 363:.\Generated_Source\PSoC4/UART.c ****             UART_EnableInt();
 364:.\Generated_Source\PSoC4/UART.c ****         }
 365:.\Generated_Source\PSoC4/UART.c **** 
 366:.\Generated_Source\PSoC4/UART.c ****     #else
 367:.\Generated_Source\PSoC4/UART.c ****         UART_EnableInt();
 368:.\Generated_Source\PSoC4/UART.c **** 
 369:.\Generated_Source\PSoC4/UART.c ****     #endif /* (UART_SCB_MODE_UNCONFIG_CONST_CFG) */
 370:.\Generated_Source\PSoC4/UART.c **** #endif /* (UART_SCB_IRQ_INTERNAL) */
 371:.\Generated_Source\PSoC4/UART.c **** }
 372:.\Generated_Source\PSoC4/UART.c **** 
 373:.\Generated_Source\PSoC4/UART.c **** 
 374:.\Generated_Source\PSoC4/UART.c **** /*******************************************************************************
 375:.\Generated_Source\PSoC4/UART.c **** * Function Name: UART_ScbModePostEnable
ARM GAS  C:\Users\LAIR\AppData\Local\Temp\ccHYhSZV.s 			page 8


 376:.\Generated_Source\PSoC4/UART.c **** ****************************************************************************//**
 377:.\Generated_Source\PSoC4/UART.c **** *
 378:.\Generated_Source\PSoC4/UART.c **** *  Calls the PostEnable function for a specific operation mode.
 379:.\Generated_Source\PSoC4/UART.c **** *
 380:.\Generated_Source\PSoC4/UART.c **** *******************************************************************************/
 381:.\Generated_Source\PSoC4/UART.c **** static void UART_ScbModePostEnable(void)
 382:.\Generated_Source\PSoC4/UART.c **** {
  25              		.loc 1 382 0
  26              		.cfi_startproc
  27 0000 08B5     		push	{r3, lr}
  28              		.cfi_def_cfa_offset 8
  29              		.cfi_offset 3, -8
  30              		.cfi_offset 14, -4
 383:.\Generated_Source\PSoC4/UART.c **** #if (UART_SCB_MODE_UNCONFIG_CONST_CFG)
 384:.\Generated_Source\PSoC4/UART.c **** #if (!UART_CY_SCBIP_V1)
 385:.\Generated_Source\PSoC4/UART.c ****     if (UART_SCB_MODE_SPI_RUNTM_CFG)
 386:.\Generated_Source\PSoC4/UART.c ****     {
 387:.\Generated_Source\PSoC4/UART.c ****         UART_SpiPostEnable();
 388:.\Generated_Source\PSoC4/UART.c ****     }
 389:.\Generated_Source\PSoC4/UART.c ****     else if (UART_SCB_MODE_UART_RUNTM_CFG)
 390:.\Generated_Source\PSoC4/UART.c ****     {
 391:.\Generated_Source\PSoC4/UART.c ****         UART_UartPostEnable();
 392:.\Generated_Source\PSoC4/UART.c ****     }
 393:.\Generated_Source\PSoC4/UART.c ****     else
 394:.\Generated_Source\PSoC4/UART.c ****     {
 395:.\Generated_Source\PSoC4/UART.c ****         /* Unknown mode: do nothing */
 396:.\Generated_Source\PSoC4/UART.c ****     }
 397:.\Generated_Source\PSoC4/UART.c **** #endif /* (!UART_CY_SCBIP_V1) */
 398:.\Generated_Source\PSoC4/UART.c **** 
 399:.\Generated_Source\PSoC4/UART.c **** #elif (UART_SCB_MODE_SPI_CONST_CFG)
 400:.\Generated_Source\PSoC4/UART.c ****     UART_SpiPostEnable();
 401:.\Generated_Source\PSoC4/UART.c **** 
 402:.\Generated_Source\PSoC4/UART.c **** #elif (UART_SCB_MODE_UART_CONST_CFG)
 403:.\Generated_Source\PSoC4/UART.c ****     UART_UartPostEnable();
  31              		.loc 1 403 0
  32 0002 FFF7FEFF 		bl	UART_UartPostEnable
  33              	.LVL0:
 404:.\Generated_Source\PSoC4/UART.c **** 
 405:.\Generated_Source\PSoC4/UART.c **** #else
 406:.\Generated_Source\PSoC4/UART.c ****     /* Unknown mode: do nothing */
 407:.\Generated_Source\PSoC4/UART.c **** #endif /* (UART_SCB_MODE_UNCONFIG_CONST_CFG) */
 408:.\Generated_Source\PSoC4/UART.c **** }
  34              		.loc 1 408 0
  35              		@ sp needed
  36 0006 08BD     		pop	{r3, pc}
  37              		.cfi_endproc
  38              	.LFE8:
  39              		.size	UART_ScbModePostEnable, .-UART_ScbModePostEnable
  40              		.section	.text.UART_ScbModeStop,"ax",%progbits
  41              		.align	2
  42              		.code	16
  43              		.thumb_func
  44              		.type	UART_ScbModeStop, %function
  45              	UART_ScbModeStop:
  46              	.LFB9:
 409:.\Generated_Source\PSoC4/UART.c **** 
 410:.\Generated_Source\PSoC4/UART.c **** 
ARM GAS  C:\Users\LAIR\AppData\Local\Temp\ccHYhSZV.s 			page 9


 411:.\Generated_Source\PSoC4/UART.c **** /*******************************************************************************
 412:.\Generated_Source\PSoC4/UART.c **** * Function Name: UART_ScbModeStop
 413:.\Generated_Source\PSoC4/UART.c **** ****************************************************************************//**
 414:.\Generated_Source\PSoC4/UART.c **** *
 415:.\Generated_Source\PSoC4/UART.c **** *  Calls the Stop function for a specific operation mode.
 416:.\Generated_Source\PSoC4/UART.c **** *
 417:.\Generated_Source\PSoC4/UART.c **** *******************************************************************************/
 418:.\Generated_Source\PSoC4/UART.c **** static void UART_ScbModeStop(void)
 419:.\Generated_Source\PSoC4/UART.c **** {
  47              		.loc 1 419 0
  48              		.cfi_startproc
  49 0000 08B5     		push	{r3, lr}
  50              		.cfi_def_cfa_offset 8
  51              		.cfi_offset 3, -8
  52              		.cfi_offset 14, -4
 420:.\Generated_Source\PSoC4/UART.c **** #if (UART_SCB_MODE_UNCONFIG_CONST_CFG)
 421:.\Generated_Source\PSoC4/UART.c ****     if (UART_SCB_MODE_I2C_RUNTM_CFG)
 422:.\Generated_Source\PSoC4/UART.c ****     {
 423:.\Generated_Source\PSoC4/UART.c ****         UART_I2CStop();
 424:.\Generated_Source\PSoC4/UART.c ****     }
 425:.\Generated_Source\PSoC4/UART.c ****     else if (UART_SCB_MODE_EZI2C_RUNTM_CFG)
 426:.\Generated_Source\PSoC4/UART.c ****     {
 427:.\Generated_Source\PSoC4/UART.c ****         UART_EzI2CStop();
 428:.\Generated_Source\PSoC4/UART.c ****     }
 429:.\Generated_Source\PSoC4/UART.c **** #if (!UART_CY_SCBIP_V1)
 430:.\Generated_Source\PSoC4/UART.c ****     else if (UART_SCB_MODE_SPI_RUNTM_CFG)
 431:.\Generated_Source\PSoC4/UART.c ****     {
 432:.\Generated_Source\PSoC4/UART.c ****         UART_SpiStop();
 433:.\Generated_Source\PSoC4/UART.c ****     }
 434:.\Generated_Source\PSoC4/UART.c ****     else if (UART_SCB_MODE_UART_RUNTM_CFG)
 435:.\Generated_Source\PSoC4/UART.c ****     {
 436:.\Generated_Source\PSoC4/UART.c ****         UART_UartStop();
 437:.\Generated_Source\PSoC4/UART.c ****     }
 438:.\Generated_Source\PSoC4/UART.c **** #endif /* (!UART_CY_SCBIP_V1) */
 439:.\Generated_Source\PSoC4/UART.c ****     else
 440:.\Generated_Source\PSoC4/UART.c ****     {
 441:.\Generated_Source\PSoC4/UART.c ****         /* Unknown mode: do nothing */
 442:.\Generated_Source\PSoC4/UART.c ****     }
 443:.\Generated_Source\PSoC4/UART.c **** #elif (UART_SCB_MODE_I2C_CONST_CFG)
 444:.\Generated_Source\PSoC4/UART.c ****     UART_I2CStop();
 445:.\Generated_Source\PSoC4/UART.c **** 
 446:.\Generated_Source\PSoC4/UART.c **** #elif (UART_SCB_MODE_EZI2C_CONST_CFG)
 447:.\Generated_Source\PSoC4/UART.c ****     UART_EzI2CStop();
 448:.\Generated_Source\PSoC4/UART.c **** 
 449:.\Generated_Source\PSoC4/UART.c **** #elif (UART_SCB_MODE_SPI_CONST_CFG)
 450:.\Generated_Source\PSoC4/UART.c ****     UART_SpiStop();
 451:.\Generated_Source\PSoC4/UART.c **** 
 452:.\Generated_Source\PSoC4/UART.c **** #elif (UART_SCB_MODE_UART_CONST_CFG)
 453:.\Generated_Source\PSoC4/UART.c ****     UART_UartStop();
  53              		.loc 1 453 0
  54 0002 FFF7FEFF 		bl	UART_UartStop
  55              	.LVL1:
 454:.\Generated_Source\PSoC4/UART.c **** 
 455:.\Generated_Source\PSoC4/UART.c **** #else
 456:.\Generated_Source\PSoC4/UART.c ****     /* Unknown mode: do nothing */
 457:.\Generated_Source\PSoC4/UART.c **** #endif /* (UART_SCB_MODE_UNCONFIG_CONST_CFG) */
 458:.\Generated_Source\PSoC4/UART.c **** }
ARM GAS  C:\Users\LAIR\AppData\Local\Temp\ccHYhSZV.s 			page 10


  56              		.loc 1 458 0
  57              		@ sp needed
  58 0006 08BD     		pop	{r3, pc}
  59              		.cfi_endproc
  60              	.LFE9:
  61              		.size	UART_ScbModeStop, .-UART_ScbModeStop
  62              		.section	.text.UART_Init,"ax",%progbits
  63              		.align	2
  64              		.global	UART_Init
  65              		.code	16
  66              		.thumb_func
  67              		.type	UART_Init, %function
  68              	UART_Init:
  69              	.LFB1:
 124:.\Generated_Source\PSoC4/UART.c **** #if (UART_SCB_MODE_UNCONFIG_CONST_CFG)
  70              		.loc 1 124 0
  71              		.cfi_startproc
  72 0000 08B5     		push	{r3, lr}
  73              		.cfi_def_cfa_offset 8
  74              		.cfi_offset 3, -8
  75              		.cfi_offset 14, -4
 142:.\Generated_Source\PSoC4/UART.c **** 
  76              		.loc 1 142 0
  77 0002 FFF7FEFF 		bl	UART_UartInit
  78              	.LVL2:
 148:.\Generated_Source\PSoC4/UART.c **** 
  79              		.loc 1 148 0
  80              		@ sp needed
  81 0006 08BD     		pop	{r3, pc}
  82              		.cfi_endproc
  83              	.LFE1:
  84              		.size	UART_Init, .-UART_Init
  85              		.section	.text.UART_Enable,"ax",%progbits
  86              		.align	2
  87              		.global	UART_Enable
  88              		.code	16
  89              		.thumb_func
  90              		.type	UART_Enable, %function
  91              	UART_Enable:
  92              	.LFB2:
 172:.\Generated_Source\PSoC4/UART.c **** #if (UART_SCB_MODE_UNCONFIG_CONST_CFG)
  93              		.loc 1 172 0
  94              		.cfi_startproc
  95 0000 08B5     		push	{r3, lr}
  96              		.cfi_def_cfa_offset 8
  97              		.cfi_offset 3, -8
  98              		.cfi_offset 14, -4
 185:.\Generated_Source\PSoC4/UART.c **** 
  99              		.loc 1 185 0
 100 0002 044A     		ldr	r2, .L5
 101 0004 1368     		ldr	r3, [r2]
 102 0006 8021     		mov	r1, #128
 103 0008 0906     		lsl	r1, r1, #24
 104 000a 0B43     		orr	r3, r1
 105 000c 1360     		str	r3, [r2]
 190:.\Generated_Source\PSoC4/UART.c **** #endif /* (UART_SCB_MODE_UNCONFIG_CONST_CFG) */
 106              		.loc 1 190 0
ARM GAS  C:\Users\LAIR\AppData\Local\Temp\ccHYhSZV.s 			page 11


 107 000e FFF7FEFF 		bl	UART_ScbModePostEnable
 108              	.LVL3:
 192:.\Generated_Source\PSoC4/UART.c **** 
 109              		.loc 1 192 0
 110              		@ sp needed
 111 0012 08BD     		pop	{r3, pc}
 112              	.L6:
 113              		.align	2
 114              	.L5:
 115 0014 00002440 		.word	1076101120
 116              		.cfi_endproc
 117              	.LFE2:
 118              		.size	UART_Enable, .-UART_Enable
 119              		.section	.text.UART_Start,"ax",%progbits
 120              		.align	2
 121              		.global	UART_Start
 122              		.code	16
 123              		.thumb_func
 124              		.type	UART_Start, %function
 125              	UART_Start:
 126              	.LFB3:
 211:.\Generated_Source\PSoC4/UART.c ****     if (0u == UART_initVar)
 127              		.loc 1 211 0
 128              		.cfi_startproc
 129 0000 08B5     		push	{r3, lr}
 130              		.cfi_def_cfa_offset 8
 131              		.cfi_offset 3, -8
 132              		.cfi_offset 14, -4
 212:.\Generated_Source\PSoC4/UART.c ****     {
 133              		.loc 1 212 0
 134 0002 064B     		ldr	r3, .L9
 135 0004 1B78     		ldrb	r3, [r3]
 136 0006 002B     		cmp	r3, #0
 137 0008 04D1     		bne	.L8
 214:.\Generated_Source\PSoC4/UART.c ****         UART_initVar = 1u; /* Component was initialized */
 138              		.loc 1 214 0
 139 000a FFF7FEFF 		bl	UART_Init
 140              	.LVL4:
 215:.\Generated_Source\PSoC4/UART.c ****     }
 141              		.loc 1 215 0
 142 000e 0122     		mov	r2, #1
 143 0010 024B     		ldr	r3, .L9
 144 0012 1A70     		strb	r2, [r3]
 145              	.L8:
 218:.\Generated_Source\PSoC4/UART.c **** }
 146              		.loc 1 218 0
 147 0014 FFF7FEFF 		bl	UART_Enable
 148              	.LVL5:
 219:.\Generated_Source\PSoC4/UART.c **** 
 149              		.loc 1 219 0
 150              		@ sp needed
 151 0018 08BD     		pop	{r3, pc}
 152              	.L10:
 153 001a C046     		.align	2
 154              	.L9:
 155 001c 00000000 		.word	.LANCHOR0
 156              		.cfi_endproc
ARM GAS  C:\Users\LAIR\AppData\Local\Temp\ccHYhSZV.s 			page 12


 157              	.LFE3:
 158              		.size	UART_Start, .-UART_Start
 159              		.section	.text.UART_Stop,"ax",%progbits
 160              		.align	2
 161              		.global	UART_Stop
 162              		.code	16
 163              		.thumb_func
 164              		.type	UART_Stop, %function
 165              	UART_Stop:
 166              	.LFB4:
 240:.\Generated_Source\PSoC4/UART.c **** #if (UART_SCB_IRQ_INTERNAL)
 167              		.loc 1 240 0
 168              		.cfi_startproc
 169 0000 08B5     		push	{r3, lr}
 170              		.cfi_def_cfa_offset 8
 171              		.cfi_offset 3, -8
 172              		.cfi_offset 14, -4
 246:.\Generated_Source\PSoC4/UART.c **** 
 173              		.loc 1 246 0
 174 0002 FFF7FEFF 		bl	UART_ScbModeStop
 175              	.LVL6:
 249:.\Generated_Source\PSoC4/UART.c **** 
 176              		.loc 1 249 0
 177 0006 044A     		ldr	r2, .L12
 178 0008 1368     		ldr	r3, [r2]
 179 000a 5B00     		lsl	r3, r3, #1
 180 000c 5B08     		lsr	r3, r3, #1
 181 000e 1360     		str	r3, [r2]
 259:.\Generated_Source\PSoC4/UART.c **** 
 182              		.loc 1 259 0
 183 0010 0022     		mov	r2, #0
 184 0012 024B     		ldr	r3, .L12+4
 185 0014 1A60     		str	r2, [r3]
 264:.\Generated_Source\PSoC4/UART.c **** 
 186              		.loc 1 264 0
 187              		@ sp needed
 188 0016 08BD     		pop	{r3, pc}
 189              	.L13:
 190              		.align	2
 191              	.L12:
 192 0018 00002440 		.word	1076101120
 193 001c 880F2440 		.word	1076105096
 194              		.cfi_endproc
 195              	.LFE4:
 196              		.size	UART_Stop, .-UART_Stop
 197              		.section	.text.UART_SetRxFifoLevel,"ax",%progbits
 198              		.align	2
 199              		.global	UART_SetRxFifoLevel
 200              		.code	16
 201              		.thumb_func
 202              		.type	UART_SetRxFifoLevel, %function
 203              	UART_SetRxFifoLevel:
 204              	.LFB5:
 280:.\Generated_Source\PSoC4/UART.c ****     uint32 rxFifoCtrl;
 205              		.loc 1 280 0
 206              		.cfi_startproc
 207              	.LVL7:
ARM GAS  C:\Users\LAIR\AppData\Local\Temp\ccHYhSZV.s 			page 13


 283:.\Generated_Source\PSoC4/UART.c **** 
 208              		.loc 1 283 0
 209 0000 034A     		ldr	r2, .L15
 210 0002 1368     		ldr	r3, [r2]
 211              	.LVL8:
 285:.\Generated_Source\PSoC4/UART.c ****     rxFifoCtrl |= ((uint32) (UART_RX_FIFO_CTRL_TRIGGER_LEVEL_MASK & level));
 212              		.loc 1 285 0
 213 0004 0F21     		mov	r1, #15
 214 0006 8B43     		bic	r3, r1
 215              	.LVL9:
 286:.\Generated_Source\PSoC4/UART.c **** 
 216              		.loc 1 286 0
 217 0008 0840     		and	r0, r1
 218              	.LVL10:
 219 000a 1843     		orr	r0, r3
 220              	.LVL11:
 288:.\Generated_Source\PSoC4/UART.c **** }
 221              		.loc 1 288 0
 222 000c 1060     		str	r0, [r2]
 289:.\Generated_Source\PSoC4/UART.c **** 
 223              		.loc 1 289 0
 224              		@ sp needed
 225 000e 7047     		bx	lr
 226              	.L16:
 227              		.align	2
 228              	.L15:
 229 0010 04032440 		.word	1076101892
 230              		.cfi_endproc
 231              	.LFE5:
 232              		.size	UART_SetRxFifoLevel, .-UART_SetRxFifoLevel
 233              		.section	.text.UART_SetTxFifoLevel,"ax",%progbits
 234              		.align	2
 235              		.global	UART_SetTxFifoLevel
 236              		.code	16
 237              		.thumb_func
 238              		.type	UART_SetTxFifoLevel, %function
 239              	UART_SetTxFifoLevel:
 240              	.LFB6:
 305:.\Generated_Source\PSoC4/UART.c ****     uint32 txFifoCtrl;
 241              		.loc 1 305 0
 242              		.cfi_startproc
 243              	.LVL12:
 308:.\Generated_Source\PSoC4/UART.c **** 
 244              		.loc 1 308 0
 245 0000 034A     		ldr	r2, .L18
 246 0002 1368     		ldr	r3, [r2]
 247              	.LVL13:
 310:.\Generated_Source\PSoC4/UART.c ****     txFifoCtrl |= ((uint32) (UART_TX_FIFO_CTRL_TRIGGER_LEVEL_MASK & level));
 248              		.loc 1 310 0
 249 0004 0F21     		mov	r1, #15
 250 0006 8B43     		bic	r3, r1
 251              	.LVL14:
 311:.\Generated_Source\PSoC4/UART.c **** 
 252              		.loc 1 311 0
 253 0008 0840     		and	r0, r1
 254              	.LVL15:
 255 000a 1843     		orr	r0, r3
ARM GAS  C:\Users\LAIR\AppData\Local\Temp\ccHYhSZV.s 			page 14


 256              	.LVL16:
 313:.\Generated_Source\PSoC4/UART.c **** }
 257              		.loc 1 313 0
 258 000c 1060     		str	r0, [r2]
 314:.\Generated_Source\PSoC4/UART.c **** 
 259              		.loc 1 314 0
 260              		@ sp needed
 261 000e 7047     		bx	lr
 262              	.L19:
 263              		.align	2
 264              	.L18:
 265 0010 04022440 		.word	1076101636
 266              		.cfi_endproc
 267              	.LFE6:
 268              		.size	UART_SetTxFifoLevel, .-UART_SetTxFifoLevel
 269              		.global	UART_IntrTxMask
 270              		.global	UART_initVar
 271              		.bss
 272              		.align	1
 273              		.set	.LANCHOR0,. + 0
 274              		.type	UART_initVar, %object
 275              		.size	UART_initVar, 1
 276              	UART_initVar:
 277 0000 00       		.space	1
 278 0001 00       		.space	1
 279              		.type	UART_IntrTxMask, %object
 280              		.size	UART_IntrTxMask, 2
 281              	UART_IntrTxMask:
 282 0002 0000     		.space	2
 283              		.text
 284              	.Letext0:
 285              		.file 2 "Generated_Source\\PSoC4/cytypes.h"
 286              		.file 3 ".\\Generated_Source\\PSoC4\\UART_SPI_UART_PVT.h"