ARM GAS  C:\Users\LAIR\AppData\Local\Temp\ccdy23dh.s 			page 1


   1              		.cpu cortex-m0
   2              		.fpu softvfp
   3              		.eabi_attribute 20, 1
   4              		.eabi_attribute 21, 1
   5              		.eabi_attribute 23, 3
   6              		.eabi_attribute 24, 1
   7              		.eabi_attribute 25, 1
   8              		.eabi_attribute 26, 1
   9              		.eabi_attribute 30, 1
  10              		.eabi_attribute 34, 0
  11              		.eabi_attribute 18, 4
  12              		.code	16
  13              		.file	"USBFS.c"
  14              		.text
  15              	.Ltext0:
  16              		.cfi_sections	.debug_frame
  17              		.section	.text.USBFS_InitEpDma,"ax",%progbits
  18              		.align	2
  19              		.code	16
  20              		.thumb_func
  21              		.type	USBFS_InitEpDma, %function
  22              	USBFS_InitEpDma:
  23              	.LFB76:
  24              		.file 1 ".\\Generated_Source\\PSoC4\\USBFS.c"
   1:.\Generated_Source\PSoC4/USBFS.c **** /***************************************************************************//**
   2:.\Generated_Source\PSoC4/USBFS.c **** * \file USBFS.c
   3:.\Generated_Source\PSoC4/USBFS.c **** * \version 3.0
   4:.\Generated_Source\PSoC4/USBFS.c **** *
   5:.\Generated_Source\PSoC4/USBFS.c **** * \brief
   6:.\Generated_Source\PSoC4/USBFS.c **** *  This file contains the global USBFS API functions.
   7:.\Generated_Source\PSoC4/USBFS.c **** *
   8:.\Generated_Source\PSoC4/USBFS.c **** * Note:
   9:.\Generated_Source\PSoC4/USBFS.c **** *  Many of the functions use an endpoint number. SRAM arrays are sized with 9
  10:.\Generated_Source\PSoC4/USBFS.c **** *  elements, so they are indexed directly by epNumber.  The SIE and ARB
  11:.\Generated_Source\PSoC4/USBFS.c **** *  registers are indexed by variations of epNumber - 1.
  12:.\Generated_Source\PSoC4/USBFS.c **** *
  13:.\Generated_Source\PSoC4/USBFS.c **** ********************************************************************************
  14:.\Generated_Source\PSoC4/USBFS.c **** * \copyright
  15:.\Generated_Source\PSoC4/USBFS.c **** * Copyright 2008-2015, Cypress Semiconductor Corporation.  All rights reserved.
  16:.\Generated_Source\PSoC4/USBFS.c **** * You may use this file only in accordance with the license, terms, conditions,
  17:.\Generated_Source\PSoC4/USBFS.c **** * disclaimers, and limitations in the end user license agreement accompanying
  18:.\Generated_Source\PSoC4/USBFS.c **** * the software package with which this file was provided.
  19:.\Generated_Source\PSoC4/USBFS.c **** *******************************************************************************/
  20:.\Generated_Source\PSoC4/USBFS.c **** 
  21:.\Generated_Source\PSoC4/USBFS.c **** #include "USBFS_pvt.h"
  22:.\Generated_Source\PSoC4/USBFS.c **** #include "USBFS_cydmac.h"
  23:.\Generated_Source\PSoC4/USBFS.c **** #include "USBFS_hid.h"
  24:.\Generated_Source\PSoC4/USBFS.c **** 
  25:.\Generated_Source\PSoC4/USBFS.c **** 
  26:.\Generated_Source\PSoC4/USBFS.c **** /***************************************
  27:.\Generated_Source\PSoC4/USBFS.c **** * Global data allocation
  28:.\Generated_Source\PSoC4/USBFS.c **** ***************************************/
  29:.\Generated_Source\PSoC4/USBFS.c **** 
  30:.\Generated_Source\PSoC4/USBFS.c **** /** Indicates whether the USBFS has been initialized. The variable is
  31:.\Generated_Source\PSoC4/USBFS.c **** * initialized to 0 after device reset and set to 1 the first time USBFS_Start()
  32:.\Generated_Source\PSoC4/USBFS.c **** * is called. This allows the Component to restart without reinitialization after
  33:.\Generated_Source\PSoC4/USBFS.c **** * the first call to the USBFS_Start() routine.
ARM GAS  C:\Users\LAIR\AppData\Local\Temp\ccdy23dh.s 			page 2


  34:.\Generated_Source\PSoC4/USBFS.c **** * If re-initialization of the Component is required, the variable should be set
  35:.\Generated_Source\PSoC4/USBFS.c **** * to 0 before the USBFS_Start() routine is called. Alternatively, the USBFS can
  36:.\Generated_Source\PSoC4/USBFS.c **** * be reinitialized by calling both USBFS_Init() and USBFS_InitComponent()
  37:.\Generated_Source\PSoC4/USBFS.c **** * functions.
  38:.\Generated_Source\PSoC4/USBFS.c **** */
  39:.\Generated_Source\PSoC4/USBFS.c **** uint8 USBFS_initVar = 0u;
  40:.\Generated_Source\PSoC4/USBFS.c **** 
  41:.\Generated_Source\PSoC4/USBFS.c **** #if (USBFS_EP_MANAGEMENT_DMA)
  42:.\Generated_Source\PSoC4/USBFS.c ****     #if (CY_PSOC4)
  43:.\Generated_Source\PSoC4/USBFS.c ****         static void USBFS_InitEpDma(void);
  44:.\Generated_Source\PSoC4/USBFS.c **** 
  45:.\Generated_Source\PSoC4/USBFS.c ****         /* DMA chanels assigend for endpoints. */
  46:.\Generated_Source\PSoC4/USBFS.c ****         const uint8 USBFS_DmaChan[USBFS_MAX_EP] =
  47:.\Generated_Source\PSoC4/USBFS.c ****         {
  48:.\Generated_Source\PSoC4/USBFS.c ****             0u,
  49:.\Generated_Source\PSoC4/USBFS.c ****             (uint8) USBFS_ep1_dma_CHANNEL,
  50:.\Generated_Source\PSoC4/USBFS.c ****             (uint8) USBFS_ep2_dma_CHANNEL,
  51:.\Generated_Source\PSoC4/USBFS.c ****             0u,
  52:.\Generated_Source\PSoC4/USBFS.c ****             0u,
  53:.\Generated_Source\PSoC4/USBFS.c ****             0u,
  54:.\Generated_Source\PSoC4/USBFS.c ****             0u,
  55:.\Generated_Source\PSoC4/USBFS.c ****             0u,
  56:.\Generated_Source\PSoC4/USBFS.c ****             0u,
  57:.\Generated_Source\PSoC4/USBFS.c ****         };        
  58:.\Generated_Source\PSoC4/USBFS.c ****     #else
  59:.\Generated_Source\PSoC4/USBFS.c ****         /* DMA chanels assigend for endpoints. */
  60:.\Generated_Source\PSoC4/USBFS.c ****         uint8 USBFS_DmaChan[USBFS_MAX_EP];
  61:.\Generated_Source\PSoC4/USBFS.c ****         
  62:.\Generated_Source\PSoC4/USBFS.c ****         /* DMA TDs require for PSoC 3/5LP operation. */
  63:.\Generated_Source\PSoC4/USBFS.c ****         uint8 USBFS_DmaTd[USBFS_MAX_EP];
  64:.\Generated_Source\PSoC4/USBFS.c ****     #endif /* (CY_PSOC4) */
  65:.\Generated_Source\PSoC4/USBFS.c **** #endif /* (USBFS_EP_MANAGEMENT_DMA) */
  66:.\Generated_Source\PSoC4/USBFS.c **** 
  67:.\Generated_Source\PSoC4/USBFS.c **** #if (USBFS_EP_MANAGEMENT_DMA_AUTO)
  68:.\Generated_Source\PSoC4/USBFS.c **** #if (CY_PSOC4)
  69:.\Generated_Source\PSoC4/USBFS.c ****     /* Number of DMA bursts. */
  70:.\Generated_Source\PSoC4/USBFS.c ****     uint8  USBFS_DmaEpBurstCnt   [USBFS_MAX_EP];
  71:.\Generated_Source\PSoC4/USBFS.c ****     
  72:.\Generated_Source\PSoC4/USBFS.c ****     /* Number of bytes to transfer in last DMA burst. */
  73:.\Generated_Source\PSoC4/USBFS.c ****     uint8  USBFS_DmaEpLastBurstEl[USBFS_MAX_EP];
  74:.\Generated_Source\PSoC4/USBFS.c **** 
  75:.\Generated_Source\PSoC4/USBFS.c ****     /* Storage for arrays above. */
  76:.\Generated_Source\PSoC4/USBFS.c ****     uint8  USBFS_DmaEpBurstCntBackup  [USBFS_MAX_EP];
  77:.\Generated_Source\PSoC4/USBFS.c ****     uint32 USBFS_DmaEpBufferAddrBackup[USBFS_MAX_EP];
  78:.\Generated_Source\PSoC4/USBFS.c ****      
  79:.\Generated_Source\PSoC4/USBFS.c ****     /* DMA trigger mux output for usb.dma_req[0-7]. */
  80:.\Generated_Source\PSoC4/USBFS.c ****     const uint8 USBFS_DmaReqOut[USBFS_MAX_EP] =
  81:.\Generated_Source\PSoC4/USBFS.c ****     {
  82:.\Generated_Source\PSoC4/USBFS.c ****         0u,
  83:.\Generated_Source\PSoC4/USBFS.c ****         USBFS_ep1_dma__TR_OUTPUT,
  84:.\Generated_Source\PSoC4/USBFS.c ****         USBFS_ep2_dma__TR_OUTPUT,
  85:.\Generated_Source\PSoC4/USBFS.c ****         0u,
  86:.\Generated_Source\PSoC4/USBFS.c ****         0u,
  87:.\Generated_Source\PSoC4/USBFS.c ****         0u,
  88:.\Generated_Source\PSoC4/USBFS.c ****         0u,
  89:.\Generated_Source\PSoC4/USBFS.c ****         0u,
  90:.\Generated_Source\PSoC4/USBFS.c ****         0u,
ARM GAS  C:\Users\LAIR\AppData\Local\Temp\ccdy23dh.s 			page 3


  91:.\Generated_Source\PSoC4/USBFS.c ****     };
  92:.\Generated_Source\PSoC4/USBFS.c **** 
  93:.\Generated_Source\PSoC4/USBFS.c ****     /* DMA trigger mux output for usb.dma_burstend[0-7]. */
  94:.\Generated_Source\PSoC4/USBFS.c ****     const uint8 USBFS_DmaBurstEndOut[USBFS_MAX_EP] =
  95:.\Generated_Source\PSoC4/USBFS.c ****     {
  96:.\Generated_Source\PSoC4/USBFS.c ****         0u,
  97:.\Generated_Source\PSoC4/USBFS.c ****         USBFS_BURSTEND_0_TR_OUTPUT,
  98:.\Generated_Source\PSoC4/USBFS.c ****         USBFS_BURSTEND_1_TR_OUTPUT,
  99:.\Generated_Source\PSoC4/USBFS.c ****         USBFS_BURSTEND_2_TR_OUTPUT,
 100:.\Generated_Source\PSoC4/USBFS.c ****         USBFS_BURSTEND_3_TR_OUTPUT,
 101:.\Generated_Source\PSoC4/USBFS.c ****         USBFS_BURSTEND_4_TR_OUTPUT,
 102:.\Generated_Source\PSoC4/USBFS.c ****         USBFS_BURSTEND_5_TR_OUTPUT,
 103:.\Generated_Source\PSoC4/USBFS.c ****         USBFS_BURSTEND_6_TR_OUTPUT,
 104:.\Generated_Source\PSoC4/USBFS.c ****         USBFS_BURSTEND_7_TR_OUTPUT
 105:.\Generated_Source\PSoC4/USBFS.c ****     };
 106:.\Generated_Source\PSoC4/USBFS.c ****     
 107:.\Generated_Source\PSoC4/USBFS.c **** #else
 108:.\Generated_Source\PSoC4/USBFS.c ****     #if (USBFS_EP_DMA_AUTO_OPT == 0u)
 109:.\Generated_Source\PSoC4/USBFS.c ****         static uint8 clearInDataRdyStatus = USBFS_ARB_EPX_CFG_DEFAULT;
 110:.\Generated_Source\PSoC4/USBFS.c ****         uint8 USBFS_DmaNextTd[USBFS_MAX_EP];
 111:.\Generated_Source\PSoC4/USBFS.c ****         const uint8 USBFS_epX_TD_TERMOUT_EN[USBFS_MAX_EP] =
 112:.\Generated_Source\PSoC4/USBFS.c ****         {
 113:.\Generated_Source\PSoC4/USBFS.c ****             0u,
 114:.\Generated_Source\PSoC4/USBFS.c ****             USBFS_ep1__TD_TERMOUT_EN,
 115:.\Generated_Source\PSoC4/USBFS.c ****             USBFS_ep2__TD_TERMOUT_EN,
 116:.\Generated_Source\PSoC4/USBFS.c ****             0u,
 117:.\Generated_Source\PSoC4/USBFS.c ****             0u,
 118:.\Generated_Source\PSoC4/USBFS.c ****             0u,
 119:.\Generated_Source\PSoC4/USBFS.c ****             0u,
 120:.\Generated_Source\PSoC4/USBFS.c ****             0u,
 121:.\Generated_Source\PSoC4/USBFS.c ****             0u,
 122:.\Generated_Source\PSoC4/USBFS.c ****         };
 123:.\Generated_Source\PSoC4/USBFS.c **** 
 124:.\Generated_Source\PSoC4/USBFS.c ****         volatile uint16 USBFS_inLength[USBFS_MAX_EP];
 125:.\Generated_Source\PSoC4/USBFS.c ****         const uint8 *USBFS_inDataPointer[USBFS_MAX_EP];
 126:.\Generated_Source\PSoC4/USBFS.c ****         volatile uint8 USBFS_inBufFull[USBFS_MAX_EP];
 127:.\Generated_Source\PSoC4/USBFS.c ****     #endif /* (USBFS_EP_DMA_AUTO_OPT == 0u) */
 128:.\Generated_Source\PSoC4/USBFS.c **** #endif /* (CY_PSOC4) */
 129:.\Generated_Source\PSoC4/USBFS.c **** #endif /* (USBFS_EP_MANAGEMENT_DMA_AUTO) */
 130:.\Generated_Source\PSoC4/USBFS.c **** 
 131:.\Generated_Source\PSoC4/USBFS.c **** 
 132:.\Generated_Source\PSoC4/USBFS.c **** /*******************************************************************************
 133:.\Generated_Source\PSoC4/USBFS.c **** * Function Name: USBFS_Start
 134:.\Generated_Source\PSoC4/USBFS.c **** ****************************************************************************//**
 135:.\Generated_Source\PSoC4/USBFS.c **** *
 136:.\Generated_Source\PSoC4/USBFS.c **** *   This function performs all required initialization for the USBFS component.
 137:.\Generated_Source\PSoC4/USBFS.c **** *   After this function call, the USB device initiates communication with the
 138:.\Generated_Source\PSoC4/USBFS.c **** *   host by pull-up D+ line. This is the preferred method to begin component
 139:.\Generated_Source\PSoC4/USBFS.c **** *   operation.
 140:.\Generated_Source\PSoC4/USBFS.c **** *
 141:.\Generated_Source\PSoC4/USBFS.c **** *   Note that global interrupts have to be enabled because interrupts are
 142:.\Generated_Source\PSoC4/USBFS.c **** *   required for USBFS component operation.
 143:.\Generated_Source\PSoC4/USBFS.c **** *
 144:.\Generated_Source\PSoC4/USBFS.c **** *   PSoC 4200L devices: when USBFS component configured to DMA with Automatic
 145:.\Generated_Source\PSoC4/USBFS.c **** *   Buffer Management, the DMA interrupt priority is changed to the highest
 146:.\Generated_Source\PSoC4/USBFS.c **** *   (priority 0) inside this function.
 147:.\Generated_Source\PSoC4/USBFS.c **** *
ARM GAS  C:\Users\LAIR\AppData\Local\Temp\ccdy23dh.s 			page 4


 148:.\Generated_Source\PSoC4/USBFS.c **** *   PSoC 3/PSoC 5LP devices: when USBFS component configured to DMA with
 149:.\Generated_Source\PSoC4/USBFS.c **** *   Automatic Buffer Management, the Arbiter interrupt priority is changed to
 150:.\Generated_Source\PSoC4/USBFS.c **** *   the highest (priority 0) inside this function.
 151:.\Generated_Source\PSoC4/USBFS.c **** *
 152:.\Generated_Source\PSoC4/USBFS.c **** *  \param device
 153:.\Generated_Source\PSoC4/USBFS.c **** *          Contains the device number of the desired device descriptor.
 154:.\Generated_Source\PSoC4/USBFS.c **** *          The device number can be found in the Device Descriptor Tab of
 155:.\Generated_Source\PSoC4/USBFS.c **** *          "Configure" dialog, under the settings of desired Device Descriptor,
 156:.\Generated_Source\PSoC4/USBFS.c **** *          in the "Device Number" field.
 157:.\Generated_Source\PSoC4/USBFS.c **** *  \param mode:
 158:.\Generated_Source\PSoC4/USBFS.c **** *   The operating voltage. This determines whether the voltage regulator
 159:.\Generated_Source\PSoC4/USBFS.c **** *   is enabled for 5V operation or if pass through mode is used for 3.3V
 160:.\Generated_Source\PSoC4/USBFS.c **** *   operation. Symbolic names and their associated values are given in the
 161:.\Generated_Source\PSoC4/USBFS.c **** *   following list.
 162:.\Generated_Source\PSoC4/USBFS.c **** *
 163:.\Generated_Source\PSoC4/USBFS.c **** *       *USBFS_3V_OPERATION* - Disable voltage regulator and pass-
 164:.\Generated_Source\PSoC4/USBFS.c **** *                                      through Vcc for pull-up
 165:.\Generated_Source\PSoC4/USBFS.c **** *
 166:.\Generated_Source\PSoC4/USBFS.c **** *       *USBFS_5V_OPERATION* - Enable voltage regulator and use
 167:.\Generated_Source\PSoC4/USBFS.c **** *                                      regulator for pull-up
 168:.\Generated_Source\PSoC4/USBFS.c **** *
 169:.\Generated_Source\PSoC4/USBFS.c **** *       *USBFS_DWR_POWER_OPERATION* - Enable or disable the voltage
 170:.\Generated_Source\PSoC4/USBFS.c **** *                                      regulator depending on the power supply
 171:.\Generated_Source\PSoC4/USBFS.c **** *                                      voltage configuration in the DWR tab.
 172:.\Generated_Source\PSoC4/USBFS.c **** *                                      For PSoC 3/5LP devices, the VDDD supply
 173:.\Generated_Source\PSoC4/USBFS.c **** *                                      voltage is considered and for PSoC 4A-L,
 174:.\Generated_Source\PSoC4/USBFS.c **** *                                      the VBUS supply voltage is considered.*
 175:.\Generated_Source\PSoC4/USBFS.c **** * \globalvars
 176:.\Generated_Source\PSoC4/USBFS.c **** *  \ref USBFS_initVar
 177:.\Generated_Source\PSoC4/USBFS.c **** *
 178:.\Generated_Source\PSoC4/USBFS.c **** * \sideeffect
 179:.\Generated_Source\PSoC4/USBFS.c **** *   This function will reset all communication states to default.
 180:.\Generated_Source\PSoC4/USBFS.c **** *
 181:.\Generated_Source\PSoC4/USBFS.c **** * \reentrant
 182:.\Generated_Source\PSoC4/USBFS.c **** *  No.
 183:.\Generated_Source\PSoC4/USBFS.c **** *
 184:.\Generated_Source\PSoC4/USBFS.c **** *******************************************************************************/
 185:.\Generated_Source\PSoC4/USBFS.c **** void USBFS_Start(uint8 device, uint8 mode) 
 186:.\Generated_Source\PSoC4/USBFS.c **** {
 187:.\Generated_Source\PSoC4/USBFS.c ****     if (0u == USBFS_initVar)
 188:.\Generated_Source\PSoC4/USBFS.c ****     {
 189:.\Generated_Source\PSoC4/USBFS.c ****         USBFS_Init();
 190:.\Generated_Source\PSoC4/USBFS.c ****         USBFS_initVar = 1u;
 191:.\Generated_Source\PSoC4/USBFS.c ****     }
 192:.\Generated_Source\PSoC4/USBFS.c **** 
 193:.\Generated_Source\PSoC4/USBFS.c ****     USBFS_InitComponent(device, mode);
 194:.\Generated_Source\PSoC4/USBFS.c **** }
 195:.\Generated_Source\PSoC4/USBFS.c **** 
 196:.\Generated_Source\PSoC4/USBFS.c **** 
 197:.\Generated_Source\PSoC4/USBFS.c **** /*******************************************************************************
 198:.\Generated_Source\PSoC4/USBFS.c **** * Function Name: USBFS_Init
 199:.\Generated_Source\PSoC4/USBFS.c **** ****************************************************************************//**
 200:.\Generated_Source\PSoC4/USBFS.c **** *
 201:.\Generated_Source\PSoC4/USBFS.c **** * This function initializes or restores the component according to the
 202:.\Generated_Source\PSoC4/USBFS.c **** * customizer Configure dialog settings. It is not necessary to call
 203:.\Generated_Source\PSoC4/USBFS.c **** * USBFS_Init() because the USBFS_Start() routine calls
 204:.\Generated_Source\PSoC4/USBFS.c **** * this function and is the preferred method to begin component operation.
ARM GAS  C:\Users\LAIR\AppData\Local\Temp\ccdy23dh.s 			page 5


 205:.\Generated_Source\PSoC4/USBFS.c **** *
 206:.\Generated_Source\PSoC4/USBFS.c **** * \reentrant
 207:.\Generated_Source\PSoC4/USBFS.c **** *  No.
 208:.\Generated_Source\PSoC4/USBFS.c **** *
 209:.\Generated_Source\PSoC4/USBFS.c **** *******************************************************************************/
 210:.\Generated_Source\PSoC4/USBFS.c **** void USBFS_Init(void) 
 211:.\Generated_Source\PSoC4/USBFS.c **** {
 212:.\Generated_Source\PSoC4/USBFS.c **** #if (CY_PSOC4)
 213:.\Generated_Source\PSoC4/USBFS.c ****     /* Enable clock to USB IP. */
 214:.\Generated_Source\PSoC4/USBFS.c ****     USBFS_USB_CLK_EN_REG = USBFS_USB_CLK_CSR_CLK_EN;
 215:.\Generated_Source\PSoC4/USBFS.c **** 
 216:.\Generated_Source\PSoC4/USBFS.c ****     /* The internal regulator (CR1.REG_ENABLE) is enabled in
 217:.\Generated_Source\PSoC4/USBFS.c ****     * USBFS_InitComponent() if it is required.
 218:.\Generated_Source\PSoC4/USBFS.c ****     */
 219:.\Generated_Source\PSoC4/USBFS.c **** 
 220:.\Generated_Source\PSoC4/USBFS.c ****     /* Enable USBIO control on drive mode of D+ and D- pins. */
 221:.\Generated_Source\PSoC4/USBFS.c ****     USBFS_USBIO_CR1_REG &= ~ (uint32) USBFS_USBIO_CR1_IOMODE;
 222:.\Generated_Source\PSoC4/USBFS.c **** 
 223:.\Generated_Source\PSoC4/USBFS.c ****     /* Set number of LF CLK to detect UBS bus reset. */
 224:.\Generated_Source\PSoC4/USBFS.c ****     USBFS_BUS_RST_CNT_REG = USBFS_DEFUALT_BUS_RST_CNT;
 225:.\Generated_Source\PSoC4/USBFS.c **** 
 226:.\Generated_Source\PSoC4/USBFS.c ****     /* Select VBUS detection source and clear PHY isolate. The application level
 227:.\Generated_Source\PSoC4/USBFS.c ****     * must ensure that VBUS is valid. There is no need to wait 2us before VBUS is valid.
 228:.\Generated_Source\PSoC4/USBFS.c ****     */
 229:.\Generated_Source\PSoC4/USBFS.c ****     USBFS_POWER_CTRL_REG = USBFS_DEFAULT_POWER_CTRL_VBUS;
 230:.\Generated_Source\PSoC4/USBFS.c **** 
 231:.\Generated_Source\PSoC4/USBFS.c ****     /* Enable PHY detector and single-ended and differential receivers. */
 232:.\Generated_Source\PSoC4/USBFS.c ****     USBFS_POWER_CTRL_REG |= USBFS_DEFAULT_POWER_CTRL_PHY;
 233:.\Generated_Source\PSoC4/USBFS.c **** 
 234:.\Generated_Source\PSoC4/USBFS.c ****     /* Suspend clear sequence. */
 235:.\Generated_Source\PSoC4/USBFS.c ****     USBFS_POWER_CTRL_REG &= (uint32) ~USBFS_POWER_CTRL_SUSPEND;
 236:.\Generated_Source\PSoC4/USBFS.c ****     CyDelayUs(USBFS_WAIT_SUSPEND_DEL_DISABLE);
 237:.\Generated_Source\PSoC4/USBFS.c ****     USBFS_POWER_CTRL_REG &= (uint32) ~USBFS_POWER_CTRL_SUSPEND_DEL;
 238:.\Generated_Source\PSoC4/USBFS.c **** 
 239:.\Generated_Source\PSoC4/USBFS.c ****     /* Sets IMO lock options and clear all other bits. */
 240:.\Generated_Source\PSoC4/USBFS.c ****     USBFS_CR1_REG = USBFS_DEFUALT_CR1;
 241:.\Generated_Source\PSoC4/USBFS.c **** 
 242:.\Generated_Source\PSoC4/USBFS.c ****     /* Configure level (hi, lo, med) for each interrupt source. */
 243:.\Generated_Source\PSoC4/USBFS.c ****     USBFS_INTR_LVL_SEL_REG = USBFS_DEFAULT_INTR_LVL_SEL;
 244:.\Generated_Source\PSoC4/USBFS.c **** 
 245:.\Generated_Source\PSoC4/USBFS.c ****     /* Configure interrupt sources from: SOF, Bus Reset and EP0. */
 246:.\Generated_Source\PSoC4/USBFS.c ****     USBFS_INTR_SIE_MASK_REG = USBFS_DEFAULT_INTR_SIE_MASK;
 247:.\Generated_Source\PSoC4/USBFS.c **** 
 248:.\Generated_Source\PSoC4/USBFS.c **** #else
 249:.\Generated_Source\PSoC4/USBFS.c ****     uint8 enableInterrupts = CyEnterCriticalSection();
 250:.\Generated_Source\PSoC4/USBFS.c **** 
 251:.\Generated_Source\PSoC4/USBFS.c **** #if (USBFS_EP_MANAGEMENT_DMA)
 252:.\Generated_Source\PSoC4/USBFS.c ****     uint16 i;
 253:.\Generated_Source\PSoC4/USBFS.c **** #endif /* (USBFS_EP_MANAGEMENT_DMA) */
 254:.\Generated_Source\PSoC4/USBFS.c **** 
 255:.\Generated_Source\PSoC4/USBFS.c ****     /* Enable USB block. */
 256:.\Generated_Source\PSoC4/USBFS.c ****     USBFS_PM_ACT_CFG_REG |= USBFS_PM_ACT_EN_FSUSB;
 257:.\Generated_Source\PSoC4/USBFS.c ****     /* Enable USB block for Standby Power Mode. */
 258:.\Generated_Source\PSoC4/USBFS.c ****     USBFS_PM_STBY_CFG_REG |= USBFS_PM_STBY_EN_FSUSB;
 259:.\Generated_Source\PSoC4/USBFS.c **** 
 260:.\Generated_Source\PSoC4/USBFS.c ****     /* Enable core clock. */
 261:.\Generated_Source\PSoC4/USBFS.c ****     USBFS_USB_CLK_EN_REG = USBFS_USB_CLK_ENABLE;
ARM GAS  C:\Users\LAIR\AppData\Local\Temp\ccdy23dh.s 			page 6


 262:.\Generated_Source\PSoC4/USBFS.c **** 
 263:.\Generated_Source\PSoC4/USBFS.c ****     USBFS_CR1_REG = USBFS_CR1_ENABLE_LOCK;
 264:.\Generated_Source\PSoC4/USBFS.c **** 
 265:.\Generated_Source\PSoC4/USBFS.c ****     /* ENABLING USBIO PADS IN USB MODE FROM I/O MODE. */
 266:.\Generated_Source\PSoC4/USBFS.c ****     /* Ensure USB transmit enable is low (USB_USBIO_CR0.ten). - Manual Transmission - Disabled. */
 267:.\Generated_Source\PSoC4/USBFS.c ****     USBFS_USBIO_CR0_REG &= (uint8) ~USBFS_USBIO_CR0_TEN;
 268:.\Generated_Source\PSoC4/USBFS.c ****     CyDelayUs(USBFS_WAIT_REG_STABILITY_50NS);  /* ~50ns delay. */
 269:.\Generated_Source\PSoC4/USBFS.c ****     /* Disable USBIO by asserting PM.USB_CR0.fsusbio_pd_n(Inverted.
 270:.\Generated_Source\PSoC4/USBFS.c ****     *  high. These bits will be set low by the power manager out-of-reset.
 271:.\Generated_Source\PSoC4/USBFS.c ****     *  Also confirm USBIO pull-up is disabled.
 272:.\Generated_Source\PSoC4/USBFS.c ****     */
 273:.\Generated_Source\PSoC4/USBFS.c ****     USBFS_PM_USB_CR0_REG &= (uint8) ~(USBFS_PM_USB_CR0_PD_N |
 274:.\Generated_Source\PSoC4/USBFS.c ****                                                  USBFS_PM_USB_CR0_PD_PULLUP_N);
 275:.\Generated_Source\PSoC4/USBFS.c **** 
 276:.\Generated_Source\PSoC4/USBFS.c ****     /* Select IOMODE to USB mode. */
 277:.\Generated_Source\PSoC4/USBFS.c ****     USBFS_USBIO_CR1_REG &= (uint8) ~USBFS_USBIO_CR1_IOMODE;
 278:.\Generated_Source\PSoC4/USBFS.c **** 
 279:.\Generated_Source\PSoC4/USBFS.c ****     /* Enable USBIO reference by setting PM.USB_CR0.fsusbio_ref_en. */
 280:.\Generated_Source\PSoC4/USBFS.c ****     USBFS_PM_USB_CR0_REG |= USBFS_PM_USB_CR0_REF_EN;
 281:.\Generated_Source\PSoC4/USBFS.c ****     /* Reference is available for 1us after regulator is enabled. */
 282:.\Generated_Source\PSoC4/USBFS.c ****     CyDelayUs(USBFS_WAIT_REG_STABILITY_1US);
 283:.\Generated_Source\PSoC4/USBFS.c ****     /* OR 40us after power is restored. */
 284:.\Generated_Source\PSoC4/USBFS.c ****     CyDelayUs(USBFS_WAIT_VREF_RESTORE);
 285:.\Generated_Source\PSoC4/USBFS.c ****     /* Ensure single-ended disable bits are low (PRT15.INP_DIS[7:6])(input receiver enabled). */
 286:.\Generated_Source\PSoC4/USBFS.c ****     USBFS_DM_INP_DIS_REG &= (uint8) ~USBFS_DM_MASK;
 287:.\Generated_Source\PSoC4/USBFS.c ****     USBFS_DP_INP_DIS_REG &= (uint8) ~USBFS_DP_MASK;
 288:.\Generated_Source\PSoC4/USBFS.c **** 
 289:.\Generated_Source\PSoC4/USBFS.c ****     /* Enable USBIO. */
 290:.\Generated_Source\PSoC4/USBFS.c ****     USBFS_PM_USB_CR0_REG |= USBFS_PM_USB_CR0_PD_N;
 291:.\Generated_Source\PSoC4/USBFS.c ****     CyDelayUs(USBFS_WAIT_PD_PULLUP_N_ENABLE);
 292:.\Generated_Source\PSoC4/USBFS.c ****     /* Set USBIO pull-up enable. */
 293:.\Generated_Source\PSoC4/USBFS.c ****     USBFS_PM_USB_CR0_REG |= USBFS_PM_USB_CR0_PD_PULLUP_N;
 294:.\Generated_Source\PSoC4/USBFS.c **** 
 295:.\Generated_Source\PSoC4/USBFS.c ****     /* Reset Arbiter Write Address register for endpoint 1. */
 296:.\Generated_Source\PSoC4/USBFS.c ****     CY_SET_REG8(USBFS_ARB_RW1_WA_PTR,     0u);
 297:.\Generated_Source\PSoC4/USBFS.c ****     CY_SET_REG8(USBFS_ARB_RW1_WA_MSB_PTR, 0u);
 298:.\Generated_Source\PSoC4/USBFS.c **** 
 299:.\Generated_Source\PSoC4/USBFS.c **** #if (USBFS_EP_MANAGEMENT_DMA)
 300:.\Generated_Source\PSoC4/USBFS.c ****     /* Initialize transfer descriptor. This will be used to detect DMA state - initialized or not. 
 301:.\Generated_Source\PSoC4/USBFS.c ****     for (i = 0u; i < USBFS_MAX_EP; ++i)
 302:.\Generated_Source\PSoC4/USBFS.c ****     {
 303:.\Generated_Source\PSoC4/USBFS.c ****         USBFS_DmaTd[i] = DMA_INVALID_TD;
 304:.\Generated_Source\PSoC4/USBFS.c **** 
 305:.\Generated_Source\PSoC4/USBFS.c ****     #if (USBFS_EP_MANAGEMENT_DMA_AUTO && (USBFS_EP_DMA_AUTO_OPT == 0u))
 306:.\Generated_Source\PSoC4/USBFS.c ****         USBFS_DmaNextTd[i] = DMA_INVALID_TD;
 307:.\Generated_Source\PSoC4/USBFS.c ****     #endif /* (USBFS_EP_MANAGEMENT_DMA_AUTO && (USBFS_EP_DMA_AUTO_OPT == 0u)) */
 308:.\Generated_Source\PSoC4/USBFS.c ****     }
 309:.\Generated_Source\PSoC4/USBFS.c **** #endif /* (USBFS_EP_MANAGEMENT_DMA) */
 310:.\Generated_Source\PSoC4/USBFS.c **** 
 311:.\Generated_Source\PSoC4/USBFS.c ****     CyExitCriticalSection(enableInterrupts);
 312:.\Generated_Source\PSoC4/USBFS.c **** #endif /* (CY_PSOC4) */
 313:.\Generated_Source\PSoC4/USBFS.c **** 
 314:.\Generated_Source\PSoC4/USBFS.c ****     /* Configure interrupts from USB block. */
 315:.\Generated_Source\PSoC4/USBFS.c **** #if (CY_PSOC4)
 316:.\Generated_Source\PSoC4/USBFS.c ****     /* Configure hi_int: set handler and priority. */
 317:.\Generated_Source\PSoC4/USBFS.c ****     CyIntSetPriority     (USBFS_INTR_HI_VECT_NUM,  USBFS_INTR_HI_PRIORITY);
 318:.\Generated_Source\PSoC4/USBFS.c ****     (void) CyIntSetVector(USBFS_INTR_HI_VECT_NUM, &USBFS_INTR_HI_ISR);
ARM GAS  C:\Users\LAIR\AppData\Local\Temp\ccdy23dh.s 			page 7


 319:.\Generated_Source\PSoC4/USBFS.c **** 
 320:.\Generated_Source\PSoC4/USBFS.c ****     /* Configure lo_int: set handler and priority. */
 321:.\Generated_Source\PSoC4/USBFS.c ****     CyIntSetPriority     (USBFS_INTR_LO_VECT_NUM,  USBFS_INTR_LO_PRIORITY);
 322:.\Generated_Source\PSoC4/USBFS.c ****     (void) CyIntSetVector(USBFS_INTR_LO_VECT_NUM, &USBFS_INTR_LO_ISR);
 323:.\Generated_Source\PSoC4/USBFS.c **** 
 324:.\Generated_Source\PSoC4/USBFS.c ****     /* Configure med_int: set handler and priority (routed through DSI). */
 325:.\Generated_Source\PSoC4/USBFS.c ****     CyIntSetPriority     (USBFS_INTR_MED_VECT_NUM,  USBFS_INTR_MED_PRIORITY);
 326:.\Generated_Source\PSoC4/USBFS.c ****     (void) CyIntSetVector(USBFS_INTR_MED_VECT_NUM, &USBFS_INTR_MED_ISR);
 327:.\Generated_Source\PSoC4/USBFS.c **** 
 328:.\Generated_Source\PSoC4/USBFS.c **** #else
 329:.\Generated_Source\PSoC4/USBFS.c ****     /* Set bus reset interrupt. */
 330:.\Generated_Source\PSoC4/USBFS.c ****     CyIntSetPriority(USBFS_BUS_RESET_VECT_NUM, USBFS_BUS_RESET_PRIOR);
 331:.\Generated_Source\PSoC4/USBFS.c ****     (void) CyIntSetVector(USBFS_BUS_RESET_VECT_NUM,   &USBFS_BUS_RESET_ISR);
 332:.\Generated_Source\PSoC4/USBFS.c **** 
 333:.\Generated_Source\PSoC4/USBFS.c ****     /* Set Control Endpoint Interrupt. */
 334:.\Generated_Source\PSoC4/USBFS.c ****     CyIntSetPriority(USBFS_EP_0_VECT_NUM, USBFS_EP_0_PRIOR);
 335:.\Generated_Source\PSoC4/USBFS.c ****     (void) CyIntSetVector(USBFS_EP_0_VECT_NUM,   &USBFS_EP_0_ISR);
 336:.\Generated_Source\PSoC4/USBFS.c **** 
 337:.\Generated_Source\PSoC4/USBFS.c ****     /* Set SOF interrupt. */
 338:.\Generated_Source\PSoC4/USBFS.c ****     #if (USBFS_SOF_ISR_ACTIVE)
 339:.\Generated_Source\PSoC4/USBFS.c ****         CyIntSetPriority     (USBFS_SOF_VECT_NUM,  USBFS_SOF_PRIOR);
 340:.\Generated_Source\PSoC4/USBFS.c ****         (void) CyIntSetVector(USBFS_SOF_VECT_NUM, &USBFS_SOF_ISR);
 341:.\Generated_Source\PSoC4/USBFS.c ****     #endif /* (USBFS_SOF_ISR_ACTIVE) */
 342:.\Generated_Source\PSoC4/USBFS.c **** 
 343:.\Generated_Source\PSoC4/USBFS.c ****     /* Set Data Endpoint 1 Interrupt. */
 344:.\Generated_Source\PSoC4/USBFS.c ****     #if (USBFS_EP1_ISR_ACTIVE)
 345:.\Generated_Source\PSoC4/USBFS.c ****         CyIntSetPriority     (USBFS_EP_1_VECT_NUM,  USBFS_EP_1_PRIOR);
 346:.\Generated_Source\PSoC4/USBFS.c ****         (void) CyIntSetVector(USBFS_EP_1_VECT_NUM,  &USBFS_EP_1_ISR);
 347:.\Generated_Source\PSoC4/USBFS.c ****     #endif /* (USBFS_EP1_ISR_ACTIVE) */
 348:.\Generated_Source\PSoC4/USBFS.c **** 
 349:.\Generated_Source\PSoC4/USBFS.c ****     /* Set Data Endpoint 2 Interrupt. */
 350:.\Generated_Source\PSoC4/USBFS.c ****     #if (USBFS_EP2_ISR_ACTIVE)
 351:.\Generated_Source\PSoC4/USBFS.c ****         CyIntSetPriority     (USBFS_EP_2_VECT_NUM,  USBFS_EP_2_PRIOR);
 352:.\Generated_Source\PSoC4/USBFS.c ****         (void) CyIntSetVector(USBFS_EP_2_VECT_NUM, &USBFS_EP_2_ISR);
 353:.\Generated_Source\PSoC4/USBFS.c ****     #endif /* (USBFS_EP2_ISR_ACTIVE) */
 354:.\Generated_Source\PSoC4/USBFS.c **** 
 355:.\Generated_Source\PSoC4/USBFS.c ****     /* Set Data Endpoint 3 Interrupt. */
 356:.\Generated_Source\PSoC4/USBFS.c ****     #if (USBFS_EP3_ISR_ACTIVE)
 357:.\Generated_Source\PSoC4/USBFS.c ****         CyIntSetPriority     (USBFS_EP_3_VECT_NUM,  USBFS_EP_3_PRIOR);
 358:.\Generated_Source\PSoC4/USBFS.c ****         (void) CyIntSetVector(USBFS_EP_3_VECT_NUM, &USBFS_EP_3_ISR);
 359:.\Generated_Source\PSoC4/USBFS.c ****     #endif /* (USBFS_EP3_ISR_ACTIVE) */
 360:.\Generated_Source\PSoC4/USBFS.c **** 
 361:.\Generated_Source\PSoC4/USBFS.c ****     /* Set Data Endpoint 4 Interrupt. */
 362:.\Generated_Source\PSoC4/USBFS.c ****     #if (USBFS_EP4_ISR_ACTIVE)
 363:.\Generated_Source\PSoC4/USBFS.c ****         CyIntSetPriority     (USBFS_EP_4_VECT_NUM,  USBFS_EP_4_PRIOR);
 364:.\Generated_Source\PSoC4/USBFS.c ****         (void) CyIntSetVector(USBFS_EP_4_VECT_NUM, &USBFS_EP_4_ISR);
 365:.\Generated_Source\PSoC4/USBFS.c ****     #endif /* (USBFS_EP4_ISR_ACTIVE) */
 366:.\Generated_Source\PSoC4/USBFS.c **** 
 367:.\Generated_Source\PSoC4/USBFS.c ****     /* Set Data Endpoint 5 Interrupt. */
 368:.\Generated_Source\PSoC4/USBFS.c ****     #if (USBFS_EP5_ISR_ACTIVE)
 369:.\Generated_Source\PSoC4/USBFS.c ****         CyIntSetPriority     (USBFS_EP_5_VECT_NUM,  USBFS_EP_5_PRIOR);
 370:.\Generated_Source\PSoC4/USBFS.c ****         (void) CyIntSetVector(USBFS_EP_5_VECT_NUM, &USBFS_EP_5_ISR);
 371:.\Generated_Source\PSoC4/USBFS.c ****     #endif /* (USBFS_EP5_ISR_ACTIVE) */
 372:.\Generated_Source\PSoC4/USBFS.c **** 
 373:.\Generated_Source\PSoC4/USBFS.c ****     /* Set Data Endpoint 6 Interrupt. */
 374:.\Generated_Source\PSoC4/USBFS.c ****     #if (USBFS_EP6_ISR_ACTIVE)
 375:.\Generated_Source\PSoC4/USBFS.c ****         CyIntSetPriority     (USBFS_EP_6_VECT_NUM,  USBFS_EP_6_PRIOR);
ARM GAS  C:\Users\LAIR\AppData\Local\Temp\ccdy23dh.s 			page 8


 376:.\Generated_Source\PSoC4/USBFS.c ****         (void) CyIntSetVector(USBFS_EP_6_VECT_NUM, &USBFS_EP_6_ISR);
 377:.\Generated_Source\PSoC4/USBFS.c ****     #endif /* (USBFS_EP6_ISR_ACTIVE) */
 378:.\Generated_Source\PSoC4/USBFS.c **** 
 379:.\Generated_Source\PSoC4/USBFS.c ****      /* Set Data Endpoint 7 Interrupt. */
 380:.\Generated_Source\PSoC4/USBFS.c ****     #if (USBFS_EP7_ISR_ACTIVE)
 381:.\Generated_Source\PSoC4/USBFS.c ****         CyIntSetPriority     (USBFS_EP_7_VECT_NUM,  USBFS_EP_7_PRIOR);
 382:.\Generated_Source\PSoC4/USBFS.c ****         (void) CyIntSetVector(USBFS_EP_7_VECT_NUM, &USBFS_EP_7_ISR);
 383:.\Generated_Source\PSoC4/USBFS.c ****     #endif /* (USBFS_EP7_ISR_ACTIVE) */
 384:.\Generated_Source\PSoC4/USBFS.c **** 
 385:.\Generated_Source\PSoC4/USBFS.c ****     /* Set Data Endpoint 8 Interrupt. */
 386:.\Generated_Source\PSoC4/USBFS.c ****     #if (USBFS_EP8_ISR_ACTIVE)
 387:.\Generated_Source\PSoC4/USBFS.c ****         CyIntSetPriority     (USBFS_EP_8_VECT_NUM,  USBFS_EP_8_PRIOR);
 388:.\Generated_Source\PSoC4/USBFS.c ****         (void) CyIntSetVector(USBFS_EP_8_VECT_NUM, &USBFS_EP_8_ISR);
 389:.\Generated_Source\PSoC4/USBFS.c ****     #endif /* (USBFS_EP8_ISR_ACTIVE) */
 390:.\Generated_Source\PSoC4/USBFS.c **** 
 391:.\Generated_Source\PSoC4/USBFS.c ****     /* Set ARB Interrupt. */
 392:.\Generated_Source\PSoC4/USBFS.c ****     #if (USBFS_EP_MANAGEMENT_DMA && USBFS_ARB_ISR_ACTIVE)
 393:.\Generated_Source\PSoC4/USBFS.c ****         CyIntSetPriority     (USBFS_ARB_VECT_NUM,  USBFS_ARB_PRIOR);
 394:.\Generated_Source\PSoC4/USBFS.c ****         (void) CyIntSetVector(USBFS_ARB_VECT_NUM, &USBFS_ARB_ISR);
 395:.\Generated_Source\PSoC4/USBFS.c ****     #endif /* (USBFS_EP_MANAGEMENT_DMA && USBFS_ARB_ISR_ACTIVE) */
 396:.\Generated_Source\PSoC4/USBFS.c **** #endif /* (CY_PSOC4) */
 397:.\Generated_Source\PSoC4/USBFS.c **** 
 398:.\Generated_Source\PSoC4/USBFS.c ****     /* Common: Configure GPIO interrupt for wakeup. */
 399:.\Generated_Source\PSoC4/USBFS.c **** #if (USBFS_DP_ISR_ACTIVE)
 400:.\Generated_Source\PSoC4/USBFS.c ****     CyIntSetPriority     (USBFS_DP_INTC_VECT_NUM,  USBFS_DP_INTC_PRIORITY);
 401:.\Generated_Source\PSoC4/USBFS.c ****     (void) CyIntSetVector(USBFS_DP_INTC_VECT_NUM, &USBFS_DP_ISR);
 402:.\Generated_Source\PSoC4/USBFS.c **** #endif /* (USBFS_DP_ISR_ACTIVE) */
 403:.\Generated_Source\PSoC4/USBFS.c **** 
 404:.\Generated_Source\PSoC4/USBFS.c **** #if (USBFS_EP_MANAGEMENT_DMA && CY_PSOC4)
 405:.\Generated_Source\PSoC4/USBFS.c ****     /* Initialize DMA channels. */
 406:.\Generated_Source\PSoC4/USBFS.c ****     USBFS_InitEpDma();
 407:.\Generated_Source\PSoC4/USBFS.c **** #endif /* (USBFS_EP_MANAGEMENT_DMA && CY_PSOC4) */
 408:.\Generated_Source\PSoC4/USBFS.c **** }
 409:.\Generated_Source\PSoC4/USBFS.c **** 
 410:.\Generated_Source\PSoC4/USBFS.c **** 
 411:.\Generated_Source\PSoC4/USBFS.c **** /*******************************************************************************
 412:.\Generated_Source\PSoC4/USBFS.c **** * Function Name: USBFS_InitComponent
 413:.\Generated_Source\PSoC4/USBFS.c **** ****************************************************************************//**
 414:.\Generated_Source\PSoC4/USBFS.c **** *
 415:.\Generated_Source\PSoC4/USBFS.c **** *   This function initializes the component’s global variables and initiates
 416:.\Generated_Source\PSoC4/USBFS.c **** *   communication with the host by pull-up D+ line.
 417:.\Generated_Source\PSoC4/USBFS.c **** *
 418:.\Generated_Source\PSoC4/USBFS.c **** * \param device:
 419:.\Generated_Source\PSoC4/USBFS.c **** *   Contains the device number of the desired device descriptor. The device
 420:.\Generated_Source\PSoC4/USBFS.c **** *   number can be found in the Device Descriptor Tab of "Configure" dialog,
 421:.\Generated_Source\PSoC4/USBFS.c **** *   under the settings of desired Device Descriptor, in the *Device Number*
 422:.\Generated_Source\PSoC4/USBFS.c **** *   field.
 423:.\Generated_Source\PSoC4/USBFS.c **** *  \param mode:
 424:.\Generated_Source\PSoC4/USBFS.c **** *   The operating voltage. This determines whether the voltage regulator
 425:.\Generated_Source\PSoC4/USBFS.c **** *   is enabled for 5V operation or if pass through mode is used for 3.3V
 426:.\Generated_Source\PSoC4/USBFS.c **** *   operation. Symbolic names and their associated values are given in the
 427:.\Generated_Source\PSoC4/USBFS.c **** *   following list.
 428:.\Generated_Source\PSoC4/USBFS.c **** *
 429:.\Generated_Source\PSoC4/USBFS.c **** *       *USBFS_3V_OPERATION* - Disable voltage regulator and pass-
 430:.\Generated_Source\PSoC4/USBFS.c **** *                                      through Vcc for pull-up
 431:.\Generated_Source\PSoC4/USBFS.c **** *
 432:.\Generated_Source\PSoC4/USBFS.c **** *       *USBFS_5V_OPERATION* - Enable voltage regulator and use
ARM GAS  C:\Users\LAIR\AppData\Local\Temp\ccdy23dh.s 			page 9


 433:.\Generated_Source\PSoC4/USBFS.c **** *                                      regulator for pull-up
 434:.\Generated_Source\PSoC4/USBFS.c **** *
 435:.\Generated_Source\PSoC4/USBFS.c **** *       *USBFS_DWR_POWER_OPERATION* - Enable or disable the voltage
 436:.\Generated_Source\PSoC4/USBFS.c **** *                                      regulator depending on the power supply
 437:.\Generated_Source\PSoC4/USBFS.c **** *                                      voltage configuration in the DWR tab.
 438:.\Generated_Source\PSoC4/USBFS.c **** *                                      For PSoC 3/5LP devices, the VDDD supply
 439:.\Generated_Source\PSoC4/USBFS.c **** *                                      voltage is considered and for PSoC 4A-L,
 440:.\Generated_Source\PSoC4/USBFS.c **** *                                      the VBUS supply voltage is considered.
 441:.\Generated_Source\PSoC4/USBFS.c **** *
 442:.\Generated_Source\PSoC4/USBFS.c **** * \globalvars
 443:.\Generated_Source\PSoC4/USBFS.c **** *   \ref USBFS_device
 444:.\Generated_Source\PSoC4/USBFS.c **** *   \ref USBFS_transferState
 445:.\Generated_Source\PSoC4/USBFS.c **** *   \ref USBFS_configuration
 446:.\Generated_Source\PSoC4/USBFS.c **** *   \ref USBFS_deviceStatus
 447:.\Generated_Source\PSoC4/USBFS.c **** *
 448:.\Generated_Source\PSoC4/USBFS.c **** *   \ref USBFS_deviceAddress - Contains the current device address. This
 449:.\Generated_Source\PSoC4/USBFS.c **** *       variable is initialized to zero in this API. The Host starts to communicate
 450:.\Generated_Source\PSoC4/USBFS.c **** *      to the device with address 0 and then sets it to a whatever value using a
 451:.\Generated_Source\PSoC4/USBFS.c **** *      SET_ADDRESS request.
 452:.\Generated_Source\PSoC4/USBFS.c **** *
 453:.\Generated_Source\PSoC4/USBFS.c **** *   \ref USBFS_lastPacketSize - Initialized to 0;
 454:.\Generated_Source\PSoC4/USBFS.c **** *
 455:.\Generated_Source\PSoC4/USBFS.c **** * \reentrant
 456:.\Generated_Source\PSoC4/USBFS.c **** *  No.
 457:.\Generated_Source\PSoC4/USBFS.c **** *
 458:.\Generated_Source\PSoC4/USBFS.c **** *******************************************************************************/
 459:.\Generated_Source\PSoC4/USBFS.c **** void USBFS_InitComponent(uint8 device, uint8 mode) 
 460:.\Generated_Source\PSoC4/USBFS.c **** {
 461:.\Generated_Source\PSoC4/USBFS.c ****     /* Initialize _hidProtocol variable to comply with
 462:.\Generated_Source\PSoC4/USBFS.c ****     *  HID 7.2.6 Set_Protocol Request:
 463:.\Generated_Source\PSoC4/USBFS.c ****     *  "When initialized, all devices default to report protocol."
 464:.\Generated_Source\PSoC4/USBFS.c ****     */
 465:.\Generated_Source\PSoC4/USBFS.c **** #if defined(USBFS_ENABLE_HID_CLASS)
 466:.\Generated_Source\PSoC4/USBFS.c ****     uint8 i;
 467:.\Generated_Source\PSoC4/USBFS.c **** 
 468:.\Generated_Source\PSoC4/USBFS.c ****     for (i = 0u; i < USBFS_MAX_INTERFACES_NUMBER; i++)
 469:.\Generated_Source\PSoC4/USBFS.c ****     {
 470:.\Generated_Source\PSoC4/USBFS.c ****         USBFS_hidProtocol[i] = USBFS_PROTOCOL_REPORT;
 471:.\Generated_Source\PSoC4/USBFS.c ****     }
 472:.\Generated_Source\PSoC4/USBFS.c **** #endif /* USBFS_ENABLE_HID_CLASS */
 473:.\Generated_Source\PSoC4/USBFS.c **** 
 474:.\Generated_Source\PSoC4/USBFS.c ****     /* Store device number to access descriptor. */
 475:.\Generated_Source\PSoC4/USBFS.c ****     USBFS_device = device;
 476:.\Generated_Source\PSoC4/USBFS.c **** 
 477:.\Generated_Source\PSoC4/USBFS.c ****     /* Reset component internal variables. */
 478:.\Generated_Source\PSoC4/USBFS.c ****     USBFS_transferState   = USBFS_TRANS_STATE_IDLE;
 479:.\Generated_Source\PSoC4/USBFS.c ****     USBFS_configurationChanged = 0u;
 480:.\Generated_Source\PSoC4/USBFS.c ****     USBFS_configuration   = 0u;
 481:.\Generated_Source\PSoC4/USBFS.c ****     USBFS_interfaceNumber = 0u;
 482:.\Generated_Source\PSoC4/USBFS.c ****     USBFS_deviceAddress   = 0u;
 483:.\Generated_Source\PSoC4/USBFS.c ****     USBFS_deviceStatus    = 0u;
 484:.\Generated_Source\PSoC4/USBFS.c ****     USBFS_lastPacketSize  = 0u;
 485:.\Generated_Source\PSoC4/USBFS.c **** 
 486:.\Generated_Source\PSoC4/USBFS.c ****     /* Enable component interrupts. */
 487:.\Generated_Source\PSoC4/USBFS.c **** #if (CY_PSOC4)
 488:.\Generated_Source\PSoC4/USBFS.c ****     CyIntEnable(USBFS_INTR_HI_VECT_NUM);
 489:.\Generated_Source\PSoC4/USBFS.c ****     CyIntEnable(USBFS_INTR_MED_VECT_NUM);
ARM GAS  C:\Users\LAIR\AppData\Local\Temp\ccdy23dh.s 			page 10


 490:.\Generated_Source\PSoC4/USBFS.c ****     CyIntEnable(USBFS_INTR_LO_VECT_NUM);
 491:.\Generated_Source\PSoC4/USBFS.c **** #else
 492:.\Generated_Source\PSoC4/USBFS.c ****     CyIntEnable(USBFS_BUS_RESET_VECT_NUM);
 493:.\Generated_Source\PSoC4/USBFS.c ****     CyIntEnable(USBFS_EP_0_VECT_NUM);
 494:.\Generated_Source\PSoC4/USBFS.c **** 
 495:.\Generated_Source\PSoC4/USBFS.c ****     #if (USBFS_SOF_ISR_ACTIVE)
 496:.\Generated_Source\PSoC4/USBFS.c ****         CyIntEnable(USBFS_SOF_VECT_NUM);
 497:.\Generated_Source\PSoC4/USBFS.c ****     #endif /* (USBFS_SOF_ISR_ACTIVE) */
 498:.\Generated_Source\PSoC4/USBFS.c **** 
 499:.\Generated_Source\PSoC4/USBFS.c ****     #if (USBFS_EP1_ISR_ACTIVE)
 500:.\Generated_Source\PSoC4/USBFS.c ****         CyIntEnable(USBFS_EP_1_VECT_NUM);
 501:.\Generated_Source\PSoC4/USBFS.c ****     #endif /* (USBFS_EP1_ISR_ACTIVE) */
 502:.\Generated_Source\PSoC4/USBFS.c **** 
 503:.\Generated_Source\PSoC4/USBFS.c ****     #if (USBFS_EP2_ISR_ACTIVE)
 504:.\Generated_Source\PSoC4/USBFS.c ****         CyIntEnable(USBFS_EP_2_VECT_NUM);
 505:.\Generated_Source\PSoC4/USBFS.c ****     #endif /* (USBFS_EP5_ISR_ACTIVE) */
 506:.\Generated_Source\PSoC4/USBFS.c **** 
 507:.\Generated_Source\PSoC4/USBFS.c ****     #if (USBFS_EP3_ISR_ACTIVE)
 508:.\Generated_Source\PSoC4/USBFS.c ****         CyIntEnable(USBFS_EP_3_VECT_NUM);
 509:.\Generated_Source\PSoC4/USBFS.c ****     #endif /* (USBFS_EP5_ISR_ACTIVE) */
 510:.\Generated_Source\PSoC4/USBFS.c **** 
 511:.\Generated_Source\PSoC4/USBFS.c ****     #if (USBFS_EP4_ISR_ACTIVE)
 512:.\Generated_Source\PSoC4/USBFS.c ****         CyIntEnable(USBFS_EP_4_VECT_NUM);
 513:.\Generated_Source\PSoC4/USBFS.c ****     #endif /* (USBFS_EP5_ISR_ACTIVE) */
 514:.\Generated_Source\PSoC4/USBFS.c **** 
 515:.\Generated_Source\PSoC4/USBFS.c ****     #if (USBFS_EP5_ISR_ACTIVE)
 516:.\Generated_Source\PSoC4/USBFS.c ****         CyIntEnable(USBFS_EP_5_VECT_NUM);
 517:.\Generated_Source\PSoC4/USBFS.c ****     #endif /* (USBFS_EP5_ISR_ACTIVE) */
 518:.\Generated_Source\PSoC4/USBFS.c **** 
 519:.\Generated_Source\PSoC4/USBFS.c ****     #if (USBFS_EP6_ISR_ACTIVE)
 520:.\Generated_Source\PSoC4/USBFS.c ****         CyIntEnable(USBFS_EP_6_VECT_NUM);
 521:.\Generated_Source\PSoC4/USBFS.c ****     #endif /* USBFS_EP6_ISR_REMOVE */
 522:.\Generated_Source\PSoC4/USBFS.c **** 
 523:.\Generated_Source\PSoC4/USBFS.c ****     #if (USBFS_EP7_ISR_ACTIVE)
 524:.\Generated_Source\PSoC4/USBFS.c ****         CyIntEnable(USBFS_EP_7_VECT_NUM);
 525:.\Generated_Source\PSoC4/USBFS.c ****     #endif /* (USBFS_EP7_ISR_ACTIVE) */
 526:.\Generated_Source\PSoC4/USBFS.c **** 
 527:.\Generated_Source\PSoC4/USBFS.c ****     #if (USBFS_EP8_ISR_ACTIVE)
 528:.\Generated_Source\PSoC4/USBFS.c ****         CyIntEnable(USBFS_EP_8_VECT_NUM);
 529:.\Generated_Source\PSoC4/USBFS.c ****     #endif /* (USBFS_EP8_ISR_ACTIVE) */
 530:.\Generated_Source\PSoC4/USBFS.c **** #endif /* (CY_PSOC4) */
 531:.\Generated_Source\PSoC4/USBFS.c **** 
 532:.\Generated_Source\PSoC4/USBFS.c **** #if (USBFS_EP_MANAGEMENT_DMA && USBFS_ARB_ISR_ACTIVE)
 533:.\Generated_Source\PSoC4/USBFS.c ****     /* Enable ARB EP interrupt sources. */
 534:.\Generated_Source\PSoC4/USBFS.c ****     USBFS_ARB_INT_EN_REG = USBFS_DEFAULT_ARB_INT_EN;
 535:.\Generated_Source\PSoC4/USBFS.c **** 
 536:.\Generated_Source\PSoC4/USBFS.c ****     #if (CY_PSOC3 || CY_PSOC5)
 537:.\Generated_Source\PSoC4/USBFS.c ****         CyIntEnable(USBFS_ARB_VECT_NUM);
 538:.\Generated_Source\PSoC4/USBFS.c ****     #endif /* (CY_PSOC3 || CY_PSOC5) */
 539:.\Generated_Source\PSoC4/USBFS.c **** #endif   /* (USBFS_EP_MANAGEMENT_DMA && USBFS_ARB_ISR_ACTIVE) */
 540:.\Generated_Source\PSoC4/USBFS.c **** 
 541:.\Generated_Source\PSoC4/USBFS.c **** /* Arbiter configuration for DMA transfers. */
 542:.\Generated_Source\PSoC4/USBFS.c **** #if (USBFS_EP_MANAGEMENT_DMA)
 543:.\Generated_Source\PSoC4/USBFS.c ****     /* Configure Arbiter for Manual or Auto DMA operation and clear configuration completion. */
 544:.\Generated_Source\PSoC4/USBFS.c ****     USBFS_ARB_CFG_REG = USBFS_DEFAULT_ARB_CFG;
 545:.\Generated_Source\PSoC4/USBFS.c **** 
 546:.\Generated_Source\PSoC4/USBFS.c ****     #if (CY_PSOC4)
ARM GAS  C:\Users\LAIR\AppData\Local\Temp\ccdy23dh.s 			page 11


 547:.\Generated_Source\PSoC4/USBFS.c ****         /* Enable DMA operation. */
 548:.\Generated_Source\PSoC4/USBFS.c ****         CyDmaEnable();
 549:.\Generated_Source\PSoC4/USBFS.c **** 
 550:.\Generated_Source\PSoC4/USBFS.c ****         #if (USBFS_EP_MANAGEMENT_DMA_AUTO)
 551:.\Generated_Source\PSoC4/USBFS.c ****             /* Change DMA priority to be highest. */
 552:.\Generated_Source\PSoC4/USBFS.c ****              CyIntSetPriority(CYDMA_INTR_NUMBER, USBFS_DMA_AUTO_INTR_PRIO);
 553:.\Generated_Source\PSoC4/USBFS.c ****         #endif /* (USBFS_EP_MANAGEMENT_DMA_AUTO) */
 554:.\Generated_Source\PSoC4/USBFS.c ****     #endif /* (CY_PSOC4) */
 555:.\Generated_Source\PSoC4/USBFS.c **** 
 556:.\Generated_Source\PSoC4/USBFS.c ****     #if (USBFS_EP_MANAGEMENT_DMA_AUTO)
 557:.\Generated_Source\PSoC4/USBFS.c ****         #if (CY_PSOC4)
 558:.\Generated_Source\PSoC4/USBFS.c ****             /* Enable DMA interrupt to handle DMA management. */
 559:.\Generated_Source\PSoC4/USBFS.c ****             CyIntEnable(CYDMA_INTR_NUMBER);
 560:.\Generated_Source\PSoC4/USBFS.c ****         #else
 561:.\Generated_Source\PSoC4/USBFS.c ****             #if (USBFS_EP_DMA_AUTO_OPT == 0u)
 562:.\Generated_Source\PSoC4/USBFS.c ****                 /* Initialize interrupts which handle verification of successful DMA transaction. *
 563:.\Generated_Source\PSoC4/USBFS.c ****                 USBFS_EP_DMA_Done_isr_StartEx(&USBFS_EP_DMA_DONE_ISR);
 564:.\Generated_Source\PSoC4/USBFS.c ****                 USBFS_EP17_DMA_Done_SR_InterruptEnable();
 565:.\Generated_Source\PSoC4/USBFS.c ****                 USBFS_EP8_DMA_Done_SR_InterruptEnable();
 566:.\Generated_Source\PSoC4/USBFS.c ****             #endif /* (USBFS_EP_DMA_AUTO_OPT == 0u) */
 567:.\Generated_Source\PSoC4/USBFS.c ****         #endif /* (CY_PSOC4) */
 568:.\Generated_Source\PSoC4/USBFS.c ****     #endif /* (USBFS_EP_MANAGEMENT_DMA_AUTO) */
 569:.\Generated_Source\PSoC4/USBFS.c **** #endif /* (USBFS_EP_MANAGEMENT_DMA) */
 570:.\Generated_Source\PSoC4/USBFS.c **** 
 571:.\Generated_Source\PSoC4/USBFS.c ****     /* Enable USB regulator depends on operation voltage. IMO Locking is enabled in Init(). */
 572:.\Generated_Source\PSoC4/USBFS.c ****     switch(mode)
 573:.\Generated_Source\PSoC4/USBFS.c ****     {
 574:.\Generated_Source\PSoC4/USBFS.c ****     case USBFS_3V_OPERATION:
 575:.\Generated_Source\PSoC4/USBFS.c ****         /* Disable regulator for 3V operation. */
 576:.\Generated_Source\PSoC4/USBFS.c ****         USBFS_CR1_REG &= (uint32) ~USBFS_CR1_REG_ENABLE;
 577:.\Generated_Source\PSoC4/USBFS.c ****         break;
 578:.\Generated_Source\PSoC4/USBFS.c **** 
 579:.\Generated_Source\PSoC4/USBFS.c ****     case USBFS_5V_OPERATION:
 580:.\Generated_Source\PSoC4/USBFS.c ****         /* Enable regulator for 5V operation. */
 581:.\Generated_Source\PSoC4/USBFS.c ****         USBFS_CR1_REG |= (uint32)  USBFS_CR1_REG_ENABLE;
 582:.\Generated_Source\PSoC4/USBFS.c ****         break;
 583:.\Generated_Source\PSoC4/USBFS.c **** 
 584:.\Generated_Source\PSoC4/USBFS.c ****     default: /* Check DWR settings of USB power supply. */
 585:.\Generated_Source\PSoC4/USBFS.c ****     #if (USBFS_VDDD_MV < USBFS_3500MV)
 586:.\Generated_Source\PSoC4/USBFS.c ****         /* Disable regulator for 3V operation. */
 587:.\Generated_Source\PSoC4/USBFS.c ****         USBFS_CR1_REG &= (uint32) ~USBFS_CR1_REG_ENABLE;
 588:.\Generated_Source\PSoC4/USBFS.c ****     #else
 589:.\Generated_Source\PSoC4/USBFS.c ****         /* Enable regulator for 5V operation. */
 590:.\Generated_Source\PSoC4/USBFS.c ****         USBFS_CR1_REG |= (uint32)  USBFS_CR1_REG_ENABLE;
 591:.\Generated_Source\PSoC4/USBFS.c ****     #endif /* (USBFS_VDDD_MV < USBFS_3500MV) */
 592:.\Generated_Source\PSoC4/USBFS.c ****         break;
 593:.\Generated_Source\PSoC4/USBFS.c ****     }
 594:.\Generated_Source\PSoC4/USBFS.c **** 
 595:.\Generated_Source\PSoC4/USBFS.c **** #if (CY_PSOC4)
 596:.\Generated_Source\PSoC4/USBFS.c ****     /* Clear bus activity. */
 597:.\Generated_Source\PSoC4/USBFS.c ****     USBFS_CR1_REG &= (uint32) ~USBFS_CR1_BUS_ACTIVITY;
 598:.\Generated_Source\PSoC4/USBFS.c **** 
 599:.\Generated_Source\PSoC4/USBFS.c ****     /* Clear EP0 count register. */
 600:.\Generated_Source\PSoC4/USBFS.c ****     USBFS_EP0_CNT_REG = USBFS_CLEAR_REG;
 601:.\Generated_Source\PSoC4/USBFS.c **** 
 602:.\Generated_Source\PSoC4/USBFS.c ****     /* Set EP0.CR: ACK Setup, NAK IN/OUT. */
 603:.\Generated_Source\PSoC4/USBFS.c ****     USBFS_EP0_CR_REG = USBFS_MODE_NAK_IN_OUT;
ARM GAS  C:\Users\LAIR\AppData\Local\Temp\ccdy23dh.s 			page 12


 604:.\Generated_Source\PSoC4/USBFS.c **** 
 605:.\Generated_Source\PSoC4/USBFS.c ****     #if (USBFS_LPM_ACTIVE)
 606:.\Generated_Source\PSoC4/USBFS.c ****         if (NULL != USBFS_GetBOSPtr())
 607:.\Generated_Source\PSoC4/USBFS.c ****         {
 608:.\Generated_Source\PSoC4/USBFS.c ****             /* Enable LPM and acknowledge LPM packets for active device.
 609:.\Generated_Source\PSoC4/USBFS.c ****             * Reset NYET_EN and SUB_RESP bits in the LPM_CTRL register.
 610:.\Generated_Source\PSoC4/USBFS.c ****             */
 611:.\Generated_Source\PSoC4/USBFS.c ****             USBFS_LPM_CTRL_REG = (USBFS_LPM_CTRL_LPM_EN | \
 612:.\Generated_Source\PSoC4/USBFS.c ****                                              USBFS_LPM_CTRL_LPM_ACK_RESP);
 613:.\Generated_Source\PSoC4/USBFS.c ****         }
 614:.\Generated_Source\PSoC4/USBFS.c ****         else
 615:.\Generated_Source\PSoC4/USBFS.c ****         {
 616:.\Generated_Source\PSoC4/USBFS.c ****             /* Disable LPM for active device. */
 617:.\Generated_Source\PSoC4/USBFS.c ****             USBFS_LPM_CTRL_REG &= (uint32) ~USBFS_LPM_CTRL_LPM_EN;
 618:.\Generated_Source\PSoC4/USBFS.c ****         }
 619:.\Generated_Source\PSoC4/USBFS.c ****     #endif /* (USBFS_LPM_ACTIVE) */
 620:.\Generated_Source\PSoC4/USBFS.c **** 
 621:.\Generated_Source\PSoC4/USBFS.c ****     /* Enable device to responds to USB traffic with address 0. */
 622:.\Generated_Source\PSoC4/USBFS.c ****     USBFS_CR0_REG = USBFS_DEFUALT_CR0;
 623:.\Generated_Source\PSoC4/USBFS.c **** 
 624:.\Generated_Source\PSoC4/USBFS.c **** #else
 625:.\Generated_Source\PSoC4/USBFS.c ****     /* Set EP0.CR: ACK Setup, STALL IN/OUT. */
 626:.\Generated_Source\PSoC4/USBFS.c ****     USBFS_EP0_CR_REG = USBFS_MODE_STALL_IN_OUT;
 627:.\Generated_Source\PSoC4/USBFS.c **** 
 628:.\Generated_Source\PSoC4/USBFS.c ****     /* Enable device to respond to USB traffic with address 0. */
 629:.\Generated_Source\PSoC4/USBFS.c ****     USBFS_CR0_REG = USBFS_DEFUALT_CR0;
 630:.\Generated_Source\PSoC4/USBFS.c ****     CyDelayCycles(USBFS_WAIT_CR0_REG_STABILITY);
 631:.\Generated_Source\PSoC4/USBFS.c **** #endif /* (CY_PSOC4) */
 632:.\Generated_Source\PSoC4/USBFS.c **** 
 633:.\Generated_Source\PSoC4/USBFS.c ****     /* Enable D+ pull-up and keep USB control on IO. */
 634:.\Generated_Source\PSoC4/USBFS.c ****     USBFS_USBIO_CR1_REG = USBFS_USBIO_CR1_USBPUEN;
 635:.\Generated_Source\PSoC4/USBFS.c **** }
 636:.\Generated_Source\PSoC4/USBFS.c **** 
 637:.\Generated_Source\PSoC4/USBFS.c **** 
 638:.\Generated_Source\PSoC4/USBFS.c **** /*******************************************************************************
 639:.\Generated_Source\PSoC4/USBFS.c **** * Function Name: USBFS_ReInitComponent
 640:.\Generated_Source\PSoC4/USBFS.c **** ****************************************************************************//**
 641:.\Generated_Source\PSoC4/USBFS.c **** *
 642:.\Generated_Source\PSoC4/USBFS.c **** *  This function reinitialize the component configuration and is
 643:.\Generated_Source\PSoC4/USBFS.c **** *  intend to be called from the Reset interrupt.
 644:.\Generated_Source\PSoC4/USBFS.c **** *
 645:.\Generated_Source\PSoC4/USBFS.c **** * \globalvars
 646:.\Generated_Source\PSoC4/USBFS.c **** *   USBFS_device - Contains the device number of the desired Device
 647:.\Generated_Source\PSoC4/USBFS.c **** *        Descriptor. The device number can be found in the Device Descriptor tab
 648:.\Generated_Source\PSoC4/USBFS.c **** *       of the Configure dialog, under the settings of the desired Device Descriptor,
 649:.\Generated_Source\PSoC4/USBFS.c **** *       in the Device Number field.
 650:.\Generated_Source\PSoC4/USBFS.c **** *   USBFS_transferState - This variable is used by the communication
 651:.\Generated_Source\PSoC4/USBFS.c **** *       functions to handle the current transfer state. Initialized to
 652:.\Generated_Source\PSoC4/USBFS.c **** *       TRANS_STATE_IDLE in this API.
 653:.\Generated_Source\PSoC4/USBFS.c **** *   USBFS_configuration - Contains the current configuration number
 654:.\Generated_Source\PSoC4/USBFS.c **** *       set by the Host using a SET_CONFIGURATION request.
 655:.\Generated_Source\PSoC4/USBFS.c **** *       Initialized to zero in this API.
 656:.\Generated_Source\PSoC4/USBFS.c **** *   USBFS_deviceAddress - Contains the current device address. This
 657:.\Generated_Source\PSoC4/USBFS.c **** *       variable is initialized to zero in this API. The Host starts to communicate
 658:.\Generated_Source\PSoC4/USBFS.c **** *      to the device with address 0 and then sets it to a whatever value using
 659:.\Generated_Source\PSoC4/USBFS.c **** *      a SET_ADDRESS request.
 660:.\Generated_Source\PSoC4/USBFS.c **** *   USBFS_deviceStatus - Initialized to 0.
ARM GAS  C:\Users\LAIR\AppData\Local\Temp\ccdy23dh.s 			page 13


 661:.\Generated_Source\PSoC4/USBFS.c **** *       This is a two-bit variable which contains the power status in the first bit
 662:.\Generated_Source\PSoC4/USBFS.c **** *       (DEVICE_STATUS_BUS_POWERED or DEVICE_STATUS_SELF_POWERED) and the remote
 663:.\Generated_Source\PSoC4/USBFS.c **** *       wakeup status (DEVICE_STATUS_REMOTE_WAKEUP) in the second bit.
 664:.\Generated_Source\PSoC4/USBFS.c **** *   USBFS_lastPacketSize - Initialized to 0;
 665:.\Generated_Source\PSoC4/USBFS.c **** *
 666:.\Generated_Source\PSoC4/USBFS.c **** * \reentrant
 667:.\Generated_Source\PSoC4/USBFS.c **** *  No.
 668:.\Generated_Source\PSoC4/USBFS.c **** *
 669:.\Generated_Source\PSoC4/USBFS.c **** *******************************************************************************/
 670:.\Generated_Source\PSoC4/USBFS.c **** void USBFS_ReInitComponent(void) 
 671:.\Generated_Source\PSoC4/USBFS.c **** {
 672:.\Generated_Source\PSoC4/USBFS.c ****     /* Initialize _hidProtocol variable to comply with HID 7.2.6 Set_Protocol
 673:.\Generated_Source\PSoC4/USBFS.c ****     *  Request: "When initialized, all devices default to report protocol."
 674:.\Generated_Source\PSoC4/USBFS.c ****     */
 675:.\Generated_Source\PSoC4/USBFS.c **** #if defined(USBFS_ENABLE_HID_CLASS)
 676:.\Generated_Source\PSoC4/USBFS.c ****     uint8 i;
 677:.\Generated_Source\PSoC4/USBFS.c **** 
 678:.\Generated_Source\PSoC4/USBFS.c ****     for (i = 0u; i < USBFS_MAX_INTERFACES_NUMBER; i++)
 679:.\Generated_Source\PSoC4/USBFS.c ****     {
 680:.\Generated_Source\PSoC4/USBFS.c ****         USBFS_hidProtocol[i] = USBFS_PROTOCOL_REPORT;
 681:.\Generated_Source\PSoC4/USBFS.c ****     }
 682:.\Generated_Source\PSoC4/USBFS.c **** #endif /* USBFS_ENABLE_HID_CLASS */
 683:.\Generated_Source\PSoC4/USBFS.c **** 
 684:.\Generated_Source\PSoC4/USBFS.c ****     /* Reset component internal variables. */
 685:.\Generated_Source\PSoC4/USBFS.c ****     USBFS_transferState   = USBFS_TRANS_STATE_IDLE;
 686:.\Generated_Source\PSoC4/USBFS.c ****     USBFS_configurationChanged = 0u;
 687:.\Generated_Source\PSoC4/USBFS.c ****     USBFS_configuration   = 0u;
 688:.\Generated_Source\PSoC4/USBFS.c ****     USBFS_interfaceNumber = 0u;
 689:.\Generated_Source\PSoC4/USBFS.c ****     USBFS_deviceAddress   = 0u;
 690:.\Generated_Source\PSoC4/USBFS.c ****     USBFS_deviceStatus    = 0u;
 691:.\Generated_Source\PSoC4/USBFS.c ****     USBFS_lastPacketSize  = 0u;
 692:.\Generated_Source\PSoC4/USBFS.c **** 
 693:.\Generated_Source\PSoC4/USBFS.c **** #if (CY_PSOC4)
 694:.\Generated_Source\PSoC4/USBFS.c ****     /* Set EP0.CR: ACK Setup, NAK IN/OUT. */
 695:.\Generated_Source\PSoC4/USBFS.c ****     USBFS_EP0_CR_REG = USBFS_MODE_NAK_IN_OUT;
 696:.\Generated_Source\PSoC4/USBFS.c **** #else
 697:.\Generated_Source\PSoC4/USBFS.c ****     /* Set EP0.CR: ACK Setup, STALL IN/OUT. */
 698:.\Generated_Source\PSoC4/USBFS.c ****     USBFS_EP0_CR_REG = USBFS_MODE_STALL_IN_OUT;
 699:.\Generated_Source\PSoC4/USBFS.c **** #endif /* (CY_PSOC4) */
 700:.\Generated_Source\PSoC4/USBFS.c **** 
 701:.\Generated_Source\PSoC4/USBFS.c ****     /* Enable device to respond to USB traffic with address 0. */
 702:.\Generated_Source\PSoC4/USBFS.c ****     USBFS_CR0_REG = USBFS_DEFUALT_CR0;
 703:.\Generated_Source\PSoC4/USBFS.c **** }
 704:.\Generated_Source\PSoC4/USBFS.c **** 
 705:.\Generated_Source\PSoC4/USBFS.c **** 
 706:.\Generated_Source\PSoC4/USBFS.c **** /*******************************************************************************
 707:.\Generated_Source\PSoC4/USBFS.c **** * Function Name: USBFS_Stop
 708:.\Generated_Source\PSoC4/USBFS.c **** ****************************************************************************//**
 709:.\Generated_Source\PSoC4/USBFS.c **** *
 710:.\Generated_Source\PSoC4/USBFS.c **** *  This function shuts down the USB function including to release
 711:.\Generated_Source\PSoC4/USBFS.c **** *  the D+ pull-up and disabling the SIE.
 712:.\Generated_Source\PSoC4/USBFS.c **** *
 713:.\Generated_Source\PSoC4/USBFS.c **** * \globalvars
 714:.\Generated_Source\PSoC4/USBFS.c **** *   \ref USBFS_configuration
 715:.\Generated_Source\PSoC4/USBFS.c **** *
 716:.\Generated_Source\PSoC4/USBFS.c **** *   USBFS_deviceAddress - Contains the current device address. This
 717:.\Generated_Source\PSoC4/USBFS.c **** *       variable is initialized to zero in this API. The Host starts to communicate
ARM GAS  C:\Users\LAIR\AppData\Local\Temp\ccdy23dh.s 			page 14


 718:.\Generated_Source\PSoC4/USBFS.c **** *      to the device with address 0 and then sets it to a whatever value using
 719:.\Generated_Source\PSoC4/USBFS.c **** *      a SET_ADDRESS request.
 720:.\Generated_Source\PSoC4/USBFS.c **** *
 721:.\Generated_Source\PSoC4/USBFS.c **** *   \ref USBFS_deviceStatus
 722:.\Generated_Source\PSoC4/USBFS.c **** *
 723:.\Generated_Source\PSoC4/USBFS.c **** *   \ref USBFS_configurationChanged
 724:.\Generated_Source\PSoC4/USBFS.c **** *
 725:.\Generated_Source\PSoC4/USBFS.c **** *   USBFS_intiVar -  This variable is set to zero
 726:.\Generated_Source\PSoC4/USBFS.c **** *
 727:.\Generated_Source\PSoC4/USBFS.c **** *******************************************************************************/
 728:.\Generated_Source\PSoC4/USBFS.c **** void USBFS_Stop(void) 
 729:.\Generated_Source\PSoC4/USBFS.c **** {
 730:.\Generated_Source\PSoC4/USBFS.c ****     uint8 enableInterrupts;
 731:.\Generated_Source\PSoC4/USBFS.c **** 
 732:.\Generated_Source\PSoC4/USBFS.c **** #if (USBFS_EP_MANAGEMENT_DMA)
 733:.\Generated_Source\PSoC4/USBFS.c ****     /* Stop all DMA channels. */
 734:.\Generated_Source\PSoC4/USBFS.c ****     USBFS_Stop_DMA(USBFS_MAX_EP);
 735:.\Generated_Source\PSoC4/USBFS.c **** #endif /* (USBFS_EP_MANAGEMENT_DMA) */
 736:.\Generated_Source\PSoC4/USBFS.c **** 
 737:.\Generated_Source\PSoC4/USBFS.c ****     enableInterrupts = CyEnterCriticalSection();
 738:.\Generated_Source\PSoC4/USBFS.c **** 
 739:.\Generated_Source\PSoC4/USBFS.c ****     /* Disable USB IP to respond to USB traffic. */
 740:.\Generated_Source\PSoC4/USBFS.c ****     USBFS_CR0_REG &= (uint32) ~USBFS_CR0_ENABLE;
 741:.\Generated_Source\PSoC4/USBFS.c **** 
 742:.\Generated_Source\PSoC4/USBFS.c ****     /* Disable D+ pull-up. */
 743:.\Generated_Source\PSoC4/USBFS.c ****     USBFS_USBIO_CR1_REG &= (uint32) ~ USBFS_USBIO_CR1_USBPUEN;
 744:.\Generated_Source\PSoC4/USBFS.c **** 
 745:.\Generated_Source\PSoC4/USBFS.c **** #if (CY_PSOC4)
 746:.\Generated_Source\PSoC4/USBFS.c ****     /* Disable USBFS block. */
 747:.\Generated_Source\PSoC4/USBFS.c ****     USBFS_POWER_CTRL_REG &= (uint32) ~USBFS_POWER_CTRL_ENABLE;
 748:.\Generated_Source\PSoC4/USBFS.c **** #else
 749:.\Generated_Source\PSoC4/USBFS.c ****     /* Clear power active and standby mode templates. */
 750:.\Generated_Source\PSoC4/USBFS.c ****     USBFS_PM_ACT_CFG_REG  &= (uint8) ~USBFS_PM_ACT_EN_FSUSB;
 751:.\Generated_Source\PSoC4/USBFS.c ****     USBFS_PM_STBY_CFG_REG &= (uint8) ~USBFS_PM_STBY_EN_FSUSB;
 752:.\Generated_Source\PSoC4/USBFS.c **** #endif /* (CY_PSOC4) */
 753:.\Generated_Source\PSoC4/USBFS.c **** 
 754:.\Generated_Source\PSoC4/USBFS.c ****     CyExitCriticalSection(enableInterrupts);
 755:.\Generated_Source\PSoC4/USBFS.c **** 
 756:.\Generated_Source\PSoC4/USBFS.c ****     /* Disable component interrupts. */
 757:.\Generated_Source\PSoC4/USBFS.c **** #if (CY_PSOC4)
 758:.\Generated_Source\PSoC4/USBFS.c ****     CyIntDisable(USBFS_INTR_HI_VECT_NUM);
 759:.\Generated_Source\PSoC4/USBFS.c ****     CyIntDisable(USBFS_INTR_LO_VECT_NUM);
 760:.\Generated_Source\PSoC4/USBFS.c ****     CyIntDisable(USBFS_INTR_MED_VECT_NUM);
 761:.\Generated_Source\PSoC4/USBFS.c **** #else
 762:.\Generated_Source\PSoC4/USBFS.c **** 
 763:.\Generated_Source\PSoC4/USBFS.c ****     CyIntDisable(USBFS_BUS_RESET_VECT_NUM);
 764:.\Generated_Source\PSoC4/USBFS.c ****     CyIntDisable(USBFS_EP_0_VECT_NUM);
 765:.\Generated_Source\PSoC4/USBFS.c **** 
 766:.\Generated_Source\PSoC4/USBFS.c ****     #if (USBFS_SOF_ISR_ACTIVE)
 767:.\Generated_Source\PSoC4/USBFS.c ****         CyIntDisable(USBFS_SOF_VECT_NUM);
 768:.\Generated_Source\PSoC4/USBFS.c ****     #endif /* (USBFS_SOF_ISR_ACTIVE) */
 769:.\Generated_Source\PSoC4/USBFS.c **** 
 770:.\Generated_Source\PSoC4/USBFS.c ****     #if (USBFS_EP1_ISR_ACTIVE)
 771:.\Generated_Source\PSoC4/USBFS.c ****         CyIntDisable(USBFS_EP_1_VECT_NUM);
 772:.\Generated_Source\PSoC4/USBFS.c ****     #endif /* (USBFS_EP1_ISR_ACTIVE) */
 773:.\Generated_Source\PSoC4/USBFS.c **** 
 774:.\Generated_Source\PSoC4/USBFS.c ****     #if (USBFS_EP2_ISR_ACTIVE)
ARM GAS  C:\Users\LAIR\AppData\Local\Temp\ccdy23dh.s 			page 15


 775:.\Generated_Source\PSoC4/USBFS.c ****         CyIntDisable(USBFS_EP_2_VECT_NUM);
 776:.\Generated_Source\PSoC4/USBFS.c ****     #endif /* (USBFS_EP2_ISR_ACTIVE) */
 777:.\Generated_Source\PSoC4/USBFS.c **** 
 778:.\Generated_Source\PSoC4/USBFS.c ****     #if (USBFS_EP3_ISR_ACTIVE)
 779:.\Generated_Source\PSoC4/USBFS.c ****         CyIntDisable(USBFS_EP_3_VECT_NUM);
 780:.\Generated_Source\PSoC4/USBFS.c ****     #endif /* (USBFS_EP3_ISR_ACTIVE) */
 781:.\Generated_Source\PSoC4/USBFS.c **** 
 782:.\Generated_Source\PSoC4/USBFS.c ****     #if (USBFS_EP4_ISR_ACTIVE)
 783:.\Generated_Source\PSoC4/USBFS.c ****         CyIntDisable(USBFS_EP_4_VECT_NUM);
 784:.\Generated_Source\PSoC4/USBFS.c ****     #endif /* (USBFS_EP4_ISR_ACTIVE) */
 785:.\Generated_Source\PSoC4/USBFS.c **** 
 786:.\Generated_Source\PSoC4/USBFS.c ****     #if (USBFS_EP5_ISR_ACTIVE)
 787:.\Generated_Source\PSoC4/USBFS.c ****         CyIntDisable(USBFS_EP_5_VECT_NUM);
 788:.\Generated_Source\PSoC4/USBFS.c ****     #endif /* (USBFS_EP5_ISR_ACTIVE) */
 789:.\Generated_Source\PSoC4/USBFS.c **** 
 790:.\Generated_Source\PSoC4/USBFS.c ****     #if (USBFS_EP6_ISR_ACTIVE)
 791:.\Generated_Source\PSoC4/USBFS.c ****         CyIntDisable(USBFS_EP_6_VECT_NUM);
 792:.\Generated_Source\PSoC4/USBFS.c ****     #endif /* USBFS_EP6_ISR_REMOVE */
 793:.\Generated_Source\PSoC4/USBFS.c **** 
 794:.\Generated_Source\PSoC4/USBFS.c ****     #if (USBFS_EP7_ISR_ACTIVE)
 795:.\Generated_Source\PSoC4/USBFS.c ****         CyIntDisable(USBFS_EP_7_VECT_NUM);
 796:.\Generated_Source\PSoC4/USBFS.c ****     #endif /* (USBFS_EP7_ISR_ACTIVE) */
 797:.\Generated_Source\PSoC4/USBFS.c **** 
 798:.\Generated_Source\PSoC4/USBFS.c ****     #if (USBFS_EP8_ISR_ACTIVE)
 799:.\Generated_Source\PSoC4/USBFS.c ****         CyIntDisable(USBFS_EP_8_VECT_NUM);
 800:.\Generated_Source\PSoC4/USBFS.c ****     #endif /* (USBFS_EP8_ISR_ACTIVE) */
 801:.\Generated_Source\PSoC4/USBFS.c **** #endif /* (CY_PSOC4) */
 802:.\Generated_Source\PSoC4/USBFS.c **** 
 803:.\Generated_Source\PSoC4/USBFS.c ****     /* Reset component internal variables. */
 804:.\Generated_Source\PSoC4/USBFS.c ****     USBFS_configurationChanged = 0u;
 805:.\Generated_Source\PSoC4/USBFS.c ****     USBFS_configuration   = 0u;
 806:.\Generated_Source\PSoC4/USBFS.c ****     USBFS_interfaceNumber = 0u;
 807:.\Generated_Source\PSoC4/USBFS.c ****     USBFS_deviceAddress   = 0u;
 808:.\Generated_Source\PSoC4/USBFS.c ****     USBFS_deviceStatus    = 0u;
 809:.\Generated_Source\PSoC4/USBFS.c **** 
 810:.\Generated_Source\PSoC4/USBFS.c ****     /* It is mandatory for correct device startup. */
 811:.\Generated_Source\PSoC4/USBFS.c ****     USBFS_initVar = 0u;
 812:.\Generated_Source\PSoC4/USBFS.c **** }
 813:.\Generated_Source\PSoC4/USBFS.c **** 
 814:.\Generated_Source\PSoC4/USBFS.c **** 
 815:.\Generated_Source\PSoC4/USBFS.c **** /*******************************************************************************
 816:.\Generated_Source\PSoC4/USBFS.c **** * Function Name: USBFS_CheckActivity
 817:.\Generated_Source\PSoC4/USBFS.c **** ****************************************************************************//**
 818:.\Generated_Source\PSoC4/USBFS.c **** *
 819:.\Generated_Source\PSoC4/USBFS.c **** *  This function returns the activity status of the bus. It clears the hardware
 820:.\Generated_Source\PSoC4/USBFS.c **** *  status to provide updated status on the next call of this function. It
 821:.\Generated_Source\PSoC4/USBFS.c **** *  provides a way to determine whether any USB bus activity occurred. The
 822:.\Generated_Source\PSoC4/USBFS.c **** *  application should use this function to determine if the USB suspend
 823:.\Generated_Source\PSoC4/USBFS.c **** *  conditions are met.
 824:.\Generated_Source\PSoC4/USBFS.c **** *
 825:.\Generated_Source\PSoC4/USBFS.c **** *
 826:.\Generated_Source\PSoC4/USBFS.c **** * \return
 827:.\Generated_Source\PSoC4/USBFS.c **** *  cystatus: Status of the bus since the last call of the function.
 828:.\Generated_Source\PSoC4/USBFS.c **** *  Return Value |   Description
 829:.\Generated_Source\PSoC4/USBFS.c **** *  -------------|---------------------------------------------------------------
 830:.\Generated_Source\PSoC4/USBFS.c **** *  1            |Bus activity was detected since the last call to this function
 831:.\Generated_Source\PSoC4/USBFS.c **** *  0            |Bus activity was not detected since the last call to this function
ARM GAS  C:\Users\LAIR\AppData\Local\Temp\ccdy23dh.s 			page 16


 832:.\Generated_Source\PSoC4/USBFS.c **** *
 833:.\Generated_Source\PSoC4/USBFS.c **** *
 834:.\Generated_Source\PSoC4/USBFS.c **** *******************************************************************************/
 835:.\Generated_Source\PSoC4/USBFS.c **** uint8 USBFS_CheckActivity(void) 
 836:.\Generated_Source\PSoC4/USBFS.c **** {
 837:.\Generated_Source\PSoC4/USBFS.c ****     uint32 cr1Reg = USBFS_CR1_REG;
 838:.\Generated_Source\PSoC4/USBFS.c **** 
 839:.\Generated_Source\PSoC4/USBFS.c ****     /* Clear bus activity. */
 840:.\Generated_Source\PSoC4/USBFS.c ****     USBFS_CR1_REG = (cr1Reg & (uint32) ~USBFS_CR1_BUS_ACTIVITY);
 841:.\Generated_Source\PSoC4/USBFS.c **** 
 842:.\Generated_Source\PSoC4/USBFS.c ****     /* Get bus activity. */
 843:.\Generated_Source\PSoC4/USBFS.c ****     return ((0u != (cr1Reg & USBFS_CR1_BUS_ACTIVITY)) ? (1u) : (0u));
 844:.\Generated_Source\PSoC4/USBFS.c **** }
 845:.\Generated_Source\PSoC4/USBFS.c **** 
 846:.\Generated_Source\PSoC4/USBFS.c **** 
 847:.\Generated_Source\PSoC4/USBFS.c **** /*******************************************************************************
 848:.\Generated_Source\PSoC4/USBFS.c **** * Function Name: USBFS_GetConfiguration
 849:.\Generated_Source\PSoC4/USBFS.c **** ****************************************************************************//**
 850:.\Generated_Source\PSoC4/USBFS.c **** *
 851:.\Generated_Source\PSoC4/USBFS.c **** *  This function gets the current configuration of the USB device.
 852:.\Generated_Source\PSoC4/USBFS.c **** *
 853:.\Generated_Source\PSoC4/USBFS.c **** * \return
 854:.\Generated_Source\PSoC4/USBFS.c **** *  Returns the currently assigned configuration. Returns 0 if the device
 855:.\Generated_Source\PSoC4/USBFS.c **** *  is not configured
 856:.\Generated_Source\PSoC4/USBFS.c **** *
 857:.\Generated_Source\PSoC4/USBFS.c **** *******************************************************************************/
 858:.\Generated_Source\PSoC4/USBFS.c **** uint8 USBFS_GetConfiguration(void) 
 859:.\Generated_Source\PSoC4/USBFS.c **** {
 860:.\Generated_Source\PSoC4/USBFS.c ****     return (USBFS_configuration);
 861:.\Generated_Source\PSoC4/USBFS.c **** }
 862:.\Generated_Source\PSoC4/USBFS.c **** 
 863:.\Generated_Source\PSoC4/USBFS.c **** 
 864:.\Generated_Source\PSoC4/USBFS.c **** /*******************************************************************************
 865:.\Generated_Source\PSoC4/USBFS.c **** * Function Name: USBFS_IsConfigurationChanged
 866:.\Generated_Source\PSoC4/USBFS.c **** ****************************************************************************//**
 867:.\Generated_Source\PSoC4/USBFS.c **** *
 868:.\Generated_Source\PSoC4/USBFS.c **** *  This function returns the clear-on-read configuration state.  It is useful
 869:.\Generated_Source\PSoC4/USBFS.c **** *  when the host sends double SET_CONFIGURATION request with the same 
 870:.\Generated_Source\PSoC4/USBFS.c **** *  configuration number or changes alternate settings of the interface. 
 871:.\Generated_Source\PSoC4/USBFS.c **** *  After configuration has been changed the OUT endpoints must be enabled and IN 
 872:.\Generated_Source\PSoC4/USBFS.c **** *  endpoint must be loaded with data to start communication with the host.
 873:.\Generated_Source\PSoC4/USBFS.c **** *
 874:.\Generated_Source\PSoC4/USBFS.c **** * \return
 875:.\Generated_Source\PSoC4/USBFS.c **** *  None-zero value when new configuration has been changed, otherwise zero is
 876:.\Generated_Source\PSoC4/USBFS.c **** *  returned.
 877:.\Generated_Source\PSoC4/USBFS.c **** *
 878:.\Generated_Source\PSoC4/USBFS.c **** * \globalvars
 879:.\Generated_Source\PSoC4/USBFS.c **** *
 880:.\Generated_Source\PSoC4/USBFS.c **** *  \ref USBFS_configurationChanged - This variable is set to 1 after
 881:.\Generated_Source\PSoC4/USBFS.c **** *   a SET_CONFIGURATION request and cleared in this function.
 882:.\Generated_Source\PSoC4/USBFS.c **** *
 883:.\Generated_Source\PSoC4/USBFS.c **** *******************************************************************************/
 884:.\Generated_Source\PSoC4/USBFS.c **** uint8 USBFS_IsConfigurationChanged(void) 
 885:.\Generated_Source\PSoC4/USBFS.c **** {
 886:.\Generated_Source\PSoC4/USBFS.c ****     uint8 res = 0u;
 887:.\Generated_Source\PSoC4/USBFS.c **** 
 888:.\Generated_Source\PSoC4/USBFS.c ****     if (USBFS_configurationChanged != 0u)
ARM GAS  C:\Users\LAIR\AppData\Local\Temp\ccdy23dh.s 			page 17


 889:.\Generated_Source\PSoC4/USBFS.c ****     {
 890:.\Generated_Source\PSoC4/USBFS.c ****         res = USBFS_configurationChanged;
 891:.\Generated_Source\PSoC4/USBFS.c ****         USBFS_configurationChanged = 0u;
 892:.\Generated_Source\PSoC4/USBFS.c ****     }
 893:.\Generated_Source\PSoC4/USBFS.c **** 
 894:.\Generated_Source\PSoC4/USBFS.c ****     return (res);
 895:.\Generated_Source\PSoC4/USBFS.c **** }
 896:.\Generated_Source\PSoC4/USBFS.c **** 
 897:.\Generated_Source\PSoC4/USBFS.c **** 
 898:.\Generated_Source\PSoC4/USBFS.c **** /*******************************************************************************
 899:.\Generated_Source\PSoC4/USBFS.c **** * Function Name: USBFS_GetInterfaceSetting
 900:.\Generated_Source\PSoC4/USBFS.c **** ****************************************************************************//**
 901:.\Generated_Source\PSoC4/USBFS.c **** *
 902:.\Generated_Source\PSoC4/USBFS.c **** *  This function gets the current alternate setting for the specified interface.
 903:.\Generated_Source\PSoC4/USBFS.c **** *  It is useful to identify which alternate settings are active in the specified 
 904:.\Generated_Source\PSoC4/USBFS.c **** *  interface.
 905:.\Generated_Source\PSoC4/USBFS.c **** *
 906:.\Generated_Source\PSoC4/USBFS.c **** *  \param
 907:.\Generated_Source\PSoC4/USBFS.c **** *  interfaceNumber interface number
 908:.\Generated_Source\PSoC4/USBFS.c **** *
 909:.\Generated_Source\PSoC4/USBFS.c **** * \return
 910:.\Generated_Source\PSoC4/USBFS.c **** *  Returns the current alternate setting for the specified interface.
 911:.\Generated_Source\PSoC4/USBFS.c **** *
 912:.\Generated_Source\PSoC4/USBFS.c **** *******************************************************************************/
 913:.\Generated_Source\PSoC4/USBFS.c **** uint8  USBFS_GetInterfaceSetting(uint8 interfaceNumber)
 914:.\Generated_Source\PSoC4/USBFS.c ****                                                     
 915:.\Generated_Source\PSoC4/USBFS.c **** {
 916:.\Generated_Source\PSoC4/USBFS.c ****     return (USBFS_interfaceSetting[interfaceNumber]);
 917:.\Generated_Source\PSoC4/USBFS.c **** }
 918:.\Generated_Source\PSoC4/USBFS.c **** 
 919:.\Generated_Source\PSoC4/USBFS.c **** 
 920:.\Generated_Source\PSoC4/USBFS.c **** /*******************************************************************************
 921:.\Generated_Source\PSoC4/USBFS.c **** * Function Name: USBFS_GetEPState
 922:.\Generated_Source\PSoC4/USBFS.c **** ****************************************************************************//**
 923:.\Generated_Source\PSoC4/USBFS.c **** *
 924:.\Generated_Source\PSoC4/USBFS.c **** *  This function returns the state of the requested endpoint.
 925:.\Generated_Source\PSoC4/USBFS.c **** *
 926:.\Generated_Source\PSoC4/USBFS.c **** * \param epNumber Data endpoint number
 927:.\Generated_Source\PSoC4/USBFS.c **** *
 928:.\Generated_Source\PSoC4/USBFS.c **** * \return
 929:.\Generated_Source\PSoC4/USBFS.c **** *  Returns the current state of the specified USBFS endpoint. Symbolic names and
 930:.\Generated_Source\PSoC4/USBFS.c **** *  their associated values are given in the following table. Use these constants
 931:.\Generated_Source\PSoC4/USBFS.c **** *  whenever you write code to change the state of the endpoints, such as ISR
 932:.\Generated_Source\PSoC4/USBFS.c **** *  code, to handle data sent or received.
 933:.\Generated_Source\PSoC4/USBFS.c **** *
 934:.\Generated_Source\PSoC4/USBFS.c **** *  Return Value           | Description
 935:.\Generated_Source\PSoC4/USBFS.c **** *  -----------------------|-----------------------------------------------------
 936:.\Generated_Source\PSoC4/USBFS.c **** *  USBFS_NO_EVENT_PENDING |The endpoint is awaiting SIE action
 937:.\Generated_Source\PSoC4/USBFS.c **** *  USBFS_EVENT_PENDING    |The endpoint is awaiting CPU action
 938:.\Generated_Source\PSoC4/USBFS.c **** *  USBFS_NO_EVENT_ALLOWED |The endpoint is locked from access
 939:.\Generated_Source\PSoC4/USBFS.c **** *  USBFS_IN_BUFFER_FULL   |The IN endpoint is loaded and the mode is set to ACK IN
 940:.\Generated_Source\PSoC4/USBFS.c **** *  USBFS_IN_BUFFER_EMPTY  |An IN transaction occurred and more data can be loaded
 941:.\Generated_Source\PSoC4/USBFS.c **** *  USBFS_OUT_BUFFER_EMPTY |The OUT endpoint is set to ACK OUT and is waiting for data
 942:.\Generated_Source\PSoC4/USBFS.c **** *  USBFS_OUT_BUFFER_FULL  |An OUT transaction has occurred and data can be read
 943:.\Generated_Source\PSoC4/USBFS.c **** *
 944:.\Generated_Source\PSoC4/USBFS.c **** *******************************************************************************/
 945:.\Generated_Source\PSoC4/USBFS.c **** uint8 USBFS_GetEPState(uint8 epNumber) 
ARM GAS  C:\Users\LAIR\AppData\Local\Temp\ccdy23dh.s 			page 18


 946:.\Generated_Source\PSoC4/USBFS.c **** {
 947:.\Generated_Source\PSoC4/USBFS.c ****     return (USBFS_EP[epNumber].apiEpState);
 948:.\Generated_Source\PSoC4/USBFS.c **** }
 949:.\Generated_Source\PSoC4/USBFS.c **** 
 950:.\Generated_Source\PSoC4/USBFS.c **** 
 951:.\Generated_Source\PSoC4/USBFS.c **** /*******************************************************************************
 952:.\Generated_Source\PSoC4/USBFS.c **** * Function Name: USBFS_GetEPCount
 953:.\Generated_Source\PSoC4/USBFS.c **** ****************************************************************************//**
 954:.\Generated_Source\PSoC4/USBFS.c **** *
 955:.\Generated_Source\PSoC4/USBFS.c **** *  This function supports Data Endpoints only(EP1-EP8).
 956:.\Generated_Source\PSoC4/USBFS.c **** *  Returns the transfer count for the requested endpoint.  The value from
 957:.\Generated_Source\PSoC4/USBFS.c **** *  the count registers includes 2 counts for the two byte checksum of the
 958:.\Generated_Source\PSoC4/USBFS.c **** *  packet.  This function subtracts the two counts.
 959:.\Generated_Source\PSoC4/USBFS.c **** *
 960:.\Generated_Source\PSoC4/USBFS.c **** *  \param epNumber Data Endpoint Number.
 961:.\Generated_Source\PSoC4/USBFS.c **** *                   Valid values are between 1 and 8.
 962:.\Generated_Source\PSoC4/USBFS.c **** *
 963:.\Generated_Source\PSoC4/USBFS.c **** * \return
 964:.\Generated_Source\PSoC4/USBFS.c **** *  Returns the current byte count from the specified endpoint or 0 for an
 965:.\Generated_Source\PSoC4/USBFS.c **** *  invalid endpoint.
 966:.\Generated_Source\PSoC4/USBFS.c **** *
 967:.\Generated_Source\PSoC4/USBFS.c **** *******************************************************************************/
 968:.\Generated_Source\PSoC4/USBFS.c **** uint16 USBFS_GetEPCount(uint8 epNumber) 
 969:.\Generated_Source\PSoC4/USBFS.c **** {
 970:.\Generated_Source\PSoC4/USBFS.c ****     uint16 cntr = 0u;
 971:.\Generated_Source\PSoC4/USBFS.c **** 
 972:.\Generated_Source\PSoC4/USBFS.c ****     if ((epNumber > USBFS_EP0) && (epNumber < USBFS_MAX_EP))
 973:.\Generated_Source\PSoC4/USBFS.c ****     {
 974:.\Generated_Source\PSoC4/USBFS.c ****         /* Get 11-bits EP counter where epCnt0 - 3 bits MSB and epCnt1 - 8 bits LSB. */
 975:.\Generated_Source\PSoC4/USBFS.c ****         cntr  = ((uint16) USBFS_SIE_EP_BASE.sieEp[epNumber].epCnt0) & USBFS_EPX_CNT0_MASK;
 976:.\Generated_Source\PSoC4/USBFS.c ****         cntr  = ((uint16) (cntr << 8u)) | ((uint16) USBFS_SIE_EP_BASE.sieEp[epNumber].epCnt1);
 977:.\Generated_Source\PSoC4/USBFS.c ****         cntr -= USBFS_EPX_CNTX_CRC_COUNT;
 978:.\Generated_Source\PSoC4/USBFS.c ****     }
 979:.\Generated_Source\PSoC4/USBFS.c **** 
 980:.\Generated_Source\PSoC4/USBFS.c ****     return (cntr);
 981:.\Generated_Source\PSoC4/USBFS.c **** }
 982:.\Generated_Source\PSoC4/USBFS.c **** 
 983:.\Generated_Source\PSoC4/USBFS.c **** 
 984:.\Generated_Source\PSoC4/USBFS.c **** #if (USBFS_EP_MANAGEMENT_DMA)
 985:.\Generated_Source\PSoC4/USBFS.c **** #if (CY_PSOC4)
 986:.\Generated_Source\PSoC4/USBFS.c ****     /*******************************************************************************
 987:.\Generated_Source\PSoC4/USBFS.c ****     * Function Name: USBFS_InitEpDma
 988:.\Generated_Source\PSoC4/USBFS.c ****     ****************************************************************************//**
 989:.\Generated_Source\PSoC4/USBFS.c ****     *
 990:.\Generated_Source\PSoC4/USBFS.c ****     *  This function configures priority for all DMA channels utilized by the
 991:.\Generated_Source\PSoC4/USBFS.c ****     *  component. Also sets callbacks for DMA auto mode.
 992:.\Generated_Source\PSoC4/USBFS.c ****     *
 993:.\Generated_Source\PSoC4/USBFS.c ****     *******************************************************************************/
 994:.\Generated_Source\PSoC4/USBFS.c ****     static void USBFS_InitEpDma(void)
 995:.\Generated_Source\PSoC4/USBFS.c ****     {
  25              		.loc 1 995 0
  26              		.cfi_startproc
 996:.\Generated_Source\PSoC4/USBFS.c ****     #if (USBFS_DMA1_ACTIVE)
 997:.\Generated_Source\PSoC4/USBFS.c ****         CYDMA_CH_CTL_BASE.ctl[USBFS_ep1_dma_CHANNEL] = USBFS_ep1_dma_CHANNEL_CFG;
  27              		.loc 1 997 0
  28 0000 024B     		ldr	r3, .L2
  29 0002 C022     		mov	r2, #192
ARM GAS  C:\Users\LAIR\AppData\Local\Temp\ccdy23dh.s 			page 19


  30 0004 9205     		lsl	r2, r2, #22
  31 0006 1A62     		str	r2, [r3, #32]
 998:.\Generated_Source\PSoC4/USBFS.c ****     #endif /* (USBFS_DMA1_ACTIVE) */
 999:.\Generated_Source\PSoC4/USBFS.c **** 
1000:.\Generated_Source\PSoC4/USBFS.c ****     #if (USBFS_DMA2_ACTIVE)
1001:.\Generated_Source\PSoC4/USBFS.c ****         CYDMA_CH_CTL_BASE.ctl[USBFS_ep2_dma_CHANNEL] = USBFS_ep2_dma_CHANNEL_CFG;
  32              		.loc 1 1001 0
  33 0008 5A62     		str	r2, [r3, #36]
1002:.\Generated_Source\PSoC4/USBFS.c ****     #endif /* (USBFS_DMA2_ACTIVE) */
1003:.\Generated_Source\PSoC4/USBFS.c **** 
1004:.\Generated_Source\PSoC4/USBFS.c ****     #if (USBFS_DMA3_ACTIVE)
1005:.\Generated_Source\PSoC4/USBFS.c ****         CYDMA_CH_CTL_BASE.ctl[USBFS_ep3_dma_CHANNEL] = USBFS_ep3_dma_CHANNEL_CFG;
1006:.\Generated_Source\PSoC4/USBFS.c ****     #endif /* (USBFS_DMA3_ACTIVE) */
1007:.\Generated_Source\PSoC4/USBFS.c **** 
1008:.\Generated_Source\PSoC4/USBFS.c ****     #if (USBFS_DMA4_ACTIVE)
1009:.\Generated_Source\PSoC4/USBFS.c ****         CYDMA_CH_CTL_BASE.ctl[USBFS_ep4_dma_CHANNEL] = USBFS_ep4_dma_CHANNEL_CFG;
1010:.\Generated_Source\PSoC4/USBFS.c ****     #endif /* (USBFS_DMA4_ACTIVE) */
1011:.\Generated_Source\PSoC4/USBFS.c **** 
1012:.\Generated_Source\PSoC4/USBFS.c ****     #if (USBFS_DMA5_ACTIVE)
1013:.\Generated_Source\PSoC4/USBFS.c ****         CYDMA_CH_CTL_BASE.ctl[USBFS_ep5_dma_CHANNEL] = USBFS_ep5_dma_CHANNEL_CFG;
1014:.\Generated_Source\PSoC4/USBFS.c ****     #endif /* (USBFS_DMA5_ACTIVE) */
1015:.\Generated_Source\PSoC4/USBFS.c **** 
1016:.\Generated_Source\PSoC4/USBFS.c ****     #if (USBFS_DMA6_ACTIVE)
1017:.\Generated_Source\PSoC4/USBFS.c ****         CYDMA_CH_CTL_BASE.ctl[USBFS_ep6_dma_CHANNEL] = USBFS_ep6_dma_CHANNEL_CFG;
1018:.\Generated_Source\PSoC4/USBFS.c ****     #endif /* (USBFS_DMA6_ACTIVE) */
1019:.\Generated_Source\PSoC4/USBFS.c **** 
1020:.\Generated_Source\PSoC4/USBFS.c ****     #if (USBFS_DMA7_ACTIVE)
1021:.\Generated_Source\PSoC4/USBFS.c ****         CYDMA_CH_CTL_BASE.ctl[USBFS_ep7_dma_CHANNEL] = USBFS_ep7_dma_CHANNEL_CFG;
1022:.\Generated_Source\PSoC4/USBFS.c ****     #endif /* (USBFS_DMA7_ACTIVE) */
1023:.\Generated_Source\PSoC4/USBFS.c **** 
1024:.\Generated_Source\PSoC4/USBFS.c ****     #if (USBFS_DMA8_ACTIVE)
1025:.\Generated_Source\PSoC4/USBFS.c ****         CYDMA_CH_CTL_BASE.ctl[USBFS_ep8_dma_CHANNEL] = USBFS_ep8_dma_CHANNEL_CFG;
1026:.\Generated_Source\PSoC4/USBFS.c ****     #endif /* (USBFS_DMA8_ACTIVE) */
1027:.\Generated_Source\PSoC4/USBFS.c **** 
1028:.\Generated_Source\PSoC4/USBFS.c ****     #if (USBFS_EP_MANAGEMENT_DMA_AUTO)
1029:.\Generated_Source\PSoC4/USBFS.c ****         /* Initialize DMA channel callbacks. */
1030:.\Generated_Source\PSoC4/USBFS.c ****         #if (USBFS_DMA1_ACTIVE)
1031:.\Generated_Source\PSoC4/USBFS.c ****             (void) USBFS_ep1_dma_SetInterruptCallback(&USBFS_EP1_DMA_DONE_ISR);
1032:.\Generated_Source\PSoC4/USBFS.c ****         #endif /* (USBFS_DMA1_ACTIVE) */
1033:.\Generated_Source\PSoC4/USBFS.c **** 
1034:.\Generated_Source\PSoC4/USBFS.c ****         #if (USBFS_DMA2_ACTIVE)
1035:.\Generated_Source\PSoC4/USBFS.c ****             (void) USBFS_ep2_dma_SetInterruptCallback(&USBFS_EP2_DMA_DONE_ISR);
1036:.\Generated_Source\PSoC4/USBFS.c ****         #endif /* (USBFS_DMA2_ACTIVE) */
1037:.\Generated_Source\PSoC4/USBFS.c **** 
1038:.\Generated_Source\PSoC4/USBFS.c ****         #if (USBFS_DMA3_ACTIVE)
1039:.\Generated_Source\PSoC4/USBFS.c ****             (void) USBFS_ep3_dma_SetInterruptCallback(&USBFS_EP3_DMA_DONE_ISR);
1040:.\Generated_Source\PSoC4/USBFS.c ****         #endif /* (USBFS_DMA3_ACTIVE) */
1041:.\Generated_Source\PSoC4/USBFS.c **** 
1042:.\Generated_Source\PSoC4/USBFS.c ****         #if (USBFS_DMA4_ACTIVE)
1043:.\Generated_Source\PSoC4/USBFS.c ****             (void) USBFS_ep4_dma_SetInterruptCallback(&USBFS_EP4_DMA_DONE_ISR);
1044:.\Generated_Source\PSoC4/USBFS.c ****         #endif /* (USBFS_DMA4_ACTIVE) */
1045:.\Generated_Source\PSoC4/USBFS.c **** 
1046:.\Generated_Source\PSoC4/USBFS.c ****         #if (USBFS_DMA5_ACTIVE)
1047:.\Generated_Source\PSoC4/USBFS.c ****             (void) USBFS_ep5_dma_SetInterruptCallback(&USBFS_EP5_DMA_DONE_ISR);
1048:.\Generated_Source\PSoC4/USBFS.c ****         #endif /* (USBFS_DMA5_ACTIVE) */
1049:.\Generated_Source\PSoC4/USBFS.c **** 
1050:.\Generated_Source\PSoC4/USBFS.c ****         #if (USBFS_DMA6_ACTIVE)
ARM GAS  C:\Users\LAIR\AppData\Local\Temp\ccdy23dh.s 			page 20


1051:.\Generated_Source\PSoC4/USBFS.c ****             (void) USBFS_ep6_dma_SetInterruptCallback(&USBFS_EP6_DMA_DONE_ISR);
1052:.\Generated_Source\PSoC4/USBFS.c ****         #endif /* (USBFS_DMA6_ACTIVE) */
1053:.\Generated_Source\PSoC4/USBFS.c **** 
1054:.\Generated_Source\PSoC4/USBFS.c ****         #if (USBFS_DMA7_ACTIVE)
1055:.\Generated_Source\PSoC4/USBFS.c ****             (void) USBFS_ep7_dma_SetInterruptCallback(&USBFS_EP7_DMA_DONE_ISR);
1056:.\Generated_Source\PSoC4/USBFS.c ****         #endif /* (USBFS_DMA7_ACTIVE) */
1057:.\Generated_Source\PSoC4/USBFS.c **** 
1058:.\Generated_Source\PSoC4/USBFS.c ****         #if (USBFS_DMA8_ACTIVE)
1059:.\Generated_Source\PSoC4/USBFS.c ****             (void) USBFS_ep8_dma_SetInterruptCallback(&USBFS_EP8_DMA_DONE_ISR);
1060:.\Generated_Source\PSoC4/USBFS.c ****         #endif /* (USBFS_DMA8_ACTIVE) */
1061:.\Generated_Source\PSoC4/USBFS.c ****     #endif /* (USBFS_EP_MANAGEMENT_DMA_AUTO) */
1062:.\Generated_Source\PSoC4/USBFS.c ****     }
  34              		.loc 1 1062 0
  35              		@ sp needed
  36 000a 7047     		bx	lr
  37              	.L3:
  38              		.align	2
  39              	.L2:
  40 000c 80101040 		.word	1074794624
  41              		.cfi_endproc
  42              	.LFE76:
  43              		.size	USBFS_InitEpDma, .-USBFS_InitEpDma
  44              		.section	.text.USBFS_Init,"ax",%progbits
  45              		.align	2
  46              		.global	USBFS_Init
  47              		.code	16
  48              		.thumb_func
  49              		.type	USBFS_Init, %function
  50              	USBFS_Init:
  51              	.LFB66:
 211:.\Generated_Source\PSoC4/USBFS.c **** #if (CY_PSOC4)
  52              		.loc 1 211 0
  53              		.cfi_startproc
  54 0000 10B5     		push	{r4, lr}
  55              		.cfi_def_cfa_offset 8
  56              		.cfi_offset 4, -8
  57              		.cfi_offset 14, -4
 214:.\Generated_Source\PSoC4/USBFS.c **** 
  58              		.loc 1 214 0
  59 0002 0122     		mov	r2, #1
  60 0004 254B     		ldr	r3, .L6
  61 0006 1A60     		str	r2, [r3]
 221:.\Generated_Source\PSoC4/USBFS.c **** 
  62              		.loc 1 221 0
  63 0008 254A     		ldr	r2, .L6+4
  64 000a 1368     		ldr	r3, [r2]
  65 000c 2021     		mov	r1, #32
  66 000e 8B43     		bic	r3, r1
  67 0010 1360     		str	r3, [r2]
 224:.\Generated_Source\PSoC4/USBFS.c **** 
  68              		.loc 1 224 0
  69 0012 0A22     		mov	r2, #10
  70 0014 234B     		ldr	r3, .L6+8
  71 0016 1A60     		str	r2, [r3]
 229:.\Generated_Source\PSoC4/USBFS.c **** 
  72              		.loc 1 229 0
  73 0018 234C     		ldr	r4, .L6+12
ARM GAS  C:\Users\LAIR\AppData\Local\Temp\ccdy23dh.s 			page 21


  74 001a 244B     		ldr	r3, .L6+16
  75 001c 2360     		str	r3, [r4]
 232:.\Generated_Source\PSoC4/USBFS.c **** 
  76              		.loc 1 232 0
  77 001e 2368     		ldr	r3, [r4]
  78 0020 234A     		ldr	r2, .L6+20
  79 0022 1343     		orr	r3, r2
  80 0024 2360     		str	r3, [r4]
 235:.\Generated_Source\PSoC4/USBFS.c ****     CyDelayUs(USBFS_WAIT_SUSPEND_DEL_DISABLE);
  81              		.loc 1 235 0
  82 0026 2368     		ldr	r3, [r4]
  83 0028 0422     		mov	r2, #4
  84 002a 9343     		bic	r3, r2
  85 002c 2360     		str	r3, [r4]
 236:.\Generated_Source\PSoC4/USBFS.c ****     USBFS_POWER_CTRL_REG &= (uint32) ~USBFS_POWER_CTRL_SUSPEND_DEL;
  86              		.loc 1 236 0
  87 002e 0220     		mov	r0, #2
  88 0030 FFF7FEFF 		bl	CyDelayUs
  89              	.LVL0:
 237:.\Generated_Source\PSoC4/USBFS.c **** 
  90              		.loc 1 237 0
  91 0034 2368     		ldr	r3, [r4]
  92 0036 0822     		mov	r2, #8
  93 0038 9343     		bic	r3, r2
  94 003a 2360     		str	r3, [r4]
 240:.\Generated_Source\PSoC4/USBFS.c **** 
  95              		.loc 1 240 0
  96 003c FFF7FEFF 		bl	CySysClkImoGetUsbLock
  97              	.LVL1:
  98 0040 0028     		cmp	r0, #0
  99 0042 00D0     		beq	.L5
 100 0044 0220     		mov	r0, #2
 101              	.L5:
 240:.\Generated_Source\PSoC4/USBFS.c **** 
 102              		.loc 1 240 0 is_stmt 0 discriminator 4
 103 0046 1B4B     		ldr	r3, .L6+24
 104 0048 1860     		str	r0, [r3]
 243:.\Generated_Source\PSoC4/USBFS.c **** 
 105              		.loc 1 243 0 is_stmt 1 discriminator 4
 106 004a 1B4A     		ldr	r2, .L6+28
 107 004c 1B4B     		ldr	r3, .L6+32
 108 004e 1A60     		str	r2, [r3]
 246:.\Generated_Source\PSoC4/USBFS.c **** 
 109              		.loc 1 246 0 discriminator 4
 110 0050 0622     		mov	r2, #6
 111 0052 1B4B     		ldr	r3, .L6+36
 112 0054 1A60     		str	r2, [r3]
 317:.\Generated_Source\PSoC4/USBFS.c ****     (void) CyIntSetVector(USBFS_INTR_HI_VECT_NUM, &USBFS_INTR_HI_ISR);
 113              		.loc 1 317 0 discriminator 4
 114 0056 1E20     		mov	r0, #30
 115 0058 0321     		mov	r1, #3
 116 005a FFF7FEFF 		bl	CyIntSetPriority
 117              	.LVL2:
 318:.\Generated_Source\PSoC4/USBFS.c **** 
 118              		.loc 1 318 0 discriminator 4
 119 005e 1E20     		mov	r0, #30
 120 0060 1849     		ldr	r1, .L6+40
ARM GAS  C:\Users\LAIR\AppData\Local\Temp\ccdy23dh.s 			page 22


 121 0062 FFF7FEFF 		bl	CyIntSetVector
 122              	.LVL3:
 321:.\Generated_Source\PSoC4/USBFS.c ****     (void) CyIntSetVector(USBFS_INTR_LO_VECT_NUM, &USBFS_INTR_LO_ISR);
 123              		.loc 1 321 0 discriminator 4
 124 0066 1F20     		mov	r0, #31
 125 0068 0321     		mov	r1, #3
 126 006a FFF7FEFF 		bl	CyIntSetPriority
 127              	.LVL4:
 322:.\Generated_Source\PSoC4/USBFS.c **** 
 128              		.loc 1 322 0 discriminator 4
 129 006e 1F20     		mov	r0, #31
 130 0070 1549     		ldr	r1, .L6+44
 131 0072 FFF7FEFF 		bl	CyIntSetVector
 132              	.LVL5:
 325:.\Generated_Source\PSoC4/USBFS.c ****     (void) CyIntSetVector(USBFS_INTR_MED_VECT_NUM, &USBFS_INTR_MED_ISR);
 133              		.loc 1 325 0 discriminator 4
 134 0076 0020     		mov	r0, #0
 135 0078 0321     		mov	r1, #3
 136 007a FFF7FEFF 		bl	CyIntSetPriority
 137              	.LVL6:
 326:.\Generated_Source\PSoC4/USBFS.c **** 
 138              		.loc 1 326 0 discriminator 4
 139 007e 0020     		mov	r0, #0
 140 0080 1249     		ldr	r1, .L6+48
 141 0082 FFF7FEFF 		bl	CyIntSetVector
 142              	.LVL7:
 400:.\Generated_Source\PSoC4/USBFS.c ****     (void) CyIntSetVector(USBFS_DP_INTC_VECT_NUM, &USBFS_DP_ISR);
 143              		.loc 1 400 0 discriminator 4
 144 0086 0520     		mov	r0, #5
 145 0088 0321     		mov	r1, #3
 146 008a FFF7FEFF 		bl	CyIntSetPriority
 147              	.LVL8:
 401:.\Generated_Source\PSoC4/USBFS.c **** #endif /* (USBFS_DP_ISR_ACTIVE) */
 148              		.loc 1 401 0 discriminator 4
 149 008e 0520     		mov	r0, #5
 150 0090 0F49     		ldr	r1, .L6+52
 151 0092 FFF7FEFF 		bl	CyIntSetVector
 152              	.LVL9:
 406:.\Generated_Source\PSoC4/USBFS.c **** #endif /* (USBFS_EP_MANAGEMENT_DMA && CY_PSOC4) */
 153              		.loc 1 406 0 discriminator 4
 154 0096 FFF7FEFF 		bl	USBFS_InitEpDma
 155              	.LVL10:
 408:.\Generated_Source\PSoC4/USBFS.c **** 
 156              		.loc 1 408 0 discriminator 4
 157              		@ sp needed
 158 009a 10BD     		pop	{r4, pc}
 159              	.L7:
 160              		.align	2
 161              	.L6:
 162 009c 74022C40 		.word	1076626036
 163 00a0 48002C40 		.word	1076625480
 164 00a4 30032C40 		.word	1076626224
 165 00a8 00202C40 		.word	1076633600
 166 00ac 01000004 		.word	67108865
 167 00b0 0C0000B8 		.word	-1207959540
 168 00b4 24002C40 		.word	1076625444
 169 00b8 28800A00 		.word	688168
ARM GAS  C:\Users\LAIR\AppData\Local\Temp\ccdy23dh.s 			page 23


 170 00bc 30202C40 		.word	1076633648
 171 00c0 28202C40 		.word	1076633640
 172 00c4 00000000 		.word	USBFS_INTR_HI_ISR
 173 00c8 00000000 		.word	USBFS_INTR_LO_ISR
 174 00cc 00000000 		.word	USBFS_INTR_MED_ISR
 175 00d0 00000000 		.word	USBFS_DP_ISR
 176              		.cfi_endproc
 177              	.LFE66:
 178              		.size	USBFS_Init, .-USBFS_Init
 179              		.section	.text.USBFS_InitComponent,"ax",%progbits
 180              		.align	2
 181              		.global	USBFS_InitComponent
 182              		.code	16
 183              		.thumb_func
 184              		.type	USBFS_InitComponent, %function
 185              	USBFS_InitComponent:
 186              	.LFB67:
 460:.\Generated_Source\PSoC4/USBFS.c ****     /* Initialize _hidProtocol variable to comply with
 187              		.loc 1 460 0
 188              		.cfi_startproc
 189              	.LVL11:
 190 0000 10B5     		push	{r4, lr}
 191              		.cfi_def_cfa_offset 8
 192              		.cfi_offset 4, -8
 193              		.cfi_offset 14, -4
 194 0002 0C1C     		mov	r4, r1
 475:.\Generated_Source\PSoC4/USBFS.c **** 
 195              		.loc 1 475 0
 196 0004 244B     		ldr	r3, .L14
 197 0006 1870     		strb	r0, [r3]
 478:.\Generated_Source\PSoC4/USBFS.c ****     USBFS_configurationChanged = 0u;
 198              		.loc 1 478 0
 199 0008 0023     		mov	r3, #0
 200 000a 244A     		ldr	r2, .L14+4
 201 000c 1370     		strb	r3, [r2]
 479:.\Generated_Source\PSoC4/USBFS.c ****     USBFS_configuration   = 0u;
 202              		.loc 1 479 0
 203 000e 244A     		ldr	r2, .L14+8
 204 0010 1370     		strb	r3, [r2]
 480:.\Generated_Source\PSoC4/USBFS.c ****     USBFS_interfaceNumber = 0u;
 205              		.loc 1 480 0
 206 0012 244A     		ldr	r2, .L14+12
 207 0014 1370     		strb	r3, [r2]
 481:.\Generated_Source\PSoC4/USBFS.c ****     USBFS_deviceAddress   = 0u;
 208              		.loc 1 481 0
 209 0016 244A     		ldr	r2, .L14+16
 210 0018 1370     		strb	r3, [r2]
 482:.\Generated_Source\PSoC4/USBFS.c ****     USBFS_deviceStatus    = 0u;
 211              		.loc 1 482 0
 212 001a 244A     		ldr	r2, .L14+20
 213 001c 1370     		strb	r3, [r2]
 483:.\Generated_Source\PSoC4/USBFS.c ****     USBFS_lastPacketSize  = 0u;
 214              		.loc 1 483 0
 215 001e 244A     		ldr	r2, .L14+24
 216 0020 1370     		strb	r3, [r2]
 484:.\Generated_Source\PSoC4/USBFS.c **** 
 217              		.loc 1 484 0
ARM GAS  C:\Users\LAIR\AppData\Local\Temp\ccdy23dh.s 			page 24


 218 0022 244A     		ldr	r2, .L14+28
 219 0024 1370     		strb	r3, [r2]
 488:.\Generated_Source\PSoC4/USBFS.c ****     CyIntEnable(USBFS_INTR_MED_VECT_NUM);
 220              		.loc 1 488 0
 221 0026 1E20     		mov	r0, #30
 222              	.LVL12:
 223 0028 FFF7FEFF 		bl	CyIntEnable
 224              	.LVL13:
 489:.\Generated_Source\PSoC4/USBFS.c ****     CyIntEnable(USBFS_INTR_LO_VECT_NUM);
 225              		.loc 1 489 0
 226 002c 0020     		mov	r0, #0
 227 002e FFF7FEFF 		bl	CyIntEnable
 228              	.LVL14:
 490:.\Generated_Source\PSoC4/USBFS.c **** #else
 229              		.loc 1 490 0
 230 0032 1F20     		mov	r0, #31
 231 0034 FFF7FEFF 		bl	CyIntEnable
 232              	.LVL15:
 534:.\Generated_Source\PSoC4/USBFS.c **** 
 233              		.loc 1 534 0
 234 0038 0322     		mov	r2, #3
 235 003a 1F4B     		ldr	r3, .L14+32
 236 003c 1A60     		str	r2, [r3]
 544:.\Generated_Source\PSoC4/USBFS.c **** 
 237              		.loc 1 544 0
 238 003e 1D32     		add	r2, r2, #29
 239 0040 1E4B     		ldr	r3, .L14+36
 240 0042 1A60     		str	r2, [r3]
 548:.\Generated_Source\PSoC4/USBFS.c **** 
 241              		.loc 1 548 0
 242 0044 FFF7FEFF 		bl	CyDmaEnable
 243              	.LVL16:
 572:.\Generated_Source\PSoC4/USBFS.c ****     {
 244              		.loc 1 572 0
 245 0048 002C     		cmp	r4, #0
 246 004a 02D0     		beq	.L10
 247 004c 012C     		cmp	r4, #1
 248 004e 06D0     		beq	.L11
 249 0050 0BE0     		b	.L13
 250              	.L10:
 576:.\Generated_Source\PSoC4/USBFS.c ****         break;
 251              		.loc 1 576 0
 252 0052 1B4A     		ldr	r2, .L14+40
 253 0054 1368     		ldr	r3, [r2]
 254 0056 0121     		mov	r1, #1
 255 0058 8B43     		bic	r3, r1
 256 005a 1360     		str	r3, [r2]
 577:.\Generated_Source\PSoC4/USBFS.c **** 
 257              		.loc 1 577 0
 258 005c 0AE0     		b	.L12
 259              	.L11:
 581:.\Generated_Source\PSoC4/USBFS.c ****         break;
 260              		.loc 1 581 0
 261 005e 184A     		ldr	r2, .L14+40
 262 0060 1168     		ldr	r1, [r2]
 263 0062 0123     		mov	r3, #1
 264 0064 0B43     		orr	r3, r1
ARM GAS  C:\Users\LAIR\AppData\Local\Temp\ccdy23dh.s 			page 25


 265 0066 1360     		str	r3, [r2]
 582:.\Generated_Source\PSoC4/USBFS.c **** 
 266              		.loc 1 582 0
 267 0068 04E0     		b	.L12
 268              	.L13:
 590:.\Generated_Source\PSoC4/USBFS.c ****     #endif /* (USBFS_VDDD_MV < USBFS_3500MV) */
 269              		.loc 1 590 0
 270 006a 154A     		ldr	r2, .L14+40
 271 006c 1168     		ldr	r1, [r2]
 272 006e 0123     		mov	r3, #1
 273 0070 0B43     		orr	r3, r1
 274 0072 1360     		str	r3, [r2]
 275              	.L12:
 597:.\Generated_Source\PSoC4/USBFS.c **** 
 276              		.loc 1 597 0
 277 0074 1249     		ldr	r1, .L14+40
 278 0076 0B68     		ldr	r3, [r1]
 279 0078 0422     		mov	r2, #4
 280 007a 9343     		bic	r3, r2
 281 007c 0B60     		str	r3, [r1]
 600:.\Generated_Source\PSoC4/USBFS.c **** 
 282              		.loc 1 600 0
 283 007e 0021     		mov	r1, #0
 284 0080 104B     		ldr	r3, .L14+44
 285 0082 1960     		str	r1, [r3]
 603:.\Generated_Source\PSoC4/USBFS.c **** 
 286              		.loc 1 603 0
 287 0084 0131     		add	r1, r1, #1
 288 0086 104B     		ldr	r3, .L14+48
 289 0088 1960     		str	r1, [r3]
 622:.\Generated_Source\PSoC4/USBFS.c **** 
 290              		.loc 1 622 0
 291 008a 7F31     		add	r1, r1, #127
 292 008c 0F4B     		ldr	r3, .L14+52
 293 008e 1960     		str	r1, [r3]
 634:.\Generated_Source\PSoC4/USBFS.c **** }
 294              		.loc 1 634 0
 295 0090 0F4B     		ldr	r3, .L14+56
 296 0092 1A60     		str	r2, [r3]
 635:.\Generated_Source\PSoC4/USBFS.c **** 
 297              		.loc 1 635 0
 298              		@ sp needed
 299 0094 10BD     		pop	{r4, pc}
 300              	.L15:
 301 0096 C046     		.align	2
 302              	.L14:
 303 0098 00000000 		.word	USBFS_device
 304 009c 00000000 		.word	USBFS_transferState
 305 00a0 00000000 		.word	USBFS_configurationChanged
 306 00a4 00000000 		.word	USBFS_configuration
 307 00a8 00000000 		.word	USBFS_interfaceNumber
 308 00ac 00000000 		.word	USBFS_deviceAddress
 309 00b0 00000000 		.word	USBFS_deviceStatus
 310 00b4 00000000 		.word	USBFS_lastPacketSize
 311 00b8 78022C40 		.word	1076626040
 312 00bc 70022C40 		.word	1076626032
 313 00c0 24002C40 		.word	1076625444
ARM GAS  C:\Users\LAIR\AppData\Local\Temp\ccdy23dh.s 			page 26


 314 00c4 A4002C40 		.word	1076625572
 315 00c8 A0002C40 		.word	1076625568
 316 00cc 20002C40 		.word	1076625440
 317 00d0 48002C40 		.word	1076625480
 318              		.cfi_endproc
 319              	.LFE67:
 320              		.size	USBFS_InitComponent, .-USBFS_InitComponent
 321              		.section	.text.USBFS_Start,"ax",%progbits
 322              		.align	2
 323              		.global	USBFS_Start
 324              		.code	16
 325              		.thumb_func
 326              		.type	USBFS_Start, %function
 327              	USBFS_Start:
 328              	.LFB65:
 186:.\Generated_Source\PSoC4/USBFS.c ****     if (0u == USBFS_initVar)
 329              		.loc 1 186 0
 330              		.cfi_startproc
 331              	.LVL17:
 332 0000 38B5     		push	{r3, r4, r5, lr}
 333              		.cfi_def_cfa_offset 16
 334              		.cfi_offset 3, -16
 335              		.cfi_offset 4, -12
 336              		.cfi_offset 5, -8
 337              		.cfi_offset 14, -4
 338 0002 051C     		mov	r5, r0
 339 0004 0C1C     		mov	r4, r1
 187:.\Generated_Source\PSoC4/USBFS.c ****     {
 340              		.loc 1 187 0
 341 0006 074B     		ldr	r3, .L18
 342 0008 1B78     		ldrb	r3, [r3]
 343 000a 002B     		cmp	r3, #0
 344 000c 04D1     		bne	.L17
 189:.\Generated_Source\PSoC4/USBFS.c ****         USBFS_initVar = 1u;
 345              		.loc 1 189 0
 346 000e FFF7FEFF 		bl	USBFS_Init
 347              	.LVL18:
 190:.\Generated_Source\PSoC4/USBFS.c ****     }
 348              		.loc 1 190 0
 349 0012 0122     		mov	r2, #1
 350 0014 034B     		ldr	r3, .L18
 351 0016 1A70     		strb	r2, [r3]
 352              	.L17:
 193:.\Generated_Source\PSoC4/USBFS.c **** }
 353              		.loc 1 193 0
 354 0018 281C     		mov	r0, r5
 355 001a 211C     		mov	r1, r4
 356 001c FFF7FEFF 		bl	USBFS_InitComponent
 357              	.LVL19:
 194:.\Generated_Source\PSoC4/USBFS.c **** 
 358              		.loc 1 194 0
 359              		@ sp needed
 360 0020 38BD     		pop	{r3, r4, r5, pc}
 361              	.L19:
 362 0022 C046     		.align	2
 363              	.L18:
 364 0024 00000000 		.word	.LANCHOR0
ARM GAS  C:\Users\LAIR\AppData\Local\Temp\ccdy23dh.s 			page 27


 365              		.cfi_endproc
 366              	.LFE65:
 367              		.size	USBFS_Start, .-USBFS_Start
 368              		.section	.text.USBFS_ReInitComponent,"ax",%progbits
 369              		.align	2
 370              		.global	USBFS_ReInitComponent
 371              		.code	16
 372              		.thumb_func
 373              		.type	USBFS_ReInitComponent, %function
 374              	USBFS_ReInitComponent:
 375              	.LFB68:
 671:.\Generated_Source\PSoC4/USBFS.c ****     /* Initialize _hidProtocol variable to comply with HID 7.2.6 Set_Protocol
 376              		.loc 1 671 0
 377              		.cfi_startproc
 685:.\Generated_Source\PSoC4/USBFS.c ****     USBFS_configurationChanged = 0u;
 378              		.loc 1 685 0
 379 0000 0023     		mov	r3, #0
 380 0002 0A4A     		ldr	r2, .L21
 381 0004 1370     		strb	r3, [r2]
 686:.\Generated_Source\PSoC4/USBFS.c ****     USBFS_configuration   = 0u;
 382              		.loc 1 686 0
 383 0006 0A4A     		ldr	r2, .L21+4
 384 0008 1370     		strb	r3, [r2]
 687:.\Generated_Source\PSoC4/USBFS.c ****     USBFS_interfaceNumber = 0u;
 385              		.loc 1 687 0
 386 000a 0A4A     		ldr	r2, .L21+8
 387 000c 1370     		strb	r3, [r2]
 688:.\Generated_Source\PSoC4/USBFS.c ****     USBFS_deviceAddress   = 0u;
 388              		.loc 1 688 0
 389 000e 0A4A     		ldr	r2, .L21+12
 390 0010 1370     		strb	r3, [r2]
 689:.\Generated_Source\PSoC4/USBFS.c ****     USBFS_deviceStatus    = 0u;
 391              		.loc 1 689 0
 392 0012 0A4A     		ldr	r2, .L21+16
 393 0014 1370     		strb	r3, [r2]
 690:.\Generated_Source\PSoC4/USBFS.c ****     USBFS_lastPacketSize  = 0u;
 394              		.loc 1 690 0
 395 0016 0A4A     		ldr	r2, .L21+20
 396 0018 1370     		strb	r3, [r2]
 691:.\Generated_Source\PSoC4/USBFS.c **** 
 397              		.loc 1 691 0
 398 001a 0A4A     		ldr	r2, .L21+24
 399 001c 1370     		strb	r3, [r2]
 695:.\Generated_Source\PSoC4/USBFS.c **** #else
 400              		.loc 1 695 0
 401 001e 0122     		mov	r2, #1
 402 0020 094B     		ldr	r3, .L21+28
 403 0022 1A60     		str	r2, [r3]
 702:.\Generated_Source\PSoC4/USBFS.c **** }
 404              		.loc 1 702 0
 405 0024 7F32     		add	r2, r2, #127
 406 0026 094B     		ldr	r3, .L21+32
 407 0028 1A60     		str	r2, [r3]
 703:.\Generated_Source\PSoC4/USBFS.c **** 
 408              		.loc 1 703 0
 409              		@ sp needed
 410 002a 7047     		bx	lr
ARM GAS  C:\Users\LAIR\AppData\Local\Temp\ccdy23dh.s 			page 28


 411              	.L22:
 412              		.align	2
 413              	.L21:
 414 002c 00000000 		.word	USBFS_transferState
 415 0030 00000000 		.word	USBFS_configurationChanged
 416 0034 00000000 		.word	USBFS_configuration
 417 0038 00000000 		.word	USBFS_interfaceNumber
 418 003c 00000000 		.word	USBFS_deviceAddress
 419 0040 00000000 		.word	USBFS_deviceStatus
 420 0044 00000000 		.word	USBFS_lastPacketSize
 421 0048 A0002C40 		.word	1076625568
 422 004c 20002C40 		.word	1076625440
 423              		.cfi_endproc
 424              	.LFE68:
 425              		.size	USBFS_ReInitComponent, .-USBFS_ReInitComponent
 426              		.section	.text.USBFS_CheckActivity,"ax",%progbits
 427              		.align	2
 428              		.global	USBFS_CheckActivity
 429              		.code	16
 430              		.thumb_func
 431              		.type	USBFS_CheckActivity, %function
 432              	USBFS_CheckActivity:
 433              	.LFB70:
 836:.\Generated_Source\PSoC4/USBFS.c ****     uint32 cr1Reg = USBFS_CR1_REG;
 434              		.loc 1 836 0
 435              		.cfi_startproc
 837:.\Generated_Source\PSoC4/USBFS.c **** 
 436              		.loc 1 837 0
 437 0000 0549     		ldr	r1, .L26
 438 0002 0B68     		ldr	r3, [r1]
 439              	.LVL20:
 840:.\Generated_Source\PSoC4/USBFS.c **** 
 440              		.loc 1 840 0
 441 0004 0422     		mov	r2, #4
 442 0006 181C     		mov	r0, r3
 443 0008 9043     		bic	r0, r2
 444 000a 0860     		str	r0, [r1]
 843:.\Generated_Source\PSoC4/USBFS.c **** }
 445              		.loc 1 843 0
 446 000c 1A42     		tst	r2, r3
 447 000e 01D0     		beq	.L25
 448 0010 0120     		mov	r0, #1
 449 0012 00E0     		b	.L24
 450              	.L25:
 451 0014 0020     		mov	r0, #0
 452              	.L24:
 844:.\Generated_Source\PSoC4/USBFS.c **** 
 453              		.loc 1 844 0 discriminator 4
 454              		@ sp needed
 455 0016 7047     		bx	lr
 456              	.L27:
 457              		.align	2
 458              	.L26:
 459 0018 24002C40 		.word	1076625444
 460              		.cfi_endproc
 461              	.LFE70:
 462              		.size	USBFS_CheckActivity, .-USBFS_CheckActivity
ARM GAS  C:\Users\LAIR\AppData\Local\Temp\ccdy23dh.s 			page 29


 463              		.section	.text.USBFS_GetConfiguration,"ax",%progbits
 464              		.align	2
 465              		.global	USBFS_GetConfiguration
 466              		.code	16
 467              		.thumb_func
 468              		.type	USBFS_GetConfiguration, %function
 469              	USBFS_GetConfiguration:
 470              	.LFB71:
 859:.\Generated_Source\PSoC4/USBFS.c ****     return (USBFS_configuration);
 471              		.loc 1 859 0
 472              		.cfi_startproc
 860:.\Generated_Source\PSoC4/USBFS.c **** }
 473              		.loc 1 860 0
 474 0000 014B     		ldr	r3, .L29
 475 0002 1878     		ldrb	r0, [r3]
 476 0004 C0B2     		uxtb	r0, r0
 861:.\Generated_Source\PSoC4/USBFS.c **** 
 477              		.loc 1 861 0
 478              		@ sp needed
 479 0006 7047     		bx	lr
 480              	.L30:
 481              		.align	2
 482              	.L29:
 483 0008 00000000 		.word	USBFS_configuration
 484              		.cfi_endproc
 485              	.LFE71:
 486              		.size	USBFS_GetConfiguration, .-USBFS_GetConfiguration
 487              		.section	.text.USBFS_IsConfigurationChanged,"ax",%progbits
 488              		.align	2
 489              		.global	USBFS_IsConfigurationChanged
 490              		.code	16
 491              		.thumb_func
 492              		.type	USBFS_IsConfigurationChanged, %function
 493              	USBFS_IsConfigurationChanged:
 494              	.LFB72:
 885:.\Generated_Source\PSoC4/USBFS.c ****     uint8 res = 0u;
 495              		.loc 1 885 0
 496              		.cfi_startproc
 497              	.LVL21:
 888:.\Generated_Source\PSoC4/USBFS.c ****     {
 498              		.loc 1 888 0
 499 0000 054B     		ldr	r3, .L34
 500 0002 1B78     		ldrb	r3, [r3]
 501 0004 002B     		cmp	r3, #0
 502 0006 05D0     		beq	.L33
 890:.\Generated_Source\PSoC4/USBFS.c ****         USBFS_configurationChanged = 0u;
 503              		.loc 1 890 0
 504 0008 034B     		ldr	r3, .L34
 505 000a 1878     		ldrb	r0, [r3]
 506 000c C0B2     		uxtb	r0, r0
 507              	.LVL22:
 891:.\Generated_Source\PSoC4/USBFS.c ****     }
 508              		.loc 1 891 0
 509 000e 0022     		mov	r2, #0
 510 0010 1A70     		strb	r2, [r3]
 511 0012 00E0     		b	.L32
 512              	.LVL23:
ARM GAS  C:\Users\LAIR\AppData\Local\Temp\ccdy23dh.s 			page 30


 513              	.L33:
 886:.\Generated_Source\PSoC4/USBFS.c **** 
 514              		.loc 1 886 0
 515 0014 0020     		mov	r0, #0
 516              	.LVL24:
 517              	.L32:
 895:.\Generated_Source\PSoC4/USBFS.c **** 
 518              		.loc 1 895 0
 519              		@ sp needed
 520 0016 7047     		bx	lr
 521              	.L35:
 522              		.align	2
 523              	.L34:
 524 0018 00000000 		.word	USBFS_configurationChanged
 525              		.cfi_endproc
 526              	.LFE72:
 527              		.size	USBFS_IsConfigurationChanged, .-USBFS_IsConfigurationChanged
 528              		.section	.text.USBFS_GetInterfaceSetting,"ax",%progbits
 529              		.align	2
 530              		.global	USBFS_GetInterfaceSetting
 531              		.code	16
 532              		.thumb_func
 533              		.type	USBFS_GetInterfaceSetting, %function
 534              	USBFS_GetInterfaceSetting:
 535              	.LFB73:
 915:.\Generated_Source\PSoC4/USBFS.c ****     return (USBFS_interfaceSetting[interfaceNumber]);
 536              		.loc 1 915 0
 537              		.cfi_startproc
 538              	.LVL25:
 916:.\Generated_Source\PSoC4/USBFS.c **** }
 539              		.loc 1 916 0
 540 0000 014B     		ldr	r3, .L37
 541 0002 185C     		ldrb	r0, [r3, r0]
 542              	.LVL26:
 543 0004 C0B2     		uxtb	r0, r0
 917:.\Generated_Source\PSoC4/USBFS.c **** 
 544              		.loc 1 917 0
 545              		@ sp needed
 546 0006 7047     		bx	lr
 547              	.L38:
 548              		.align	2
 549              	.L37:
 550 0008 00000000 		.word	USBFS_interfaceSetting
 551              		.cfi_endproc
 552              	.LFE73:
 553              		.size	USBFS_GetInterfaceSetting, .-USBFS_GetInterfaceSetting
 554              		.section	.text.USBFS_GetEPState,"ax",%progbits
 555              		.align	2
 556              		.global	USBFS_GetEPState
 557              		.code	16
 558              		.thumb_func
 559              		.type	USBFS_GetEPState, %function
 560              	USBFS_GetEPState:
 561              	.LFB74:
 946:.\Generated_Source\PSoC4/USBFS.c ****     return (USBFS_EP[epNumber].apiEpState);
 562              		.loc 1 946 0
 563              		.cfi_startproc
ARM GAS  C:\Users\LAIR\AppData\Local\Temp\ccdy23dh.s 			page 31


 564              	.LVL27:
 947:.\Generated_Source\PSoC4/USBFS.c **** }
 565              		.loc 1 947 0
 566 0000 4300     		lsl	r3, r0, #1
 567 0002 1818     		add	r0, r3, r0
 568              	.LVL28:
 569 0004 8000     		lsl	r0, r0, #2
 570 0006 024B     		ldr	r3, .L40
 571 0008 1818     		add	r0, r3, r0
 572 000a 4078     		ldrb	r0, [r0, #1]
 573 000c C0B2     		uxtb	r0, r0
 948:.\Generated_Source\PSoC4/USBFS.c **** 
 574              		.loc 1 948 0
 575              		@ sp needed
 576 000e 7047     		bx	lr
 577              	.L41:
 578              		.align	2
 579              	.L40:
 580 0010 00000000 		.word	USBFS_EP
 581              		.cfi_endproc
 582              	.LFE74:
 583              		.size	USBFS_GetEPState, .-USBFS_GetEPState
 584              		.section	.text.USBFS_GetEPCount,"ax",%progbits
 585              		.align	2
 586              		.global	USBFS_GetEPCount
 587              		.code	16
 588              		.thumb_func
 589              		.type	USBFS_GetEPCount, %function
 590              	USBFS_GetEPCount:
 591              	.LFB75:
 969:.\Generated_Source\PSoC4/USBFS.c ****     uint16 cntr = 0u;
 592              		.loc 1 969 0
 593              		.cfi_startproc
 594              	.LVL29:
 972:.\Generated_Source\PSoC4/USBFS.c ****     {
 595              		.loc 1 972 0
 596 0000 431E     		sub	r3, r0, #1
 597 0002 072B     		cmp	r3, #7
 598 0004 0ED8     		bhi	.L44
 975:.\Generated_Source\PSoC4/USBFS.c ****         cntr  = ((uint16) (cntr << 8u)) | ((uint16) USBFS_SIE_EP_BASE.sieEp[epNumber].epCnt1);
 599              		.loc 1 975 0
 600 0006 8301     		lsl	r3, r0, #6
 601 0008 074A     		ldr	r2, .L45
 602 000a 9858     		ldr	r0, [r3, r2]
 603              	.LVL30:
 604 000c 0F22     		mov	r2, #15
 605 000e 1040     		and	r0, r2
 606              	.LVL31:
 976:.\Generated_Source\PSoC4/USBFS.c ****         cntr -= USBFS_EPX_CNTX_CRC_COUNT;
 607              		.loc 1 976 0
 608 0010 0002     		lsl	r0, r0, #8
 609              	.LVL32:
 610 0012 054A     		ldr	r2, .L45
 611 0014 9446     		mov	ip, r2
 612 0016 6344     		add	r3, r3, ip
 613 0018 5B68     		ldr	r3, [r3, #4]
 614 001a 9BB2     		uxth	r3, r3
ARM GAS  C:\Users\LAIR\AppData\Local\Temp\ccdy23dh.s 			page 32


 615 001c 1843     		orr	r0, r3
 616              	.LVL33:
 977:.\Generated_Source\PSoC4/USBFS.c ****     }
 617              		.loc 1 977 0
 618 001e 0238     		sub	r0, r0, #2
 619              	.LVL34:
 620 0020 80B2     		uxth	r0, r0
 621              	.LVL35:
 622 0022 00E0     		b	.L43
 623              	.LVL36:
 624              	.L44:
 970:.\Generated_Source\PSoC4/USBFS.c **** 
 625              		.loc 1 970 0
 626 0024 0020     		mov	r0, #0
 627              	.LVL37:
 628              	.L43:
 981:.\Generated_Source\PSoC4/USBFS.c **** 
 629              		.loc 1 981 0
 630              		@ sp needed
 631 0026 7047     		bx	lr
 632              	.L46:
 633              		.align	2
 634              	.L45:
 635 0028 F0FF2B40 		.word	1076625392
 636              		.cfi_endproc
 637              	.LFE75:
 638              		.size	USBFS_GetEPCount, .-USBFS_GetEPCount
 639              		.section	.text.USBFS_Stop_DMA,"ax",%progbits
 640              		.align	2
 641              		.global	USBFS_Stop_DMA
 642              		.code	16
 643              		.thumb_func
 644              		.type	USBFS_Stop_DMA, %function
 645              	USBFS_Stop_DMA:
 646              	.LFB77:
1063:.\Generated_Source\PSoC4/USBFS.c **** #else
1064:.\Generated_Source\PSoC4/USBFS.c **** 
1065:.\Generated_Source\PSoC4/USBFS.c **** 
1066:.\Generated_Source\PSoC4/USBFS.c ****     /***************************************************************************
1067:.\Generated_Source\PSoC4/USBFS.c ****     * Function Name: USBFS_InitEP_DMA
1068:.\Generated_Source\PSoC4/USBFS.c ****     ************************************************************************//**
1069:.\Generated_Source\PSoC4/USBFS.c ****     *
1070:.\Generated_Source\PSoC4/USBFS.c ****     *  This function allocates and initializes a DMA channel to be used by the
1071:.\Generated_Source\PSoC4/USBFS.c ****     *  USBFS_LoadInEP() or USBFS_ReadOutEP() APIs for data
1072:.\Generated_Source\PSoC4/USBFS.c ****     *  transfer. It is available when the Endpoint Memory Management parameter
1073:.\Generated_Source\PSoC4/USBFS.c ****     *  is set to DMA.
1074:.\Generated_Source\PSoC4/USBFS.c ****     *
1075:.\Generated_Source\PSoC4/USBFS.c ****     *  This function is automatically called from the USBFS_LoadInEP() and USBFS_ReadOutEP() APIs.
1076:.\Generated_Source\PSoC4/USBFS.c ****     *
1077:.\Generated_Source\PSoC4/USBFS.c ****     *  \param epNumber Contains the data endpoint number.
1078:.\Generated_Source\PSoC4/USBFS.c ****     *            Valid values are between 1 and 8.
1079:.\Generated_Source\PSoC4/USBFS.c ****     *  \param *pData Pointer to a data array that is related to the EP transfers.
1080:.\Generated_Source\PSoC4/USBFS.c ****     *
1081:.\Generated_Source\PSoC4/USBFS.c ****     * \reentrant No.
1082:.\Generated_Source\PSoC4/USBFS.c ****     *
1083:.\Generated_Source\PSoC4/USBFS.c ****     ***************************************************************************/
1084:.\Generated_Source\PSoC4/USBFS.c ****     void USBFS_InitEP_DMA(uint8 epNumber, const uint8 *pData)
ARM GAS  C:\Users\LAIR\AppData\Local\Temp\ccdy23dh.s 			page 33


1085:.\Generated_Source\PSoC4/USBFS.c ****                                                                     
1086:.\Generated_Source\PSoC4/USBFS.c ****     {
1087:.\Generated_Source\PSoC4/USBFS.c ****         uint16 src;
1088:.\Generated_Source\PSoC4/USBFS.c ****         uint16 dst;
1089:.\Generated_Source\PSoC4/USBFS.c **** 
1090:.\Generated_Source\PSoC4/USBFS.c ****     #if (CY_PSOC3)
1091:.\Generated_Source\PSoC4/USBFS.c ****         src = HI16(CYDEV_SRAM_BASE);
1092:.\Generated_Source\PSoC4/USBFS.c ****         dst = HI16(CYDEV_PERIPH_BASE);
1093:.\Generated_Source\PSoC4/USBFS.c ****         pData = pData;
1094:.\Generated_Source\PSoC4/USBFS.c ****     #else
1095:.\Generated_Source\PSoC4/USBFS.c ****         if ((USBFS_EP[epNumber].addr & USBFS_DIR_IN) != 0u)
1096:.\Generated_Source\PSoC4/USBFS.c ****         {
1097:.\Generated_Source\PSoC4/USBFS.c ****             /* IN endpoint: source is memory buffer. */
1098:.\Generated_Source\PSoC4/USBFS.c ****             src = HI16(pData);
1099:.\Generated_Source\PSoC4/USBFS.c ****             dst = HI16(CYDEV_PERIPH_BASE);
1100:.\Generated_Source\PSoC4/USBFS.c ****         }
1101:.\Generated_Source\PSoC4/USBFS.c ****         else
1102:.\Generated_Source\PSoC4/USBFS.c ****         {
1103:.\Generated_Source\PSoC4/USBFS.c ****             /* OUT endpoint: source is USB IP memory buffer. */
1104:.\Generated_Source\PSoC4/USBFS.c ****             src = HI16(CYDEV_PERIPH_BASE);
1105:.\Generated_Source\PSoC4/USBFS.c ****             dst = HI16(pData);
1106:.\Generated_Source\PSoC4/USBFS.c ****         }
1107:.\Generated_Source\PSoC4/USBFS.c ****     #endif  /* (CY_PSOC3) */
1108:.\Generated_Source\PSoC4/USBFS.c **** 
1109:.\Generated_Source\PSoC4/USBFS.c ****         switch(epNumber)
1110:.\Generated_Source\PSoC4/USBFS.c ****         {
1111:.\Generated_Source\PSoC4/USBFS.c ****     #if (USBFS_DMA1_ACTIVE)
1112:.\Generated_Source\PSoC4/USBFS.c ****         case USBFS_EP1:
1113:.\Generated_Source\PSoC4/USBFS.c ****             USBFS_DmaChan[epNumber] = USBFS_ep1_DmaInitialize(USBFS_DMA_BYTES_PER_BURST,
1114:.\Generated_Source\PSoC4/USBFS.c ****                                                                                     USBFS_DMA_REQUE
1115:.\Generated_Source\PSoC4/USBFS.c ****             break;
1116:.\Generated_Source\PSoC4/USBFS.c ****     #endif /* (USBFS_DMA1_ACTIVE) */
1117:.\Generated_Source\PSoC4/USBFS.c **** 
1118:.\Generated_Source\PSoC4/USBFS.c ****     #if (USBFS_DMA2_ACTIVE)
1119:.\Generated_Source\PSoC4/USBFS.c ****         case USBFS_EP2:
1120:.\Generated_Source\PSoC4/USBFS.c ****             USBFS_DmaChan[epNumber] = USBFS_ep2_DmaInitialize(USBFS_DMA_BYTES_PER_BURST,
1121:.\Generated_Source\PSoC4/USBFS.c ****                                                                                     USBFS_DMA_REQUE
1122:.\Generated_Source\PSoC4/USBFS.c ****             break;
1123:.\Generated_Source\PSoC4/USBFS.c ****     #endif /* (USBFS_DMA2_ACTIVE) */
1124:.\Generated_Source\PSoC4/USBFS.c **** 
1125:.\Generated_Source\PSoC4/USBFS.c ****     #if (USBFS_DMA3_ACTIVE)
1126:.\Generated_Source\PSoC4/USBFS.c ****             case USBFS_EP3:
1127:.\Generated_Source\PSoC4/USBFS.c ****                 USBFS_DmaChan[epNumber] = USBFS_ep3_DmaInitialize(USBFS_DMA_BYTES_PER_BURST,
1128:.\Generated_Source\PSoC4/USBFS.c ****                                                                                         USBFS_DMA_R
1129:.\Generated_Source\PSoC4/USBFS.c ****             break;
1130:.\Generated_Source\PSoC4/USBFS.c ****     #endif /* (USBFS_DMA3_ACTIVE) */
1131:.\Generated_Source\PSoC4/USBFS.c **** 
1132:.\Generated_Source\PSoC4/USBFS.c ****     #if (USBFS_DMA4_ACTIVE)
1133:.\Generated_Source\PSoC4/USBFS.c ****             case USBFS_EP4:
1134:.\Generated_Source\PSoC4/USBFS.c ****                 USBFS_DmaChan[epNumber] = USBFS_ep4_DmaInitialize(USBFS_DMA_BYTES_PER_BURST,
1135:.\Generated_Source\PSoC4/USBFS.c ****                                                                                         USBFS_DMA_R
1136:.\Generated_Source\PSoC4/USBFS.c ****             break;
1137:.\Generated_Source\PSoC4/USBFS.c ****     #endif /* (USBFS_DMA4_ACTIVE) */
1138:.\Generated_Source\PSoC4/USBFS.c **** 
1139:.\Generated_Source\PSoC4/USBFS.c ****     #if (USBFS_DMA5_ACTIVE)
1140:.\Generated_Source\PSoC4/USBFS.c ****             case USBFS_EP5:
1141:.\Generated_Source\PSoC4/USBFS.c ****                 USBFS_DmaChan[epNumber] = USBFS_ep5_DmaInitialize(USBFS_DMA_BYTES_PER_BURST,
ARM GAS  C:\Users\LAIR\AppData\Local\Temp\ccdy23dh.s 			page 34


1142:.\Generated_Source\PSoC4/USBFS.c ****                                                                                         USBFS_DMA_R
1143:.\Generated_Source\PSoC4/USBFS.c ****             break;
1144:.\Generated_Source\PSoC4/USBFS.c ****     #endif /* (USBFS_DMA5_ACTIVE) */
1145:.\Generated_Source\PSoC4/USBFS.c **** 
1146:.\Generated_Source\PSoC4/USBFS.c ****     #if (USBFS_DMA6_ACTIVE)
1147:.\Generated_Source\PSoC4/USBFS.c ****         case USBFS_EP6:
1148:.\Generated_Source\PSoC4/USBFS.c ****             USBFS_DmaChan[epNumber] = USBFS_ep6_DmaInitialize(USBFS_DMA_BYTES_PER_BURST,
1149:.\Generated_Source\PSoC4/USBFS.c ****                                                                                     USBFS_DMA_REQUE
1150:.\Generated_Source\PSoC4/USBFS.c ****             break;
1151:.\Generated_Source\PSoC4/USBFS.c ****     #endif /* (USBFS_DMA6_ACTIVE) */
1152:.\Generated_Source\PSoC4/USBFS.c **** 
1153:.\Generated_Source\PSoC4/USBFS.c ****     #if (USBFS_DMA7_ACTIVE)
1154:.\Generated_Source\PSoC4/USBFS.c ****         case USBFS_EP7:
1155:.\Generated_Source\PSoC4/USBFS.c ****                 USBFS_DmaChan[epNumber] = USBFS_ep7_DmaInitialize(USBFS_DMA_BYTES_PER_BURST,
1156:.\Generated_Source\PSoC4/USBFS.c ****                                                                                         USBFS_DMA_R
1157:.\Generated_Source\PSoC4/USBFS.c ****             break;
1158:.\Generated_Source\PSoC4/USBFS.c ****     #endif /* (USBFS_DMA7_ACTIVE) */
1159:.\Generated_Source\PSoC4/USBFS.c **** 
1160:.\Generated_Source\PSoC4/USBFS.c ****     #if (USBFS_DMA8_ACTIVE)
1161:.\Generated_Source\PSoC4/USBFS.c ****         case USBFS_EP8:
1162:.\Generated_Source\PSoC4/USBFS.c ****                 USBFS_DmaChan[epNumber] = USBFS_ep8_DmaInitialize(USBFS_DMA_BYTES_PER_BURST,
1163:.\Generated_Source\PSoC4/USBFS.c ****                                                                                         USBFS_DMA_R
1164:.\Generated_Source\PSoC4/USBFS.c ****             break;
1165:.\Generated_Source\PSoC4/USBFS.c ****     #endif /* (USBFS_DMA8_ACTIVE) */
1166:.\Generated_Source\PSoC4/USBFS.c **** 
1167:.\Generated_Source\PSoC4/USBFS.c ****         default:
1168:.\Generated_Source\PSoC4/USBFS.c ****             /* Do nothing for endpoints other than 1-8. */
1169:.\Generated_Source\PSoC4/USBFS.c ****             break;
1170:.\Generated_Source\PSoC4/USBFS.c ****         }
1171:.\Generated_Source\PSoC4/USBFS.c **** 
1172:.\Generated_Source\PSoC4/USBFS.c ****         if ((epNumber > USBFS_EP0) && (epNumber < USBFS_MAX_EP))
1173:.\Generated_Source\PSoC4/USBFS.c ****         {
1174:.\Generated_Source\PSoC4/USBFS.c ****             USBFS_DmaTd[epNumber] = CyDmaTdAllocate();
1175:.\Generated_Source\PSoC4/USBFS.c **** 
1176:.\Generated_Source\PSoC4/USBFS.c ****         #if (USBFS_EP_MANAGEMENT_DMA_AUTO && (USBFS_EP_DMA_AUTO_OPT == 0u))
1177:.\Generated_Source\PSoC4/USBFS.c ****             USBFS_DmaNextTd[epNumber] = CyDmaTdAllocate();
1178:.\Generated_Source\PSoC4/USBFS.c ****         #endif /* (USBFS_EP_MANAGEMENT_DMA_AUTO && (USBFS_EP_DMA_AUTO_OPT == 0u)) */
1179:.\Generated_Source\PSoC4/USBFS.c ****         }
1180:.\Generated_Source\PSoC4/USBFS.c ****     }
1181:.\Generated_Source\PSoC4/USBFS.c **** #endif /* (CY_PSOC4) */
1182:.\Generated_Source\PSoC4/USBFS.c **** 
1183:.\Generated_Source\PSoC4/USBFS.c ****     /***************************************************************************
1184:.\Generated_Source\PSoC4/USBFS.c ****     * Function Name: USBFS_Stop_DMA
1185:.\Generated_Source\PSoC4/USBFS.c ****     ************************************************************************//**
1186:.\Generated_Source\PSoC4/USBFS.c ****     *  
1187:.\Generated_Source\PSoC4/USBFS.c ****     *  This function stops DMA channel associated with endpoint. It is available 
1188:.\Generated_Source\PSoC4/USBFS.c ****     *  when the Endpoint Buffer Management parameter is set to DMA. Call this 
1189:.\Generated_Source\PSoC4/USBFS.c ****     *  function when endpoint direction is changed from IN to OUT or vice versa 
1190:.\Generated_Source\PSoC4/USBFS.c ****     *  to trigger DMA re-configuration when USBFS_LoadInEP() or 
1191:.\Generated_Source\PSoC4/USBFS.c ****     *  USBFS_ReadOutEP() functions are called the first time. 
1192:.\Generated_Source\PSoC4/USBFS.c ****     *  
1193:.\Generated_Source\PSoC4/USBFS.c ****     *  \param epNumber: The data endpoint number for which associated DMA 
1194:.\Generated_Source\PSoC4/USBFS.c ****     *  channel is stopped. The range of valid values is between 1 and 8. To stop 
1195:.\Generated_Source\PSoC4/USBFS.c ****     *  all DMAs associated with endpoints call this function with 
1196:.\Generated_Source\PSoC4/USBFS.c ****     *  USBFS_MAX_EP argument.
1197:.\Generated_Source\PSoC4/USBFS.c ****     *
1198:.\Generated_Source\PSoC4/USBFS.c ****     * \reentrant
ARM GAS  C:\Users\LAIR\AppData\Local\Temp\ccdy23dh.s 			page 35


1199:.\Generated_Source\PSoC4/USBFS.c ****     *  No.
1200:.\Generated_Source\PSoC4/USBFS.c ****     *
1201:.\Generated_Source\PSoC4/USBFS.c ****     ***************************************************************************/
1202:.\Generated_Source\PSoC4/USBFS.c ****     void USBFS_Stop_DMA(uint8 epNumber) 
1203:.\Generated_Source\PSoC4/USBFS.c ****     {
 647              		.loc 1 1203 0
 648              		.cfi_startproc
 649              	.LVL38:
 650 0000 10B5     		push	{r4, lr}
 651              		.cfi_def_cfa_offset 8
 652              		.cfi_offset 4, -8
 653              		.cfi_offset 14, -4
1204:.\Generated_Source\PSoC4/USBFS.c ****         uint32 i;
1205:.\Generated_Source\PSoC4/USBFS.c **** 
1206:.\Generated_Source\PSoC4/USBFS.c ****         i = (epNumber < USBFS_MAX_EP) ? epNumber : USBFS_EP1;
 654              		.loc 1 1206 0
 655 0002 0828     		cmp	r0, #8
 656 0004 01D8     		bhi	.L52
 657              		.loc 1 1206 0 is_stmt 0 discriminator 1
 658 0006 031C     		mov	r3, r0
 659 0008 00E0     		b	.L51
 660              	.L52:
 661              		.loc 1 1206 0
 662 000a 0123     		mov	r3, #1
 663              	.LVL39:
 664              	.L51:
1207:.\Generated_Source\PSoC4/USBFS.c **** 
1208:.\Generated_Source\PSoC4/USBFS.c ****         do
1209:.\Generated_Source\PSoC4/USBFS.c ****         {
1210:.\Generated_Source\PSoC4/USBFS.c ****         #if (CY_PSOC4)
1211:.\Generated_Source\PSoC4/USBFS.c ****             if (0u != USBFS_DmaChan[i])
 665              		.loc 1 1211 0 is_stmt 1
 666 000c 074A     		ldr	r2, .L53
 667 000e D25C     		ldrb	r2, [r2, r3]
 668 0010 002A     		cmp	r2, #0
 669 0012 05D0     		beq	.L49
1212:.\Generated_Source\PSoC4/USBFS.c ****             {
1213:.\Generated_Source\PSoC4/USBFS.c ****                 USBFS_CyDmaChDisable(USBFS_DmaChan[i]);
 670              		.loc 1 1213 0
 671 0014 064C     		ldr	r4, .L53+4
 672 0016 9200     		lsl	r2, r2, #2
 673 0018 1159     		ldr	r1, [r2, r4]
 674 001a 4900     		lsl	r1, r1, #1
 675 001c 4908     		lsr	r1, r1, #1
 676 001e 1151     		str	r1, [r2, r4]
 677              	.L49:
1214:.\Generated_Source\PSoC4/USBFS.c ****             }
1215:.\Generated_Source\PSoC4/USBFS.c ****         #else
1216:.\Generated_Source\PSoC4/USBFS.c ****             if(USBFS_DmaTd[i] != DMA_INVALID_TD)
1217:.\Generated_Source\PSoC4/USBFS.c ****             {
1218:.\Generated_Source\PSoC4/USBFS.c ****                 (void) CyDmaChDisable(USBFS_DmaChan[i]);
1219:.\Generated_Source\PSoC4/USBFS.c ****                 CyDmaTdFree(USBFS_DmaTd[i]);
1220:.\Generated_Source\PSoC4/USBFS.c ****                 USBFS_DmaTd[i] = DMA_INVALID_TD;
1221:.\Generated_Source\PSoC4/USBFS.c ****             }
1222:.\Generated_Source\PSoC4/USBFS.c **** 
1223:.\Generated_Source\PSoC4/USBFS.c ****             #if (USBFS_EP_MANAGEMENT_DMA_AUTO && (USBFS_EP_DMA_AUTO_OPT == 0u))
1224:.\Generated_Source\PSoC4/USBFS.c ****                 if(USBFS_DmaNextTd[i] != DMA_INVALID_TD)
ARM GAS  C:\Users\LAIR\AppData\Local\Temp\ccdy23dh.s 			page 36


1225:.\Generated_Source\PSoC4/USBFS.c ****                 {
1226:.\Generated_Source\PSoC4/USBFS.c ****                     CyDmaTdFree(USBFS_DmaNextTd[i]);
1227:.\Generated_Source\PSoC4/USBFS.c ****                     USBFS_DmaNextTd[i] = DMA_INVALID_TD;
1228:.\Generated_Source\PSoC4/USBFS.c ****                 }
1229:.\Generated_Source\PSoC4/USBFS.c ****             #endif /* (USBFS_EP_MANAGEMENT_DMA_AUTO && (USBFS_EP_DMA_AUTO_OPT == 0u)) */
1230:.\Generated_Source\PSoC4/USBFS.c **** 
1231:.\Generated_Source\PSoC4/USBFS.c ****         #endif /* (CY_PSOC4) */
1232:.\Generated_Source\PSoC4/USBFS.c ****             i++;
 678              		.loc 1 1232 0
 679 0020 0133     		add	r3, r3, #1
 680              	.LVL40:
1233:.\Generated_Source\PSoC4/USBFS.c ****         }
1234:.\Generated_Source\PSoC4/USBFS.c ****         while ((i < USBFS_MAX_EP) && (epNumber == USBFS_MAX_EP));
 681              		.loc 1 1234 0
 682 0022 082B     		cmp	r3, #8
 683 0024 01D8     		bhi	.L47
 684              		.loc 1 1234 0 is_stmt 0 discriminator 1
 685 0026 0928     		cmp	r0, #9
 686 0028 F0D0     		beq	.L51
 687              	.L47:
1235:.\Generated_Source\PSoC4/USBFS.c ****     }
 688              		.loc 1 1235 0 is_stmt 1
 689              		@ sp needed
 690 002a 10BD     		pop	{r4, pc}
 691              	.L54:
 692              		.align	2
 693              	.L53:
 694 002c 00000000 		.word	.LANCHOR1
 695 0030 80101040 		.word	1074794624
 696              		.cfi_endproc
 697              	.LFE77:
 698              		.size	USBFS_Stop_DMA, .-USBFS_Stop_DMA
 699              		.section	.text.USBFS_Stop,"ax",%progbits
 700              		.align	2
 701              		.global	USBFS_Stop
 702              		.code	16
 703              		.thumb_func
 704              		.type	USBFS_Stop, %function
 705              	USBFS_Stop:
 706              	.LFB69:
 729:.\Generated_Source\PSoC4/USBFS.c ****     uint8 enableInterrupts;
 707              		.loc 1 729 0
 708              		.cfi_startproc
 709 0000 08B5     		push	{r3, lr}
 710              		.cfi_def_cfa_offset 8
 711              		.cfi_offset 3, -8
 712              		.cfi_offset 14, -4
 734:.\Generated_Source\PSoC4/USBFS.c **** #endif /* (USBFS_EP_MANAGEMENT_DMA) */
 713              		.loc 1 734 0
 714 0002 0920     		mov	r0, #9
 715 0004 FFF7FEFF 		bl	USBFS_Stop_DMA
 716              	.LVL41:
 737:.\Generated_Source\PSoC4/USBFS.c **** 
 717              		.loc 1 737 0
 718 0008 FFF7FEFF 		bl	CyEnterCriticalSection
 719              	.LVL42:
 740:.\Generated_Source\PSoC4/USBFS.c **** 
ARM GAS  C:\Users\LAIR\AppData\Local\Temp\ccdy23dh.s 			page 37


 720              		.loc 1 740 0
 721 000c 134A     		ldr	r2, .L56
 722 000e 1368     		ldr	r3, [r2]
 723 0010 8021     		mov	r1, #128
 724 0012 8B43     		bic	r3, r1
 725 0014 1360     		str	r3, [r2]
 743:.\Generated_Source\PSoC4/USBFS.c **** 
 726              		.loc 1 743 0
 727 0016 124A     		ldr	r2, .L56+4
 728 0018 1368     		ldr	r3, [r2]
 729 001a 7C39     		sub	r1, r1, #124
 730 001c 8B43     		bic	r3, r1
 731 001e 1360     		str	r3, [r2]
 747:.\Generated_Source\PSoC4/USBFS.c **** #else
 732              		.loc 1 747 0
 733 0020 104A     		ldr	r2, .L56+8
 734 0022 1368     		ldr	r3, [r2]
 735 0024 5B00     		lsl	r3, r3, #1
 736 0026 5B08     		lsr	r3, r3, #1
 737 0028 1360     		str	r3, [r2]
 754:.\Generated_Source\PSoC4/USBFS.c **** 
 738              		.loc 1 754 0
 739 002a FFF7FEFF 		bl	CyExitCriticalSection
 740              	.LVL43:
 758:.\Generated_Source\PSoC4/USBFS.c ****     CyIntDisable(USBFS_INTR_LO_VECT_NUM);
 741              		.loc 1 758 0
 742 002e 1E20     		mov	r0, #30
 743 0030 FFF7FEFF 		bl	CyIntDisable
 744              	.LVL44:
 759:.\Generated_Source\PSoC4/USBFS.c ****     CyIntDisable(USBFS_INTR_MED_VECT_NUM);
 745              		.loc 1 759 0
 746 0034 1F20     		mov	r0, #31
 747 0036 FFF7FEFF 		bl	CyIntDisable
 748              	.LVL45:
 760:.\Generated_Source\PSoC4/USBFS.c **** #else
 749              		.loc 1 760 0
 750 003a 0020     		mov	r0, #0
 751 003c FFF7FEFF 		bl	CyIntDisable
 752              	.LVL46:
 804:.\Generated_Source\PSoC4/USBFS.c ****     USBFS_configuration   = 0u;
 753              		.loc 1 804 0
 754 0040 0023     		mov	r3, #0
 755 0042 094A     		ldr	r2, .L56+12
 756 0044 1370     		strb	r3, [r2]
 805:.\Generated_Source\PSoC4/USBFS.c ****     USBFS_interfaceNumber = 0u;
 757              		.loc 1 805 0
 758 0046 094A     		ldr	r2, .L56+16
 759 0048 1370     		strb	r3, [r2]
 806:.\Generated_Source\PSoC4/USBFS.c ****     USBFS_deviceAddress   = 0u;
 760              		.loc 1 806 0
 761 004a 094A     		ldr	r2, .L56+20
 762 004c 1370     		strb	r3, [r2]
 807:.\Generated_Source\PSoC4/USBFS.c ****     USBFS_deviceStatus    = 0u;
 763              		.loc 1 807 0
 764 004e 094A     		ldr	r2, .L56+24
 765 0050 1370     		strb	r3, [r2]
 808:.\Generated_Source\PSoC4/USBFS.c **** 
ARM GAS  C:\Users\LAIR\AppData\Local\Temp\ccdy23dh.s 			page 38


 766              		.loc 1 808 0
 767 0052 094A     		ldr	r2, .L56+28
 768 0054 1370     		strb	r3, [r2]
 811:.\Generated_Source\PSoC4/USBFS.c **** }
 769              		.loc 1 811 0
 770 0056 094A     		ldr	r2, .L56+32
 771 0058 1370     		strb	r3, [r2]
 812:.\Generated_Source\PSoC4/USBFS.c **** 
 772              		.loc 1 812 0
 773              		@ sp needed
 774 005a 08BD     		pop	{r3, pc}
 775              	.L57:
 776              		.align	2
 777              	.L56:
 778 005c 20002C40 		.word	1076625440
 779 0060 48002C40 		.word	1076625480
 780 0064 00202C40 		.word	1076633600
 781 0068 00000000 		.word	USBFS_configurationChanged
 782 006c 00000000 		.word	USBFS_configuration
 783 0070 00000000 		.word	USBFS_interfaceNumber
 784 0074 00000000 		.word	USBFS_deviceAddress
 785 0078 00000000 		.word	USBFS_deviceStatus
 786 007c 00000000 		.word	.LANCHOR0
 787              		.cfi_endproc
 788              	.LFE69:
 789              		.size	USBFS_Stop, .-USBFS_Stop
 790              		.section	.text.USBFS_LoadInEP,"ax",%progbits
 791              		.align	2
 792              		.global	USBFS_LoadInEP
 793              		.code	16
 794              		.thumb_func
 795              		.type	USBFS_LoadInEP, %function
 796              	USBFS_LoadInEP:
 797              	.LFB78:
1236:.\Generated_Source\PSoC4/USBFS.c **** #endif /* (USBFS_EP_MANAGEMENT_DMA) */
1237:.\Generated_Source\PSoC4/USBFS.c **** 
1238:.\Generated_Source\PSoC4/USBFS.c **** 
1239:.\Generated_Source\PSoC4/USBFS.c **** #if (CY_PSOC3 || CY_PSOC5)
1240:.\Generated_Source\PSoC4/USBFS.c **** #if (USBFS_EP_MANAGEMENT_DMA_AUTO && (USBFS_EP_DMA_AUTO_OPT == 0u))
1241:.\Generated_Source\PSoC4/USBFS.c ****     /***************************************************************************
1242:.\Generated_Source\PSoC4/USBFS.c ****     * Function Name: USBFS_LoadNextInEP
1243:.\Generated_Source\PSoC4/USBFS.c ****     ************************************************************************//**
1244:.\Generated_Source\PSoC4/USBFS.c ****     *
1245:.\Generated_Source\PSoC4/USBFS.c ****     * Summary:
1246:.\Generated_Source\PSoC4/USBFS.c ****     *  This internal function is used for IN endpoint DMA reconfiguration in
1247:.\Generated_Source\PSoC4/USBFS.c ****     *  Auto DMA mode.
1248:.\Generated_Source\PSoC4/USBFS.c ****     *
1249:.\Generated_Source\PSoC4/USBFS.c ****     * Parameters:
1250:.\Generated_Source\PSoC4/USBFS.c ****     *  epNumber: Contains the data endpoint number.
1251:.\Generated_Source\PSoC4/USBFS.c ****     *  mode:   0 - Configure DMA to send the the rest of data.
1252:.\Generated_Source\PSoC4/USBFS.c ****     *          1 - Configure DMA to repeat 2 last bytes of the first burst.
1253:.\Generated_Source\PSoC4/USBFS.c ****     *
1254:.\Generated_Source\PSoC4/USBFS.c ****     ***************************************************************************/
1255:.\Generated_Source\PSoC4/USBFS.c ****     void USBFS_LoadNextInEP(uint8 epNumber, uint8 mode) 
1256:.\Generated_Source\PSoC4/USBFS.c ****     {
1257:.\Generated_Source\PSoC4/USBFS.c ****         reg16 *convert;
1258:.\Generated_Source\PSoC4/USBFS.c **** 
ARM GAS  C:\Users\LAIR\AppData\Local\Temp\ccdy23dh.s 			page 39


1259:.\Generated_Source\PSoC4/USBFS.c ****         if (mode == 0u)
1260:.\Generated_Source\PSoC4/USBFS.c ****         {
1261:.\Generated_Source\PSoC4/USBFS.c ****             /* Configure DMA to send rest of data. */
1262:.\Generated_Source\PSoC4/USBFS.c ****             /* CyDmaTdSetConfiguration API is optimized to change transfer length only and configur
1263:.\Generated_Source\PSoC4/USBFS.c ****             convert = (reg16 *) &CY_DMA_TDMEM_STRUCT_PTR[USBFS_DmaTd[epNumber]].TD0[0u];
1264:.\Generated_Source\PSoC4/USBFS.c ****             /* Set transfer length. */
1265:.\Generated_Source\PSoC4/USBFS.c ****             CY_SET_REG16(convert, USBFS_inLength[epNumber] - USBFS_DMA_BYTES_PER_BURST);
1266:.\Generated_Source\PSoC4/USBFS.c ****             /* CyDmaTdSetAddress API is optimized to change source address only. */
1267:.\Generated_Source\PSoC4/USBFS.c ****             convert = (reg16 *) &CY_DMA_TDMEM_STRUCT_PTR[USBFS_DmaTd[epNumber]].TD1[0u];
1268:.\Generated_Source\PSoC4/USBFS.c ****             CY_SET_REG16(convert, LO16((uint32)USBFS_inDataPointer[epNumber] +
1269:.\Generated_Source\PSoC4/USBFS.c ****                                             USBFS_DMA_BYTES_PER_BURST));
1270:.\Generated_Source\PSoC4/USBFS.c ****             USBFS_inBufFull[epNumber] = 1u;
1271:.\Generated_Source\PSoC4/USBFS.c ****         }
1272:.\Generated_Source\PSoC4/USBFS.c ****         else
1273:.\Generated_Source\PSoC4/USBFS.c ****         {
1274:.\Generated_Source\PSoC4/USBFS.c ****             /* Configure DMA to repeat 2 last bytes of the first burst. */
1275:.\Generated_Source\PSoC4/USBFS.c ****             /* CyDmaTdSetConfiguration API is optimized to change transfer length only and configur
1276:.\Generated_Source\PSoC4/USBFS.c ****             convert = (reg16 *) &CY_DMA_TDMEM_STRUCT_PTR[USBFS_DmaTd[epNumber]].TD0[0u];
1277:.\Generated_Source\PSoC4/USBFS.c ****             /* Set transfer length. */
1278:.\Generated_Source\PSoC4/USBFS.c ****             CY_SET_REG16(convert, USBFS_DMA_BYTES_REPEAT);
1279:.\Generated_Source\PSoC4/USBFS.c ****             /* CyDmaTdSetAddress API is optimized to change source address only. */
1280:.\Generated_Source\PSoC4/USBFS.c ****             convert = (reg16 *) &CY_DMA_TDMEM_STRUCT_PTR[USBFS_DmaTd[epNumber]].TD1[0u];
1281:.\Generated_Source\PSoC4/USBFS.c ****             CY_SET_REG16(convert,  LO16((uint32)USBFS_inDataPointer[epNumber] +
1282:.\Generated_Source\PSoC4/USBFS.c ****                                    (USBFS_DMA_BYTES_PER_BURST - USBFS_DMA_BYTES_REPEAT)));
1283:.\Generated_Source\PSoC4/USBFS.c ****         }
1284:.\Generated_Source\PSoC4/USBFS.c **** 
1285:.\Generated_Source\PSoC4/USBFS.c ****         /* CyDmaChSetInitialTd API is optimized to initialize TD. */
1286:.\Generated_Source\PSoC4/USBFS.c ****         CY_DMA_CH_STRUCT_PTR[USBFS_DmaChan[epNumber]].basic_status[1u] = USBFS_DmaTd[epNumber];
1287:.\Generated_Source\PSoC4/USBFS.c ****     }
1288:.\Generated_Source\PSoC4/USBFS.c **** #endif /* (USBFS_EP_MANAGEMENT_DMA_AUTO && (USBFS_EP_DMA_AUTO_OPT == 0u)) */
1289:.\Generated_Source\PSoC4/USBFS.c **** #endif /* (CY_PSOC3 || CY_PSOC5) */
1290:.\Generated_Source\PSoC4/USBFS.c **** 
1291:.\Generated_Source\PSoC4/USBFS.c **** 
1292:.\Generated_Source\PSoC4/USBFS.c **** /*******************************************************************************
1293:.\Generated_Source\PSoC4/USBFS.c **** * Function Name: USBFS_LoadInEP
1294:.\Generated_Source\PSoC4/USBFS.c **** ****************************************************************************//**
1295:.\Generated_Source\PSoC4/USBFS.c **** *
1296:.\Generated_Source\PSoC4/USBFS.c **** *  This function performs different functionality depending on the Component’s
1297:.\Generated_Source\PSoC4/USBFS.c **** *  configured Endpoint Buffer Management. This parameter is defined in
1298:.\Generated_Source\PSoC4/USBFS.c **** *  the Descriptor Root in Component Configure window.
1299:.\Generated_Source\PSoC4/USBFS.c **** *
1300:.\Generated_Source\PSoC4/USBFS.c **** *  *Manual (Static/Dynamic Allocation):*
1301:.\Generated_Source\PSoC4/USBFS.c **** *  This function loads and enables the specified USB data endpoint for an IN
1302:.\Generated_Source\PSoC4/USBFS.c **** *  data transfer.
1303:.\Generated_Source\PSoC4/USBFS.c **** *
1304:.\Generated_Source\PSoC4/USBFS.c **** *  *DMA with Manual Buffer Management:*
1305:.\Generated_Source\PSoC4/USBFS.c **** *  Configures DMA for a data transfer from system RAM to endpoint buffer.
1306:.\Generated_Source\PSoC4/USBFS.c **** *  Generates request for a transfer.
1307:.\Generated_Source\PSoC4/USBFS.c **** *
1308:.\Generated_Source\PSoC4/USBFS.c **** *  *DMA with Automatic Buffer Management:*
1309:.\Generated_Source\PSoC4/USBFS.c **** *  Configures DMA. This is required only once, so it is done only when parameter
1310:.\Generated_Source\PSoC4/USBFS.c **** *  pData is not NULL. When the pData pointer is NULL, the function skips this
1311:.\Generated_Source\PSoC4/USBFS.c **** *  task. Sets Data ready status: This generates the first DMA transfer and
1312:.\Generated_Source\PSoC4/USBFS.c **** *  prepares data in endpoint buffer.
1313:.\Generated_Source\PSoC4/USBFS.c **** *
1314:.\Generated_Source\PSoC4/USBFS.c **** *  \param epNumber Contains the data endpoint number.
1315:.\Generated_Source\PSoC4/USBFS.c **** *            Valid values are between 1 and 8.
ARM GAS  C:\Users\LAIR\AppData\Local\Temp\ccdy23dh.s 			page 40


1316:.\Generated_Source\PSoC4/USBFS.c **** *  \param *pData A pointer to a data array from which the data for the endpoint space
1317:.\Generated_Source\PSoC4/USBFS.c **** *          is loaded.
1318:.\Generated_Source\PSoC4/USBFS.c **** *  \param length The number of bytes to transfer from the array and then send as
1319:.\Generated_Source\PSoC4/USBFS.c **** *          a result of an IN request. Valid values are between 0 and 512
1320:.\Generated_Source\PSoC4/USBFS.c **** *          (1023 for DMA with Automatic Buffer Management mode). The value 512
1321:.\Generated_Source\PSoC4/USBFS.c **** *          is applicable if only one endpoint is used.
1322:.\Generated_Source\PSoC4/USBFS.c **** *
1323:.\Generated_Source\PSoC4/USBFS.c **** *
1324:.\Generated_Source\PSoC4/USBFS.c **** * \reentrant
1325:.\Generated_Source\PSoC4/USBFS.c **** *  No.
1326:.\Generated_Source\PSoC4/USBFS.c **** *
1327:.\Generated_Source\PSoC4/USBFS.c **** *******************************************************************************/
1328:.\Generated_Source\PSoC4/USBFS.c **** void USBFS_LoadInEP(uint8 epNumber, const uint8 pData[], uint16 length)
1329:.\Generated_Source\PSoC4/USBFS.c ****                                                                         
1330:.\Generated_Source\PSoC4/USBFS.c **** {
 798              		.loc 1 1330 0
 799              		.cfi_startproc
 800              	.LVL47:
 801 0000 70B5     		push	{r4, r5, r6, lr}
 802              		.cfi_def_cfa_offset 16
 803              		.cfi_offset 4, -16
 804              		.cfi_offset 5, -12
 805              		.cfi_offset 6, -8
 806              		.cfi_offset 14, -4
1331:.\Generated_Source\PSoC4/USBFS.c ****     if ((epNumber > USBFS_EP0) && (epNumber < USBFS_MAX_EP))
 807              		.loc 1 1331 0
 808 0002 431E     		sub	r3, r0, #1
 809 0004 072B     		cmp	r3, #7
 810 0006 5DD8     		bhi	.L58
1332:.\Generated_Source\PSoC4/USBFS.c ****     {
1333:.\Generated_Source\PSoC4/USBFS.c ****     #if (!USBFS_EP_MANAGEMENT_DMA_AUTO)
1334:.\Generated_Source\PSoC4/USBFS.c ****         /* Limit length to available buffer USB IP buffer size.*/
1335:.\Generated_Source\PSoC4/USBFS.c ****         if (length > (USBFS_EPX_DATA_BUF_MAX - USBFS_EP[epNumber].buffOffset))
 811              		.loc 1 1335 0
 812 0008 4300     		lsl	r3, r0, #1
 813 000a 1B18     		add	r3, r3, r0
 814 000c 9B00     		lsl	r3, r3, #2
 815 000e 2E4C     		ldr	r4, .L62
 816 0010 E318     		add	r3, r4, r3
 817 0012 DC88     		ldrh	r4, [r3, #6]
 818 0014 8023     		mov	r3, #128
 819 0016 9B00     		lsl	r3, r3, #2
 820 0018 1B1B     		sub	r3, r3, r4
 821 001a 9A42     		cmp	r2, r3
 822 001c 09D9     		bls	.L60
1336:.\Generated_Source\PSoC4/USBFS.c ****         {
1337:.\Generated_Source\PSoC4/USBFS.c ****             length = USBFS_EPX_DATA_BUF_MAX - USBFS_EP[epNumber].buffOffset;
 823              		.loc 1 1337 0
 824 001e 4300     		lsl	r3, r0, #1
 825 0020 1B18     		add	r3, r3, r0
 826 0022 9B00     		lsl	r3, r3, #2
 827 0024 284A     		ldr	r2, .L62
 828              	.LVL48:
 829 0026 D318     		add	r3, r2, r3
 830 0028 DA88     		ldrh	r2, [r3, #6]
 831 002a 8023     		mov	r3, #128
 832 002c 9B00     		lsl	r3, r3, #2
ARM GAS  C:\Users\LAIR\AppData\Local\Temp\ccdy23dh.s 			page 41


 833 002e 9A1A     		sub	r2, r3, r2
 834 0030 92B2     		uxth	r2, r2
 835              	.LVL49:
 836              	.L60:
1338:.\Generated_Source\PSoC4/USBFS.c ****         }
1339:.\Generated_Source\PSoC4/USBFS.c ****     #endif /* (!USBFS_EP_MANAGEMENT_DMA_AUTO) */
1340:.\Generated_Source\PSoC4/USBFS.c **** 
1341:.\Generated_Source\PSoC4/USBFS.c ****         /* Set count and data toggle. */
1342:.\Generated_Source\PSoC4/USBFS.c ****         USBFS_SIE_EP_BASE.sieEp[epNumber].epCnt0 = (uint32) HI8(length) | USBFS_EP[epNumber].epTogg
 837              		.loc 1 1342 0
 838 0032 130A     		lsr	r3, r2, #8
 839 0034 4400     		lsl	r4, r0, #1
 840 0036 2418     		add	r4, r4, r0
 841 0038 A400     		lsl	r4, r4, #2
 842 003a 234D     		ldr	r5, .L62
 843 003c 2D19     		add	r5, r5, r4
 844 003e EC78     		ldrb	r4, [r5, #3]
 845 0040 1C43     		orr	r4, r3
 846 0042 8301     		lsl	r3, r0, #6
 847 0044 214E     		ldr	r6, .L62+4
 848 0046 9C51     		str	r4, [r3, r6]
1343:.\Generated_Source\PSoC4/USBFS.c ****         USBFS_SIE_EP_BASE.sieEp[epNumber].epCnt1 = (uint32) LO8(length);
 849              		.loc 1 1343 0
 850 0048 D4B2     		uxtb	r4, r2
 851 004a B446     		mov	ip, r6
 852 004c 6344     		add	r3, r3, ip
 853 004e 5C60     		str	r4, [r3, #4]
1344:.\Generated_Source\PSoC4/USBFS.c **** 
1345:.\Generated_Source\PSoC4/USBFS.c ****     #if (USBFS_EP_MANAGEMENT_MANUAL)
1346:.\Generated_Source\PSoC4/USBFS.c ****         if (NULL != pData)
1347:.\Generated_Source\PSoC4/USBFS.c ****         {
1348:.\Generated_Source\PSoC4/USBFS.c **** 			/* Copy data using arbiter data register. */
1349:.\Generated_Source\PSoC4/USBFS.c ****             uint16 i;
1350:.\Generated_Source\PSoC4/USBFS.c ****             for (i = 0u; i < length; ++i)
1351:.\Generated_Source\PSoC4/USBFS.c ****             {
1352:.\Generated_Source\PSoC4/USBFS.c ****                 USBFS_ARB_EP_BASE.arbEp[epNumber].rwDr = pData[i];
1353:.\Generated_Source\PSoC4/USBFS.c ****             }
1354:.\Generated_Source\PSoC4/USBFS.c ****         }
1355:.\Generated_Source\PSoC4/USBFS.c **** 
1356:.\Generated_Source\PSoC4/USBFS.c ****         /* IN endpoint buffer is full - read to be read. */
1357:.\Generated_Source\PSoC4/USBFS.c ****         USBFS_EP[epNumber].apiEpState = USBFS_NO_EVENT_PENDING;
1358:.\Generated_Source\PSoC4/USBFS.c **** 
1359:.\Generated_Source\PSoC4/USBFS.c ****         /* Arm IN endpoint. */
1360:.\Generated_Source\PSoC4/USBFS.c ****         USBFS_SIE_EP_BASE.sieEp[epNumber].epCr0 = USBFS_EP[epNumber].epMode;
1361:.\Generated_Source\PSoC4/USBFS.c **** 
1362:.\Generated_Source\PSoC4/USBFS.c ****     #else
1363:.\Generated_Source\PSoC4/USBFS.c **** 
1364:.\Generated_Source\PSoC4/USBFS.c ****         #if (CY_PSOC3 || CY_PSOC5LP)
1365:.\Generated_Source\PSoC4/USBFS.c ****             /* Initialize DMA if it was not initialized. */
1366:.\Generated_Source\PSoC4/USBFS.c ****             if (DMA_INVALID_TD == USBFS_DmaTd[epNumber])
1367:.\Generated_Source\PSoC4/USBFS.c ****             {
1368:.\Generated_Source\PSoC4/USBFS.c ****                 USBFS_InitEP_DMA(epNumber, pData);
1369:.\Generated_Source\PSoC4/USBFS.c ****             }
1370:.\Generated_Source\PSoC4/USBFS.c ****         #endif /* (CY_PSOC3 || CY_PSOC5LP) */
1371:.\Generated_Source\PSoC4/USBFS.c **** 
1372:.\Generated_Source\PSoC4/USBFS.c ****         #if (USBFS_EP_MANAGEMENT_DMA_MANUAL)
1373:.\Generated_Source\PSoC4/USBFS.c ****             /* IN endpoint buffer will be fully loaded by DMA shortly. */
ARM GAS  C:\Users\LAIR\AppData\Local\Temp\ccdy23dh.s 			page 42


1374:.\Generated_Source\PSoC4/USBFS.c ****             USBFS_EP[epNumber].apiEpState = USBFS_NO_EVENT_PENDING;
 854              		.loc 1 1374 0
 855 0050 0023     		mov	r3, #0
 856 0052 6B70     		strb	r3, [r5, #1]
1375:.\Generated_Source\PSoC4/USBFS.c **** 
1376:.\Generated_Source\PSoC4/USBFS.c ****             if ((pData != NULL) && (length > 0u))
 857              		.loc 1 1376 0
 858 0054 0029     		cmp	r1, #0
 859 0056 29D0     		beq	.L61
 860              		.loc 1 1376 0 is_stmt 0 discriminator 1
 861 0058 002A     		cmp	r2, #0
 862 005a 27D0     		beq	.L61
 863              	.LBB2:
1377:.\Generated_Source\PSoC4/USBFS.c ****             {
1378:.\Generated_Source\PSoC4/USBFS.c ****             #if (CY_PSOC4)
1379:.\Generated_Source\PSoC4/USBFS.c ****                 uint32 channelNum = (uint32) USBFS_DmaChan[epNumber];
 864              		.loc 1 1379 0 is_stmt 1
 865 005c 1C4B     		ldr	r3, .L62+8
 866 005e 1B5C     		ldrb	r3, [r3, r0]
 867              	.LVL50:
1380:.\Generated_Source\PSoC4/USBFS.c **** 
1381:.\Generated_Source\PSoC4/USBFS.c ****                 /* Disable DMA channel: start configuration. */
1382:.\Generated_Source\PSoC4/USBFS.c ****                 USBFS_CyDmaChDisable(channelNum);
 868              		.loc 1 1382 0
 869 0060 1C4D     		ldr	r5, .L62+12
 870 0062 9E00     		lsl	r6, r3, #2
 871 0064 7459     		ldr	r4, [r6, r5]
 872 0066 6400     		lsl	r4, r4, #1
 873 0068 6408     		lsr	r4, r4, #1
 874 006a 7451     		str	r4, [r6, r5]
1383:.\Generated_Source\PSoC4/USBFS.c **** 
1384:.\Generated_Source\PSoC4/USBFS.c ****                 /* Configure source and destination. */
1385:.\Generated_Source\PSoC4/USBFS.c ****                 USBFS_CyDmaSetSrcAddress(channelNum, USBFS_DMA_DESCR0, (void*) pData);
 875              		.loc 1 1385 0
 876 006c 5B01     		lsl	r3, r3, #5
 877              	.LVL51:
 878 006e 1A4C     		ldr	r4, .L62+16
 879 0070 1951     		str	r1, [r3, r4]
1386:.\Generated_Source\PSoC4/USBFS.c ****                 USBFS_CyDmaSetDstAddress(channelNum, USBFS_DMA_DESCR0, (void*) &USBFS_ARB_EP_BASE.a
 880              		.loc 1 1386 0
 881 0072 8101     		lsl	r1, r0, #6
 882              	.LVL52:
 883 0074 194C     		ldr	r4, .L62+20
 884              	.LVL53:
 885 0076 A446     		mov	ip, r4
 886 0078 6144     		add	r1, r1, ip
 887 007a 174C     		ldr	r4, .L62+16
 888              	.LVL54:
 889 007c A446     		mov	ip, r4
 890 007e 6344     		add	r3, r3, ip
 891              	.LVL55:
 892 0080 5960     		str	r1, [r3, #4]
 893              	.LVL56:
1387:.\Generated_Source\PSoC4/USBFS.c **** 
1388:.\Generated_Source\PSoC4/USBFS.c ****                 /* Configure DMA descriptor. */
1389:.\Generated_Source\PSoC4/USBFS.c ****                 --length;
 894              		.loc 1 1389 0
ARM GAS  C:\Users\LAIR\AppData\Local\Temp\ccdy23dh.s 			page 43


 895 0082 013A     		sub	r2, r2, #1
 896              	.LVL57:
 897 0084 92B2     		uxth	r2, r2
 898              	.LVL58:
1390:.\Generated_Source\PSoC4/USBFS.c ****                 USBFS_CyDmaSetConfiguration(channelNum, USBFS_DMA_DESCR0, USBFS_DMA_COMMON_CFG | le
 899              		.loc 1 1390 0
 900 0086 1649     		ldr	r1, .L62+24
 901 0088 0A43     		orr	r2, r1
 902              	.LVL59:
 903 008a 9A60     		str	r2, [r3, #8]
1391:.\Generated_Source\PSoC4/USBFS.c ****                                                         CYDMA_BYTE | CYDMA_ELEMENT_WORD | CYDMA_INC
1392:.\Generated_Source\PSoC4/USBFS.c **** 
1393:.\Generated_Source\PSoC4/USBFS.c ****                 /* Validate descriptor to execute on following DMA request. */
1394:.\Generated_Source\PSoC4/USBFS.c ****                 USBFS_CyDmaValidateDescriptor(channelNum, USBFS_DMA_DESCR0);
 904              		.loc 1 1394 0
 905 008c 8022     		mov	r2, #128
 906 008e 1206     		lsl	r2, r2, #24
 907 0090 DA60     		str	r2, [r3, #12]
1395:.\Generated_Source\PSoC4/USBFS.c **** 
1396:.\Generated_Source\PSoC4/USBFS.c ****                 /* Enable DMA channel: configuration complete. */
1397:.\Generated_Source\PSoC4/USBFS.c ****                 USBFS_CyDmaChEnable(channelNum);
 908              		.loc 1 1397 0
 909 0092 7359     		ldr	r3, [r6, r5]
 910 0094 1343     		orr	r3, r2
 911 0096 7351     		str	r3, [r6, r5]
1398:.\Generated_Source\PSoC4/USBFS.c ****             #else
1399:.\Generated_Source\PSoC4/USBFS.c ****                 /* Configure DMA to transfer data. */
1400:.\Generated_Source\PSoC4/USBFS.c ****                 (void) CyDmaChDisable(USBFS_DmaChan[epNumber]);
1401:.\Generated_Source\PSoC4/USBFS.c ****                 (void) CyDmaTdSetConfiguration(USBFS_DmaTd[epNumber], length, CY_DMA_DISABLE_TD, TD
1402:.\Generated_Source\PSoC4/USBFS.c ****                 (void) CyDmaTdSetAddress(USBFS_DmaTd[epNumber], LO16((uint32) pData), LO16((uint32)
1403:.\Generated_Source\PSoC4/USBFS.c **** 
1404:.\Generated_Source\PSoC4/USBFS.c ****                 /* Enable DMA channel. */
1405:.\Generated_Source\PSoC4/USBFS.c ****                 (void) CyDmaChSetInitialTd(USBFS_DmaChan[epNumber], USBFS_DmaTd[epNumber]);
1406:.\Generated_Source\PSoC4/USBFS.c ****                 (void) CyDmaChEnable(USBFS_DmaChan[epNumber], 1u);
1407:.\Generated_Source\PSoC4/USBFS.c ****             #endif /* (CY_PSOC4) */
1408:.\Generated_Source\PSoC4/USBFS.c **** 
1409:.\Generated_Source\PSoC4/USBFS.c ****                 /* Generate DMA request. */
1410:.\Generated_Source\PSoC4/USBFS.c ****                 USBFS_ARB_EP_BASE.arbEp[epNumber].epCfg |=  (uint32)  USBFS_ARB_EPX_CFG_DMA_REQ;
 912              		.loc 1 1410 0
 913 0098 124B     		ldr	r3, .L62+28
 914 009a 8001     		lsl	r0, r0, #6
 915              	.LVL60:
 916 009c C258     		ldr	r2, [r0, r3]
 917 009e 0221     		mov	r1, #2
 918 00a0 0A43     		orr	r2, r1
 919 00a2 C250     		str	r2, [r0, r3]
1411:.\Generated_Source\PSoC4/USBFS.c ****                 USBFS_ARB_EP_BASE.arbEp[epNumber].epCfg &=  (uint32) ~USBFS_ARB_EPX_CFG_DMA_REQ;
 920              		.loc 1 1411 0
 921 00a4 C258     		ldr	r2, [r0, r3]
 922 00a6 8A43     		bic	r2, r1
 923 00a8 C250     		str	r2, [r0, r3]
 924              	.LBE2:
1377:.\Generated_Source\PSoC4/USBFS.c ****             #if (CY_PSOC4)
 925              		.loc 1 1377 0
 926 00aa 0BE0     		b	.L58
 927              	.LVL61:
 928              	.L61:
ARM GAS  C:\Users\LAIR\AppData\Local\Temp\ccdy23dh.s 			page 44


1412:.\Generated_Source\PSoC4/USBFS.c **** 
1413:.\Generated_Source\PSoC4/USBFS.c ****                 /* IN endpoint will be armed in ARB_ISR(source: IN_BUF_FULL) after first DMA transf
1414:.\Generated_Source\PSoC4/USBFS.c ****             }
1415:.\Generated_Source\PSoC4/USBFS.c ****             else
1416:.\Generated_Source\PSoC4/USBFS.c ****             {
1417:.\Generated_Source\PSoC4/USBFS.c ****                 /* When zero-length packet: arm IN endpoint directly. */
1418:.\Generated_Source\PSoC4/USBFS.c ****                 USBFS_SIE_EP_BASE.sieEp[epNumber].epCr0 = USBFS_EP[epNumber].epMode;
 929              		.loc 1 1418 0
 930 00ac 4300     		lsl	r3, r0, #1
 931 00ae 1B18     		add	r3, r3, r0
 932 00b0 9B00     		lsl	r3, r3, #2
 933 00b2 054A     		ldr	r2, .L62
 934              	.LVL62:
 935 00b4 D318     		add	r3, r2, r3
 936 00b6 5B79     		ldrb	r3, [r3, #5]
 937 00b8 DBB2     		uxtb	r3, r3
 938 00ba 8001     		lsl	r0, r0, #6
 939              	.LVL63:
 940 00bc 034A     		ldr	r2, .L62+4
 941 00be 9446     		mov	ip, r2
 942 00c0 6044     		add	r0, r0, ip
 943 00c2 8360     		str	r3, [r0, #8]
 944              	.LVL64:
 945              	.L58:
1419:.\Generated_Source\PSoC4/USBFS.c ****             }
1420:.\Generated_Source\PSoC4/USBFS.c ****         #endif /* (USBFS_EP_MANAGEMENT_DMA_MANUAL) */
1421:.\Generated_Source\PSoC4/USBFS.c **** 
1422:.\Generated_Source\PSoC4/USBFS.c ****         #if (USBFS_EP_MANAGEMENT_DMA_AUTO)
1423:.\Generated_Source\PSoC4/USBFS.c ****             if (pData != NULL)
1424:.\Generated_Source\PSoC4/USBFS.c ****             {
1425:.\Generated_Source\PSoC4/USBFS.c ****             #if (CY_PSOC4)
1426:.\Generated_Source\PSoC4/USBFS.c ****                 uint32 channelNum = (uint32) USBFS_DmaChan[epNumber];
1427:.\Generated_Source\PSoC4/USBFS.c **** 
1428:.\Generated_Source\PSoC4/USBFS.c ****                 /* Store address of buffer. */
1429:.\Generated_Source\PSoC4/USBFS.c ****                 USBFS_DmaEpBufferAddrBackup[epNumber] = (uint32) pData;
1430:.\Generated_Source\PSoC4/USBFS.c **** 
1431:.\Generated_Source\PSoC4/USBFS.c ****                 /* Disable DMA channel: start configuration. */
1432:.\Generated_Source\PSoC4/USBFS.c ****                 USBFS_CyDmaChDisable(channelNum);
1433:.\Generated_Source\PSoC4/USBFS.c **** 
1434:.\Generated_Source\PSoC4/USBFS.c ****                 /* Set destination address. */
1435:.\Generated_Source\PSoC4/USBFS.c ****                 USBFS_CyDmaSetDstAddress(channelNum, USBFS_DMA_DESCR0, (void*) &USBFS_ARB_EP_BASE.a
1436:.\Generated_Source\PSoC4/USBFS.c ****                 USBFS_CyDmaSetDstAddress(channelNum, USBFS_DMA_DESCR1, (void*) &USBFS_ARB_EP_BASE.a
1437:.\Generated_Source\PSoC4/USBFS.c **** 
1438:.\Generated_Source\PSoC4/USBFS.c ****                 /* Configure DMA descriptor. */
1439:.\Generated_Source\PSoC4/USBFS.c ****                 USBFS_CyDmaSetConfiguration(channelNum, USBFS_DMA_DESCR0, USBFS_DMA_COMMON_CFG  |
1440:.\Generated_Source\PSoC4/USBFS.c ****                                                         CYDMA_BYTE | CYDMA_ELEMENT_WORD | CYDMA_INC
1441:.\Generated_Source\PSoC4/USBFS.c **** 
1442:.\Generated_Source\PSoC4/USBFS.c ****                 /* Configure DMA descriptor. */
1443:.\Generated_Source\PSoC4/USBFS.c ****                 USBFS_CyDmaSetConfiguration(channelNum, USBFS_DMA_DESCR1, USBFS_DMA_COMMON_CFG  |
1444:.\Generated_Source\PSoC4/USBFS.c ****                                                         CYDMA_BYTE | CYDMA_ELEMENT_WORD | CYDMA_INC
1445:.\Generated_Source\PSoC4/USBFS.c **** 
1446:.\Generated_Source\PSoC4/USBFS.c ****                 /* Enable interrupt from DMA channel. */
1447:.\Generated_Source\PSoC4/USBFS.c ****                 USBFS_CyDmaSetInterruptMask(channelNum);
1448:.\Generated_Source\PSoC4/USBFS.c **** 
1449:.\Generated_Source\PSoC4/USBFS.c ****                 /* Validate descriptor 1. It will not be invalided during operation. */
1450:.\Generated_Source\PSoC4/USBFS.c ****                 USBFS_CyDmaValidateDescriptor(channelNum, USBFS_DMA_DESCR1);
1451:.\Generated_Source\PSoC4/USBFS.c **** 
ARM GAS  C:\Users\LAIR\AppData\Local\Temp\ccdy23dh.s 			page 45


1452:.\Generated_Source\PSoC4/USBFS.c ****                 /* Enable DMA channel: configuration complete. */
1453:.\Generated_Source\PSoC4/USBFS.c ****                 USBFS_CyDmaChEnable(channelNum);
1454:.\Generated_Source\PSoC4/USBFS.c **** 
1455:.\Generated_Source\PSoC4/USBFS.c ****             #else
1456:.\Generated_Source\PSoC4/USBFS.c ****                 (void) CyDmaChDisable(USBFS_DmaChan[epNumber]);
1457:.\Generated_Source\PSoC4/USBFS.c **** 
1458:.\Generated_Source\PSoC4/USBFS.c ****                 #if (USBFS_EP_DMA_AUTO_OPT == 0u)
1459:.\Generated_Source\PSoC4/USBFS.c ****                     USBFS_inLength[epNumber] = length;
1460:.\Generated_Source\PSoC4/USBFS.c ****                     USBFS_inDataPointer[epNumber] = pData;
1461:.\Generated_Source\PSoC4/USBFS.c **** 
1462:.\Generated_Source\PSoC4/USBFS.c ****                     /* Configure DMA to send data only for first burst */
1463:.\Generated_Source\PSoC4/USBFS.c ****                     (void) CyDmaTdSetConfiguration(USBFS_DmaTd[epNumber],
1464:.\Generated_Source\PSoC4/USBFS.c ****                         (length > USBFS_DMA_BYTES_PER_BURST) ? USBFS_DMA_BYTES_PER_BURST : length,
1465:.\Generated_Source\PSoC4/USBFS.c ****                         USBFS_DmaNextTd[epNumber], TD_TERMIN_EN | TD_INC_SRC_ADR);
1466:.\Generated_Source\PSoC4/USBFS.c ****                     (void) CyDmaTdSetAddress(USBFS_DmaTd[epNumber], LO16((uint32) pData),
1467:.\Generated_Source\PSoC4/USBFS.c ****                                                                                LO16((uint32) &USBFS
1468:.\Generated_Source\PSoC4/USBFS.c **** 
1469:.\Generated_Source\PSoC4/USBFS.c ****                     /* The second TD will be executed only when the first one fails.
1470:.\Generated_Source\PSoC4/USBFS.c ****                     *  The intention of this TD is to generate NRQ interrupt
1471:.\Generated_Source\PSoC4/USBFS.c ****                     *  and repeat 2 last bytes of the first burst.
1472:.\Generated_Source\PSoC4/USBFS.c ****                     */
1473:.\Generated_Source\PSoC4/USBFS.c ****                     (void) CyDmaTdSetConfiguration(USBFS_DmaNextTd[epNumber], 1u,
1474:.\Generated_Source\PSoC4/USBFS.c ****                                                    USBFS_DmaNextTd[epNumber],
1475:.\Generated_Source\PSoC4/USBFS.c ****                                                    USBFS_epX_TD_TERMOUT_EN[epNumber]);
1476:.\Generated_Source\PSoC4/USBFS.c **** 
1477:.\Generated_Source\PSoC4/USBFS.c ****                     /* Configure DmaNextTd to clear Data Ready status. */
1478:.\Generated_Source\PSoC4/USBFS.c ****                     (void) CyDmaTdSetAddress(USBFS_DmaNextTd[epNumber], LO16((uint32) &clearInDataR
1479:.\Generated_Source\PSoC4/USBFS.c ****                                                                                    LO16((uint32) &U
1480:.\Generated_Source\PSoC4/USBFS.c ****                 #else
1481:.\Generated_Source\PSoC4/USBFS.c ****                     /* Configure DMA to send all data. */
1482:.\Generated_Source\PSoC4/USBFS.c ****                     (void) CyDmaTdSetConfiguration(USBFS_DmaTd[epNumber], length,
1483:.\Generated_Source\PSoC4/USBFS.c ****                                                    USBFS_DmaTd[epNumber], TD_TERMIN_EN | TD_INC_SRC
1484:.\Generated_Source\PSoC4/USBFS.c ****                     (void) CyDmaTdSetAddress(USBFS_DmaTd[epNumber], LO16((uint32) pData),
1485:.\Generated_Source\PSoC4/USBFS.c ****                                                                                LO16((uint32) &USBFS
1486:.\Generated_Source\PSoC4/USBFS.c ****                 #endif /* (USBFS_EP_DMA_AUTO_OPT == 0u) */
1487:.\Generated_Source\PSoC4/USBFS.c **** 
1488:.\Generated_Source\PSoC4/USBFS.c ****                 /* Clear any potential pending DMA requests before starting DMA channel to transfer
1489:.\Generated_Source\PSoC4/USBFS.c ****                 (void) CyDmaClearPendingDrq(USBFS_DmaChan[epNumber]);
1490:.\Generated_Source\PSoC4/USBFS.c ****                 /* Enable DMA. */
1491:.\Generated_Source\PSoC4/USBFS.c ****                 (void) CyDmaChSetInitialTd(USBFS_DmaChan[epNumber], USBFS_DmaTd[epNumber]);
1492:.\Generated_Source\PSoC4/USBFS.c ****                 (void) CyDmaChEnable(USBFS_DmaChan[epNumber], 1u);
1493:.\Generated_Source\PSoC4/USBFS.c ****             #endif /* (CY_PSOC4) */
1494:.\Generated_Source\PSoC4/USBFS.c ****             }
1495:.\Generated_Source\PSoC4/USBFS.c ****             else
1496:.\Generated_Source\PSoC4/USBFS.c ****             {
1497:.\Generated_Source\PSoC4/USBFS.c ****                 /* IN endpoint buffer (32 bytes) will shortly be preloaded by DMA. */
1498:.\Generated_Source\PSoC4/USBFS.c ****                 USBFS_EP[epNumber].apiEpState = USBFS_NO_EVENT_PENDING;
1499:.\Generated_Source\PSoC4/USBFS.c **** 
1500:.\Generated_Source\PSoC4/USBFS.c ****                 if (length > 0u)
1501:.\Generated_Source\PSoC4/USBFS.c ****                 {
1502:.\Generated_Source\PSoC4/USBFS.c ****                 #if (CY_PSOC4)
1503:.\Generated_Source\PSoC4/USBFS.c ****                     uint32 lengthDescr0, lengthDescr1;
1504:.\Generated_Source\PSoC4/USBFS.c ****                     uint32 channelNum = (uint32) USBFS_DmaChan[epNumber];
1505:.\Generated_Source\PSoC4/USBFS.c **** 
1506:.\Generated_Source\PSoC4/USBFS.c ****                     /* Get number of full bursts. */
1507:.\Generated_Source\PSoC4/USBFS.c ****                     USBFS_DmaEpBurstCnt[epNumber] = (uint8) (length / USBFS_DMA_BYTES_PER_BURST);
1508:.\Generated_Source\PSoC4/USBFS.c **** 
ARM GAS  C:\Users\LAIR\AppData\Local\Temp\ccdy23dh.s 			page 46


1509:.\Generated_Source\PSoC4/USBFS.c ****                     /* Get number of elements in the last burst. */
1510:.\Generated_Source\PSoC4/USBFS.c ****                     USBFS_DmaEpLastBurstEl[epNumber] = (uint8) (length % USBFS_DMA_BYTES_PER_BURST)
1511:.\Generated_Source\PSoC4/USBFS.c **** 
1512:.\Generated_Source\PSoC4/USBFS.c ****                     /* Get total number of bursts. */
1513:.\Generated_Source\PSoC4/USBFS.c ****                     USBFS_DmaEpBurstCnt[epNumber] += (0u != USBFS_DmaEpLastBurstEl[epNumber]) ? 1u 
1514:.\Generated_Source\PSoC4/USBFS.c **** 
1515:.\Generated_Source\PSoC4/USBFS.c ****                     /* Adjust number of data elements transferred in last burst. */
1516:.\Generated_Source\PSoC4/USBFS.c ****                     USBFS_DmaEpLastBurstEl[epNumber] = (0u != USBFS_DmaEpLastBurstEl[epNumber]) ?
1517:.\Generated_Source\PSoC4/USBFS.c ****                                                                           (USBFS_DmaEpLastBurstEl[e
1518:.\Generated_Source\PSoC4/USBFS.c ****                                                                           (USBFS_DMA_BYTES_PER_BURS
1519:.\Generated_Source\PSoC4/USBFS.c **** 
1520:.\Generated_Source\PSoC4/USBFS.c ****                     /* Get number of data elements to transfer for descriptor 0 and 1. */
1521:.\Generated_Source\PSoC4/USBFS.c ****                     lengthDescr0 = (1u == USBFS_DmaEpBurstCnt[epNumber]) ? USBFS_DmaEpLastBurstEl[e
1522:.\Generated_Source\PSoC4/USBFS.c ****                     lengthDescr1 = (2u == USBFS_DmaEpBurstCnt[epNumber]) ? USBFS_DmaEpLastBurstEl[e
1523:.\Generated_Source\PSoC4/USBFS.c **** 
1524:.\Generated_Source\PSoC4/USBFS.c **** 
1525:.\Generated_Source\PSoC4/USBFS.c ****                     /* Mark which descriptor is last one to execute. */
1526:.\Generated_Source\PSoC4/USBFS.c ****                     USBFS_DmaEpLastBurstEl[epNumber] |= (0u != (USBFS_DmaEpBurstCnt[epNumber] & 0x1
1527:.\Generated_Source\PSoC4/USBFS.c ****                                                                             USBFS_DMA_DESCR0_MASK :
1528:.\Generated_Source\PSoC4/USBFS.c **** 
1529:.\Generated_Source\PSoC4/USBFS.c ****                     /* Adjust burst counter taking to account: 2 valid descriptors and interrupt tr
1530:.\Generated_Source\PSoC4/USBFS.c ****                     USBFS_DmaEpBurstCnt[epNumber] = USBFS_DMA_GET_BURST_CNT(USBFS_DmaEpBurstCnt[epN
1531:.\Generated_Source\PSoC4/USBFS.c **** 
1532:.\Generated_Source\PSoC4/USBFS.c ****                     /* Restore DMA settings for current transfer. */
1533:.\Generated_Source\PSoC4/USBFS.c ****                     USBFS_CyDmaChDisable(channelNum);
1534:.\Generated_Source\PSoC4/USBFS.c **** 
1535:.\Generated_Source\PSoC4/USBFS.c ****                     /* Restore destination address for input endpoint. */
1536:.\Generated_Source\PSoC4/USBFS.c ****                     USBFS_CyDmaSetSrcAddress(channelNum, USBFS_DMA_DESCR0, (void*) ((uint32) USBFS_
1537:.\Generated_Source\PSoC4/USBFS.c ****                     USBFS_CyDmaSetSrcAddress(channelNum, USBFS_DMA_DESCR1, (void*) ((uint32) USBFS_
1538:.\Generated_Source\PSoC4/USBFS.c ****                                                                                                    
1539:.\Generated_Source\PSoC4/USBFS.c **** 
1540:.\Generated_Source\PSoC4/USBFS.c ****                     /* Set number of elements to transfer. */
1541:.\Generated_Source\PSoC4/USBFS.c ****                     USBFS_CyDmaSetNumDataElements(channelNum, USBFS_DMA_DESCR0, lengthDescr0);
1542:.\Generated_Source\PSoC4/USBFS.c ****                     USBFS_CyDmaSetNumDataElements(channelNum, USBFS_DMA_DESCR1, lengthDescr1);
1543:.\Generated_Source\PSoC4/USBFS.c **** 
1544:.\Generated_Source\PSoC4/USBFS.c ****                     /* Validate descriptor 0 and command to start with it. */
1545:.\Generated_Source\PSoC4/USBFS.c ****                     USBFS_CyDmaValidateDescriptor(channelNum, USBFS_DMA_DESCR0);
1546:.\Generated_Source\PSoC4/USBFS.c ****                     USBFS_CyDmaSetDescriptor0Next(channelNum);
1547:.\Generated_Source\PSoC4/USBFS.c **** 
1548:.\Generated_Source\PSoC4/USBFS.c ****                     /* Enable DMA channel: configuration complete. */
1549:.\Generated_Source\PSoC4/USBFS.c ****                     USBFS_CyDmaChEnable(channelNum);
1550:.\Generated_Source\PSoC4/USBFS.c **** 
1551:.\Generated_Source\PSoC4/USBFS.c ****                 #elif (USBFS_EP_DMA_AUTO_OPT == 0u)
1552:.\Generated_Source\PSoC4/USBFS.c ****                     USBFS_inLength[epNumber]  = length;
1553:.\Generated_Source\PSoC4/USBFS.c ****                     USBFS_inBufFull[epNumber] = 0u;
1554:.\Generated_Source\PSoC4/USBFS.c **** 
1555:.\Generated_Source\PSoC4/USBFS.c ****                     (void) CyDmaChDisable(USBFS_DmaChan[epNumber]);
1556:.\Generated_Source\PSoC4/USBFS.c ****                     /* Configure DMA to send data only for first burst. */
1557:.\Generated_Source\PSoC4/USBFS.c ****                     (void) CyDmaTdSetConfiguration(
1558:.\Generated_Source\PSoC4/USBFS.c ****                         USBFS_DmaTd[epNumber], (length > USBFS_DMA_BYTES_PER_BURST) ?
1559:.\Generated_Source\PSoC4/USBFS.c ****                         USBFS_DMA_BYTES_PER_BURST : length,
1560:.\Generated_Source\PSoC4/USBFS.c ****                         USBFS_DmaNextTd[epNumber], TD_TERMIN_EN | TD_INC_SRC_ADR );
1561:.\Generated_Source\PSoC4/USBFS.c ****                     (void) CyDmaTdSetAddress(USBFS_DmaTd[epNumber], LO16((uint32)  USBFS_inDataPoin
1562:.\Generated_Source\PSoC4/USBFS.c ****                                                                                LO16((uint32) &USBFS
1563:.\Generated_Source\PSoC4/USBFS.c ****                     /* Clear Any potential pending DMA requests before starting DMA channel to tran
1564:.\Generated_Source\PSoC4/USBFS.c ****                     (void) CyDmaClearPendingDrq(USBFS_DmaChan[epNumber]);
1565:.\Generated_Source\PSoC4/USBFS.c ****                     /* Enable DMA. */
ARM GAS  C:\Users\LAIR\AppData\Local\Temp\ccdy23dh.s 			page 47


1566:.\Generated_Source\PSoC4/USBFS.c ****                     (void) CyDmaChSetInitialTd(USBFS_DmaChan[epNumber], USBFS_DmaTd[epNumber]);
1567:.\Generated_Source\PSoC4/USBFS.c ****                     (void) CyDmaChEnable(USBFS_DmaChan[epNumber], 1u);
1568:.\Generated_Source\PSoC4/USBFS.c ****                 #endif /* (CY_PSOC4) */
1569:.\Generated_Source\PSoC4/USBFS.c **** 
1570:.\Generated_Source\PSoC4/USBFS.c ****                 #if !defined (USBFS_MANUAL_IN_EP_ARM)
1571:.\Generated_Source\PSoC4/USBFS.c ****                     /* Set IN data ready to generate DMA request to load data into endpoint buffer.
1572:.\Generated_Source\PSoC4/USBFS.c ****                     USBFS_ARB_EP_BASE.arbEp[epNumber].epCfg |= USBFS_ARB_EPX_CFG_IN_DATA_RDY;
1573:.\Generated_Source\PSoC4/USBFS.c ****                 #endif  /* (USBFS_MANUAL_IN_EP_ARM) */
1574:.\Generated_Source\PSoC4/USBFS.c **** 
1575:.\Generated_Source\PSoC4/USBFS.c ****                     /* IN endpoint will be armed in ARB_ISR(source: IN_BUF_FULL) after first DMA tr
1576:.\Generated_Source\PSoC4/USBFS.c ****                 }
1577:.\Generated_Source\PSoC4/USBFS.c ****                 else
1578:.\Generated_Source\PSoC4/USBFS.c ****                 {
1579:.\Generated_Source\PSoC4/USBFS.c ****                     /* When zero-length packet: arm IN endpoint directly. */
1580:.\Generated_Source\PSoC4/USBFS.c ****                     USBFS_SIE_EP_BASE.sieEp[epNumber].epCr0 = USBFS_EP[epNumber].epMode;
1581:.\Generated_Source\PSoC4/USBFS.c ****                 }
1582:.\Generated_Source\PSoC4/USBFS.c ****             }
1583:.\Generated_Source\PSoC4/USBFS.c ****         #endif /* (USBFS_EP_MANAGEMENT_DMA_AUTO) */
1584:.\Generated_Source\PSoC4/USBFS.c ****     #endif /* (USBFS_EP_MANAGEMENT_MANUAL) */
1585:.\Generated_Source\PSoC4/USBFS.c ****     }
1586:.\Generated_Source\PSoC4/USBFS.c **** }
 946              		.loc 1 1586 0
 947              		@ sp needed
 948 00c4 70BD     		pop	{r4, r5, r6, pc}
 949              	.L63:
 950 00c6 C046     		.align	2
 951              	.L62:
 952 00c8 00000000 		.word	USBFS_EP
 953 00cc F0FF2B40 		.word	1076625392
 954 00d0 00000000 		.word	.LANCHOR1
 955 00d4 80101040 		.word	1074794624
 956 00d8 00181040 		.word	1074796544
 957 00dc E0012C40 		.word	1076625888
 958 00e0 00009054 		.word	1418723328
 959 00e4 C0012C40 		.word	1076625856
 960              		.cfi_endproc
 961              	.LFE78:
 962              		.size	USBFS_LoadInEP, .-USBFS_LoadInEP
 963              		.section	.text.USBFS_ReadOutEP,"ax",%progbits
 964              		.align	2
 965              		.global	USBFS_ReadOutEP
 966              		.code	16
 967              		.thumb_func
 968              		.type	USBFS_ReadOutEP, %function
 969              	USBFS_ReadOutEP:
 970              	.LFB79:
1587:.\Generated_Source\PSoC4/USBFS.c **** 
1588:.\Generated_Source\PSoC4/USBFS.c **** 
1589:.\Generated_Source\PSoC4/USBFS.c **** /*******************************************************************************
1590:.\Generated_Source\PSoC4/USBFS.c **** * Function Name: USBFS_ReadOutEP
1591:.\Generated_Source\PSoC4/USBFS.c **** ****************************************************************************//**
1592:.\Generated_Source\PSoC4/USBFS.c **** *
1593:.\Generated_Source\PSoC4/USBFS.c **** *   This function performs different functionality depending on the Component’s
1594:.\Generated_Source\PSoC4/USBFS.c **** *   configured Endpoint Buffer Management. This parameter is defined in the
1595:.\Generated_Source\PSoC4/USBFS.c **** *   Descriptor Root in Component Configure window.
1596:.\Generated_Source\PSoC4/USBFS.c **** *
1597:.\Generated_Source\PSoC4/USBFS.c **** *   *Manual (Static/Dynamic Allocation):*
ARM GAS  C:\Users\LAIR\AppData\Local\Temp\ccdy23dh.s 			page 48


1598:.\Generated_Source\PSoC4/USBFS.c **** *   This function moves the specified number of bytes from endpoint buffer to
1599:.\Generated_Source\PSoC4/USBFS.c **** *   system RAM. The number of bytes actually transferred from endpoint buffer to
1600:.\Generated_Source\PSoC4/USBFS.c **** *   system RAM is the lesser of the actual number of bytes sent by the host or
1601:.\Generated_Source\PSoC4/USBFS.c **** *   the number of bytes requested by the length parameter.
1602:.\Generated_Source\PSoC4/USBFS.c **** *
1603:.\Generated_Source\PSoC4/USBFS.c **** *   *DMA with Manual Buffer Management:*
1604:.\Generated_Source\PSoC4/USBFS.c **** *   Configure DMA to transfer data from endpoint buffer to system RAM. Generate
1605:.\Generated_Source\PSoC4/USBFS.c **** *   a DMA request. The firmware must wait until the DMA completes the data
1606:.\Generated_Source\PSoC4/USBFS.c **** *   transfer after calling the USBFS_ReadOutEP() API. For example,
1607:.\Generated_Source\PSoC4/USBFS.c **** *   by checking EPstate:
1608:.\Generated_Source\PSoC4/USBFS.c **** *
1609:.\Generated_Source\PSoC4/USBFS.c **** *   \snippet /USBFS_sut_02.cydsn/main.c checking EPstatey
1610:.\Generated_Source\PSoC4/USBFS.c **** *
1611:.\Generated_Source\PSoC4/USBFS.c **** *   The USBFS_EnableOutEP() has to be called to allow host to write data into
1612:.\Generated_Source\PSoC4/USBFS.c **** *   the endpoint buffer after DMA has completed transfer data from OUT endpoint
1613:.\Generated_Source\PSoC4/USBFS.c **** *   buffer to SRAM.
1614:.\Generated_Source\PSoC4/USBFS.c **** *
1615:.\Generated_Source\PSoC4/USBFS.c **** *   *DMA with Automatic Buffer Management:*
1616:.\Generated_Source\PSoC4/USBFS.c **** *   Configure DMA. This is required only once and automatically generates DMA
1617:.\Generated_Source\PSoC4/USBFS.c **** *   requests as data arrives
1618:.\Generated_Source\PSoC4/USBFS.c **** *
1619:.\Generated_Source\PSoC4/USBFS.c **** *  \param epNumber: Contains the data endpoint number.
1620:.\Generated_Source\PSoC4/USBFS.c **** *            Valid values are between 1 and 8.
1621:.\Generated_Source\PSoC4/USBFS.c **** *  \param pData: A pointer to a data array from which the data for the endpoint
1622:.\Generated_Source\PSoC4/USBFS.c **** *         space is loaded.
1623:.\Generated_Source\PSoC4/USBFS.c **** *  \param length: The number of bytes to transfer from the USB Out endpoint and
1624:.\Generated_Source\PSoC4/USBFS.c **** *          loads it into data array. Valid values are between 0 and 1023. The
1625:.\Generated_Source\PSoC4/USBFS.c **** *          function moves fewer than the requested number of bytes if the host
1626:.\Generated_Source\PSoC4/USBFS.c **** *          sends fewer bytes than requested.
1627:.\Generated_Source\PSoC4/USBFS.c **** *
1628:.\Generated_Source\PSoC4/USBFS.c **** * \return
1629:.\Generated_Source\PSoC4/USBFS.c **** *  Number of bytes received, 0 for an invalid endpoint.
1630:.\Generated_Source\PSoC4/USBFS.c **** *
1631:.\Generated_Source\PSoC4/USBFS.c **** * \reentrant
1632:.\Generated_Source\PSoC4/USBFS.c **** *  No.
1633:.\Generated_Source\PSoC4/USBFS.c **** *
1634:.\Generated_Source\PSoC4/USBFS.c **** *******************************************************************************/
1635:.\Generated_Source\PSoC4/USBFS.c **** uint16 USBFS_ReadOutEP(uint8 epNumber, uint8 pData[], uint16 length)
1636:.\Generated_Source\PSoC4/USBFS.c ****                                                                         
1637:.\Generated_Source\PSoC4/USBFS.c **** {
 971              		.loc 1 1637 0
 972              		.cfi_startproc
 973              	.LVL65:
 974 0000 F8B5     		push	{r3, r4, r5, r6, r7, lr}
 975              		.cfi_def_cfa_offset 24
 976              		.cfi_offset 3, -24
 977              		.cfi_offset 4, -20
 978              		.cfi_offset 5, -16
 979              		.cfi_offset 6, -12
 980              		.cfi_offset 7, -8
 981              		.cfi_offset 14, -4
 982 0002 041C     		mov	r4, r0
 983 0004 0E1C     		mov	r6, r1
 984 0006 151C     		mov	r5, r2
1638:.\Generated_Source\PSoC4/USBFS.c ****     if ((pData != NULL) && (epNumber > USBFS_EP0) && (epNumber < USBFS_MAX_EP))
 985              		.loc 1 1638 0
 986 0008 0029     		cmp	r1, #0
ARM GAS  C:\Users\LAIR\AppData\Local\Temp\ccdy23dh.s 			page 49


 987 000a 30D0     		beq	.L67
 988              		.loc 1 1638 0 is_stmt 0 discriminator 1
 989 000c 0028     		cmp	r0, #0
 990 000e 30D0     		beq	.L68
 991              		.loc 1 1638 0 discriminator 2
 992 0010 0828     		cmp	r0, #8
 993 0012 30D8     		bhi	.L69
1639:.\Generated_Source\PSoC4/USBFS.c ****     {
1640:.\Generated_Source\PSoC4/USBFS.c ****     #if (!USBFS_EP_MANAGEMENT_DMA_AUTO)
1641:.\Generated_Source\PSoC4/USBFS.c ****         /* Adjust requested length to available data. */
1642:.\Generated_Source\PSoC4/USBFS.c ****         length = (length > USBFS_GetEPCount(epNumber)) ? USBFS_GetEPCount(epNumber) : length;
 994              		.loc 1 1642 0 is_stmt 1
 995 0014 FFF7FEFF 		bl	USBFS_GetEPCount
 996              	.LVL66:
 997 0018 A842     		cmp	r0, r5
 998 001a 03D2     		bcs	.L66
 999              		.loc 1 1642 0 is_stmt 0 discriminator 1
 1000 001c 201C     		mov	r0, r4
 1001 001e FFF7FEFF 		bl	USBFS_GetEPCount
 1002              	.LVL67:
 1003 0022 051C     		mov	r5, r0
 1004              	.L66:
 1005              	.LVL68:
 1006              	.LBB3:
1643:.\Generated_Source\PSoC4/USBFS.c ****     #endif /* (!USBFS_EP_MANAGEMENT_DMA_AUTO) */
1644:.\Generated_Source\PSoC4/USBFS.c **** 
1645:.\Generated_Source\PSoC4/USBFS.c ****     #if (USBFS_EP_MANAGEMENT_MANUAL)
1646:.\Generated_Source\PSoC4/USBFS.c ****         {
1647:.\Generated_Source\PSoC4/USBFS.c ****             /* Copy data using arbiter data register. */
1648:.\Generated_Source\PSoC4/USBFS.c ****             uint16 i;
1649:.\Generated_Source\PSoC4/USBFS.c ****             for (i = 0u; i < length; ++i)
1650:.\Generated_Source\PSoC4/USBFS.c ****             {
1651:.\Generated_Source\PSoC4/USBFS.c ****                 pData[i] = (uint8) USBFS_ARB_EP_BASE.arbEp[epNumber].rwDr;
1652:.\Generated_Source\PSoC4/USBFS.c ****             }
1653:.\Generated_Source\PSoC4/USBFS.c ****         }
1654:.\Generated_Source\PSoC4/USBFS.c **** 
1655:.\Generated_Source\PSoC4/USBFS.c ****         /* Arm OUT endpoint after data has been copied from endpoint buffer. */
1656:.\Generated_Source\PSoC4/USBFS.c ****         USBFS_EnableOutEP(epNumber);
1657:.\Generated_Source\PSoC4/USBFS.c ****     #else
1658:.\Generated_Source\PSoC4/USBFS.c **** 
1659:.\Generated_Source\PSoC4/USBFS.c ****         #if (CY_PSOC3 || CY_PSOC5LP)
1660:.\Generated_Source\PSoC4/USBFS.c ****             /* Initialize DMA if it was not initialized. */
1661:.\Generated_Source\PSoC4/USBFS.c ****             if (DMA_INVALID_TD == USBFS_DmaTd[epNumber])
1662:.\Generated_Source\PSoC4/USBFS.c ****             {
1663:.\Generated_Source\PSoC4/USBFS.c ****                 USBFS_InitEP_DMA(epNumber, pData);
1664:.\Generated_Source\PSoC4/USBFS.c ****             }
1665:.\Generated_Source\PSoC4/USBFS.c ****         #endif /* (CY_PSOC3 || CY_PSOC5LP) */
1666:.\Generated_Source\PSoC4/USBFS.c **** 
1667:.\Generated_Source\PSoC4/USBFS.c ****         #if (USBFS_EP_MANAGEMENT_DMA_MANUAL)
1668:.\Generated_Source\PSoC4/USBFS.c ****         #if (CY_PSOC4)
1669:.\Generated_Source\PSoC4/USBFS.c ****         {
1670:.\Generated_Source\PSoC4/USBFS.c ****             uint32 channelNum = (uint32) USBFS_DmaChan[epNumber];
 1007              		.loc 1 1670 0 is_stmt 1 discriminator 4
 1008 0024 154B     		ldr	r3, .L70
 1009 0026 1B5D     		ldrb	r3, [r3, r4]
 1010              	.LVL69:
1671:.\Generated_Source\PSoC4/USBFS.c **** 
ARM GAS  C:\Users\LAIR\AppData\Local\Temp\ccdy23dh.s 			page 50


1672:.\Generated_Source\PSoC4/USBFS.c ****             /* Disable DMA channel: start configuration. */
1673:.\Generated_Source\PSoC4/USBFS.c ****             USBFS_CyDmaChDisable(channelNum);
 1011              		.loc 1 1673 0 discriminator 4
 1012 0028 1549     		ldr	r1, .L70+4
 1013 002a 9800     		lsl	r0, r3, #2
 1014 002c 4258     		ldr	r2, [r0, r1]
 1015 002e 5200     		lsl	r2, r2, #1
 1016 0030 5208     		lsr	r2, r2, #1
 1017 0032 4250     		str	r2, [r0, r1]
1674:.\Generated_Source\PSoC4/USBFS.c **** 
1675:.\Generated_Source\PSoC4/USBFS.c ****             /* Configure source and destination. */
1676:.\Generated_Source\PSoC4/USBFS.c ****             USBFS_CyDmaSetSrcAddress(channelNum, USBFS_DMA_DESCR0, (void*) &USBFS_ARB_EP_BASE.arbEp
 1018              		.loc 1 1676 0 discriminator 4
 1019 0034 A401     		lsl	r4, r4, #6
 1020 0036 134A     		ldr	r2, .L70+8
 1021 0038 A718     		add	r7, r4, r2
 1022 003a 5B01     		lsl	r3, r3, #5
 1023              	.LVL70:
 1024 003c 124A     		ldr	r2, .L70+12
 1025 003e 9F50     		str	r7, [r3, r2]
1677:.\Generated_Source\PSoC4/USBFS.c ****             USBFS_CyDmaSetDstAddress(channelNum, USBFS_DMA_DESCR0, (void*) pData);
 1026              		.loc 1 1677 0 discriminator 4
 1027 0040 9446     		mov	ip, r2
 1028 0042 6344     		add	r3, r3, ip
 1029 0044 5E60     		str	r6, [r3, #4]
1678:.\Generated_Source\PSoC4/USBFS.c **** 
1679:.\Generated_Source\PSoC4/USBFS.c ****             /* Configure DMA descriptor. */
1680:.\Generated_Source\PSoC4/USBFS.c ****             USBFS_CyDmaSetConfiguration(channelNum, USBFS_DMA_DESCR0, USBFS_DMA_COMMON_CFG | (uint1
 1030              		.loc 1 1680 0 discriminator 4
 1031 0046 6A1E     		sub	r2, r5, #1
 1032 0048 92B2     		uxth	r2, r2
 1033 004a 104E     		ldr	r6, .L70+16
 1034              	.LVL71:
 1035 004c 3243     		orr	r2, r6
 1036 004e 9A60     		str	r2, [r3, #8]
 1037              	.LVL72:
1681:.\Generated_Source\PSoC4/USBFS.c ****                                                     CYDMA_BYTE | CYDMA_WORD_ELEMENT | CYDMA_INC_DST
1682:.\Generated_Source\PSoC4/USBFS.c **** 
1683:.\Generated_Source\PSoC4/USBFS.c ****             /* Validate descriptor to execute on following DMA request. */
1684:.\Generated_Source\PSoC4/USBFS.c ****             USBFS_CyDmaValidateDescriptor(channelNum, USBFS_DMA_DESCR0);
 1038              		.loc 1 1684 0 discriminator 4
 1039 0050 8022     		mov	r2, #128
 1040 0052 1206     		lsl	r2, r2, #24
 1041 0054 DA60     		str	r2, [r3, #12]
1685:.\Generated_Source\PSoC4/USBFS.c **** 
1686:.\Generated_Source\PSoC4/USBFS.c ****             /* Enable DMA channel: configuration complete. */
1687:.\Generated_Source\PSoC4/USBFS.c ****             USBFS_CyDmaChEnable(channelNum);
 1042              		.loc 1 1687 0 discriminator 4
 1043 0056 4358     		ldr	r3, [r0, r1]
 1044 0058 1343     		orr	r3, r2
 1045 005a 4350     		str	r3, [r0, r1]
 1046              	.LBE3:
1688:.\Generated_Source\PSoC4/USBFS.c ****         }
1689:.\Generated_Source\PSoC4/USBFS.c ****         #else
1690:.\Generated_Source\PSoC4/USBFS.c ****             /* Configure DMA to transfer data. */
1691:.\Generated_Source\PSoC4/USBFS.c ****             (void) CyDmaChDisable(USBFS_DmaChan[epNumber]);
1692:.\Generated_Source\PSoC4/USBFS.c ****             (void) CyDmaTdSetConfiguration(USBFS_DmaTd[epNumber], length, CY_DMA_DISABLE_TD, TD_TER
ARM GAS  C:\Users\LAIR\AppData\Local\Temp\ccdy23dh.s 			page 51


1693:.\Generated_Source\PSoC4/USBFS.c ****             (void) CyDmaTdSetAddress(USBFS_DmaTd[epNumber], LO16((uint32) &USBFS_ARB_EP_BASE.arbEp[
1694:.\Generated_Source\PSoC4/USBFS.c **** 
1695:.\Generated_Source\PSoC4/USBFS.c ****             /* Enable DMA channel. */
1696:.\Generated_Source\PSoC4/USBFS.c ****             (void) CyDmaChSetInitialTd(USBFS_DmaChan[epNumber], USBFS_DmaTd[epNumber]);
1697:.\Generated_Source\PSoC4/USBFS.c ****             (void) CyDmaChEnable(USBFS_DmaChan[epNumber], 1u);
1698:.\Generated_Source\PSoC4/USBFS.c ****         #endif /* (CY_PSOC4) */
1699:.\Generated_Source\PSoC4/USBFS.c **** 
1700:.\Generated_Source\PSoC4/USBFS.c ****             /* Generate DMA request. */
1701:.\Generated_Source\PSoC4/USBFS.c ****             USBFS_ARB_EP_BASE.arbEp[epNumber].epCfg |=  (uint32)  USBFS_ARB_EPX_CFG_DMA_REQ;
 1047              		.loc 1 1701 0 discriminator 4
 1048 005c 0C4B     		ldr	r3, .L70+20
 1049 005e E258     		ldr	r2, [r4, r3]
 1050 0060 0221     		mov	r1, #2
 1051 0062 0A43     		orr	r2, r1
 1052 0064 E250     		str	r2, [r4, r3]
1702:.\Generated_Source\PSoC4/USBFS.c ****             USBFS_ARB_EP_BASE.arbEp[epNumber].epCfg &=  (uint32) ~USBFS_ARB_EPX_CFG_DMA_REQ;
 1053              		.loc 1 1702 0 discriminator 4
 1054 0066 E258     		ldr	r2, [r4, r3]
 1055 0068 8A43     		bic	r2, r1
 1056 006a E250     		str	r2, [r4, r3]
 1057 006c 04E0     		b	.L65
 1058              	.LVL73:
 1059              	.L67:
1703:.\Generated_Source\PSoC4/USBFS.c **** 
1704:.\Generated_Source\PSoC4/USBFS.c ****             /* OUT endpoint has to be armed again by user when DMA transfers have been completed.
1705:.\Generated_Source\PSoC4/USBFS.c ****             * NO_EVENT_PENDING: notifies that data has been copied from endpoint buffer.
1706:.\Generated_Source\PSoC4/USBFS.c ****             */
1707:.\Generated_Source\PSoC4/USBFS.c **** 
1708:.\Generated_Source\PSoC4/USBFS.c ****         #endif /* (USBFS_EP_MANAGEMENT_DMA_MANUAL) */
1709:.\Generated_Source\PSoC4/USBFS.c **** 
1710:.\Generated_Source\PSoC4/USBFS.c ****         #if (USBFS_EP_MANAGEMENT_DMA_AUTO)
1711:.\Generated_Source\PSoC4/USBFS.c ****         #if (CY_PSOC4)
1712:.\Generated_Source\PSoC4/USBFS.c ****         {
1713:.\Generated_Source\PSoC4/USBFS.c ****             uint32 channelNum = (uint32) USBFS_DmaChan[epNumber];
1714:.\Generated_Source\PSoC4/USBFS.c ****             uint32 lengthDescr0, lengthDescr1;
1715:.\Generated_Source\PSoC4/USBFS.c **** 
1716:.\Generated_Source\PSoC4/USBFS.c ****             /* Get number of full bursts. */
1717:.\Generated_Source\PSoC4/USBFS.c ****             USBFS_DmaEpBurstCnt[epNumber] = (uint8) (length / USBFS_DMA_BYTES_PER_BURST);
1718:.\Generated_Source\PSoC4/USBFS.c **** 
1719:.\Generated_Source\PSoC4/USBFS.c ****             /* Get number of elements in the last burst. */
1720:.\Generated_Source\PSoC4/USBFS.c ****             USBFS_DmaEpLastBurstEl[epNumber] = (uint8) (length % USBFS_DMA_BYTES_PER_BURST);
1721:.\Generated_Source\PSoC4/USBFS.c **** 
1722:.\Generated_Source\PSoC4/USBFS.c ****             /* Get total number of bursts. */
1723:.\Generated_Source\PSoC4/USBFS.c ****             USBFS_DmaEpBurstCnt[epNumber] += (0u != USBFS_DmaEpLastBurstEl[epNumber]) ? 1u : 0u;
1724:.\Generated_Source\PSoC4/USBFS.c **** 
1725:.\Generated_Source\PSoC4/USBFS.c ****             /* Adjust number of the data elements transfered in last burst. */
1726:.\Generated_Source\PSoC4/USBFS.c ****             USBFS_DmaEpLastBurstEl[epNumber] = (0u != USBFS_DmaEpLastBurstEl[epNumber]) ?
1727:.\Generated_Source\PSoC4/USBFS.c ****                                                                   (USBFS_DmaEpLastBurstEl[epNumber]
1728:.\Generated_Source\PSoC4/USBFS.c ****                                                                   (USBFS_DMA_BYTES_PER_BURST - 1u);
1729:.\Generated_Source\PSoC4/USBFS.c **** 
1730:.\Generated_Source\PSoC4/USBFS.c ****             /* Get number of data elements to transfer for descriptor 0 and 1. */
1731:.\Generated_Source\PSoC4/USBFS.c ****             lengthDescr0 = (1u == USBFS_DmaEpBurstCnt[epNumber]) ? USBFS_DmaEpLastBurstEl[epNumber]
1732:.\Generated_Source\PSoC4/USBFS.c ****             lengthDescr1 = (2u == USBFS_DmaEpBurstCnt[epNumber]) ? USBFS_DmaEpLastBurstEl[epNumber]
1733:.\Generated_Source\PSoC4/USBFS.c **** 
1734:.\Generated_Source\PSoC4/USBFS.c ****             /* Mark if revert number of data elements in descriptor after transfer completion. */
1735:.\Generated_Source\PSoC4/USBFS.c ****             USBFS_DmaEpLastBurstEl[epNumber] |= (USBFS_DmaEpBurstCnt[epNumber] > 2u) ? USBFS_DMA_DE
1736:.\Generated_Source\PSoC4/USBFS.c **** 
ARM GAS  C:\Users\LAIR\AppData\Local\Temp\ccdy23dh.s 			page 52


1737:.\Generated_Source\PSoC4/USBFS.c ****             /* Mark last descriptor to be executed. */
1738:.\Generated_Source\PSoC4/USBFS.c ****             USBFS_DmaEpLastBurstEl[epNumber] |= (0u != (USBFS_DmaEpBurstCnt[epNumber] & 0x1u)) ?
1739:.\Generated_Source\PSoC4/USBFS.c ****                                                                     USBFS_DMA_DESCR0_MASK : USBFS_D
1740:.\Generated_Source\PSoC4/USBFS.c **** 
1741:.\Generated_Source\PSoC4/USBFS.c ****             /* Adjust burst counter taking to account: 2 valid descriptors and interrupt trigger af
1742:.\Generated_Source\PSoC4/USBFS.c ****             USBFS_DmaEpBurstCnt[epNumber] = USBFS_DMA_GET_BURST_CNT(USBFS_DmaEpBurstCnt[epNumber]);
1743:.\Generated_Source\PSoC4/USBFS.c **** 
1744:.\Generated_Source\PSoC4/USBFS.c ****             /* Store address of buffer and burst counter for endpoint. */
1745:.\Generated_Source\PSoC4/USBFS.c ****             USBFS_DmaEpBufferAddrBackup[epNumber] = (uint32) pData;
1746:.\Generated_Source\PSoC4/USBFS.c ****             USBFS_DmaEpBurstCntBackup[epNumber]   = USBFS_DmaEpBurstCnt[epNumber];
1747:.\Generated_Source\PSoC4/USBFS.c **** 
1748:.\Generated_Source\PSoC4/USBFS.c ****             /* Disable DMA channel: start configuration. */
1749:.\Generated_Source\PSoC4/USBFS.c ****             USBFS_CyDmaChDisable(channelNum);
1750:.\Generated_Source\PSoC4/USBFS.c **** 
1751:.\Generated_Source\PSoC4/USBFS.c ****             /* Set destination address. */
1752:.\Generated_Source\PSoC4/USBFS.c ****             USBFS_CyDmaSetSrcAddress(channelNum, USBFS_DMA_DESCR0, (void*) &USBFS_ARB_EP_BASE.arbEp
1753:.\Generated_Source\PSoC4/USBFS.c ****             USBFS_CyDmaSetSrcAddress(channelNum, USBFS_DMA_DESCR1, (void*) &USBFS_ARB_EP_BASE.arbEp
1754:.\Generated_Source\PSoC4/USBFS.c **** 
1755:.\Generated_Source\PSoC4/USBFS.c ****             USBFS_CyDmaSetDstAddress(channelNum, USBFS_DMA_DESCR0, (void*) ((uint32) pData));
1756:.\Generated_Source\PSoC4/USBFS.c ****             USBFS_CyDmaSetDstAddress(channelNum, USBFS_DMA_DESCR1, (void*) ((uint32) pData + USBFS_
1757:.\Generated_Source\PSoC4/USBFS.c **** 
1758:.\Generated_Source\PSoC4/USBFS.c ****             /* Configure DMA descriptor. */
1759:.\Generated_Source\PSoC4/USBFS.c ****             USBFS_CyDmaSetConfiguration(channelNum, USBFS_DMA_DESCR0, USBFS_DMA_COMMON_CFG  | lengt
1760:.\Generated_Source\PSoC4/USBFS.c ****                                                     CYDMA_BYTE | CYDMA_WORD_ELEMENT | CYDMA_INC_DST
1761:.\Generated_Source\PSoC4/USBFS.c **** 
1762:.\Generated_Source\PSoC4/USBFS.c ****             /* Configure DMA descriptor. */
1763:.\Generated_Source\PSoC4/USBFS.c ****             USBFS_CyDmaSetConfiguration(channelNum, USBFS_DMA_DESCR1, USBFS_DMA_COMMON_CFG  | lengt
1764:.\Generated_Source\PSoC4/USBFS.c ****                                                     CYDMA_BYTE | CYDMA_WORD_ELEMENT | CYDMA_INC_DST
1765:.\Generated_Source\PSoC4/USBFS.c **** 
1766:.\Generated_Source\PSoC4/USBFS.c ****             /* Enable interrupt from DMA channel. */
1767:.\Generated_Source\PSoC4/USBFS.c ****             USBFS_CyDmaSetInterruptMask(channelNum);
1768:.\Generated_Source\PSoC4/USBFS.c **** 
1769:.\Generated_Source\PSoC4/USBFS.c ****             /* Validate DMA descriptor 0 and 1. */
1770:.\Generated_Source\PSoC4/USBFS.c ****             USBFS_CyDmaValidateDescriptor(channelNum, USBFS_DMA_DESCR0);
1771:.\Generated_Source\PSoC4/USBFS.c ****             USBFS_CyDmaValidateDescriptor(channelNum, USBFS_DMA_DESCR1);
1772:.\Generated_Source\PSoC4/USBFS.c **** 
1773:.\Generated_Source\PSoC4/USBFS.c ****             /* Enable DMA channel: configuration complete. */
1774:.\Generated_Source\PSoC4/USBFS.c ****             USBFS_CyDmaChEnable(channelNum);
1775:.\Generated_Source\PSoC4/USBFS.c ****         }
1776:.\Generated_Source\PSoC4/USBFS.c ****         #else
1777:.\Generated_Source\PSoC4/USBFS.c ****             (void) CyDmaChDisable(USBFS_DmaChan[epNumber]);
1778:.\Generated_Source\PSoC4/USBFS.c ****             (void) CyDmaTdSetConfiguration(USBFS_DmaTd[epNumber], length,  USBFS_DmaTd[epNumber], T
1779:.\Generated_Source\PSoC4/USBFS.c ****             (void) CyDmaTdSetAddress(USBFS_DmaTd[epNumber], LO16((uint32) &USBFS_ARB_EP_BASE.arbEp[
1780:.\Generated_Source\PSoC4/USBFS.c **** 
1781:.\Generated_Source\PSoC4/USBFS.c ****             /* Clear Any potential pending DMA requests before starting DMA channel to transfer dat
1782:.\Generated_Source\PSoC4/USBFS.c ****             (void) CyDmaClearPendingDrq(USBFS_DmaChan[epNumber]);
1783:.\Generated_Source\PSoC4/USBFS.c **** 
1784:.\Generated_Source\PSoC4/USBFS.c ****             /* Enable DMA channel. */
1785:.\Generated_Source\PSoC4/USBFS.c ****             (void) CyDmaChSetInitialTd(USBFS_DmaChan[epNumber], USBFS_DmaTd[epNumber]);
1786:.\Generated_Source\PSoC4/USBFS.c ****             (void) CyDmaChEnable(USBFS_DmaChan[epNumber], 1u);
1787:.\Generated_Source\PSoC4/USBFS.c ****         #endif /* (CY_PSOC4) */
1788:.\Generated_Source\PSoC4/USBFS.c **** 
1789:.\Generated_Source\PSoC4/USBFS.c ****             /* OUT endpoint has to be armed again by user when DMA transfers have been completed.
1790:.\Generated_Source\PSoC4/USBFS.c ****             * NO_EVENT_PENDING: notifies that data has been copied from endpoint buffer.
1791:.\Generated_Source\PSoC4/USBFS.c ****             */
1792:.\Generated_Source\PSoC4/USBFS.c **** 
1793:.\Generated_Source\PSoC4/USBFS.c ****         #endif /* (USBFS_EP_MANAGEMENT_DMA_AUTO) */
ARM GAS  C:\Users\LAIR\AppData\Local\Temp\ccdy23dh.s 			page 53


1794:.\Generated_Source\PSoC4/USBFS.c ****     #endif /* (USBFS_EP_MANAGEMENT_MANUAL) */
1795:.\Generated_Source\PSoC4/USBFS.c ****     }
1796:.\Generated_Source\PSoC4/USBFS.c ****     else
1797:.\Generated_Source\PSoC4/USBFS.c ****     {
1798:.\Generated_Source\PSoC4/USBFS.c ****         length = 0u;
 1060              		.loc 1 1798 0
 1061 006e 0025     		mov	r5, #0
 1062 0070 02E0     		b	.L65
 1063              	.L68:
 1064 0072 0025     		mov	r5, #0
 1065 0074 00E0     		b	.L65
 1066              	.L69:
 1067 0076 0025     		mov	r5, #0
 1068              	.LVL74:
 1069              	.L65:
1799:.\Generated_Source\PSoC4/USBFS.c ****     }
1800:.\Generated_Source\PSoC4/USBFS.c **** 
1801:.\Generated_Source\PSoC4/USBFS.c ****     return (length);
1802:.\Generated_Source\PSoC4/USBFS.c **** }
 1070              		.loc 1 1802 0
 1071 0078 281C     		mov	r0, r5
 1072              		@ sp needed
 1073              	.LVL75:
 1074 007a F8BD     		pop	{r3, r4, r5, r6, r7, pc}
 1075              	.L71:
 1076              		.align	2
 1077              	.L70:
 1078 007c 00000000 		.word	.LANCHOR1
 1079 0080 80101040 		.word	1074794624
 1080 0084 E0012C40 		.word	1076625888
 1081 0088 00181040 		.word	1074796544
 1082 008c 00006054 		.word	1415577600
 1083 0090 C0012C40 		.word	1076625856
 1084              		.cfi_endproc
 1085              	.LFE79:
 1086              		.size	USBFS_ReadOutEP, .-USBFS_ReadOutEP
 1087              		.section	.text.USBFS_LoadInEP16,"ax",%progbits
 1088              		.align	2
 1089              		.global	USBFS_LoadInEP16
 1090              		.code	16
 1091              		.thumb_func
 1092              		.type	USBFS_LoadInEP16, %function
 1093              	USBFS_LoadInEP16:
 1094              	.LFB80:
1803:.\Generated_Source\PSoC4/USBFS.c **** 
1804:.\Generated_Source\PSoC4/USBFS.c **** 
1805:.\Generated_Source\PSoC4/USBFS.c **** #if (USBFS_16BITS_EP_ACCESS_ENABLE)
1806:.\Generated_Source\PSoC4/USBFS.c **** /*******************************************************************************
1807:.\Generated_Source\PSoC4/USBFS.c **** * Function Name: USBFS_LoadInEP16
1808:.\Generated_Source\PSoC4/USBFS.c **** ****************************************************************************//**
1809:.\Generated_Source\PSoC4/USBFS.c **** *
1810:.\Generated_Source\PSoC4/USBFS.c **** *  This function performs different functionality depending on the Component’s
1811:.\Generated_Source\PSoC4/USBFS.c **** *  configured Endpoint Buffer Management. This parameter is defined in
1812:.\Generated_Source\PSoC4/USBFS.c **** *  the Descriptor Root in Component Configure window.
1813:.\Generated_Source\PSoC4/USBFS.c **** *
1814:.\Generated_Source\PSoC4/USBFS.c **** *  *Manual (Static/Dynamic Allocation):*
1815:.\Generated_Source\PSoC4/USBFS.c **** *  This function loads and enables the specified USB data endpoint for an IN
ARM GAS  C:\Users\LAIR\AppData\Local\Temp\ccdy23dh.s 			page 54


1816:.\Generated_Source\PSoC4/USBFS.c **** *  data transfer.
1817:.\Generated_Source\PSoC4/USBFS.c **** *
1818:.\Generated_Source\PSoC4/USBFS.c **** *  *DMA with Manual Buffer Management:*
1819:.\Generated_Source\PSoC4/USBFS.c **** *  Configures DMA for a data transfer from system RAM to endpoint buffer.
1820:.\Generated_Source\PSoC4/USBFS.c **** *  Generates request for a transfer.
1821:.\Generated_Source\PSoC4/USBFS.c **** *
1822:.\Generated_Source\PSoC4/USBFS.c **** *  *DMA with Automatic Buffer Management:*
1823:.\Generated_Source\PSoC4/USBFS.c **** *  Configures DMA. This is required only once, so it is done only when parameter
1824:.\Generated_Source\PSoC4/USBFS.c **** *  pData is not NULL. When the pData pointer is NULL, the function skips this
1825:.\Generated_Source\PSoC4/USBFS.c **** *  task. Sets Data ready status: This generates the first DMA transfer and
1826:.\Generated_Source\PSoC4/USBFS.c **** *  prepares data in endpoint buffer.
1827:.\Generated_Source\PSoC4/USBFS.c **** *
1828:.\Generated_Source\PSoC4/USBFS.c **** *  \param epNumber Contains the data endpoint number.
1829:.\Generated_Source\PSoC4/USBFS.c **** *        Valid values are between 1 and 8.
1830:.\Generated_Source\PSoC4/USBFS.c **** *  \param *pData A pointer to a data array from which the data for the endpoint
1831:.\Generated_Source\PSoC4/USBFS.c **** *        space is loaded. It shall be ensured that this pointer address is even
1832:.\Generated_Source\PSoC4/USBFS.c **** *        to ensure the 16-bit transfer is aligned to even address. Else, a hard
1833:.\Generated_Source\PSoC4/USBFS.c **** *        fault condition can occur.
1834:.\Generated_Source\PSoC4/USBFS.c **** *  \param length The number of bytes to transfer from the array and then send as
1835:.\Generated_Source\PSoC4/USBFS.c **** *        a result of an IN request. Valid values are between 0 and 512 (1023 for
1836:.\Generated_Source\PSoC4/USBFS.c **** *        DMA with Automatic Buffer Management mode). The value 512 is applicable
1837:.\Generated_Source\PSoC4/USBFS.c **** *        if only one endpoint is used.
1838:.\Generated_Source\PSoC4/USBFS.c **** *
1839:.\Generated_Source\PSoC4/USBFS.c **** * \reentrant
1840:.\Generated_Source\PSoC4/USBFS.c **** *  No.
1841:.\Generated_Source\PSoC4/USBFS.c **** *
1842:.\Generated_Source\PSoC4/USBFS.c **** *******************************************************************************/
1843:.\Generated_Source\PSoC4/USBFS.c **** void USBFS_LoadInEP16(uint8 epNumber, const uint8 pData[], uint16 length)
1844:.\Generated_Source\PSoC4/USBFS.c **** {
 1095              		.loc 1 1844 0
 1096              		.cfi_startproc
 1097              	.LVL76:
 1098 0000 70B5     		push	{r4, r5, r6, lr}
 1099              		.cfi_def_cfa_offset 16
 1100              		.cfi_offset 4, -16
 1101              		.cfi_offset 5, -12
 1102              		.cfi_offset 6, -8
 1103              		.cfi_offset 14, -4
 1104 0002 041C     		mov	r4, r0
 1105 0004 0E1C     		mov	r6, r1
 1106 0006 151C     		mov	r5, r2
1845:.\Generated_Source\PSoC4/USBFS.c ****     /* Check array alignment on half-word boundary. */
1846:.\Generated_Source\PSoC4/USBFS.c ****     CYASSERT(0u == (((uint32) pData) & 0x01u));
 1107              		.loc 1 1846 0
 1108 0008 CB07     		lsl	r3, r1, #31
 1109 000a 02D5     		bpl	.L73
 1110              		.loc 1 1846 0 is_stmt 0 discriminator 1
 1111 000c 0020     		mov	r0, #0
 1112              	.LVL77:
 1113 000e FFF7FEFF 		bl	CyHalt
 1114              	.LVL78:
 1115              	.L73:
1847:.\Generated_Source\PSoC4/USBFS.c **** 
1848:.\Generated_Source\PSoC4/USBFS.c ****     if ((epNumber > USBFS_EP0) && (epNumber < USBFS_MAX_EP))
 1116              		.loc 1 1848 0 is_stmt 1
 1117 0012 631E     		sub	r3, r4, #1
 1118 0014 072B     		cmp	r3, #7
ARM GAS  C:\Users\LAIR\AppData\Local\Temp\ccdy23dh.s 			page 55


 1119 0016 62D8     		bhi	.L72
1849:.\Generated_Source\PSoC4/USBFS.c ****     {
1850:.\Generated_Source\PSoC4/USBFS.c ****     #if (!USBFS_EP_MANAGEMENT_DMA_AUTO)
1851:.\Generated_Source\PSoC4/USBFS.c ****         /* Limit length to available buffer USB IP buffer size. */
1852:.\Generated_Source\PSoC4/USBFS.c ****         if (length > (USBFS_EPX_DATA_BUF_MAX - USBFS_EP[epNumber].buffOffset))
 1120              		.loc 1 1852 0
 1121 0018 6300     		lsl	r3, r4, #1
 1122 001a 1B19     		add	r3, r3, r4
 1123 001c 9B00     		lsl	r3, r3, #2
 1124 001e 304A     		ldr	r2, .L77
 1125 0020 D318     		add	r3, r2, r3
 1126 0022 DA88     		ldrh	r2, [r3, #6]
 1127 0024 8023     		mov	r3, #128
 1128 0026 9B00     		lsl	r3, r3, #2
 1129 0028 9B1A     		sub	r3, r3, r2
 1130 002a 9D42     		cmp	r5, r3
 1131 002c 09D9     		bls	.L75
1853:.\Generated_Source\PSoC4/USBFS.c ****         {
1854:.\Generated_Source\PSoC4/USBFS.c ****             length = USBFS_EPX_DATA_BUF_MAX - USBFS_EP[epNumber].buffOffset;
 1132              		.loc 1 1854 0
 1133 002e 6300     		lsl	r3, r4, #1
 1134 0030 1B19     		add	r3, r3, r4
 1135 0032 9B00     		lsl	r3, r3, #2
 1136 0034 2A4A     		ldr	r2, .L77
 1137 0036 D318     		add	r3, r2, r3
 1138 0038 DD88     		ldrh	r5, [r3, #6]
 1139 003a 8023     		mov	r3, #128
 1140 003c 9B00     		lsl	r3, r3, #2
 1141 003e 5D1B     		sub	r5, r3, r5
 1142 0040 ADB2     		uxth	r5, r5
 1143              	.LVL79:
 1144              	.L75:
1855:.\Generated_Source\PSoC4/USBFS.c ****         }
1856:.\Generated_Source\PSoC4/USBFS.c ****     #endif /* (!USBFS_EP_MANAGEMENT_DMA_AUTO) */
1857:.\Generated_Source\PSoC4/USBFS.c **** 
1858:.\Generated_Source\PSoC4/USBFS.c ****         /* Set count and data toggle. */
1859:.\Generated_Source\PSoC4/USBFS.c ****         USBFS_SIE_EP_BASE.sieEp[epNumber].epCnt0 = (uint32) HI8(length) | USBFS_EP[epNumber].epTogg
 1145              		.loc 1 1859 0
 1146 0042 290A     		lsr	r1, r5, #8
 1147 0044 6300     		lsl	r3, r4, #1
 1148 0046 1B19     		add	r3, r3, r4
 1149 0048 9B00     		lsl	r3, r3, #2
 1150 004a 254A     		ldr	r2, .L77
 1151 004c D218     		add	r2, r2, r3
 1152 004e D378     		ldrb	r3, [r2, #3]
 1153 0050 1943     		orr	r1, r3
 1154 0052 A301     		lsl	r3, r4, #6
 1155 0054 2348     		ldr	r0, .L77+4
 1156 0056 1950     		str	r1, [r3, r0]
1860:.\Generated_Source\PSoC4/USBFS.c ****         USBFS_SIE_EP_BASE.sieEp[epNumber].epCnt1 = (uint32) LO8(length);
 1157              		.loc 1 1860 0
 1158 0058 E9B2     		uxtb	r1, r5
 1159 005a 8446     		mov	ip, r0
 1160 005c 6344     		add	r3, r3, ip
 1161 005e 5960     		str	r1, [r3, #4]
1861:.\Generated_Source\PSoC4/USBFS.c **** 
1862:.\Generated_Source\PSoC4/USBFS.c ****         /* Adjust requested length: 2 bytes are handled at one data register access. */
ARM GAS  C:\Users\LAIR\AppData\Local\Temp\ccdy23dh.s 			page 56


1863:.\Generated_Source\PSoC4/USBFS.c ****         length += (length & 0x01u);
 1162              		.loc 1 1863 0
 1163 0060 0123     		mov	r3, #1
 1164 0062 2B40     		and	r3, r5
 1165 0064 5D19     		add	r5, r3, r5
 1166              	.LVL80:
 1167 0066 ADB2     		uxth	r5, r5
 1168              	.LVL81:
1864:.\Generated_Source\PSoC4/USBFS.c **** 
1865:.\Generated_Source\PSoC4/USBFS.c ****     #if (USBFS_EP_MANAGEMENT_MANUAL)
1866:.\Generated_Source\PSoC4/USBFS.c ****         if (NULL != pData)
1867:.\Generated_Source\PSoC4/USBFS.c ****         {
1868:.\Generated_Source\PSoC4/USBFS.c ****             /* Convert uint8 array to uint16. */
1869:.\Generated_Source\PSoC4/USBFS.c ****             const uint16 *dataBuf = (uint16 *) pData;
1870:.\Generated_Source\PSoC4/USBFS.c **** 
1871:.\Generated_Source\PSoC4/USBFS.c ****             /* Copy data using 16-bits arbiter data register. */
1872:.\Generated_Source\PSoC4/USBFS.c ****             uint16 i;
1873:.\Generated_Source\PSoC4/USBFS.c ****             for (i = 0u; i < (length >> 1u); ++i)
1874:.\Generated_Source\PSoC4/USBFS.c ****             {
1875:.\Generated_Source\PSoC4/USBFS.c ****                 USBFS_ARB_EP16_BASE.arbEp[epNumber].rwDr16 = dataBuf[i];
1876:.\Generated_Source\PSoC4/USBFS.c ****             }
1877:.\Generated_Source\PSoC4/USBFS.c ****         }
1878:.\Generated_Source\PSoC4/USBFS.c **** 
1879:.\Generated_Source\PSoC4/USBFS.c ****         /* IN endpoint buffer is full - read to be read. */
1880:.\Generated_Source\PSoC4/USBFS.c ****         USBFS_EP[epNumber].apiEpState = USBFS_NO_EVENT_PENDING;
1881:.\Generated_Source\PSoC4/USBFS.c **** 
1882:.\Generated_Source\PSoC4/USBFS.c ****         /* Arm IN endpoint. */
1883:.\Generated_Source\PSoC4/USBFS.c ****         USBFS_SIE_EP_BASE.sieEp[epNumber].epCr0 = USBFS_EP[epNumber].epMode;
1884:.\Generated_Source\PSoC4/USBFS.c **** 
1885:.\Generated_Source\PSoC4/USBFS.c ****     #else
1886:.\Generated_Source\PSoC4/USBFS.c **** 
1887:.\Generated_Source\PSoC4/USBFS.c ****         #if (USBFS_EP_MANAGEMENT_DMA_MANUAL)
1888:.\Generated_Source\PSoC4/USBFS.c ****             /* IN endpoint buffer will be fully loaded by DMA shortly. */
1889:.\Generated_Source\PSoC4/USBFS.c ****             USBFS_EP[epNumber].apiEpState = USBFS_NO_EVENT_PENDING;
 1169              		.loc 1 1889 0
 1170 0068 0023     		mov	r3, #0
 1171 006a 5370     		strb	r3, [r2, #1]
1890:.\Generated_Source\PSoC4/USBFS.c **** 
1891:.\Generated_Source\PSoC4/USBFS.c ****             if ((pData != NULL) && (length > 0u))
 1172              		.loc 1 1891 0
 1173 006c 002E     		cmp	r6, #0
 1174 006e 2AD0     		beq	.L76
 1175              		.loc 1 1891 0 is_stmt 0 discriminator 1
 1176 0070 002D     		cmp	r5, #0
 1177 0072 28D0     		beq	.L76
 1178              	.LBB4:
1892:.\Generated_Source\PSoC4/USBFS.c ****             {
1893:.\Generated_Source\PSoC4/USBFS.c ****                 uint32 channelNum = (uint32) USBFS_DmaChan[epNumber];
 1179              		.loc 1 1893 0 is_stmt 1
 1180 0074 1C4B     		ldr	r3, .L77+8
 1181 0076 1B5D     		ldrb	r3, [r3, r4]
 1182              	.LVL82:
1894:.\Generated_Source\PSoC4/USBFS.c **** 
1895:.\Generated_Source\PSoC4/USBFS.c ****                 /* Disable DMA channel: start configuration. */
1896:.\Generated_Source\PSoC4/USBFS.c ****                 USBFS_CyDmaChDisable(channelNum);
 1183              		.loc 1 1896 0
 1184 0078 1C49     		ldr	r1, .L77+12
ARM GAS  C:\Users\LAIR\AppData\Local\Temp\ccdy23dh.s 			page 57


 1185 007a 9800     		lsl	r0, r3, #2
 1186 007c 4258     		ldr	r2, [r0, r1]
 1187 007e 5200     		lsl	r2, r2, #1
 1188 0080 5208     		lsr	r2, r2, #1
 1189 0082 4250     		str	r2, [r0, r1]
1897:.\Generated_Source\PSoC4/USBFS.c **** 
1898:.\Generated_Source\PSoC4/USBFS.c ****                 /* Configure source and destination. */
1899:.\Generated_Source\PSoC4/USBFS.c ****                 USBFS_CyDmaSetSrcAddress(channelNum, USBFS_DMA_DESCR0, (void*) pData);
 1190              		.loc 1 1899 0
 1191 0084 5B01     		lsl	r3, r3, #5
 1192              	.LVL83:
 1193 0086 1A4A     		ldr	r2, .L77+16
 1194 0088 9E50     		str	r6, [r3, r2]
1900:.\Generated_Source\PSoC4/USBFS.c ****                 USBFS_CyDmaSetDstAddress(channelNum, USBFS_DMA_DESCR0, (void*) &USBFS_ARB_EP16_BASE
 1195              		.loc 1 1900 0
 1196 008a A201     		lsl	r2, r4, #6
 1197 008c 194E     		ldr	r6, .L77+20
 1198              	.LVL84:
 1199 008e B446     		mov	ip, r6
 1200 0090 6244     		add	r2, r2, ip
 1201 0092 174E     		ldr	r6, .L77+16
 1202              	.LVL85:
 1203 0094 B446     		mov	ip, r6
 1204 0096 6344     		add	r3, r3, ip
 1205              	.LVL86:
 1206 0098 5A60     		str	r2, [r3, #4]
 1207              	.LVL87:
1901:.\Generated_Source\PSoC4/USBFS.c **** 
1902:.\Generated_Source\PSoC4/USBFS.c ****                 /* Configure DMA descriptor. */
1903:.\Generated_Source\PSoC4/USBFS.c ****                 length = (length >> 1u) - 1u;
 1208              		.loc 1 1903 0
 1209 009a 6D08     		lsr	r5, r5, #1
 1210              	.LVL88:
 1211 009c 013D     		sub	r5, r5, #1
 1212 009e ADB2     		uxth	r5, r5
 1213              	.LVL89:
1904:.\Generated_Source\PSoC4/USBFS.c ****                 USBFS_CyDmaSetConfiguration(channelNum, USBFS_DMA_DESCR0, USBFS_DMA_COMMON_CFG | le
 1214              		.loc 1 1904 0
 1215 00a0 154A     		ldr	r2, .L77+24
 1216 00a2 1543     		orr	r5, r2
 1217              	.LVL90:
 1218 00a4 9D60     		str	r5, [r3, #8]
1905:.\Generated_Source\PSoC4/USBFS.c ****                                                         CYDMA_HALFWORD | CYDMA_ELEMENT_WORD | CYDMA
1906:.\Generated_Source\PSoC4/USBFS.c **** 
1907:.\Generated_Source\PSoC4/USBFS.c ****                 /* Validate descriptor to execute on following DMA request. */
1908:.\Generated_Source\PSoC4/USBFS.c ****                 USBFS_CyDmaValidateDescriptor(channelNum, USBFS_DMA_DESCR0);
 1219              		.loc 1 1908 0
 1220 00a6 8022     		mov	r2, #128
 1221 00a8 1206     		lsl	r2, r2, #24
 1222 00aa DA60     		str	r2, [r3, #12]
1909:.\Generated_Source\PSoC4/USBFS.c **** 
1910:.\Generated_Source\PSoC4/USBFS.c ****                 /* Enable DMA channel: configuration complete. */
1911:.\Generated_Source\PSoC4/USBFS.c ****                 USBFS_CyDmaChEnable(channelNum);
 1223              		.loc 1 1911 0
 1224 00ac 4358     		ldr	r3, [r0, r1]
 1225 00ae 1343     		orr	r3, r2
 1226 00b0 4350     		str	r3, [r0, r1]
ARM GAS  C:\Users\LAIR\AppData\Local\Temp\ccdy23dh.s 			page 58


1912:.\Generated_Source\PSoC4/USBFS.c **** 
1913:.\Generated_Source\PSoC4/USBFS.c ****                 /* Generate DMA request. */
1914:.\Generated_Source\PSoC4/USBFS.c ****                 USBFS_ARB_EP_BASE.arbEp[epNumber].epCfg |=  (uint32)  USBFS_ARB_EPX_CFG_DMA_REQ;
 1227              		.loc 1 1914 0
 1228 00b2 124B     		ldr	r3, .L77+28
 1229 00b4 A401     		lsl	r4, r4, #6
 1230              	.LVL91:
 1231 00b6 E258     		ldr	r2, [r4, r3]
 1232 00b8 0221     		mov	r1, #2
 1233 00ba 0A43     		orr	r2, r1
 1234 00bc E250     		str	r2, [r4, r3]
1915:.\Generated_Source\PSoC4/USBFS.c ****                 USBFS_ARB_EP_BASE.arbEp[epNumber].epCfg &=  (uint32) ~USBFS_ARB_EPX_CFG_DMA_REQ;
 1235              		.loc 1 1915 0
 1236 00be E258     		ldr	r2, [r4, r3]
 1237 00c0 8A43     		bic	r2, r1
 1238 00c2 E250     		str	r2, [r4, r3]
 1239              	.LBE4:
1892:.\Generated_Source\PSoC4/USBFS.c ****                 uint32 channelNum = (uint32) USBFS_DmaChan[epNumber];
 1240              		.loc 1 1892 0
 1241 00c4 0BE0     		b	.L72
 1242              	.LVL92:
 1243              	.L76:
1916:.\Generated_Source\PSoC4/USBFS.c **** 
1917:.\Generated_Source\PSoC4/USBFS.c ****                 /* IN endpoint will be armed in ARB_ISR(source: IN_BUF_FULL) after first DMA transf
1918:.\Generated_Source\PSoC4/USBFS.c ****             }
1919:.\Generated_Source\PSoC4/USBFS.c ****             else
1920:.\Generated_Source\PSoC4/USBFS.c ****             {
1921:.\Generated_Source\PSoC4/USBFS.c ****                 /* When zero-length packet: arm IN endpoint directly. */
1922:.\Generated_Source\PSoC4/USBFS.c ****                 USBFS_SIE_EP_BASE.sieEp[epNumber].epCr0 = USBFS_EP[epNumber].epMode;
 1244              		.loc 1 1922 0
 1245 00c6 6300     		lsl	r3, r4, #1
 1246 00c8 1B19     		add	r3, r3, r4
 1247 00ca 9B00     		lsl	r3, r3, #2
 1248 00cc 044A     		ldr	r2, .L77
 1249 00ce D318     		add	r3, r2, r3
 1250 00d0 5B79     		ldrb	r3, [r3, #5]
 1251 00d2 DBB2     		uxtb	r3, r3
 1252 00d4 A401     		lsl	r4, r4, #6
 1253 00d6 034A     		ldr	r2, .L77+4
 1254 00d8 9446     		mov	ip, r2
 1255 00da 6444     		add	r4, r4, ip
 1256 00dc A360     		str	r3, [r4, #8]
 1257              	.LVL93:
 1258              	.L72:
1923:.\Generated_Source\PSoC4/USBFS.c ****             }
1924:.\Generated_Source\PSoC4/USBFS.c ****         #endif /* (USBFS_EP_MANAGEMENT_DMA_MANUAL) */
1925:.\Generated_Source\PSoC4/USBFS.c **** 
1926:.\Generated_Source\PSoC4/USBFS.c ****         #if (USBFS_EP_MANAGEMENT_DMA_AUTO)
1927:.\Generated_Source\PSoC4/USBFS.c ****             if (pData != NULL)
1928:.\Generated_Source\PSoC4/USBFS.c ****             {
1929:.\Generated_Source\PSoC4/USBFS.c ****                 uint32 channelNum = (uint32) USBFS_DmaChan[epNumber];
1930:.\Generated_Source\PSoC4/USBFS.c **** 
1931:.\Generated_Source\PSoC4/USBFS.c ****                 /* Store address of buffer. */
1932:.\Generated_Source\PSoC4/USBFS.c ****                 USBFS_DmaEpBufferAddrBackup[epNumber] = (uint32) pData;
1933:.\Generated_Source\PSoC4/USBFS.c **** 
1934:.\Generated_Source\PSoC4/USBFS.c ****                 /* Disable DMA channel: start configuration. */
1935:.\Generated_Source\PSoC4/USBFS.c ****                 USBFS_CyDmaChDisable(channelNum);
ARM GAS  C:\Users\LAIR\AppData\Local\Temp\ccdy23dh.s 			page 59


1936:.\Generated_Source\PSoC4/USBFS.c **** 
1937:.\Generated_Source\PSoC4/USBFS.c ****                 /* Set destination address. */
1938:.\Generated_Source\PSoC4/USBFS.c ****                 USBFS_CyDmaSetDstAddress(channelNum, USBFS_DMA_DESCR0, (void*) &USBFS_ARB_EP16_BASE
1939:.\Generated_Source\PSoC4/USBFS.c ****                 USBFS_CyDmaSetDstAddress(channelNum, USBFS_DMA_DESCR1, (void*) &USBFS_ARB_EP16_BASE
1940:.\Generated_Source\PSoC4/USBFS.c **** 
1941:.\Generated_Source\PSoC4/USBFS.c ****                 /* Configure DMA descriptor. */
1942:.\Generated_Source\PSoC4/USBFS.c ****                 USBFS_CyDmaSetConfiguration(channelNum, USBFS_DMA_DESCR0, USBFS_DMA_COMMON_CFG  |
1943:.\Generated_Source\PSoC4/USBFS.c ****                                                         CYDMA_HALFWORD | CYDMA_ELEMENT_WORD | CYDMA
1944:.\Generated_Source\PSoC4/USBFS.c **** 
1945:.\Generated_Source\PSoC4/USBFS.c ****                 /* Configure DMA descriptor. */
1946:.\Generated_Source\PSoC4/USBFS.c ****                 USBFS_CyDmaSetConfiguration(channelNum, USBFS_DMA_DESCR1, USBFS_DMA_COMMON_CFG  |
1947:.\Generated_Source\PSoC4/USBFS.c ****                                                         CYDMA_HALFWORD | CYDMA_ELEMENT_WORD | CYDMA
1948:.\Generated_Source\PSoC4/USBFS.c **** 
1949:.\Generated_Source\PSoC4/USBFS.c ****                 /* Enable interrupt from DMA channel. */
1950:.\Generated_Source\PSoC4/USBFS.c ****                 USBFS_CyDmaSetInterruptMask(channelNum);
1951:.\Generated_Source\PSoC4/USBFS.c **** 
1952:.\Generated_Source\PSoC4/USBFS.c ****                 /* Validate descriptor 1. It will not be invalided during operation. */
1953:.\Generated_Source\PSoC4/USBFS.c ****                 USBFS_CyDmaValidateDescriptor(channelNum, USBFS_DMA_DESCR1);
1954:.\Generated_Source\PSoC4/USBFS.c **** 
1955:.\Generated_Source\PSoC4/USBFS.c ****                 /* Enable DMA channel: configuration complete. */
1956:.\Generated_Source\PSoC4/USBFS.c ****                 USBFS_CyDmaChEnable(channelNum);
1957:.\Generated_Source\PSoC4/USBFS.c ****             }
1958:.\Generated_Source\PSoC4/USBFS.c ****             else
1959:.\Generated_Source\PSoC4/USBFS.c ****             {
1960:.\Generated_Source\PSoC4/USBFS.c ****                 /* IN endpoint buffer (32 bytes) will shortly be preloaded by DMA. */
1961:.\Generated_Source\PSoC4/USBFS.c ****                 USBFS_EP[epNumber].apiEpState = USBFS_NO_EVENT_PENDING;
1962:.\Generated_Source\PSoC4/USBFS.c **** 
1963:.\Generated_Source\PSoC4/USBFS.c ****                 if (length > 0u)
1964:.\Generated_Source\PSoC4/USBFS.c ****                 {
1965:.\Generated_Source\PSoC4/USBFS.c ****                     uint32 lengthDescr0, lengthDescr1;
1966:.\Generated_Source\PSoC4/USBFS.c ****                     uint32 channelNum = (uint32) USBFS_DmaChan[epNumber];
1967:.\Generated_Source\PSoC4/USBFS.c **** 
1968:.\Generated_Source\PSoC4/USBFS.c ****                     /* Get number of full bursts. */
1969:.\Generated_Source\PSoC4/USBFS.c ****                     USBFS_DmaEpBurstCnt[epNumber] = (uint8) (length / USBFS_DMA_BYTES_PER_BURST);
1970:.\Generated_Source\PSoC4/USBFS.c **** 
1971:.\Generated_Source\PSoC4/USBFS.c ****                     /* Get number of elements in the last burst. */
1972:.\Generated_Source\PSoC4/USBFS.c ****                     USBFS_DmaEpLastBurstEl[epNumber] = (uint8) (length % USBFS_DMA_BYTES_PER_BURST)
1973:.\Generated_Source\PSoC4/USBFS.c **** 
1974:.\Generated_Source\PSoC4/USBFS.c ****                     /* Get total number of bursts. */
1975:.\Generated_Source\PSoC4/USBFS.c ****                     USBFS_DmaEpBurstCnt[epNumber] += (0u != USBFS_DmaEpLastBurstEl[epNumber]) ? 1u 
1976:.\Generated_Source\PSoC4/USBFS.c **** 
1977:.\Generated_Source\PSoC4/USBFS.c ****                     /* Adjust number of data elements transferred in last burst. */
1978:.\Generated_Source\PSoC4/USBFS.c ****                     USBFS_DmaEpLastBurstEl[epNumber] = (0u != USBFS_DmaEpLastBurstEl[epNumber]) ?
1979:.\Generated_Source\PSoC4/USBFS.c ****                                                                           ((USBFS_DmaEpLastBurstEl[
1980:.\Generated_Source\PSoC4/USBFS.c ****                                                                            (USBFS_DMA_HALFWORDS_PER
1981:.\Generated_Source\PSoC4/USBFS.c **** 
1982:.\Generated_Source\PSoC4/USBFS.c ****                     /* Get number of data elements to transfer for descriptor 0 and 1. */
1983:.\Generated_Source\PSoC4/USBFS.c ****                     lengthDescr0 = (1u == USBFS_DmaEpBurstCnt[epNumber]) ? USBFS_DmaEpLastBurstEl[e
1984:.\Generated_Source\PSoC4/USBFS.c ****                     lengthDescr1 = (2u == USBFS_DmaEpBurstCnt[epNumber]) ? USBFS_DmaEpLastBurstEl[e
1985:.\Generated_Source\PSoC4/USBFS.c **** 
1986:.\Generated_Source\PSoC4/USBFS.c ****                     /* Mark which descriptor is last one to execute. */
1987:.\Generated_Source\PSoC4/USBFS.c ****                     USBFS_DmaEpLastBurstEl[epNumber] |= (0u != (USBFS_DmaEpBurstCnt[epNumber] & 0x1
1988:.\Generated_Source\PSoC4/USBFS.c ****                                                                             USBFS_DMA_DESCR0_MASK :
1989:.\Generated_Source\PSoC4/USBFS.c **** 
1990:.\Generated_Source\PSoC4/USBFS.c ****                     /* Adjust burst counter taking to account: 2 valid descriptors and interrupt tr
1991:.\Generated_Source\PSoC4/USBFS.c ****                     USBFS_DmaEpBurstCnt[epNumber] = USBFS_DMA_GET_BURST_CNT(USBFS_DmaEpBurstCnt[epN
1992:.\Generated_Source\PSoC4/USBFS.c **** 
ARM GAS  C:\Users\LAIR\AppData\Local\Temp\ccdy23dh.s 			page 60


1993:.\Generated_Source\PSoC4/USBFS.c ****                     /* Restore DMA settings for current transfer. */
1994:.\Generated_Source\PSoC4/USBFS.c ****                     USBFS_CyDmaChDisable(channelNum);
1995:.\Generated_Source\PSoC4/USBFS.c **** 
1996:.\Generated_Source\PSoC4/USBFS.c ****                     /* Restore destination address for input endpoint. */
1997:.\Generated_Source\PSoC4/USBFS.c ****                     USBFS_CyDmaSetSrcAddress(channelNum, USBFS_DMA_DESCR0, (void*) ((uint32) USBFS_
1998:.\Generated_Source\PSoC4/USBFS.c ****                     USBFS_CyDmaSetSrcAddress(channelNum, USBFS_DMA_DESCR1, (void*) ((uint32) USBFS_
1999:.\Generated_Source\PSoC4/USBFS.c ****                                                                                                    
2000:.\Generated_Source\PSoC4/USBFS.c **** 
2001:.\Generated_Source\PSoC4/USBFS.c ****                     /* Set number of elements to transfer. */
2002:.\Generated_Source\PSoC4/USBFS.c ****                     USBFS_CyDmaSetNumDataElements(channelNum, USBFS_DMA_DESCR0, lengthDescr0);
2003:.\Generated_Source\PSoC4/USBFS.c ****                     USBFS_CyDmaSetNumDataElements(channelNum, USBFS_DMA_DESCR1, lengthDescr1);
2004:.\Generated_Source\PSoC4/USBFS.c **** 
2005:.\Generated_Source\PSoC4/USBFS.c ****                     /* Validate descriptor 0 and command to start with it. */
2006:.\Generated_Source\PSoC4/USBFS.c ****                     USBFS_CyDmaValidateDescriptor(channelNum, USBFS_DMA_DESCR0);
2007:.\Generated_Source\PSoC4/USBFS.c ****                     USBFS_CyDmaSetDescriptor0Next(channelNum);
2008:.\Generated_Source\PSoC4/USBFS.c **** 
2009:.\Generated_Source\PSoC4/USBFS.c ****                     /* Enable DMA channel: configuration complete. */
2010:.\Generated_Source\PSoC4/USBFS.c ****                     USBFS_CyDmaChEnable(channelNum);
2011:.\Generated_Source\PSoC4/USBFS.c **** 
2012:.\Generated_Source\PSoC4/USBFS.c ****                 #if !defined (USBFS_MANUAL_IN_EP_ARM)
2013:.\Generated_Source\PSoC4/USBFS.c ****                     /* Set IN data ready to generate DMA request to load data into endpoint buffer.
2014:.\Generated_Source\PSoC4/USBFS.c ****                     USBFS_ARB_EP_BASE.arbEp[epNumber].epCfg |= USBFS_ARB_EPX_CFG_IN_DATA_RDY;
2015:.\Generated_Source\PSoC4/USBFS.c ****                 #endif  /* (USBFS_MANUAL_IN_EP_ARM) */
2016:.\Generated_Source\PSoC4/USBFS.c **** 
2017:.\Generated_Source\PSoC4/USBFS.c ****                     /* IN endpoint will be armed in ARB_ISR(source: IN_BUF_FULL) after first DMA tr
2018:.\Generated_Source\PSoC4/USBFS.c ****                 }
2019:.\Generated_Source\PSoC4/USBFS.c ****                 else
2020:.\Generated_Source\PSoC4/USBFS.c ****                 {
2021:.\Generated_Source\PSoC4/USBFS.c ****                     /* When zero-length packet: arm IN endpoint directly. */
2022:.\Generated_Source\PSoC4/USBFS.c ****                     USBFS_SIE_EP_BASE.sieEp[epNumber].epCr0 = USBFS_EP[epNumber].epMode;
2023:.\Generated_Source\PSoC4/USBFS.c ****                 }
2024:.\Generated_Source\PSoC4/USBFS.c ****             }
2025:.\Generated_Source\PSoC4/USBFS.c ****         #endif /* (USBFS_EP_MANAGEMENT_DMA_AUTO) */
2026:.\Generated_Source\PSoC4/USBFS.c ****     #endif /* (USBFS_EP_MANAGEMENT_MANUAL) */
2027:.\Generated_Source\PSoC4/USBFS.c ****     }
2028:.\Generated_Source\PSoC4/USBFS.c **** }
 1259              		.loc 1 2028 0
 1260              		@ sp needed
 1261 00de 70BD     		pop	{r4, r5, r6, pc}
 1262              	.L78:
 1263              		.align	2
 1264              	.L77:
 1265 00e0 00000000 		.word	USBFS_EP
 1266 00e4 F0FF2B40 		.word	1076625392
 1267 00e8 00000000 		.word	.LANCHOR1
 1268 00ec 80101040 		.word	1074794624
 1269 00f0 00181040 		.word	1074796544
 1270 00f4 E0112C40 		.word	1076629984
 1271 00f8 00009154 		.word	1418788864
 1272 00fc C0012C40 		.word	1076625856
 1273              		.cfi_endproc
 1274              	.LFE80:
 1275              		.size	USBFS_LoadInEP16, .-USBFS_LoadInEP16
 1276              		.section	.text.USBFS_ReadOutEP16,"ax",%progbits
 1277              		.align	2
 1278              		.global	USBFS_ReadOutEP16
 1279              		.code	16
ARM GAS  C:\Users\LAIR\AppData\Local\Temp\ccdy23dh.s 			page 61


 1280              		.thumb_func
 1281              		.type	USBFS_ReadOutEP16, %function
 1282              	USBFS_ReadOutEP16:
 1283              	.LFB81:
2029:.\Generated_Source\PSoC4/USBFS.c **** 
2030:.\Generated_Source\PSoC4/USBFS.c **** 
2031:.\Generated_Source\PSoC4/USBFS.c **** /*******************************************************************************
2032:.\Generated_Source\PSoC4/USBFS.c **** * Function Name: USBFS_ReadOutEP16
2033:.\Generated_Source\PSoC4/USBFS.c **** ****************************************************************************//**
2034:.\Generated_Source\PSoC4/USBFS.c **** *
2035:.\Generated_Source\PSoC4/USBFS.c **** *   This function performs different functionality depending on the Component’s
2036:.\Generated_Source\PSoC4/USBFS.c **** *   configured Endpoint Buffer Management. This parameter is defined in the
2037:.\Generated_Source\PSoC4/USBFS.c **** *   Descriptor Root in Component Configure window.
2038:.\Generated_Source\PSoC4/USBFS.c **** *
2039:.\Generated_Source\PSoC4/USBFS.c **** *   *Manual (Static/Dynamic Allocation):*
2040:.\Generated_Source\PSoC4/USBFS.c **** *   This function moves the specified number of bytes from endpoint buffer to
2041:.\Generated_Source\PSoC4/USBFS.c **** *   system RAM. The number of bytes actually transferred from endpoint buffer to
2042:.\Generated_Source\PSoC4/USBFS.c **** *   system RAM is the lesser of the actual number of bytes sent by the host or
2043:.\Generated_Source\PSoC4/USBFS.c **** *   the number of bytes requested by the length parameter.
2044:.\Generated_Source\PSoC4/USBFS.c **** *
2045:.\Generated_Source\PSoC4/USBFS.c **** *   *DMA with Manual Buffer Management:*
2046:.\Generated_Source\PSoC4/USBFS.c **** *   Configure DMA to transfer data from endpoint buffer to system RAM. Generate
2047:.\Generated_Source\PSoC4/USBFS.c **** *   a DMA request. The firmware must wait until the DMA completes the data
2048:.\Generated_Source\PSoC4/USBFS.c **** *   transfer after calling the USBFS_ReadOutEP() API. For example,
2049:.\Generated_Source\PSoC4/USBFS.c **** *   by checking EPstate:
2050:.\Generated_Source\PSoC4/USBFS.c **** *
2051:.\Generated_Source\PSoC4/USBFS.c **** *   \snippet /USBFS_sut_02.cydsn/main.c checking EPstatey
2052:.\Generated_Source\PSoC4/USBFS.c **** *
2053:.\Generated_Source\PSoC4/USBFS.c **** *   The USBFS_EnableOutEP() has to be called to allow host to write data into
2054:.\Generated_Source\PSoC4/USBFS.c **** *   the endpoint buffer after DMA has completed transfer data from OUT endpoint
2055:.\Generated_Source\PSoC4/USBFS.c **** *   buffer to SRAM.
2056:.\Generated_Source\PSoC4/USBFS.c **** *
2057:.\Generated_Source\PSoC4/USBFS.c **** *   *DMA with Automatic Buffer Management:*
2058:.\Generated_Source\PSoC4/USBFS.c **** *   Configure DMA. This is required only once and automatically generates DMA
2059:.\Generated_Source\PSoC4/USBFS.c **** *   requests as data arrives
2060:.\Generated_Source\PSoC4/USBFS.c **** *
2061:.\Generated_Source\PSoC4/USBFS.c **** *  \param epNumber: Contains the data endpoint number.
2062:.\Generated_Source\PSoC4/USBFS.c **** *         Valid values are between 1 and 8.
2063:.\Generated_Source\PSoC4/USBFS.c **** *  \param pData: A pointer to a data array into which the data for the endpoint
2064:.\Generated_Source\PSoC4/USBFS.c **** *         space is copied. It shall be ensured that this pointer address is
2065:.\Generated_Source\PSoC4/USBFS.c **** *         even to ensure the 16-bit transfer is aligned to even address. Else,
2066:.\Generated_Source\PSoC4/USBFS.c **** *         a hard fault condition can occur.
2067:.\Generated_Source\PSoC4/USBFS.c **** *  \param length: The number of bytes to transfer from the USB Out endpoint and
2068:.\Generated_Source\PSoC4/USBFS.c **** *         loads it into data array. Valid values are between 0 and 1023. The
2069:.\Generated_Source\PSoC4/USBFS.c **** *         function moves fewer than the requested number of bytes if the host
2070:.\Generated_Source\PSoC4/USBFS.c **** *         sends fewer bytes than requested.
2071:.\Generated_Source\PSoC4/USBFS.c **** *
2072:.\Generated_Source\PSoC4/USBFS.c **** * \return
2073:.\Generated_Source\PSoC4/USBFS.c **** *  Number of bytes received, 0 for an invalid endpoint.
2074:.\Generated_Source\PSoC4/USBFS.c **** *
2075:.\Generated_Source\PSoC4/USBFS.c **** * \reentrant
2076:.\Generated_Source\PSoC4/USBFS.c **** *  No.
2077:.\Generated_Source\PSoC4/USBFS.c **** *
2078:.\Generated_Source\PSoC4/USBFS.c **** *******************************************************************************/
2079:.\Generated_Source\PSoC4/USBFS.c **** uint16 USBFS_ReadOutEP16(uint8 epNumber, uint8 pData[], uint16 length)
2080:.\Generated_Source\PSoC4/USBFS.c **** {
 1284              		.loc 1 2080 0
ARM GAS  C:\Users\LAIR\AppData\Local\Temp\ccdy23dh.s 			page 62


 1285              		.cfi_startproc
 1286              	.LVL94:
 1287 0000 F0B5     		push	{r4, r5, r6, r7, lr}
 1288              		.cfi_def_cfa_offset 20
 1289              		.cfi_offset 4, -20
 1290              		.cfi_offset 5, -16
 1291              		.cfi_offset 6, -12
 1292              		.cfi_offset 7, -8
 1293              		.cfi_offset 14, -4
 1294 0002 4746     		mov	r7, r8
 1295 0004 80B4     		push	{r7}
 1296              		.cfi_def_cfa_offset 24
 1297              		.cfi_offset 8, -24
 1298 0006 041C     		mov	r4, r0
 1299 0008 0E1C     		mov	r6, r1
 1300 000a 151C     		mov	r5, r2
2081:.\Generated_Source\PSoC4/USBFS.c ****     uint32 adjLength;
2082:.\Generated_Source\PSoC4/USBFS.c **** 
2083:.\Generated_Source\PSoC4/USBFS.c ****     /* Check array alignment on half-word boundary */
2084:.\Generated_Source\PSoC4/USBFS.c ****     CYASSERT(0u == (((uint32) pData) & 0x01u));
 1301              		.loc 1 2084 0
 1302 000c CB07     		lsl	r3, r1, #31
 1303 000e 02D5     		bpl	.L80
 1304              		.loc 1 2084 0 is_stmt 0 discriminator 1
 1305 0010 0020     		mov	r0, #0
 1306              	.LVL95:
 1307 0012 FFF7FEFF 		bl	CyHalt
 1308              	.LVL96:
 1309              	.L80:
2085:.\Generated_Source\PSoC4/USBFS.c **** 
2086:.\Generated_Source\PSoC4/USBFS.c ****     if ((pData != NULL) && (epNumber > USBFS_EP0) && (epNumber < USBFS_MAX_EP))
 1310              		.loc 1 2086 0 is_stmt 1
 1311 0016 002E     		cmp	r6, #0
 1312 0018 39D0     		beq	.L83
 1313              		.loc 1 2086 0 is_stmt 0 discriminator 1
 1314 001a 002C     		cmp	r4, #0
 1315 001c 39D0     		beq	.L84
 1316              		.loc 1 2086 0 discriminator 2
 1317 001e 082C     		cmp	r4, #8
 1318 0020 39D8     		bhi	.L85
2087:.\Generated_Source\PSoC4/USBFS.c ****     {
2088:.\Generated_Source\PSoC4/USBFS.c ****     #if (!USBFS_EP_MANAGEMENT_DMA_AUTO)
2089:.\Generated_Source\PSoC4/USBFS.c ****         /* Adjust requested length to available data. */
2090:.\Generated_Source\PSoC4/USBFS.c ****         length = (length > USBFS_GetEPCount(epNumber)) ? USBFS_GetEPCount(epNumber) : length;
 1319              		.loc 1 2090 0 is_stmt 1
 1320 0022 201C     		mov	r0, r4
 1321 0024 FFF7FEFF 		bl	USBFS_GetEPCount
 1322              	.LVL97:
 1323 0028 A842     		cmp	r0, r5
 1324 002a 03D2     		bcs	.L82
 1325              		.loc 1 2090 0 is_stmt 0 discriminator 1
 1326 002c 201C     		mov	r0, r4
 1327 002e FFF7FEFF 		bl	USBFS_GetEPCount
 1328              	.LVL98:
 1329 0032 051C     		mov	r5, r0
 1330              	.L82:
 1331              	.LVL99:
ARM GAS  C:\Users\LAIR\AppData\Local\Temp\ccdy23dh.s 			page 63


2091:.\Generated_Source\PSoC4/USBFS.c ****     #endif /* (!USBFS_EP_MANAGEMENT_DMA_AUTO) */
2092:.\Generated_Source\PSoC4/USBFS.c **** 
2093:.\Generated_Source\PSoC4/USBFS.c ****     /* Adjust requested length: 2 bytes are handled at one data register access. */
2094:.\Generated_Source\PSoC4/USBFS.c ****     adjLength =  length + ((uint32)length & 1u);
 1332              		.loc 1 2094 0 is_stmt 1 discriminator 4
 1333 0034 0122     		mov	r2, #1
 1334 0036 2A40     		and	r2, r5
 1335 0038 9046     		mov	r8, r2
 1336 003a A844     		add	r8, r8, r5
 1337              	.LVL100:
 1338              	.LBB5:
2095:.\Generated_Source\PSoC4/USBFS.c **** 
2096:.\Generated_Source\PSoC4/USBFS.c ****     #if (USBFS_EP_MANAGEMENT_MANUAL)
2097:.\Generated_Source\PSoC4/USBFS.c ****         {
2098:.\Generated_Source\PSoC4/USBFS.c ****             /* Convert uint8 array to uint16. */
2099:.\Generated_Source\PSoC4/USBFS.c ****             uint16 *dataBuf = (uint16 *) pData;
2100:.\Generated_Source\PSoC4/USBFS.c **** 
2101:.\Generated_Source\PSoC4/USBFS.c ****             /* Copy data using 16-bits arbiter data register. */
2102:.\Generated_Source\PSoC4/USBFS.c ****             uint16 i;
2103:.\Generated_Source\PSoC4/USBFS.c ****             for (i = 0u; i < (adjLength >> 1u); ++i)
2104:.\Generated_Source\PSoC4/USBFS.c ****             {
2105:.\Generated_Source\PSoC4/USBFS.c ****                 dataBuf[i] = (uint16) USBFS_ARB_EP16_BASE.arbEp[epNumber].rwDr16;
2106:.\Generated_Source\PSoC4/USBFS.c ****             }
2107:.\Generated_Source\PSoC4/USBFS.c ****         }
2108:.\Generated_Source\PSoC4/USBFS.c **** 
2109:.\Generated_Source\PSoC4/USBFS.c ****         /* Arm OUT endpoint after data has been read from endpoint buffer. */
2110:.\Generated_Source\PSoC4/USBFS.c ****         USBFS_EnableOutEP(epNumber);
2111:.\Generated_Source\PSoC4/USBFS.c ****     #else
2112:.\Generated_Source\PSoC4/USBFS.c **** 
2113:.\Generated_Source\PSoC4/USBFS.c ****         #if (USBFS_EP_MANAGEMENT_DMA_MANUAL)
2114:.\Generated_Source\PSoC4/USBFS.c ****         {
2115:.\Generated_Source\PSoC4/USBFS.c ****             uint32 channelNum = (uint32) USBFS_DmaChan[epNumber];
 1339              		.loc 1 2115 0 discriminator 4
 1340 003c 184B     		ldr	r3, .L86
 1341 003e 1B5D     		ldrb	r3, [r3, r4]
 1342              	.LVL101:
2116:.\Generated_Source\PSoC4/USBFS.c **** 
2117:.\Generated_Source\PSoC4/USBFS.c ****             /* Disable DMA channel: start configuration. */
2118:.\Generated_Source\PSoC4/USBFS.c ****             USBFS_CyDmaChDisable(channelNum);
 1343              		.loc 1 2118 0 discriminator 4
 1344 0040 1849     		ldr	r1, .L86+4
 1345 0042 9800     		lsl	r0, r3, #2
 1346 0044 4758     		ldr	r7, [r0, r1]
 1347 0046 7F00     		lsl	r7, r7, #1
 1348 0048 7F08     		lsr	r7, r7, #1
 1349 004a 4750     		str	r7, [r0, r1]
2119:.\Generated_Source\PSoC4/USBFS.c **** 
2120:.\Generated_Source\PSoC4/USBFS.c ****             /* Configure source and destination. */
2121:.\Generated_Source\PSoC4/USBFS.c ****             USBFS_CyDmaSetSrcAddress(channelNum, USBFS_DMA_DESCR0, (void*) &USBFS_ARB_EP16_BASE.arb
 1350              		.loc 1 2121 0 discriminator 4
 1351 004c A401     		lsl	r4, r4, #6
 1352 004e 164F     		ldr	r7, .L86+8
 1353 0050 BC46     		mov	ip, r7
 1354 0052 A444     		add	ip, ip, r4
 1355 0054 5B01     		lsl	r3, r3, #5
 1356              	.LVL102:
 1357 0056 154F     		ldr	r7, .L86+12
ARM GAS  C:\Users\LAIR\AppData\Local\Temp\ccdy23dh.s 			page 64


 1358 0058 6246     		mov	r2, ip
 1359 005a DA51     		str	r2, [r3, r7]
2122:.\Generated_Source\PSoC4/USBFS.c ****             USBFS_CyDmaSetDstAddress(channelNum, USBFS_DMA_DESCR0, (void*) pData);
 1360              		.loc 1 2122 0 discriminator 4
 1361 005c BC46     		mov	ip, r7
 1362 005e 6344     		add	r3, r3, ip
 1363 0060 5E60     		str	r6, [r3, #4]
2123:.\Generated_Source\PSoC4/USBFS.c **** 
2124:.\Generated_Source\PSoC4/USBFS.c ****             /* Configure DMA descriptor. */
2125:.\Generated_Source\PSoC4/USBFS.c ****             USBFS_CyDmaSetConfiguration(channelNum, USBFS_DMA_DESCR0, USBFS_DMA_COMMON_CFG | (uint1
 1364              		.loc 1 2125 0 discriminator 4
 1365 0062 4246     		mov	r2, r8
 1366 0064 5208     		lsr	r2, r2, #1
 1367 0066 013A     		sub	r2, r2, #1
 1368 0068 92B2     		uxth	r2, r2
 1369 006a 114E     		ldr	r6, .L86+16
 1370              	.LVL103:
 1371 006c 3243     		orr	r2, r6
 1372 006e 9A60     		str	r2, [r3, #8]
 1373              	.LVL104:
2126:.\Generated_Source\PSoC4/USBFS.c ****                                                     CYDMA_HALFWORD | CYDMA_WORD_ELEMENT | CYDMA_INC
2127:.\Generated_Source\PSoC4/USBFS.c **** 
2128:.\Generated_Source\PSoC4/USBFS.c ****             /* Validate descriptor to execute on following DMA request. */
2129:.\Generated_Source\PSoC4/USBFS.c ****             USBFS_CyDmaValidateDescriptor(channelNum, USBFS_DMA_DESCR0);
 1374              		.loc 1 2129 0 discriminator 4
 1375 0070 8022     		mov	r2, #128
 1376 0072 1206     		lsl	r2, r2, #24
 1377 0074 DA60     		str	r2, [r3, #12]
2130:.\Generated_Source\PSoC4/USBFS.c **** 
2131:.\Generated_Source\PSoC4/USBFS.c ****             /* Enable DMA channel: configuration complete. */
2132:.\Generated_Source\PSoC4/USBFS.c ****             USBFS_CyDmaChEnable(channelNum);
 1378              		.loc 1 2132 0 discriminator 4
 1379 0076 4358     		ldr	r3, [r0, r1]
 1380 0078 1343     		orr	r3, r2
 1381 007a 4350     		str	r3, [r0, r1]
2133:.\Generated_Source\PSoC4/USBFS.c **** 
2134:.\Generated_Source\PSoC4/USBFS.c ****             /* Generate DMA request. */
2135:.\Generated_Source\PSoC4/USBFS.c ****             USBFS_ARB_EP_BASE.arbEp[epNumber].epCfg |=  (uint32)  USBFS_ARB_EPX_CFG_DMA_REQ;
 1382              		.loc 1 2135 0 discriminator 4
 1383 007c 0D4B     		ldr	r3, .L86+20
 1384 007e E258     		ldr	r2, [r4, r3]
 1385 0080 0221     		mov	r1, #2
 1386 0082 0A43     		orr	r2, r1
 1387 0084 E250     		str	r2, [r4, r3]
2136:.\Generated_Source\PSoC4/USBFS.c ****             USBFS_ARB_EP_BASE.arbEp[epNumber].epCfg &=  (uint32) ~USBFS_ARB_EPX_CFG_DMA_REQ;
 1388              		.loc 1 2136 0 discriminator 4
 1389 0086 E258     		ldr	r2, [r4, r3]
 1390 0088 8A43     		bic	r2, r1
 1391 008a E250     		str	r2, [r4, r3]
 1392              	.LBE5:
2114:.\Generated_Source\PSoC4/USBFS.c ****             uint32 channelNum = (uint32) USBFS_DmaChan[epNumber];
 1393              		.loc 1 2114 0 discriminator 4
 1394 008c 04E0     		b	.L81
 1395              	.LVL105:
 1396              	.L83:
2137:.\Generated_Source\PSoC4/USBFS.c **** 
2138:.\Generated_Source\PSoC4/USBFS.c ****             /* OUT endpoint has to be armed again by user when DMA transfers have been completed.
ARM GAS  C:\Users\LAIR\AppData\Local\Temp\ccdy23dh.s 			page 65


2139:.\Generated_Source\PSoC4/USBFS.c ****             * NO_EVENT_PENDING: notifies that data has been copied from endpoint buffer.
2140:.\Generated_Source\PSoC4/USBFS.c ****             */
2141:.\Generated_Source\PSoC4/USBFS.c ****         }
2142:.\Generated_Source\PSoC4/USBFS.c ****         #endif /* (USBFS_EP_MANAGEMENT_DMA_MANUAL) */
2143:.\Generated_Source\PSoC4/USBFS.c **** 
2144:.\Generated_Source\PSoC4/USBFS.c ****         #if (USBFS_EP_MANAGEMENT_DMA_AUTO)
2145:.\Generated_Source\PSoC4/USBFS.c ****         {
2146:.\Generated_Source\PSoC4/USBFS.c ****             uint32 lengthDescr0, lengthDescr1;
2147:.\Generated_Source\PSoC4/USBFS.c ****             uint32 channelNum = (uint32) USBFS_DmaChan[epNumber];
2148:.\Generated_Source\PSoC4/USBFS.c **** 
2149:.\Generated_Source\PSoC4/USBFS.c ****             /* Get number of full bursts. */
2150:.\Generated_Source\PSoC4/USBFS.c ****             USBFS_DmaEpBurstCnt[epNumber] = (uint8) (adjLength / USBFS_DMA_BYTES_PER_BURST);
2151:.\Generated_Source\PSoC4/USBFS.c **** 
2152:.\Generated_Source\PSoC4/USBFS.c ****             /* Get number of elements in last burst. */
2153:.\Generated_Source\PSoC4/USBFS.c ****             USBFS_DmaEpLastBurstEl[epNumber] = (uint8) (adjLength % USBFS_DMA_BYTES_PER_BURST);
2154:.\Generated_Source\PSoC4/USBFS.c **** 
2155:.\Generated_Source\PSoC4/USBFS.c ****             /* Get total number of bursts. */
2156:.\Generated_Source\PSoC4/USBFS.c ****             USBFS_DmaEpBurstCnt[epNumber] += (0u != USBFS_DmaEpLastBurstEl[epNumber]) ? 1u : 0u;
2157:.\Generated_Source\PSoC4/USBFS.c **** 
2158:.\Generated_Source\PSoC4/USBFS.c ****             /* Adjust number of data elements transferred in last burst. */
2159:.\Generated_Source\PSoC4/USBFS.c ****             USBFS_DmaEpLastBurstEl[epNumber] = (0u != USBFS_DmaEpLastBurstEl[epNumber]) ?
2160:.\Generated_Source\PSoC4/USBFS.c ****                                                                   ((USBFS_DmaEpLastBurstEl[epNumber
2161:.\Generated_Source\PSoC4/USBFS.c ****                                                                    (USBFS_DMA_HALFWORDS_PER_BURST -
2162:.\Generated_Source\PSoC4/USBFS.c **** 
2163:.\Generated_Source\PSoC4/USBFS.c ****             /* Get number of data elements to transfer for descriptor 0 and 1. */
2164:.\Generated_Source\PSoC4/USBFS.c ****             lengthDescr0 = (1u == USBFS_DmaEpBurstCnt[epNumber]) ? USBFS_DmaEpLastBurstEl[epNumber]
2165:.\Generated_Source\PSoC4/USBFS.c ****             lengthDescr1 = (2u == USBFS_DmaEpBurstCnt[epNumber]) ? USBFS_DmaEpLastBurstEl[epNumber]
2166:.\Generated_Source\PSoC4/USBFS.c **** 
2167:.\Generated_Source\PSoC4/USBFS.c ****             /* Mark last descriptor to be executed. */
2168:.\Generated_Source\PSoC4/USBFS.c ****             USBFS_DmaEpLastBurstEl[epNumber] |= (0u != (USBFS_DmaEpBurstCnt[epNumber] & 0x1u)) ?
2169:.\Generated_Source\PSoC4/USBFS.c ****                                                                     USBFS_DMA_DESCR0_MASK : USBFS_D
2170:.\Generated_Source\PSoC4/USBFS.c **** 
2171:.\Generated_Source\PSoC4/USBFS.c ****             /* Mark if revert number of data elements in descriptor after transfer completion. */
2172:.\Generated_Source\PSoC4/USBFS.c ****             USBFS_DmaEpLastBurstEl[epNumber] |= (USBFS_DmaEpBurstCnt[epNumber] > 2u) ? USBFS_DMA_DE
2173:.\Generated_Source\PSoC4/USBFS.c **** 
2174:.\Generated_Source\PSoC4/USBFS.c ****             /* Mark that 16-bits access to data register is performed. */
2175:.\Generated_Source\PSoC4/USBFS.c ****             USBFS_DmaEpLastBurstEl[epNumber] |= USBFS_DMA_DESCR_16BITS;
2176:.\Generated_Source\PSoC4/USBFS.c **** 
2177:.\Generated_Source\PSoC4/USBFS.c ****             /* Adjust burst counter taking to account: 2 valid descriptors and interrupt trigger af
2178:.\Generated_Source\PSoC4/USBFS.c ****             USBFS_DmaEpBurstCnt[epNumber] = USBFS_DMA_GET_BURST_CNT(USBFS_DmaEpBurstCnt[epNumber]);
2179:.\Generated_Source\PSoC4/USBFS.c **** 
2180:.\Generated_Source\PSoC4/USBFS.c ****             /* Store address of buffer and burst counter for endpoint. */
2181:.\Generated_Source\PSoC4/USBFS.c ****             USBFS_DmaEpBufferAddrBackup[epNumber] = (uint32) pData;
2182:.\Generated_Source\PSoC4/USBFS.c ****             USBFS_DmaEpBurstCntBackup[epNumber]   = USBFS_DmaEpBurstCnt[epNumber];
2183:.\Generated_Source\PSoC4/USBFS.c **** 
2184:.\Generated_Source\PSoC4/USBFS.c ****             /* Disable DMA channel: start configuration. */
2185:.\Generated_Source\PSoC4/USBFS.c ****             USBFS_CyDmaChDisable(channelNum);
2186:.\Generated_Source\PSoC4/USBFS.c **** 
2187:.\Generated_Source\PSoC4/USBFS.c ****             /* Set destination address. */
2188:.\Generated_Source\PSoC4/USBFS.c ****             USBFS_CyDmaSetSrcAddress(channelNum, USBFS_DMA_DESCR0, (void*) &USBFS_ARB_EP16_BASE.arb
2189:.\Generated_Source\PSoC4/USBFS.c ****             USBFS_CyDmaSetSrcAddress(channelNum, USBFS_DMA_DESCR1, (void*) &USBFS_ARB_EP16_BASE.arb
2190:.\Generated_Source\PSoC4/USBFS.c **** 
2191:.\Generated_Source\PSoC4/USBFS.c ****             USBFS_CyDmaSetDstAddress(channelNum, USBFS_DMA_DESCR0, (void*) ((uint32) pData));
2192:.\Generated_Source\PSoC4/USBFS.c ****             USBFS_CyDmaSetDstAddress(channelNum, USBFS_DMA_DESCR1, (void*) ((uint32) pData + USBFS_
2193:.\Generated_Source\PSoC4/USBFS.c **** 
2194:.\Generated_Source\PSoC4/USBFS.c ****             /* Configure DMA descriptor 0. */
2195:.\Generated_Source\PSoC4/USBFS.c ****             USBFS_CyDmaSetConfiguration(channelNum, USBFS_DMA_DESCR0, USBFS_DMA_COMMON_CFG  | lengt
ARM GAS  C:\Users\LAIR\AppData\Local\Temp\ccdy23dh.s 			page 66


2196:.\Generated_Source\PSoC4/USBFS.c ****                                                     CYDMA_HALFWORD | CYDMA_WORD_ELEMENT | CYDMA_INC
2197:.\Generated_Source\PSoC4/USBFS.c **** 
2198:.\Generated_Source\PSoC4/USBFS.c ****             /* Configure DMA descriptor 1. */
2199:.\Generated_Source\PSoC4/USBFS.c ****             USBFS_CyDmaSetConfiguration(channelNum, USBFS_DMA_DESCR1, USBFS_DMA_COMMON_CFG  | lengt
2200:.\Generated_Source\PSoC4/USBFS.c ****                                                     CYDMA_HALFWORD | CYDMA_WORD_ELEMENT | CYDMA_INC
2201:.\Generated_Source\PSoC4/USBFS.c **** 
2202:.\Generated_Source\PSoC4/USBFS.c ****             /* Enable interrupt from DMA channel. */
2203:.\Generated_Source\PSoC4/USBFS.c ****             USBFS_CyDmaSetInterruptMask(channelNum);
2204:.\Generated_Source\PSoC4/USBFS.c **** 
2205:.\Generated_Source\PSoC4/USBFS.c ****             /* Validate DMA descriptor 0 and 1. */
2206:.\Generated_Source\PSoC4/USBFS.c ****             USBFS_CyDmaValidateDescriptor(channelNum, USBFS_DMA_DESCR0);
2207:.\Generated_Source\PSoC4/USBFS.c ****             USBFS_CyDmaValidateDescriptor(channelNum, USBFS_DMA_DESCR1);
2208:.\Generated_Source\PSoC4/USBFS.c **** 
2209:.\Generated_Source\PSoC4/USBFS.c ****             /* Enable DMA channel: configuration complete. */
2210:.\Generated_Source\PSoC4/USBFS.c ****             USBFS_CyDmaChEnable(channelNum);
2211:.\Generated_Source\PSoC4/USBFS.c **** 
2212:.\Generated_Source\PSoC4/USBFS.c ****             /* OUT endpoint has to be armed again by user when DMA transfers have been completed.
2213:.\Generated_Source\PSoC4/USBFS.c ****             * NO_EVENT_PENDING: notifies that data has been copied from endpoint buffer.
2214:.\Generated_Source\PSoC4/USBFS.c ****             */
2215:.\Generated_Source\PSoC4/USBFS.c ****         }
2216:.\Generated_Source\PSoC4/USBFS.c ****         #endif /* (USBFS_EP_MANAGEMENT_DMA_AUTO) */
2217:.\Generated_Source\PSoC4/USBFS.c ****     #endif /* (USBFS_EP_MANAGEMENT_MANUAL) */
2218:.\Generated_Source\PSoC4/USBFS.c ****     }
2219:.\Generated_Source\PSoC4/USBFS.c ****     else
2220:.\Generated_Source\PSoC4/USBFS.c ****     {
2221:.\Generated_Source\PSoC4/USBFS.c ****         length = 0u;
 1397              		.loc 1 2221 0
 1398 008e 0025     		mov	r5, #0
 1399 0090 02E0     		b	.L81
 1400              	.L84:
 1401 0092 0025     		mov	r5, #0
 1402 0094 00E0     		b	.L81
 1403              	.L85:
 1404 0096 0025     		mov	r5, #0
 1405              	.LVL106:
 1406              	.L81:
2222:.\Generated_Source\PSoC4/USBFS.c ****     }
2223:.\Generated_Source\PSoC4/USBFS.c **** 
2224:.\Generated_Source\PSoC4/USBFS.c ****     return (length);
2225:.\Generated_Source\PSoC4/USBFS.c **** }
 1407              		.loc 1 2225 0
 1408 0098 281C     		mov	r0, r5
 1409              		@ sp needed
 1410              	.LVL107:
 1411 009a 04BC     		pop	{r2}
 1412 009c 9046     		mov	r8, r2
 1413 009e F0BD     		pop	{r4, r5, r6, r7, pc}
 1414              	.L87:
 1415              		.align	2
 1416              	.L86:
 1417 00a0 00000000 		.word	.LANCHOR1
 1418 00a4 80101040 		.word	1074794624
 1419 00a8 E0112C40 		.word	1076629984
 1420 00ac 00181040 		.word	1074796544
 1421 00b0 00006154 		.word	1415643136
 1422 00b4 C0012C40 		.word	1076625856
 1423              		.cfi_endproc
ARM GAS  C:\Users\LAIR\AppData\Local\Temp\ccdy23dh.s 			page 67


 1424              	.LFE81:
 1425              		.size	USBFS_ReadOutEP16, .-USBFS_ReadOutEP16
 1426              		.section	.text.USBFS_EnableOutEP,"ax",%progbits
 1427              		.align	2
 1428              		.global	USBFS_EnableOutEP
 1429              		.code	16
 1430              		.thumb_func
 1431              		.type	USBFS_EnableOutEP, %function
 1432              	USBFS_EnableOutEP:
 1433              	.LFB82:
2226:.\Generated_Source\PSoC4/USBFS.c **** #endif /* (USBFS_16BITS_EP_ACCESS_ENABLE) */
2227:.\Generated_Source\PSoC4/USBFS.c **** 
2228:.\Generated_Source\PSoC4/USBFS.c **** 
2229:.\Generated_Source\PSoC4/USBFS.c **** /*******************************************************************************
2230:.\Generated_Source\PSoC4/USBFS.c **** * Function Name: USBFS_EnableOutEP
2231:.\Generated_Source\PSoC4/USBFS.c **** ****************************************************************************//**
2232:.\Generated_Source\PSoC4/USBFS.c **** *
2233:.\Generated_Source\PSoC4/USBFS.c **** *  This function enables the specified endpoint for OUT transfers. Do not call
2234:.\Generated_Source\PSoC4/USBFS.c **** *  this function for IN endpoints.
2235:.\Generated_Source\PSoC4/USBFS.c **** *
2236:.\Generated_Source\PSoC4/USBFS.c **** *  \param epNumber: Contains the data endpoint number. Valid values are between
2237:.\Generated_Source\PSoC4/USBFS.c **** *  1 and 8.
2238:.\Generated_Source\PSoC4/USBFS.c **** *
2239:.\Generated_Source\PSoC4/USBFS.c **** * \globalvars
2240:.\Generated_Source\PSoC4/USBFS.c **** *
2241:.\Generated_Source\PSoC4/USBFS.c **** *  \ref USBFS_EP[epNumber].apiEpState - set to NO_EVENT_PENDING
2242:.\Generated_Source\PSoC4/USBFS.c **** *
2243:.\Generated_Source\PSoC4/USBFS.c **** * \reentrant
2244:.\Generated_Source\PSoC4/USBFS.c **** *  No.
2245:.\Generated_Source\PSoC4/USBFS.c **** *
2246:.\Generated_Source\PSoC4/USBFS.c **** *******************************************************************************/
2247:.\Generated_Source\PSoC4/USBFS.c **** void USBFS_EnableOutEP(uint8 epNumber) 
2248:.\Generated_Source\PSoC4/USBFS.c **** {
 1434              		.loc 1 2248 0
 1435              		.cfi_startproc
 1436              	.LVL108:
2249:.\Generated_Source\PSoC4/USBFS.c ****     if ((epNumber > USBFS_EP0) && (epNumber < USBFS_MAX_EP))
 1437              		.loc 1 2249 0
 1438 0000 431E     		sub	r3, r0, #1
 1439 0002 072B     		cmp	r3, #7
 1440 0004 0DD8     		bhi	.L88
2250:.\Generated_Source\PSoC4/USBFS.c ****     {
2251:.\Generated_Source\PSoC4/USBFS.c ****         USBFS_EP[epNumber].apiEpState = USBFS_NO_EVENT_PENDING;
 1441              		.loc 1 2251 0
 1442 0006 4300     		lsl	r3, r0, #1
 1443 0008 1B18     		add	r3, r3, r0
 1444 000a 9B00     		lsl	r3, r3, #2
 1445 000c 054A     		ldr	r2, .L90
 1446 000e D318     		add	r3, r2, r3
 1447 0010 0022     		mov	r2, #0
 1448 0012 5A70     		strb	r2, [r3, #1]
2252:.\Generated_Source\PSoC4/USBFS.c **** 
2253:.\Generated_Source\PSoC4/USBFS.c ****         /* Enable OUT endpoint to be written by Host. */
2254:.\Generated_Source\PSoC4/USBFS.c ****         USBFS_SIE_EP_BASE.sieEp[epNumber].epCr0 = USBFS_EP[epNumber].epMode;
 1449              		.loc 1 2254 0
 1450 0014 5B79     		ldrb	r3, [r3, #5]
 1451 0016 DBB2     		uxtb	r3, r3
ARM GAS  C:\Users\LAIR\AppData\Local\Temp\ccdy23dh.s 			page 68


 1452 0018 8001     		lsl	r0, r0, #6
 1453              	.LVL109:
 1454 001a 034A     		ldr	r2, .L90+4
 1455 001c 9446     		mov	ip, r2
 1456 001e 6044     		add	r0, r0, ip
 1457 0020 8360     		str	r3, [r0, #8]
 1458              	.L88:
2255:.\Generated_Source\PSoC4/USBFS.c ****         
2256:.\Generated_Source\PSoC4/USBFS.c ****     }
2257:.\Generated_Source\PSoC4/USBFS.c **** }
 1459              		.loc 1 2257 0
 1460              		@ sp needed
 1461 0022 7047     		bx	lr
 1462              	.L91:
 1463              		.align	2
 1464              	.L90:
 1465 0024 00000000 		.word	USBFS_EP
 1466 0028 F0FF2B40 		.word	1076625392
 1467              		.cfi_endproc
 1468              	.LFE82:
 1469              		.size	USBFS_EnableOutEP, .-USBFS_EnableOutEP
 1470              		.section	.text.USBFS_DisableOutEP,"ax",%progbits
 1471              		.align	2
 1472              		.global	USBFS_DisableOutEP
 1473              		.code	16
 1474              		.thumb_func
 1475              		.type	USBFS_DisableOutEP, %function
 1476              	USBFS_DisableOutEP:
 1477              	.LFB83:
2258:.\Generated_Source\PSoC4/USBFS.c **** 
2259:.\Generated_Source\PSoC4/USBFS.c **** 
2260:.\Generated_Source\PSoC4/USBFS.c **** /*******************************************************************************
2261:.\Generated_Source\PSoC4/USBFS.c **** * Function Name: USBFS_DisableOutEP
2262:.\Generated_Source\PSoC4/USBFS.c **** ****************************************************************************//**
2263:.\Generated_Source\PSoC4/USBFS.c **** *
2264:.\Generated_Source\PSoC4/USBFS.c **** *  This function disables the specified USBFS OUT endpoint. Do not call this
2265:.\Generated_Source\PSoC4/USBFS.c **** *  function for IN endpoints.
2266:.\Generated_Source\PSoC4/USBFS.c **** *
2267:.\Generated_Source\PSoC4/USBFS.c **** *  \param epNumber: Contains the data endpoint number.
2268:.\Generated_Source\PSoC4/USBFS.c **** *            Valid values are between 1 and 8.
2269:.\Generated_Source\PSoC4/USBFS.c **** *
2270:.\Generated_Source\PSoC4/USBFS.c **** *******************************************************************************/
2271:.\Generated_Source\PSoC4/USBFS.c **** void USBFS_DisableOutEP(uint8 epNumber) 
2272:.\Generated_Source\PSoC4/USBFS.c **** {
 1478              		.loc 1 2272 0
 1479              		.cfi_startproc
 1480              	.LVL110:
2273:.\Generated_Source\PSoC4/USBFS.c ****     if ((epNumber > USBFS_EP0) && (epNumber < USBFS_MAX_EP))
 1481              		.loc 1 2273 0
 1482 0000 431E     		sub	r3, r0, #1
 1483 0002 072B     		cmp	r3, #7
 1484 0004 05D8     		bhi	.L92
2274:.\Generated_Source\PSoC4/USBFS.c ****     {
2275:.\Generated_Source\PSoC4/USBFS.c ****         /* Set NAK response for OUT endpoint. */
2276:.\Generated_Source\PSoC4/USBFS.c ****         USBFS_SIE_EP_BASE.sieEp[epNumber].epCr0 = USBFS_MODE_NAK_OUT;
 1485              		.loc 1 2276 0
 1486 0006 8001     		lsl	r0, r0, #6
ARM GAS  C:\Users\LAIR\AppData\Local\Temp\ccdy23dh.s 			page 69


 1487              	.LVL111:
 1488 0008 024B     		ldr	r3, .L94
 1489 000a 9C46     		mov	ip, r3
 1490 000c 6044     		add	r0, r0, ip
 1491 000e 0823     		mov	r3, #8
 1492 0010 8360     		str	r3, [r0, #8]
 1493              	.L92:
2277:.\Generated_Source\PSoC4/USBFS.c ****     }
2278:.\Generated_Source\PSoC4/USBFS.c **** }
 1494              		.loc 1 2278 0
 1495              		@ sp needed
 1496 0012 7047     		bx	lr
 1497              	.L95:
 1498              		.align	2
 1499              	.L94:
 1500 0014 F0FF2B40 		.word	1076625392
 1501              		.cfi_endproc
 1502              	.LFE83:
 1503              		.size	USBFS_DisableOutEP, .-USBFS_DisableOutEP
 1504              		.section	.text.USBFS_Force,"ax",%progbits
 1505              		.align	2
 1506              		.global	USBFS_Force
 1507              		.code	16
 1508              		.thumb_func
 1509              		.type	USBFS_Force, %function
 1510              	USBFS_Force:
 1511              	.LFB84:
2279:.\Generated_Source\PSoC4/USBFS.c **** 
2280:.\Generated_Source\PSoC4/USBFS.c **** 
2281:.\Generated_Source\PSoC4/USBFS.c **** /*******************************************************************************
2282:.\Generated_Source\PSoC4/USBFS.c **** * Function Name: USBFS_Force
2283:.\Generated_Source\PSoC4/USBFS.c **** ****************************************************************************//**
2284:.\Generated_Source\PSoC4/USBFS.c **** *
2285:.\Generated_Source\PSoC4/USBFS.c **** *  This function forces a USB J, K, or SE0 state on the D+/D– lines. It provides
2286:.\Generated_Source\PSoC4/USBFS.c **** *  the necessary mechanism for a USB device application to perform a USB Remote
2287:.\Generated_Source\PSoC4/USBFS.c **** *  Wakeup. For more information, see the USB 2.0 Specification for details on
2288:.\Generated_Source\PSoC4/USBFS.c **** *  Suspend and Resume.
2289:.\Generated_Source\PSoC4/USBFS.c **** *
2290:.\Generated_Source\PSoC4/USBFS.c **** *  \param state A byte indicating which of the four bus states to enable.
2291:.\Generated_Source\PSoC4/USBFS.c **** *        Symbolic names  and their associated values are listed here:
2292:.\Generated_Source\PSoC4/USBFS.c **** *    State                      |Description
2293:.\Generated_Source\PSoC4/USBFS.c **** *    ---------------------------|----------------------------------------------
2294:.\Generated_Source\PSoC4/USBFS.c **** *    USBFS_FORCE_J   | Force a J State onto the D+/D– lines
2295:.\Generated_Source\PSoC4/USBFS.c **** *    USBFS_FORCE_K   | Force a K State onto the D+/D– lines
2296:.\Generated_Source\PSoC4/USBFS.c **** *    USBFS_FORCE_SE0 | Force a Single Ended 0 onto the D+/D– lines
2297:.\Generated_Source\PSoC4/USBFS.c **** *    USBFS_FORCE_NONE| Return bus to SIE control
2298:.\Generated_Source\PSoC4/USBFS.c **** *
2299:.\Generated_Source\PSoC4/USBFS.c **** *
2300:.\Generated_Source\PSoC4/USBFS.c **** *******************************************************************************/
2301:.\Generated_Source\PSoC4/USBFS.c **** void USBFS_Force(uint8 bState) 
2302:.\Generated_Source\PSoC4/USBFS.c **** {
 1512              		.loc 1 2302 0
 1513              		.cfi_startproc
 1514              	.LVL112:
2303:.\Generated_Source\PSoC4/USBFS.c ****     /* This registers is used only for manual control of SIE (no masking is
2304:.\Generated_Source\PSoC4/USBFS.c ****     * needed before write into it).
2305:.\Generated_Source\PSoC4/USBFS.c ****     */
ARM GAS  C:\Users\LAIR\AppData\Local\Temp\ccdy23dh.s 			page 70


2306:.\Generated_Source\PSoC4/USBFS.c ****     USBFS_USBIO_CR0_REG = bState;
 1515              		.loc 1 2306 0
 1516 0000 014B     		ldr	r3, .L97
 1517 0002 1860     		str	r0, [r3]
2307:.\Generated_Source\PSoC4/USBFS.c **** }
 1518              		.loc 1 2307 0
 1519              		@ sp needed
 1520 0004 7047     		bx	lr
 1521              	.L98:
 1522 0006 C046     		.align	2
 1523              	.L97:
 1524 0008 40002C40 		.word	1076625472
 1525              		.cfi_endproc
 1526              	.LFE84:
 1527              		.size	USBFS_Force, .-USBFS_Force
 1528              		.section	.text.USBFS_GetEPAckState,"ax",%progbits
 1529              		.align	2
 1530              		.global	USBFS_GetEPAckState
 1531              		.code	16
 1532              		.thumb_func
 1533              		.type	USBFS_GetEPAckState, %function
 1534              	USBFS_GetEPAckState:
 1535              	.LFB85:
2308:.\Generated_Source\PSoC4/USBFS.c **** 
2309:.\Generated_Source\PSoC4/USBFS.c **** 
2310:.\Generated_Source\PSoC4/USBFS.c **** /*******************************************************************************
2311:.\Generated_Source\PSoC4/USBFS.c **** * Function Name: USBFS_GetEPAckState
2312:.\Generated_Source\PSoC4/USBFS.c **** ****************************************************************************//**
2313:.\Generated_Source\PSoC4/USBFS.c **** *
2314:.\Generated_Source\PSoC4/USBFS.c **** *  This function determines whether an ACK transaction occurred on this endpoint
2315:.\Generated_Source\PSoC4/USBFS.c **** *  by reading the ACK bit in the control register of the endpoint. It does not
2316:.\Generated_Source\PSoC4/USBFS.c **** *  clear the ACK bit.
2317:.\Generated_Source\PSoC4/USBFS.c **** *
2318:.\Generated_Source\PSoC4/USBFS.c **** *  \param epNumber Contains the data endpoint number.
2319:.\Generated_Source\PSoC4/USBFS.c **** *            Valid values are between 1 and 8.
2320:.\Generated_Source\PSoC4/USBFS.c **** *
2321:.\Generated_Source\PSoC4/USBFS.c **** *  \return
2322:.\Generated_Source\PSoC4/USBFS.c **** *  If an ACKed transaction occurred, this function returns a non-zero value.
2323:.\Generated_Source\PSoC4/USBFS.c **** *  Otherwise, it returns zero.
2324:.\Generated_Source\PSoC4/USBFS.c **** *
2325:.\Generated_Source\PSoC4/USBFS.c **** *******************************************************************************/
2326:.\Generated_Source\PSoC4/USBFS.c **** uint8 USBFS_GetEPAckState(uint8 epNumber) 
2327:.\Generated_Source\PSoC4/USBFS.c **** {
 1536              		.loc 1 2327 0
 1537              		.cfi_startproc
 1538              	.LVL113:
2328:.\Generated_Source\PSoC4/USBFS.c ****     uint32 cr = 0u;
2329:.\Generated_Source\PSoC4/USBFS.c **** 
2330:.\Generated_Source\PSoC4/USBFS.c ****     if ((epNumber > USBFS_EP0) && (epNumber < USBFS_MAX_EP))
 1539              		.loc 1 2330 0
 1540 0000 431E     		sub	r3, r0, #1
 1541 0002 072B     		cmp	r3, #7
 1542 0004 07D8     		bhi	.L101
2331:.\Generated_Source\PSoC4/USBFS.c ****     {
2332:.\Generated_Source\PSoC4/USBFS.c ****         cr = USBFS_SIE_EP_BASE.sieEp[epNumber].epCr0 & USBFS_MODE_ACKD;
 1543              		.loc 1 2332 0
 1544 0006 8001     		lsl	r0, r0, #6
ARM GAS  C:\Users\LAIR\AppData\Local\Temp\ccdy23dh.s 			page 71


 1545              	.LVL114:
 1546 0008 044B     		ldr	r3, .L102
 1547 000a 9C46     		mov	ip, r3
 1548 000c 6044     		add	r0, r0, ip
 1549 000e 8368     		ldr	r3, [r0, #8]
 1550 0010 1020     		mov	r0, #16
 1551 0012 1840     		and	r0, r3
 1552              	.LVL115:
 1553 0014 00E0     		b	.L100
 1554              	.LVL116:
 1555              	.L101:
2328:.\Generated_Source\PSoC4/USBFS.c ****     uint32 cr = 0u;
 1556              		.loc 1 2328 0
 1557 0016 0020     		mov	r0, #0
 1558              	.LVL117:
 1559              	.L100:
2333:.\Generated_Source\PSoC4/USBFS.c ****     }
2334:.\Generated_Source\PSoC4/USBFS.c **** 
2335:.\Generated_Source\PSoC4/USBFS.c ****     return ((uint8) cr);
 1560              		.loc 1 2335 0
 1561 0018 C0B2     		uxtb	r0, r0
 1562              	.LVL118:
2336:.\Generated_Source\PSoC4/USBFS.c **** }
 1563              		.loc 1 2336 0
 1564              		@ sp needed
 1565 001a 7047     		bx	lr
 1566              	.L103:
 1567              		.align	2
 1568              	.L102:
 1569 001c F0FF2B40 		.word	1076625392
 1570              		.cfi_endproc
 1571              	.LFE85:
 1572              		.size	USBFS_GetEPAckState, .-USBFS_GetEPAckState
 1573              		.section	.text.USBFS_SetPowerStatus,"ax",%progbits
 1574              		.align	2
 1575              		.global	USBFS_SetPowerStatus
 1576              		.code	16
 1577              		.thumb_func
 1578              		.type	USBFS_SetPowerStatus, %function
 1579              	USBFS_SetPowerStatus:
 1580              	.LFB86:
2337:.\Generated_Source\PSoC4/USBFS.c **** 
2338:.\Generated_Source\PSoC4/USBFS.c **** 
2339:.\Generated_Source\PSoC4/USBFS.c **** /*******************************************************************************
2340:.\Generated_Source\PSoC4/USBFS.c **** * Function Name: USBFS_SetPowerStatus
2341:.\Generated_Source\PSoC4/USBFS.c **** ****************************************************************************//**
2342:.\Generated_Source\PSoC4/USBFS.c **** *
2343:.\Generated_Source\PSoC4/USBFS.c **** *  This function sets the current power status. The device replies to USB
2344:.\Generated_Source\PSoC4/USBFS.c **** *  GET_STATUS requests based on this value. This allows the device to properly
2345:.\Generated_Source\PSoC4/USBFS.c **** *  report its status for USB Chapter 9 compliance. Devices can change their
2346:.\Generated_Source\PSoC4/USBFS.c **** *  power source from self powered to bus powered at any time and report their
2347:.\Generated_Source\PSoC4/USBFS.c **** *  current power source as part of the device status. You should call this
2348:.\Generated_Source\PSoC4/USBFS.c **** *  function any time your device changes from self powered to bus powered or
2349:.\Generated_Source\PSoC4/USBFS.c **** *  vice versa, and set the status appropriately.
2350:.\Generated_Source\PSoC4/USBFS.c **** *
2351:.\Generated_Source\PSoC4/USBFS.c **** *  \param powerStatus: Contains the desired power status, one for self powered
2352:.\Generated_Source\PSoC4/USBFS.c **** *        or zero for bus powered. Symbolic names and their associated values are
ARM GAS  C:\Users\LAIR\AppData\Local\Temp\ccdy23dh.s 			page 72


2353:.\Generated_Source\PSoC4/USBFS.c **** *        given here:
2354:.\Generated_Source\PSoC4/USBFS.c **** *  Power Status                                |Description
2355:.\Generated_Source\PSoC4/USBFS.c **** *  --------------------------------------------|---------------------------
2356:.\Generated_Source\PSoC4/USBFS.c **** *  USBFS_DEVICE_STATUS_BUS_POWERED  | Set the device to bus powered
2357:.\Generated_Source\PSoC4/USBFS.c **** *  USBFS_DEVICE_STATUS_SELF_POWERED | Set the device to self powered
2358:.\Generated_Source\PSoC4/USBFS.c **** *
2359:.\Generated_Source\PSoC4/USBFS.c **** * \globalvars
2360:.\Generated_Source\PSoC4/USBFS.c **** *
2361:.\Generated_Source\PSoC4/USBFS.c **** *  \ref USBFS_deviceStatus - set power status
2362:.\Generated_Source\PSoC4/USBFS.c **** *
2363:.\Generated_Source\PSoC4/USBFS.c **** * \reentrant
2364:.\Generated_Source\PSoC4/USBFS.c **** *  No.
2365:.\Generated_Source\PSoC4/USBFS.c **** *
2366:.\Generated_Source\PSoC4/USBFS.c **** *******************************************************************************/
2367:.\Generated_Source\PSoC4/USBFS.c **** void USBFS_SetPowerStatus(uint8 powerStatus) 
2368:.\Generated_Source\PSoC4/USBFS.c **** {
 1581              		.loc 1 2368 0
 1582              		.cfi_startproc
 1583              	.LVL119:
2369:.\Generated_Source\PSoC4/USBFS.c ****     if (powerStatus != USBFS_DEVICE_STATUS_BUS_POWERED)
 1584              		.loc 1 2369 0
 1585 0000 0028     		cmp	r0, #0
 1586 0002 05D0     		beq	.L105
2370:.\Generated_Source\PSoC4/USBFS.c ****     {
2371:.\Generated_Source\PSoC4/USBFS.c ****         USBFS_deviceStatus |= (uint8)  USBFS_DEVICE_STATUS_SELF_POWERED;
 1587              		.loc 1 2371 0
 1588 0004 054A     		ldr	r2, .L107
 1589 0006 1178     		ldrb	r1, [r2]
 1590 0008 0123     		mov	r3, #1
 1591 000a 0B43     		orr	r3, r1
 1592 000c 1370     		strb	r3, [r2]
 1593 000e 04E0     		b	.L104
 1594              	.L105:
2372:.\Generated_Source\PSoC4/USBFS.c ****     }
2373:.\Generated_Source\PSoC4/USBFS.c ****     else
2374:.\Generated_Source\PSoC4/USBFS.c ****     {
2375:.\Generated_Source\PSoC4/USBFS.c ****         USBFS_deviceStatus &= (uint8) ~USBFS_DEVICE_STATUS_SELF_POWERED;
 1595              		.loc 1 2375 0
 1596 0010 024A     		ldr	r2, .L107
 1597 0012 1378     		ldrb	r3, [r2]
 1598 0014 0121     		mov	r1, #1
 1599 0016 8B43     		bic	r3, r1
 1600 0018 1370     		strb	r3, [r2]
 1601              	.L104:
2376:.\Generated_Source\PSoC4/USBFS.c ****     }
2377:.\Generated_Source\PSoC4/USBFS.c **** }
 1602              		.loc 1 2377 0
 1603              		@ sp needed
 1604 001a 7047     		bx	lr
 1605              	.L108:
 1606              		.align	2
 1607              	.L107:
 1608 001c 00000000 		.word	USBFS_deviceStatus
 1609              		.cfi_endproc
 1610              	.LFE86:
 1611              		.size	USBFS_SetPowerStatus, .-USBFS_SetPowerStatus
 1612              		.section	.text.USBFS_RWUEnabled,"ax",%progbits
ARM GAS  C:\Users\LAIR\AppData\Local\Temp\ccdy23dh.s 			page 73


 1613              		.align	2
 1614              		.global	USBFS_RWUEnabled
 1615              		.code	16
 1616              		.thumb_func
 1617              		.type	USBFS_RWUEnabled, %function
 1618              	USBFS_RWUEnabled:
 1619              	.LFB87:
2378:.\Generated_Source\PSoC4/USBFS.c **** 
2379:.\Generated_Source\PSoC4/USBFS.c **** 
2380:.\Generated_Source\PSoC4/USBFS.c **** #if (USBFS_VBUS_MONITORING_ENABLE)
2381:.\Generated_Source\PSoC4/USBFS.c ****     /***************************************************************************
2382:.\Generated_Source\PSoC4/USBFS.c ****     * Function Name: USBFS_VBusPresent
2383:.\Generated_Source\PSoC4/USBFS.c ****     ************************************************************************//**
2384:.\Generated_Source\PSoC4/USBFS.c ****     *
2385:.\Generated_Source\PSoC4/USBFS.c ****     *  Determines VBUS presence for self-powered devices. This function is
2386:.\Generated_Source\PSoC4/USBFS.c ****     *  available when the VBUS Monitoring option is enabled in the Advanced tab.
2387:.\Generated_Source\PSoC4/USBFS.c ****     *
2388:.\Generated_Source\PSoC4/USBFS.c ****     * \return
2389:.\Generated_Source\PSoC4/USBFS.c ****     *  The return value can be the following:
2390:.\Generated_Source\PSoC4/USBFS.c ****     *  Return Value | Description
2391:.\Generated_Source\PSoC4/USBFS.c ****     *  -------------|-----------------
2392:.\Generated_Source\PSoC4/USBFS.c ****     *  1            | VBUS is present
2393:.\Generated_Source\PSoC4/USBFS.c ****     *  0            | VBUS is absent
2394:.\Generated_Source\PSoC4/USBFS.c ****     *
2395:.\Generated_Source\PSoC4/USBFS.c ****     *
2396:.\Generated_Source\PSoC4/USBFS.c ****     ***************************************************************************/
2397:.\Generated_Source\PSoC4/USBFS.c ****     uint8 USBFS_VBusPresent(void) 
2398:.\Generated_Source\PSoC4/USBFS.c ****     {
2399:.\Generated_Source\PSoC4/USBFS.c ****         return ((0u != (USBFS_VBUS_STATUS_REG & USBFS_VBUS_VALID)) ? (uint8) 1u : (uint8) 0u);
2400:.\Generated_Source\PSoC4/USBFS.c ****     }
2401:.\Generated_Source\PSoC4/USBFS.c **** #endif /* (USBFS_VBUS_MONITORING_ENABLE) */
2402:.\Generated_Source\PSoC4/USBFS.c **** 
2403:.\Generated_Source\PSoC4/USBFS.c **** 
2404:.\Generated_Source\PSoC4/USBFS.c **** /*******************************************************************************
2405:.\Generated_Source\PSoC4/USBFS.c **** * Function Name: USBFS_RWUEnabled
2406:.\Generated_Source\PSoC4/USBFS.c **** ****************************************************************************//**
2407:.\Generated_Source\PSoC4/USBFS.c **** *
2408:.\Generated_Source\PSoC4/USBFS.c **** *  This function returns the current remote wakeup status.
2409:.\Generated_Source\PSoC4/USBFS.c **** *  If the device supports remote wakeup, the application should use this
2410:.\Generated_Source\PSoC4/USBFS.c **** *  function to determine if remote wakeup was enabled by the host. When the
2411:.\Generated_Source\PSoC4/USBFS.c **** *  device is suspended and it determines the conditions to initiate a remote
2412:.\Generated_Source\PSoC4/USBFS.c **** *  wakeup are met, the application should use the USBFS_Force() function to
2413:.\Generated_Source\PSoC4/USBFS.c **** *  force the appropriate J and K states onto the USB bus, signaling a remote
2414:.\Generated_Source\PSoC4/USBFS.c **** *  wakeup.
2415:.\Generated_Source\PSoC4/USBFS.c **** *
2416:.\Generated_Source\PSoC4/USBFS.c **** *
2417:.\Generated_Source\PSoC4/USBFS.c **** * \return
2418:.\Generated_Source\PSoC4/USBFS.c **** *  Returns non-zero value if remote wakeup is enabled and zero otherwise.
2419:.\Generated_Source\PSoC4/USBFS.c **** *
2420:.\Generated_Source\PSoC4/USBFS.c **** * \globalvars
2421:.\Generated_Source\PSoC4/USBFS.c **** *  USBFS_deviceStatus - checked to determine remote status
2422:.\Generated_Source\PSoC4/USBFS.c **** *
2423:.\Generated_Source\PSoC4/USBFS.c **** *******************************************************************************/
2424:.\Generated_Source\PSoC4/USBFS.c **** uint8 USBFS_RWUEnabled(void) 
2425:.\Generated_Source\PSoC4/USBFS.c **** {
 1620              		.loc 1 2425 0
 1621              		.cfi_startproc
ARM GAS  C:\Users\LAIR\AppData\Local\Temp\ccdy23dh.s 			page 74


 1622              	.LVL120:
2426:.\Generated_Source\PSoC4/USBFS.c ****     uint8 result = USBFS_FALSE;
2427:.\Generated_Source\PSoC4/USBFS.c **** 
2428:.\Generated_Source\PSoC4/USBFS.c ****     if (0u != (USBFS_deviceStatus & USBFS_DEVICE_STATUS_REMOTE_WAKEUP))
 1623              		.loc 1 2428 0
 1624 0000 034B     		ldr	r3, .L112
 1625 0002 1B78     		ldrb	r3, [r3]
 1626 0004 9B07     		lsl	r3, r3, #30
 1627 0006 01D4     		bmi	.L111
2426:.\Generated_Source\PSoC4/USBFS.c ****     uint8 result = USBFS_FALSE;
 1628              		.loc 1 2426 0
 1629 0008 0020     		mov	r0, #0
 1630 000a 00E0     		b	.L110
 1631              	.L111:
2429:.\Generated_Source\PSoC4/USBFS.c ****     {
2430:.\Generated_Source\PSoC4/USBFS.c ****         result = USBFS_TRUE;
 1632              		.loc 1 2430 0
 1633 000c 0120     		mov	r0, #1
 1634              	.L110:
 1635              	.LVL121:
2431:.\Generated_Source\PSoC4/USBFS.c ****     }
2432:.\Generated_Source\PSoC4/USBFS.c **** 
2433:.\Generated_Source\PSoC4/USBFS.c ****     return (result);
2434:.\Generated_Source\PSoC4/USBFS.c **** }
 1636              		.loc 1 2434 0
 1637              		@ sp needed
 1638 000e 7047     		bx	lr
 1639              	.L113:
 1640              		.align	2
 1641              	.L112:
 1642 0010 00000000 		.word	USBFS_deviceStatus
 1643              		.cfi_endproc
 1644              	.LFE87:
 1645              		.size	USBFS_RWUEnabled, .-USBFS_RWUEnabled
 1646              		.section	.text.USBFS_GetDeviceAddress,"ax",%progbits
 1647              		.align	2
 1648              		.global	USBFS_GetDeviceAddress
 1649              		.code	16
 1650              		.thumb_func
 1651              		.type	USBFS_GetDeviceAddress, %function
 1652              	USBFS_GetDeviceAddress:
 1653              	.LFB88:
2435:.\Generated_Source\PSoC4/USBFS.c **** 
2436:.\Generated_Source\PSoC4/USBFS.c **** 
2437:.\Generated_Source\PSoC4/USBFS.c **** /*******************************************************************************
2438:.\Generated_Source\PSoC4/USBFS.c **** * Function Name: USBFS_GetDeviceAddress
2439:.\Generated_Source\PSoC4/USBFS.c **** ****************************************************************************//**
2440:.\Generated_Source\PSoC4/USBFS.c **** *
2441:.\Generated_Source\PSoC4/USBFS.c **** *  This function returns the currently assigned address for the USB device.
2442:.\Generated_Source\PSoC4/USBFS.c **** *
2443:.\Generated_Source\PSoC4/USBFS.c **** * \return
2444:.\Generated_Source\PSoC4/USBFS.c **** *  Returns the currently assigned address.
2445:.\Generated_Source\PSoC4/USBFS.c **** *  Returns 0 if the device has not yet been assigned an address.
2446:.\Generated_Source\PSoC4/USBFS.c **** *
2447:.\Generated_Source\PSoC4/USBFS.c **** *******************************************************************************/
2448:.\Generated_Source\PSoC4/USBFS.c **** uint8 USBFS_GetDeviceAddress(void) 
2449:.\Generated_Source\PSoC4/USBFS.c **** {
ARM GAS  C:\Users\LAIR\AppData\Local\Temp\ccdy23dh.s 			page 75


 1654              		.loc 1 2449 0
 1655              		.cfi_startproc
2450:.\Generated_Source\PSoC4/USBFS.c ****     return (uint8)(USBFS_CR0_REG & USBFS_CR0_DEVICE_ADDRESS_MASK);
 1656              		.loc 1 2450 0
 1657 0000 024B     		ldr	r3, .L115
 1658 0002 1868     		ldr	r0, [r3]
 1659 0004 7F23     		mov	r3, #127
 1660 0006 1840     		and	r0, r3
2451:.\Generated_Source\PSoC4/USBFS.c **** }
 1661              		.loc 1 2451 0
 1662              		@ sp needed
 1663 0008 7047     		bx	lr
 1664              	.L116:
 1665 000a C046     		.align	2
 1666              	.L115:
 1667 000c 20002C40 		.word	1076625440
 1668              		.cfi_endproc
 1669              	.LFE88:
 1670              		.size	USBFS_GetDeviceAddress, .-USBFS_GetDeviceAddress
 1671              		.section	.text.USBFS_EnableSofInt,"ax",%progbits
 1672              		.align	2
 1673              		.global	USBFS_EnableSofInt
 1674              		.code	16
 1675              		.thumb_func
 1676              		.type	USBFS_EnableSofInt, %function
 1677              	USBFS_EnableSofInt:
 1678              	.LFB89:
2452:.\Generated_Source\PSoC4/USBFS.c **** 
2453:.\Generated_Source\PSoC4/USBFS.c **** 
2454:.\Generated_Source\PSoC4/USBFS.c **** /*******************************************************************************
2455:.\Generated_Source\PSoC4/USBFS.c **** * Function Name: USBFS_EnableSofInt
2456:.\Generated_Source\PSoC4/USBFS.c **** ****************************************************************************//**
2457:.\Generated_Source\PSoC4/USBFS.c **** *
2458:.\Generated_Source\PSoC4/USBFS.c **** *  This function enables interrupt generation when a Start-of-Frame (SOF)
2459:.\Generated_Source\PSoC4/USBFS.c **** *  packet is received from the host.
2460:.\Generated_Source\PSoC4/USBFS.c **** *
2461:.\Generated_Source\PSoC4/USBFS.c **** *******************************************************************************/
2462:.\Generated_Source\PSoC4/USBFS.c **** void USBFS_EnableSofInt(void) 
2463:.\Generated_Source\PSoC4/USBFS.c **** {
 1679              		.loc 1 2463 0
 1680              		.cfi_startproc
2464:.\Generated_Source\PSoC4/USBFS.c **** #if (CY_PSOC4)
2465:.\Generated_Source\PSoC4/USBFS.c ****     /* Enable SOF interrupt interrupt source. */
2466:.\Generated_Source\PSoC4/USBFS.c ****     USBFS_INTR_SIE_MASK_REG |= (uint32) USBFS_INTR_SIE_SOF_INTR;
 1681              		.loc 1 2466 0
 1682 0000 024A     		ldr	r2, .L118
 1683 0002 1168     		ldr	r1, [r2]
 1684 0004 0123     		mov	r3, #1
 1685 0006 0B43     		orr	r3, r1
 1686 0008 1360     		str	r3, [r2]
2467:.\Generated_Source\PSoC4/USBFS.c **** #else
2468:.\Generated_Source\PSoC4/USBFS.c ****     /* Enable SOF interrupt if it is present. */
2469:.\Generated_Source\PSoC4/USBFS.c ****     #if (USBFS_SOF_ISR_ACTIVE)
2470:.\Generated_Source\PSoC4/USBFS.c ****         CyIntEnable(USBFS_SOF_VECT_NUM);
2471:.\Generated_Source\PSoC4/USBFS.c ****     #endif /* (USBFS_SOF_ISR_ACTIVE) */
2472:.\Generated_Source\PSoC4/USBFS.c **** #endif /* (CY_PSOC4) */
2473:.\Generated_Source\PSoC4/USBFS.c **** }
ARM GAS  C:\Users\LAIR\AppData\Local\Temp\ccdy23dh.s 			page 76


 1687              		.loc 1 2473 0
 1688              		@ sp needed
 1689 000a 7047     		bx	lr
 1690              	.L119:
 1691              		.align	2
 1692              	.L118:
 1693 000c 28202C40 		.word	1076633640
 1694              		.cfi_endproc
 1695              	.LFE89:
 1696              		.size	USBFS_EnableSofInt, .-USBFS_EnableSofInt
 1697              		.section	.text.USBFS_DisableSofInt,"ax",%progbits
 1698              		.align	2
 1699              		.global	USBFS_DisableSofInt
 1700              		.code	16
 1701              		.thumb_func
 1702              		.type	USBFS_DisableSofInt, %function
 1703              	USBFS_DisableSofInt:
 1704              	.LFB90:
2474:.\Generated_Source\PSoC4/USBFS.c **** 
2475:.\Generated_Source\PSoC4/USBFS.c **** 
2476:.\Generated_Source\PSoC4/USBFS.c **** /*******************************************************************************
2477:.\Generated_Source\PSoC4/USBFS.c **** * Function Name: USBFS_DisableSofInt
2478:.\Generated_Source\PSoC4/USBFS.c **** ****************************************************************************//**
2479:.\Generated_Source\PSoC4/USBFS.c **** *
2480:.\Generated_Source\PSoC4/USBFS.c **** *  This function disables interrupt generation when a Start-of-Frame (SOF)
2481:.\Generated_Source\PSoC4/USBFS.c **** *  packet is received from the host.
2482:.\Generated_Source\PSoC4/USBFS.c **** *
2483:.\Generated_Source\PSoC4/USBFS.c **** *******************************************************************************/
2484:.\Generated_Source\PSoC4/USBFS.c **** void USBFS_DisableSofInt(void) 
2485:.\Generated_Source\PSoC4/USBFS.c **** {
 1705              		.loc 1 2485 0
 1706              		.cfi_startproc
2486:.\Generated_Source\PSoC4/USBFS.c **** #if (CY_PSOC4)
2487:.\Generated_Source\PSoC4/USBFS.c ****     /* Disable SOF interrupt interrupt source. */
2488:.\Generated_Source\PSoC4/USBFS.c ****     USBFS_INTR_SIE_MASK_REG &= (uint32) ~USBFS_INTR_SIE_SOF_INTR;
 1707              		.loc 1 2488 0
 1708 0000 024A     		ldr	r2, .L121
 1709 0002 1368     		ldr	r3, [r2]
 1710 0004 0121     		mov	r1, #1
 1711 0006 8B43     		bic	r3, r1
 1712 0008 1360     		str	r3, [r2]
2489:.\Generated_Source\PSoC4/USBFS.c **** #else
2490:.\Generated_Source\PSoC4/USBFS.c ****     /* Disable SOF interrupt if it is present. */
2491:.\Generated_Source\PSoC4/USBFS.c ****     #if (USBFS_SOF_ISR_ACTIVE)
2492:.\Generated_Source\PSoC4/USBFS.c ****         CyIntDisable(USBFS_SOF_VECT_NUM);
2493:.\Generated_Source\PSoC4/USBFS.c ****     #endif /* (USBFS_SOF_ISR_ACTIVE) */
2494:.\Generated_Source\PSoC4/USBFS.c **** #endif /* (CY_PSOC4) */
2495:.\Generated_Source\PSoC4/USBFS.c **** }
 1713              		.loc 1 2495 0
 1714              		@ sp needed
 1715 000a 7047     		bx	lr
 1716              	.L122:
 1717              		.align	2
 1718              	.L121:
 1719 000c 28202C40 		.word	1076633640
 1720              		.cfi_endproc
 1721              	.LFE90:
ARM GAS  C:\Users\LAIR\AppData\Local\Temp\ccdy23dh.s 			page 77


 1722              		.size	USBFS_DisableSofInt, .-USBFS_DisableSofInt
 1723              		.global	USBFS_DmaChan
 1724              		.global	USBFS_initVar
 1725              		.section	.rodata
 1726              		.align	2
 1727              		.set	.LANCHOR1,. + 0
 1728              		.type	USBFS_DmaChan, %object
 1729              		.size	USBFS_DmaChan, 9
 1730              	USBFS_DmaChan:
 1731 0000 00       		.byte	0
 1732 0001 08       		.byte	8
 1733 0002 09       		.byte	9
 1734 0003 00       		.byte	0
 1735 0004 00       		.byte	0
 1736 0005 00       		.byte	0
 1737 0006 00       		.byte	0
 1738 0007 00       		.byte	0
 1739 0008 00       		.byte	0
 1740 0009 000000   		.bss
 1741              		.set	.LANCHOR0,. + 0
 1742              		.type	USBFS_initVar, %object
 1743              		.size	USBFS_initVar, 1
 1744              	USBFS_initVar:
 1745 0000 00       		.space	1
 1746              		.text
 1747              	.Letext0:
 1748              		.file 2 ".\\Generated_Source\\PSoC4\\cytypes.h"
 1749              		.file 3 ".\\Generated_Source\\PSoC4\\USBFS.h"
 1750              		.file 4 "Generated_Source\\PSoC4/CyDMA.h"
 1751              		.file 5 ".\\Generated_Source\\PSoC4\\USBFS_pvt.h"
 1752              		.file 6 ".\\Generated_Source\\PSoC4\\CyLib.h"
 1753              		.section	.debug_info,"",%progbits
 1754              	.Ldebug_info0:
 1755 0000 4E0C0000 		.4byte	0xc4e
 1756 0004 0400     		.2byte	0x4
 1757 0006 00000000 		.4byte	.Ldebug_abbrev0
 1758 000a 04       		.byte	0x4
 1759 000b 01       		.uleb128 0x1
 1760 000c E2030000 		.4byte	.LASF116
 1761 0010 01       		.byte	0x1
 1762 0011 00000000 		.4byte	.LASF117
 1763 0015 95040000 		.4byte	.LASF118
 1764 0019 00000000 		.4byte	.Ldebug_ranges0+0
 1765 001d 00000000 		.4byte	0
 1766 0021 00000000 		.4byte	.Ldebug_line0
 1767 0025 02       		.uleb128 0x2
 1768 0026 01       		.byte	0x1
 1769 0027 06       		.byte	0x6
 1770 0028 F5000000 		.4byte	.LASF0
 1771 002c 02       		.uleb128 0x2
 1772 002d 01       		.byte	0x1
 1773 002e 08       		.byte	0x8
 1774 002f 3B050000 		.4byte	.LASF1
 1775 0033 02       		.uleb128 0x2
 1776 0034 02       		.byte	0x2
 1777 0035 05       		.byte	0x5
 1778 0036 50050000 		.4byte	.LASF2
ARM GAS  C:\Users\LAIR\AppData\Local\Temp\ccdy23dh.s 			page 78


 1779 003a 02       		.uleb128 0x2
 1780 003b 02       		.byte	0x2
 1781 003c 07       		.byte	0x7
 1782 003d F3020000 		.4byte	.LASF3
 1783 0041 02       		.uleb128 0x2
 1784 0042 04       		.byte	0x4
 1785 0043 05       		.byte	0x5
 1786 0044 87010000 		.4byte	.LASF4
 1787 0048 02       		.uleb128 0x2
 1788 0049 04       		.byte	0x4
 1789 004a 07       		.byte	0x7
 1790 004b 95020000 		.4byte	.LASF5
 1791 004f 02       		.uleb128 0x2
 1792 0050 08       		.byte	0x8
 1793 0051 05       		.byte	0x5
 1794 0052 E7000000 		.4byte	.LASF6
 1795 0056 02       		.uleb128 0x2
 1796 0057 08       		.byte	0x8
 1797 0058 07       		.byte	0x7
 1798 0059 7E000000 		.4byte	.LASF7
 1799 005d 03       		.uleb128 0x3
 1800 005e 04       		.byte	0x4
 1801 005f 05       		.byte	0x5
 1802 0060 696E7400 		.ascii	"int\000"
 1803 0064 02       		.uleb128 0x2
 1804 0065 04       		.byte	0x4
 1805 0066 07       		.byte	0x7
 1806 0067 88020000 		.4byte	.LASF8
 1807 006b 04       		.uleb128 0x4
 1808 006c C0010000 		.4byte	.LASF9
 1809 0070 02       		.byte	0x2
 1810 0071 9801     		.2byte	0x198
 1811 0073 2C000000 		.4byte	0x2c
 1812 0077 04       		.uleb128 0x4
 1813 0078 21000000 		.4byte	.LASF10
 1814 007c 02       		.byte	0x2
 1815 007d 9901     		.2byte	0x199
 1816 007f 3A000000 		.4byte	0x3a
 1817 0083 04       		.uleb128 0x4
 1818 0084 10020000 		.4byte	.LASF11
 1819 0088 02       		.byte	0x2
 1820 0089 9A01     		.2byte	0x19a
 1821 008b 48000000 		.4byte	0x48
 1822 008f 02       		.uleb128 0x2
 1823 0090 04       		.byte	0x4
 1824 0091 04       		.byte	0x4
 1825 0092 DD040000 		.4byte	.LASF12
 1826 0096 02       		.uleb128 0x2
 1827 0097 08       		.byte	0x8
 1828 0098 04       		.byte	0x4
 1829 0099 F8010000 		.4byte	.LASF13
 1830 009d 02       		.uleb128 0x2
 1831 009e 01       		.byte	0x1
 1832 009f 08       		.byte	0x8
 1833 00a0 FE050000 		.4byte	.LASF14
 1834 00a4 05       		.uleb128 0x5
 1835 00a5 6B000000 		.4byte	0x6b
ARM GAS  C:\Users\LAIR\AppData\Local\Temp\ccdy23dh.s 			page 79


 1836 00a9 04       		.uleb128 0x4
 1837 00aa 71030000 		.4byte	.LASF15
 1838 00ae 02       		.byte	0x2
 1839 00af 4402     		.2byte	0x244
 1840 00b1 B5000000 		.4byte	0xb5
 1841 00b5 05       		.uleb128 0x5
 1842 00b6 83000000 		.4byte	0x83
 1843 00ba 04       		.uleb128 0x4
 1844 00bb 08060000 		.4byte	.LASF16
 1845 00bf 02       		.byte	0x2
 1846 00c0 5402     		.2byte	0x254
 1847 00c2 C6000000 		.4byte	0xc6
 1848 00c6 06       		.uleb128 0x6
 1849 00c7 04       		.byte	0x4
 1850 00c8 CC000000 		.4byte	0xcc
 1851 00cc 07       		.uleb128 0x7
 1852 00cd 02       		.uleb128 0x2
 1853 00ce 04       		.byte	0x4
 1854 00cf 07       		.byte	0x7
 1855 00d0 A9030000 		.4byte	.LASF17
 1856 00d4 08       		.uleb128 0x8
 1857 00d5 04       		.byte	0x4
 1858 00d6 09       		.uleb128 0x9
 1859 00d7 0C       		.byte	0xc
 1860 00d8 03       		.byte	0x3
 1861 00d9 8E       		.byte	0x8e
 1862 00da 4B010000 		.4byte	0x14b
 1863 00de 0A       		.uleb128 0xa
 1864 00df B8030000 		.4byte	.LASF18
 1865 00e3 03       		.byte	0x3
 1866 00e4 90       		.byte	0x90
 1867 00e5 6B000000 		.4byte	0x6b
 1868 00e9 00       		.byte	0
 1869 00ea 0A       		.uleb128 0xa
 1870 00eb E3040000 		.4byte	.LASF19
 1871 00ef 03       		.byte	0x3
 1872 00f0 91       		.byte	0x91
 1873 00f1 6B000000 		.4byte	0x6b
 1874 00f5 01       		.byte	0x1
 1875 00f6 0A       		.uleb128 0xa
 1876 00f7 8A030000 		.4byte	.LASF20
 1877 00fb 03       		.byte	0x3
 1878 00fc 92       		.byte	0x92
 1879 00fd 6B000000 		.4byte	0x6b
 1880 0101 02       		.byte	0x2
 1881 0102 0A       		.uleb128 0xa
 1882 0103 C6010000 		.4byte	.LASF21
 1883 0107 03       		.byte	0x3
 1884 0108 93       		.byte	0x93
 1885 0109 6B000000 		.4byte	0x6b
 1886 010d 03       		.byte	0x3
 1887 010e 0A       		.uleb128 0xa
 1888 010f A9000000 		.4byte	.LASF22
 1889 0113 03       		.byte	0x3
 1890 0114 94       		.byte	0x94
 1891 0115 6B000000 		.4byte	0x6b
 1892 0119 04       		.byte	0x4
ARM GAS  C:\Users\LAIR\AppData\Local\Temp\ccdy23dh.s 			page 80


 1893 011a 0A       		.uleb128 0xa
 1894 011b 59020000 		.4byte	.LASF23
 1895 011f 03       		.byte	0x3
 1896 0120 95       		.byte	0x95
 1897 0121 6B000000 		.4byte	0x6b
 1898 0125 05       		.byte	0x5
 1899 0126 0A       		.uleb128 0xa
 1900 0127 37060000 		.4byte	.LASF24
 1901 012b 03       		.byte	0x3
 1902 012c 96       		.byte	0x96
 1903 012d 77000000 		.4byte	0x77
 1904 0131 06       		.byte	0x6
 1905 0132 0A       		.uleb128 0xa
 1906 0133 20060000 		.4byte	.LASF25
 1907 0137 03       		.byte	0x3
 1908 0138 97       		.byte	0x97
 1909 0139 77000000 		.4byte	0x77
 1910 013d 08       		.byte	0x8
 1911 013e 0A       		.uleb128 0xa
 1912 013f 45030000 		.4byte	.LASF26
 1913 0143 03       		.byte	0x3
 1914 0144 98       		.byte	0x98
 1915 0145 6B000000 		.4byte	0x6b
 1916 0149 0A       		.byte	0xa
 1917 014a 00       		.byte	0
 1918 014b 0B       		.uleb128 0xb
 1919 014c C3050000 		.4byte	.LASF27
 1920 0150 03       		.byte	0x3
 1921 0151 99       		.byte	0x99
 1922 0152 D6000000 		.4byte	0xd6
 1923 0156 09       		.uleb128 0x9
 1924 0157 40       		.byte	0x40
 1925 0158 03       		.byte	0x3
 1926 0159 D5       		.byte	0xd5
 1927 015a 8F010000 		.4byte	0x18f
 1928 015e 0A       		.uleb128 0xa
 1929 015f 70040000 		.4byte	.LASF28
 1930 0163 03       		.byte	0x3
 1931 0164 D7       		.byte	0xd7
 1932 0165 83000000 		.4byte	0x83
 1933 0169 00       		.byte	0
 1934 016a 0A       		.uleb128 0xa
 1935 016b 77040000 		.4byte	.LASF29
 1936 016f 03       		.byte	0x3
 1937 0170 D8       		.byte	0xd8
 1938 0171 83000000 		.4byte	0x83
 1939 0175 04       		.byte	0x4
 1940 0176 0A       		.uleb128 0xa
 1941 0177 8F040000 		.4byte	.LASF30
 1942 017b 03       		.byte	0x3
 1943 017c D9       		.byte	0xd9
 1944 017d 83000000 		.4byte	0x83
 1945 0181 08       		.byte	0x8
 1946 0182 0C       		.uleb128 0xc
 1947 0183 67617000 		.ascii	"gap\000"
 1948 0187 03       		.byte	0x3
 1949 0188 DA       		.byte	0xda
ARM GAS  C:\Users\LAIR\AppData\Local\Temp\ccdy23dh.s 			page 81


 1950 0189 8F010000 		.4byte	0x18f
 1951 018d 0C       		.byte	0xc
 1952 018e 00       		.byte	0
 1953 018f 0D       		.uleb128 0xd
 1954 0190 83000000 		.4byte	0x83
 1955 0194 9F010000 		.4byte	0x19f
 1956 0198 0E       		.uleb128 0xe
 1957 0199 CD000000 		.4byte	0xcd
 1958 019d 0C       		.byte	0xc
 1959 019e 00       		.byte	0
 1960 019f 0B       		.uleb128 0xb
 1961 01a0 15030000 		.4byte	.LASF31
 1962 01a4 03       		.byte	0x3
 1963 01a5 DB       		.byte	0xdb
 1964 01a6 56010000 		.4byte	0x156
 1965 01aa 09       		.uleb128 0x9
 1966 01ab 40       		.byte	0x40
 1967 01ac 03       		.byte	0x3
 1968 01ad E7       		.byte	0xe7
 1969 01ae 2B020000 		.4byte	0x22b
 1970 01b2 0A       		.uleb128 0xa
 1971 01b3 B5000000 		.4byte	.LASF32
 1972 01b7 03       		.byte	0x3
 1973 01b8 E9       		.byte	0xe9
 1974 01b9 83000000 		.4byte	0x83
 1975 01bd 00       		.byte	0
 1976 01be 0A       		.uleb128 0xa
 1977 01bf F7060000 		.4byte	.LASF33
 1978 01c3 03       		.byte	0x3
 1979 01c4 EA       		.byte	0xea
 1980 01c5 83000000 		.4byte	0x83
 1981 01c9 04       		.byte	0x4
 1982 01ca 0A       		.uleb128 0xa
 1983 01cb 0B020000 		.4byte	.LASF34
 1984 01cf 03       		.byte	0x3
 1985 01d0 EB       		.byte	0xeb
 1986 01d1 83000000 		.4byte	0x83
 1987 01d5 08       		.byte	0x8
 1988 01d6 0A       		.uleb128 0xa
 1989 01d7 60020000 		.4byte	.LASF35
 1990 01db 03       		.byte	0x3
 1991 01dc EC       		.byte	0xec
 1992 01dd 83000000 		.4byte	0x83
 1993 01e1 0C       		.byte	0xc
 1994 01e2 0A       		.uleb128 0xa
 1995 01e3 E9010000 		.4byte	.LASF36
 1996 01e7 03       		.byte	0x3
 1997 01e8 ED       		.byte	0xed
 1998 01e9 83000000 		.4byte	0x83
 1999 01ed 10       		.byte	0x10
 2000 01ee 0A       		.uleb128 0xa
 2001 01ef EF060000 		.4byte	.LASF37
 2002 01f3 03       		.byte	0x3
 2003 01f4 EE       		.byte	0xee
 2004 01f5 83000000 		.4byte	0x83
 2005 01f9 14       		.byte	0x14
 2006 01fa 0A       		.uleb128 0xa
ARM GAS  C:\Users\LAIR\AppData\Local\Temp\ccdy23dh.s 			page 82


 2007 01fb A7050000 		.4byte	.LASF38
 2008 01ff 03       		.byte	0x3
 2009 0200 EF       		.byte	0xef
 2010 0201 83000000 		.4byte	0x83
 2011 0205 18       		.byte	0x18
 2012 0206 0A       		.uleb128 0xa
 2013 0207 DA030000 		.4byte	.LASF39
 2014 020b 03       		.byte	0x3
 2015 020c F0       		.byte	0xf0
 2016 020d 83000000 		.4byte	0x83
 2017 0211 1C       		.byte	0x1c
 2018 0212 0A       		.uleb128 0xa
 2019 0213 B0060000 		.4byte	.LASF40
 2020 0217 03       		.byte	0x3
 2021 0218 F1       		.byte	0xf1
 2022 0219 83000000 		.4byte	0x83
 2023 021d 20       		.byte	0x20
 2024 021e 0C       		.uleb128 0xc
 2025 021f 67617000 		.ascii	"gap\000"
 2026 0223 03       		.byte	0x3
 2027 0224 F2       		.byte	0xf2
 2028 0225 2B020000 		.4byte	0x22b
 2029 0229 24       		.byte	0x24
 2030 022a 00       		.byte	0
 2031 022b 0D       		.uleb128 0xd
 2032 022c 83000000 		.4byte	0x83
 2033 0230 3B020000 		.4byte	0x23b
 2034 0234 0E       		.uleb128 0xe
 2035 0235 CD000000 		.4byte	0xcd
 2036 0239 06       		.byte	0x6
 2037 023a 00       		.byte	0
 2038 023b 0B       		.uleb128 0xb
 2039 023c 63010000 		.4byte	.LASF41
 2040 0240 03       		.byte	0x3
 2041 0241 F3       		.byte	0xf3
 2042 0242 AA010000 		.4byte	0x1aa
 2043 0246 0F       		.uleb128 0xf
 2044 0247 40       		.byte	0x40
 2045 0248 03       		.byte	0x3
 2046 0249 0001     		.2byte	0x100
 2047 024b 9E020000 		.4byte	0x29e
 2048 024f 10       		.uleb128 0x10
 2049 0250 AE000000 		.4byte	.LASF42
 2050 0254 03       		.byte	0x3
 2051 0255 0201     		.2byte	0x102
 2052 0257 83000000 		.4byte	0x83
 2053 025b 00       		.byte	0
 2054 025c 10       		.uleb128 0x10
 2055 025d FF060000 		.4byte	.LASF43
 2056 0261 03       		.byte	0x3
 2057 0262 0301     		.2byte	0x103
 2058 0264 83000000 		.4byte	0x83
 2059 0268 04       		.byte	0x4
 2060 0269 10       		.uleb128 0x10
 2061 026a 49050000 		.4byte	.LASF44
 2062 026e 03       		.byte	0x3
 2063 026f 0401     		.2byte	0x104
ARM GAS  C:\Users\LAIR\AppData\Local\Temp\ccdy23dh.s 			page 83


 2064 0271 83000000 		.4byte	0x83
 2065 0275 08       		.byte	0x8
 2066 0276 10       		.uleb128 0x10
 2067 0277 09070000 		.4byte	.LASF45
 2068 027b 03       		.byte	0x3
 2069 027c 0501     		.2byte	0x105
 2070 027e 83000000 		.4byte	0x83
 2071 0282 0C       		.byte	0xc
 2072 0283 10       		.uleb128 0x10
 2073 0284 D0000000 		.4byte	.LASF46
 2074 0288 03       		.byte	0x3
 2075 0289 0601     		.2byte	0x106
 2076 028b 83000000 		.4byte	0x83
 2077 028f 10       		.byte	0x10
 2078 0290 11       		.uleb128 0x11
 2079 0291 67617000 		.ascii	"gap\000"
 2080 0295 03       		.byte	0x3
 2081 0296 0701     		.2byte	0x107
 2082 0298 9E020000 		.4byte	0x29e
 2083 029c 14       		.byte	0x14
 2084 029d 00       		.byte	0
 2085 029e 0D       		.uleb128 0xd
 2086 029f 83000000 		.4byte	0x83
 2087 02a3 AE020000 		.4byte	0x2ae
 2088 02a7 0E       		.uleb128 0xe
 2089 02a8 CD000000 		.4byte	0xcd
 2090 02ac 0A       		.byte	0xa
 2091 02ad 00       		.byte	0
 2092 02ae 04       		.uleb128 0x4
 2093 02af CF010000 		.4byte	.LASF47
 2094 02b3 03       		.byte	0x3
 2095 02b4 0801     		.2byte	0x108
 2096 02b6 46020000 		.4byte	0x246
 2097 02ba 12       		.uleb128 0x12
 2098 02bb 4002     		.2byte	0x240
 2099 02bd 03       		.byte	0x3
 2100 02be 0F01     		.2byte	0x10f
 2101 02c0 D2020000 		.4byte	0x2d2
 2102 02c4 10       		.uleb128 0x10
 2103 02c5 B2030000 		.4byte	.LASF48
 2104 02c9 03       		.byte	0x3
 2105 02ca 1101     		.2byte	0x111
 2106 02cc D2020000 		.4byte	0x2d2
 2107 02d0 00       		.byte	0
 2108 02d1 00       		.byte	0
 2109 02d2 0D       		.uleb128 0xd
 2110 02d3 9F010000 		.4byte	0x19f
 2111 02d7 E2020000 		.4byte	0x2e2
 2112 02db 0E       		.uleb128 0xe
 2113 02dc CD000000 		.4byte	0xcd
 2114 02e0 08       		.byte	0x8
 2115 02e1 00       		.byte	0
 2116 02e2 04       		.uleb128 0x4
 2117 02e3 BB000000 		.4byte	.LASF49
 2118 02e7 03       		.byte	0x3
 2119 02e8 1201     		.2byte	0x112
 2120 02ea BA020000 		.4byte	0x2ba
ARM GAS  C:\Users\LAIR\AppData\Local\Temp\ccdy23dh.s 			page 84


 2121 02ee 12       		.uleb128 0x12
 2122 02ef 4002     		.2byte	0x240
 2123 02f1 03       		.byte	0x3
 2124 02f2 1501     		.2byte	0x115
 2125 02f4 06030000 		.4byte	0x306
 2126 02f8 10       		.uleb128 0x10
 2127 02f9 3F030000 		.4byte	.LASF50
 2128 02fd 03       		.byte	0x3
 2129 02fe 1701     		.2byte	0x117
 2130 0300 06030000 		.4byte	0x306
 2131 0304 00       		.byte	0
 2132 0305 00       		.byte	0
 2133 0306 0D       		.uleb128 0xd
 2134 0307 3B020000 		.4byte	0x23b
 2135 030b 16030000 		.4byte	0x316
 2136 030f 0E       		.uleb128 0xe
 2137 0310 CD000000 		.4byte	0xcd
 2138 0314 08       		.byte	0x8
 2139 0315 00       		.byte	0
 2140 0316 04       		.uleb128 0x4
 2141 0317 3E000000 		.4byte	.LASF51
 2142 031b 03       		.byte	0x3
 2143 031c 1801     		.2byte	0x118
 2144 031e EE020000 		.4byte	0x2ee
 2145 0322 12       		.uleb128 0x12
 2146 0323 4002     		.2byte	0x240
 2147 0325 03       		.byte	0x3
 2148 0326 1C01     		.2byte	0x11c
 2149 0328 3A030000 		.4byte	0x33a
 2150 032c 10       		.uleb128 0x10
 2151 032d 3F030000 		.4byte	.LASF50
 2152 0331 03       		.byte	0x3
 2153 0332 1E01     		.2byte	0x11e
 2154 0334 3A030000 		.4byte	0x33a
 2155 0338 00       		.byte	0
 2156 0339 00       		.byte	0
 2157 033a 0D       		.uleb128 0xd
 2158 033b AE020000 		.4byte	0x2ae
 2159 033f 4A030000 		.4byte	0x34a
 2160 0343 0E       		.uleb128 0xe
 2161 0344 CD000000 		.4byte	0xcd
 2162 0348 08       		.byte	0x8
 2163 0349 00       		.byte	0
 2164 034a 04       		.uleb128 0x4
 2165 034b BF030000 		.4byte	.LASF52
 2166 034f 03       		.byte	0x3
 2167 0350 1F01     		.2byte	0x11f
 2168 0352 22030000 		.4byte	0x322
 2169 0356 09       		.uleb128 0x9
 2170 0357 80       		.byte	0x80
 2171 0358 04       		.byte	0x4
 2172 0359 26       		.byte	0x26
 2173 035a 6B030000 		.4byte	0x36b
 2174 035e 0C       		.uleb128 0xc
 2175 035f 63746C00 		.ascii	"ctl\000"
 2176 0363 04       		.byte	0x4
 2177 0364 28       		.byte	0x28
ARM GAS  C:\Users\LAIR\AppData\Local\Temp\ccdy23dh.s 			page 85


 2178 0365 6B030000 		.4byte	0x36b
 2179 0369 00       		.byte	0
 2180 036a 00       		.byte	0
 2181 036b 0D       		.uleb128 0xd
 2182 036c 83000000 		.4byte	0x83
 2183 0370 7B030000 		.4byte	0x37b
 2184 0374 0E       		.uleb128 0xe
 2185 0375 CD000000 		.4byte	0xcd
 2186 0379 1F       		.byte	0x1f
 2187 037a 00       		.byte	0
 2188 037b 0B       		.uleb128 0xb
 2189 037c 90010000 		.4byte	.LASF53
 2190 0380 04       		.byte	0x4
 2191 0381 29       		.byte	0x29
 2192 0382 56030000 		.4byte	0x356
 2193 0386 09       		.uleb128 0x9
 2194 0387 10       		.byte	0x10
 2195 0388 04       		.byte	0x4
 2196 0389 2C       		.byte	0x2c
 2197 038a BF030000 		.4byte	0x3bf
 2198 038e 0C       		.uleb128 0xc
 2199 038f 73726300 		.ascii	"src\000"
 2200 0393 04       		.byte	0x4
 2201 0394 2E       		.byte	0x2e
 2202 0395 D4000000 		.4byte	0xd4
 2203 0399 00       		.byte	0
 2204 039a 0C       		.uleb128 0xc
 2205 039b 64737400 		.ascii	"dst\000"
 2206 039f 04       		.byte	0x4
 2207 03a0 2F       		.byte	0x2f
 2208 03a1 D4000000 		.4byte	0xd4
 2209 03a5 04       		.byte	0x4
 2210 03a6 0C       		.uleb128 0xc
 2211 03a7 63746C00 		.ascii	"ctl\000"
 2212 03ab 04       		.byte	0x4
 2213 03ac 30       		.byte	0x30
 2214 03ad 83000000 		.4byte	0x83
 2215 03b1 08       		.byte	0x8
 2216 03b2 0A       		.uleb128 0xa
 2217 03b3 A9060000 		.4byte	.LASF54
 2218 03b7 04       		.byte	0x4
 2219 03b8 31       		.byte	0x31
 2220 03b9 83000000 		.4byte	0x83
 2221 03bd 0C       		.byte	0xc
 2222 03be 00       		.byte	0
 2223 03bf 0B       		.uleb128 0xb
 2224 03c0 D7060000 		.4byte	.LASF55
 2225 03c4 04       		.byte	0x4
 2226 03c5 32       		.byte	0x32
 2227 03c6 86030000 		.4byte	0x386
 2228 03ca 13       		.uleb128 0x13
 2229 03cb 0004     		.2byte	0x400
 2230 03cd 04       		.byte	0x4
 2231 03ce 38       		.byte	0x38
 2232 03cf E0030000 		.4byte	0x3e0
 2233 03d3 0A       		.uleb128 0xa
 2234 03d4 EC050000 		.4byte	.LASF56
ARM GAS  C:\Users\LAIR\AppData\Local\Temp\ccdy23dh.s 			page 86


 2235 03d8 04       		.byte	0x4
 2236 03d9 3A       		.byte	0x3a
 2237 03da E0030000 		.4byte	0x3e0
 2238 03de 00       		.byte	0
 2239 03df 00       		.byte	0
 2240 03e0 0D       		.uleb128 0xd
 2241 03e1 BF030000 		.4byte	0x3bf
 2242 03e5 F6030000 		.4byte	0x3f6
 2243 03e9 0E       		.uleb128 0xe
 2244 03ea CD000000 		.4byte	0xcd
 2245 03ee 1F       		.byte	0x1f
 2246 03ef 0E       		.uleb128 0xe
 2247 03f0 CD000000 		.4byte	0xcd
 2248 03f4 01       		.byte	0x1
 2249 03f5 00       		.byte	0
 2250 03f6 0B       		.uleb128 0xb
 2251 03f7 32070000 		.4byte	.LASF57
 2252 03fb 04       		.byte	0x4
 2253 03fc 3B       		.byte	0x3b
 2254 03fd CA030000 		.4byte	0x3ca
 2255 0401 14       		.uleb128 0x14
 2256 0402 CC020000 		.4byte	.LASF119
 2257 0406 01       		.byte	0x1
 2258 0407 E203     		.2byte	0x3e2
 2259 0409 00000000 		.4byte	.LFB76
 2260 040d 10000000 		.4byte	.LFE76-.LFB76
 2261 0411 01       		.uleb128 0x1
 2262 0412 9C       		.byte	0x9c
 2263 0413 15       		.uleb128 0x15
 2264 0414 F7040000 		.4byte	.LASF58
 2265 0418 01       		.byte	0x1
 2266 0419 D2       		.byte	0xd2
 2267 041a 00000000 		.4byte	.LFB66
 2268 041e D4000000 		.4byte	.LFE66-.LFB66
 2269 0422 01       		.uleb128 0x1
 2270 0423 9C       		.byte	0x9c
 2271 0424 FA040000 		.4byte	0x4fa
 2272 0428 16       		.uleb128 0x16
 2273 0429 34000000 		.4byte	.LVL0
 2274 042d B30B0000 		.4byte	0xbb3
 2275 0431 3B040000 		.4byte	0x43b
 2276 0435 17       		.uleb128 0x17
 2277 0436 01       		.uleb128 0x1
 2278 0437 50       		.byte	0x50
 2279 0438 01       		.uleb128 0x1
 2280 0439 32       		.byte	0x32
 2281 043a 00       		.byte	0
 2282 043b 18       		.uleb128 0x18
 2283 043c 40000000 		.4byte	.LVL1
 2284 0440 C40B0000 		.4byte	0xbc4
 2285 0444 16       		.uleb128 0x16
 2286 0445 5E000000 		.4byte	.LVL2
 2287 0449 CF0B0000 		.4byte	0xbcf
 2288 044d 5C040000 		.4byte	0x45c
 2289 0451 17       		.uleb128 0x17
 2290 0452 01       		.uleb128 0x1
 2291 0453 51       		.byte	0x51
ARM GAS  C:\Users\LAIR\AppData\Local\Temp\ccdy23dh.s 			page 87


 2292 0454 01       		.uleb128 0x1
 2293 0455 33       		.byte	0x33
 2294 0456 17       		.uleb128 0x17
 2295 0457 01       		.uleb128 0x1
 2296 0458 50       		.byte	0x50
 2297 0459 01       		.uleb128 0x1
 2298 045a 4E       		.byte	0x4e
 2299 045b 00       		.byte	0
 2300 045c 16       		.uleb128 0x16
 2301 045d 66000000 		.4byte	.LVL3
 2302 0461 E50B0000 		.4byte	0xbe5
 2303 0465 6F040000 		.4byte	0x46f
 2304 0469 17       		.uleb128 0x17
 2305 046a 01       		.uleb128 0x1
 2306 046b 50       		.byte	0x50
 2307 046c 01       		.uleb128 0x1
 2308 046d 4E       		.byte	0x4e
 2309 046e 00       		.byte	0
 2310 046f 16       		.uleb128 0x16
 2311 0470 6E000000 		.4byte	.LVL4
 2312 0474 CF0B0000 		.4byte	0xbcf
 2313 0478 87040000 		.4byte	0x487
 2314 047c 17       		.uleb128 0x17
 2315 047d 01       		.uleb128 0x1
 2316 047e 51       		.byte	0x51
 2317 047f 01       		.uleb128 0x1
 2318 0480 33       		.byte	0x33
 2319 0481 17       		.uleb128 0x17
 2320 0482 01       		.uleb128 0x1
 2321 0483 50       		.byte	0x50
 2322 0484 01       		.uleb128 0x1
 2323 0485 4F       		.byte	0x4f
 2324 0486 00       		.byte	0
 2325 0487 16       		.uleb128 0x16
 2326 0488 76000000 		.4byte	.LVL5
 2327 048c E50B0000 		.4byte	0xbe5
 2328 0490 9A040000 		.4byte	0x49a
 2329 0494 17       		.uleb128 0x17
 2330 0495 01       		.uleb128 0x1
 2331 0496 50       		.byte	0x50
 2332 0497 01       		.uleb128 0x1
 2333 0498 4F       		.byte	0x4f
 2334 0499 00       		.byte	0
 2335 049a 16       		.uleb128 0x16
 2336 049b 7E000000 		.4byte	.LVL6
 2337 049f CF0B0000 		.4byte	0xbcf
 2338 04a3 B2040000 		.4byte	0x4b2
 2339 04a7 17       		.uleb128 0x17
 2340 04a8 01       		.uleb128 0x1
 2341 04a9 51       		.byte	0x51
 2342 04aa 01       		.uleb128 0x1
 2343 04ab 33       		.byte	0x33
 2344 04ac 17       		.uleb128 0x17
 2345 04ad 01       		.uleb128 0x1
 2346 04ae 50       		.byte	0x50
 2347 04af 01       		.uleb128 0x1
 2348 04b0 30       		.byte	0x30
ARM GAS  C:\Users\LAIR\AppData\Local\Temp\ccdy23dh.s 			page 88


 2349 04b1 00       		.byte	0
 2350 04b2 16       		.uleb128 0x16
 2351 04b3 86000000 		.4byte	.LVL7
 2352 04b7 E50B0000 		.4byte	0xbe5
 2353 04bb C5040000 		.4byte	0x4c5
 2354 04bf 17       		.uleb128 0x17
 2355 04c0 01       		.uleb128 0x1
 2356 04c1 50       		.byte	0x50
 2357 04c2 01       		.uleb128 0x1
 2358 04c3 30       		.byte	0x30
 2359 04c4 00       		.byte	0
 2360 04c5 16       		.uleb128 0x16
 2361 04c6 8E000000 		.4byte	.LVL8
 2362 04ca CF0B0000 		.4byte	0xbcf
 2363 04ce DD040000 		.4byte	0x4dd
 2364 04d2 17       		.uleb128 0x17
 2365 04d3 01       		.uleb128 0x1
 2366 04d4 51       		.byte	0x51
 2367 04d5 01       		.uleb128 0x1
 2368 04d6 33       		.byte	0x33
 2369 04d7 17       		.uleb128 0x17
 2370 04d8 01       		.uleb128 0x1
 2371 04d9 50       		.byte	0x50
 2372 04da 01       		.uleb128 0x1
 2373 04db 35       		.byte	0x35
 2374 04dc 00       		.byte	0
 2375 04dd 16       		.uleb128 0x16
 2376 04de 96000000 		.4byte	.LVL9
 2377 04e2 E50B0000 		.4byte	0xbe5
 2378 04e6 F0040000 		.4byte	0x4f0
 2379 04ea 17       		.uleb128 0x17
 2380 04eb 01       		.uleb128 0x1
 2381 04ec 50       		.byte	0x50
 2382 04ed 01       		.uleb128 0x1
 2383 04ee 35       		.byte	0x35
 2384 04ef 00       		.byte	0
 2385 04f0 18       		.uleb128 0x18
 2386 04f1 9A000000 		.4byte	.LVL10
 2387 04f5 01040000 		.4byte	0x401
 2388 04f9 00       		.byte	0
 2389 04fa 19       		.uleb128 0x19
 2390 04fb 2B020000 		.4byte	.LASF59
 2391 04ff 01       		.byte	0x1
 2392 0500 CB01     		.2byte	0x1cb
 2393 0502 00000000 		.4byte	.LFB67
 2394 0506 D4000000 		.4byte	.LFE67-.LFB67
 2395 050a 01       		.uleb128 0x1
 2396 050b 9C       		.byte	0x9c
 2397 050c 73050000 		.4byte	0x573
 2398 0510 1A       		.uleb128 0x1a
 2399 0511 E0000000 		.4byte	.LASF60
 2400 0515 01       		.byte	0x1
 2401 0516 CB01     		.2byte	0x1cb
 2402 0518 6B000000 		.4byte	0x6b
 2403 051c 00000000 		.4byte	.LLST0
 2404 0520 1A       		.uleb128 0x1a
 2405 0521 03060000 		.4byte	.LASF61
ARM GAS  C:\Users\LAIR\AppData\Local\Temp\ccdy23dh.s 			page 89


 2406 0525 01       		.byte	0x1
 2407 0526 CB01     		.2byte	0x1cb
 2408 0528 6B000000 		.4byte	0x6b
 2409 052c 21000000 		.4byte	.LLST1
 2410 0530 16       		.uleb128 0x16
 2411 0531 2C000000 		.4byte	.LVL13
 2412 0535 FF0B0000 		.4byte	0xbff
 2413 0539 43050000 		.4byte	0x543
 2414 053d 17       		.uleb128 0x17
 2415 053e 01       		.uleb128 0x1
 2416 053f 50       		.byte	0x50
 2417 0540 01       		.uleb128 0x1
 2418 0541 4E       		.byte	0x4e
 2419 0542 00       		.byte	0
 2420 0543 16       		.uleb128 0x16
 2421 0544 32000000 		.4byte	.LVL14
 2422 0548 FF0B0000 		.4byte	0xbff
 2423 054c 56050000 		.4byte	0x556
 2424 0550 17       		.uleb128 0x17
 2425 0551 01       		.uleb128 0x1
 2426 0552 50       		.byte	0x50
 2427 0553 01       		.uleb128 0x1
 2428 0554 30       		.byte	0x30
 2429 0555 00       		.byte	0
 2430 0556 16       		.uleb128 0x16
 2431 0557 38000000 		.4byte	.LVL15
 2432 055b FF0B0000 		.4byte	0xbff
 2433 055f 69050000 		.4byte	0x569
 2434 0563 17       		.uleb128 0x17
 2435 0564 01       		.uleb128 0x1
 2436 0565 50       		.byte	0x50
 2437 0566 01       		.uleb128 0x1
 2438 0567 4F       		.byte	0x4f
 2439 0568 00       		.byte	0
 2440 0569 18       		.uleb128 0x18
 2441 056a 48000000 		.4byte	.LVL16
 2442 056e 100C0000 		.4byte	0xc10
 2443 0572 00       		.byte	0
 2444 0573 15       		.uleb128 0x15
 2445 0574 2B060000 		.4byte	.LASF62
 2446 0578 01       		.byte	0x1
 2447 0579 B9       		.byte	0xb9
 2448 057a 00000000 		.4byte	.LFB65
 2449 057e 28000000 		.4byte	.LFE65-.LFB65
 2450 0582 01       		.uleb128 0x1
 2451 0583 9C       		.byte	0x9c
 2452 0584 C6050000 		.4byte	0x5c6
 2453 0588 1B       		.uleb128 0x1b
 2454 0589 E0000000 		.4byte	.LASF60
 2455 058d 01       		.byte	0x1
 2456 058e B9       		.byte	0xb9
 2457 058f 6B000000 		.4byte	0x6b
 2458 0593 42000000 		.4byte	.LLST2
 2459 0597 1B       		.uleb128 0x1b
 2460 0598 03060000 		.4byte	.LASF61
 2461 059c 01       		.byte	0x1
 2462 059d B9       		.byte	0xb9
ARM GAS  C:\Users\LAIR\AppData\Local\Temp\ccdy23dh.s 			page 90


 2463 059e 6B000000 		.4byte	0x6b
 2464 05a2 63000000 		.4byte	.LLST3
 2465 05a6 18       		.uleb128 0x18
 2466 05a7 12000000 		.4byte	.LVL18
 2467 05ab 13040000 		.4byte	0x413
 2468 05af 1C       		.uleb128 0x1c
 2469 05b0 20000000 		.4byte	.LVL19
 2470 05b4 FA040000 		.4byte	0x4fa
 2471 05b8 17       		.uleb128 0x17
 2472 05b9 01       		.uleb128 0x1
 2473 05ba 51       		.byte	0x51
 2474 05bb 02       		.uleb128 0x2
 2475 05bc 74       		.byte	0x74
 2476 05bd 00       		.sleb128 0
 2477 05be 17       		.uleb128 0x17
 2478 05bf 01       		.uleb128 0x1
 2479 05c0 50       		.byte	0x50
 2480 05c1 02       		.uleb128 0x2
 2481 05c2 75       		.byte	0x75
 2482 05c3 00       		.sleb128 0
 2483 05c4 00       		.byte	0
 2484 05c5 00       		.byte	0
 2485 05c6 1D       		.uleb128 0x1d
 2486 05c7 82060000 		.4byte	.LASF94
 2487 05cb 01       		.byte	0x1
 2488 05cc 9E02     		.2byte	0x29e
 2489 05ce 00000000 		.4byte	.LFB68
 2490 05d2 50000000 		.4byte	.LFE68-.LFB68
 2491 05d6 01       		.uleb128 0x1
 2492 05d7 9C       		.byte	0x9c
 2493 05d8 1E       		.uleb128 0x1e
 2494 05d9 17020000 		.4byte	.LASF63
 2495 05dd 01       		.byte	0x1
 2496 05de 4303     		.2byte	0x343
 2497 05e0 6B000000 		.4byte	0x6b
 2498 05e4 00000000 		.4byte	.LFB70
 2499 05e8 1C000000 		.4byte	.LFE70-.LFB70
 2500 05ec 01       		.uleb128 0x1
 2501 05ed 9C       		.byte	0x9c
 2502 05ee 01060000 		.4byte	0x601
 2503 05f2 1F       		.uleb128 0x1f
 2504 05f3 4F030000 		.4byte	.LASF65
 2505 05f7 01       		.byte	0x1
 2506 05f8 4503     		.2byte	0x345
 2507 05fa 83000000 		.4byte	0x83
 2508 05fe 01       		.uleb128 0x1
 2509 05ff 53       		.byte	0x53
 2510 0600 00       		.byte	0
 2511 0601 20       		.uleb128 0x20
 2512 0602 A9010000 		.4byte	.LASF92
 2513 0606 01       		.byte	0x1
 2514 0607 5A03     		.2byte	0x35a
 2515 0609 6B000000 		.4byte	0x6b
 2516 060d 00000000 		.4byte	.LFB71
 2517 0611 0C000000 		.4byte	.LFE71-.LFB71
 2518 0615 01       		.uleb128 0x1
 2519 0616 9C       		.byte	0x9c
ARM GAS  C:\Users\LAIR\AppData\Local\Temp\ccdy23dh.s 			page 91


 2520 0617 1E       		.uleb128 0x1e
 2521 0618 01010000 		.4byte	.LASF64
 2522 061c 01       		.byte	0x1
 2523 061d 7403     		.2byte	0x374
 2524 061f 6B000000 		.4byte	0x6b
 2525 0623 00000000 		.4byte	.LFB72
 2526 0627 1C000000 		.4byte	.LFE72-.LFB72
 2527 062b 01       		.uleb128 0x1
 2528 062c 9C       		.byte	0x9c
 2529 062d 42060000 		.4byte	0x642
 2530 0631 21       		.uleb128 0x21
 2531 0632 72657300 		.ascii	"res\000"
 2532 0636 01       		.byte	0x1
 2533 0637 7603     		.2byte	0x376
 2534 0639 6B000000 		.4byte	0x6b
 2535 063d 84000000 		.4byte	.LLST4
 2536 0641 00       		.byte	0
 2537 0642 1E       		.uleb128 0x1e
 2538 0643 8D050000 		.4byte	.LASF66
 2539 0647 01       		.byte	0x1
 2540 0648 9103     		.2byte	0x391
 2541 064a 6B000000 		.4byte	0x6b
 2542 064e 00000000 		.4byte	.LFB73
 2543 0652 0C000000 		.4byte	.LFE73-.LFB73
 2544 0656 01       		.uleb128 0x1
 2545 0657 9C       		.byte	0x9c
 2546 0658 6D060000 		.4byte	0x66d
 2547 065c 1A       		.uleb128 0x1a
 2548 065d 42060000 		.4byte	.LASF67
 2549 0661 01       		.byte	0x1
 2550 0662 9103     		.2byte	0x391
 2551 0664 6B000000 		.4byte	0x6b
 2552 0668 BA000000 		.4byte	.LLST5
 2553 066c 00       		.byte	0
 2554 066d 1E       		.uleb128 0x1e
 2555 066e 71060000 		.4byte	.LASF68
 2556 0672 01       		.byte	0x1
 2557 0673 B103     		.2byte	0x3b1
 2558 0675 6B000000 		.4byte	0x6b
 2559 0679 00000000 		.4byte	.LFB74
 2560 067d 14000000 		.4byte	.LFE74-.LFB74
 2561 0681 01       		.uleb128 0x1
 2562 0682 9C       		.byte	0x9c
 2563 0683 98060000 		.4byte	0x698
 2564 0687 1A       		.uleb128 0x1a
 2565 0688 D7000000 		.4byte	.LASF69
 2566 068c 01       		.byte	0x1
 2567 068d B103     		.2byte	0x3b1
 2568 068f 6B000000 		.4byte	0x6b
 2569 0693 DB000000 		.4byte	.LLST6
 2570 0697 00       		.byte	0
 2571 0698 1E       		.uleb128 0x1e
 2572 0699 53000000 		.4byte	.LASF70
 2573 069d 01       		.byte	0x1
 2574 069e C803     		.2byte	0x3c8
 2575 06a0 77000000 		.4byte	0x77
 2576 06a4 00000000 		.4byte	.LFB75
ARM GAS  C:\Users\LAIR\AppData\Local\Temp\ccdy23dh.s 			page 92


 2577 06a8 2C000000 		.4byte	.LFE75-.LFB75
 2578 06ac 01       		.uleb128 0x1
 2579 06ad 9C       		.byte	0x9c
 2580 06ae D3060000 		.4byte	0x6d3
 2581 06b2 1A       		.uleb128 0x1a
 2582 06b3 D7000000 		.4byte	.LASF69
 2583 06b7 01       		.byte	0x1
 2584 06b8 C803     		.2byte	0x3c8
 2585 06ba 6B000000 		.4byte	0x6b
 2586 06be FC000000 		.4byte	.LLST7
 2587 06c2 22       		.uleb128 0x22
 2588 06c3 77010000 		.4byte	.LASF71
 2589 06c7 01       		.byte	0x1
 2590 06c8 CA03     		.2byte	0x3ca
 2591 06ca 77000000 		.4byte	0x77
 2592 06ce 36010000 		.4byte	.LLST8
 2593 06d2 00       		.byte	0
 2594 06d3 19       		.uleb128 0x19
 2595 06d4 79020000 		.4byte	.LASF72
 2596 06d8 01       		.byte	0x1
 2597 06d9 B204     		.2byte	0x4b2
 2598 06db 00000000 		.4byte	.LFB77
 2599 06df 34000000 		.4byte	.LFE77-.LFB77
 2600 06e3 01       		.uleb128 0x1
 2601 06e4 9C       		.byte	0x9c
 2602 06e5 04070000 		.4byte	0x704
 2603 06e9 23       		.uleb128 0x23
 2604 06ea D7000000 		.4byte	.LASF69
 2605 06ee 01       		.byte	0x1
 2606 06ef B204     		.2byte	0x4b2
 2607 06f1 6B000000 		.4byte	0x6b
 2608 06f5 01       		.uleb128 0x1
 2609 06f6 50       		.byte	0x50
 2610 06f7 24       		.uleb128 0x24
 2611 06f8 6900     		.ascii	"i\000"
 2612 06fa 01       		.byte	0x1
 2613 06fb B404     		.2byte	0x4b4
 2614 06fd 83000000 		.4byte	0x83
 2615 0701 01       		.uleb128 0x1
 2616 0702 53       		.byte	0x53
 2617 0703 00       		.byte	0
 2618 0704 19       		.uleb128 0x19
 2619 0705 7C010000 		.4byte	.LASF73
 2620 0709 01       		.byte	0x1
 2621 070a D802     		.2byte	0x2d8
 2622 070c 00000000 		.4byte	.LFB69
 2623 0710 80000000 		.4byte	.LFE69-.LFB69
 2624 0714 01       		.uleb128 0x1
 2625 0715 9C       		.byte	0x9c
 2626 0716 85070000 		.4byte	0x785
 2627 071a 22       		.uleb128 0x22
 2628 071b 98060000 		.4byte	.LASF74
 2629 071f 01       		.byte	0x1
 2630 0720 DA02     		.2byte	0x2da
 2631 0722 6B000000 		.4byte	0x6b
 2632 0726 8F010000 		.4byte	.LLST9
 2633 072a 16       		.uleb128 0x16
ARM GAS  C:\Users\LAIR\AppData\Local\Temp\ccdy23dh.s 			page 93


 2634 072b 08000000 		.4byte	.LVL41
 2635 072f D3060000 		.4byte	0x6d3
 2636 0733 3D070000 		.4byte	0x73d
 2637 0737 17       		.uleb128 0x17
 2638 0738 01       		.uleb128 0x1
 2639 0739 50       		.byte	0x50
 2640 073a 01       		.uleb128 0x1
 2641 073b 39       		.byte	0x39
 2642 073c 00       		.byte	0
 2643 073d 18       		.uleb128 0x18
 2644 073e 0C000000 		.4byte	.LVL42
 2645 0742 170C0000 		.4byte	0xc17
 2646 0746 18       		.uleb128 0x18
 2647 0747 2E000000 		.4byte	.LVL43
 2648 074b 220C0000 		.4byte	0xc22
 2649 074f 16       		.uleb128 0x16
 2650 0750 34000000 		.4byte	.LVL44
 2651 0754 330C0000 		.4byte	0xc33
 2652 0758 62070000 		.4byte	0x762
 2653 075c 17       		.uleb128 0x17
 2654 075d 01       		.uleb128 0x1
 2655 075e 50       		.byte	0x50
 2656 075f 01       		.uleb128 0x1
 2657 0760 4E       		.byte	0x4e
 2658 0761 00       		.byte	0
 2659 0762 16       		.uleb128 0x16
 2660 0763 3A000000 		.4byte	.LVL45
 2661 0767 330C0000 		.4byte	0xc33
 2662 076b 75070000 		.4byte	0x775
 2663 076f 17       		.uleb128 0x17
 2664 0770 01       		.uleb128 0x1
 2665 0771 50       		.byte	0x50
 2666 0772 01       		.uleb128 0x1
 2667 0773 4F       		.byte	0x4f
 2668 0774 00       		.byte	0
 2669 0775 1C       		.uleb128 0x1c
 2670 0776 40000000 		.4byte	.LVL46
 2671 077a 330C0000 		.4byte	0xc33
 2672 077e 17       		.uleb128 0x17
 2673 077f 01       		.uleb128 0x1
 2674 0780 50       		.byte	0x50
 2675 0781 01       		.uleb128 0x1
 2676 0782 30       		.byte	0x30
 2677 0783 00       		.byte	0
 2678 0784 00       		.byte	0
 2679 0785 19       		.uleb128 0x19
 2680 0786 C8060000 		.4byte	.LASF75
 2681 078a 01       		.byte	0x1
 2682 078b 3005     		.2byte	0x530
 2683 078d 00000000 		.4byte	.LFB78
 2684 0791 E8000000 		.4byte	.LFE78-.LFB78
 2685 0795 01       		.uleb128 0x1
 2686 0796 9C       		.byte	0x9c
 2687 0797 E6070000 		.4byte	0x7e6
 2688 079b 1A       		.uleb128 0x1a
 2689 079c D7000000 		.4byte	.LASF69
 2690 07a0 01       		.byte	0x1
ARM GAS  C:\Users\LAIR\AppData\Local\Temp\ccdy23dh.s 			page 94


 2691 07a1 3005     		.2byte	0x530
 2692 07a3 6B000000 		.4byte	0x6b
 2693 07a7 A2010000 		.4byte	.LLST10
 2694 07ab 1A       		.uleb128 0x1a
 2695 07ac 3F020000 		.4byte	.LASF76
 2696 07b0 01       		.byte	0x1
 2697 07b1 3005     		.2byte	0x530
 2698 07b3 E6070000 		.4byte	0x7e6
 2699 07b7 DC010000 		.4byte	.LLST11
 2700 07bb 1A       		.uleb128 0x1a
 2701 07bc F7050000 		.4byte	.LASF77
 2702 07c0 01       		.byte	0x1
 2703 07c1 3005     		.2byte	0x530
 2704 07c3 77000000 		.4byte	0x77
 2705 07c7 50020000 		.4byte	.LLST12
 2706 07cb 25       		.uleb128 0x25
 2707 07cc 5C000000 		.4byte	.LBB2
 2708 07d0 4E000000 		.4byte	.LBE2-.LBB2
 2709 07d4 22       		.uleb128 0x22
 2710 07d5 15060000 		.4byte	.LASF78
 2711 07d9 01       		.byte	0x1
 2712 07da 6305     		.2byte	0x563
 2713 07dc 83000000 		.4byte	0x83
 2714 07e0 92020000 		.4byte	.LLST13
 2715 07e4 00       		.byte	0
 2716 07e5 00       		.byte	0
 2717 07e6 06       		.uleb128 0x6
 2718 07e7 04       		.byte	0x4
 2719 07e8 EC070000 		.4byte	0x7ec
 2720 07ec 26       		.uleb128 0x26
 2721 07ed 6B000000 		.4byte	0x6b
 2722 07f1 1E       		.uleb128 0x1e
 2723 07f2 69020000 		.4byte	.LASF79
 2724 07f6 01       		.byte	0x1
 2725 07f7 6306     		.2byte	0x663
 2726 07f9 77000000 		.4byte	0x77
 2727 07fd 00000000 		.4byte	.LFB79
 2728 0801 94000000 		.4byte	.LFE79-.LFB79
 2729 0805 01       		.uleb128 0x1
 2730 0806 9C       		.byte	0x9c
 2731 0807 7E080000 		.4byte	0x87e
 2732 080b 1A       		.uleb128 0x1a
 2733 080c D7000000 		.4byte	.LASF69
 2734 0810 01       		.byte	0x1
 2735 0811 6306     		.2byte	0x663
 2736 0813 6B000000 		.4byte	0x6b
 2737 0817 BD020000 		.4byte	.LLST14
 2738 081b 1A       		.uleb128 0x1a
 2739 081c 3F020000 		.4byte	.LASF76
 2740 0820 01       		.byte	0x1
 2741 0821 6306     		.2byte	0x663
 2742 0823 7E080000 		.4byte	0x87e
 2743 0827 F7020000 		.4byte	.LLST15
 2744 082b 1A       		.uleb128 0x1a
 2745 082c F7050000 		.4byte	.LASF77
 2746 0830 01       		.byte	0x1
 2747 0831 6306     		.2byte	0x663
ARM GAS  C:\Users\LAIR\AppData\Local\Temp\ccdy23dh.s 			page 95


 2748 0833 77000000 		.4byte	0x77
 2749 0837 48030000 		.4byte	.LLST16
 2750 083b 27       		.uleb128 0x27
 2751 083c 24000000 		.4byte	.LBB3
 2752 0840 38000000 		.4byte	.LBE3-.LBB3
 2753 0844 59080000 		.4byte	0x859
 2754 0848 22       		.uleb128 0x22
 2755 0849 15060000 		.4byte	.LASF78
 2756 084d 01       		.byte	0x1
 2757 084e 8606     		.2byte	0x686
 2758 0850 83000000 		.4byte	0x83
 2759 0854 8A030000 		.4byte	.LLST17
 2760 0858 00       		.byte	0
 2761 0859 16       		.uleb128 0x16
 2762 085a 18000000 		.4byte	.LVL66
 2763 085e 98060000 		.4byte	0x698
 2764 0862 6D080000 		.4byte	0x86d
 2765 0866 17       		.uleb128 0x17
 2766 0867 01       		.uleb128 0x1
 2767 0868 50       		.byte	0x50
 2768 0869 02       		.uleb128 0x2
 2769 086a 74       		.byte	0x74
 2770 086b 00       		.sleb128 0
 2771 086c 00       		.byte	0
 2772 086d 1C       		.uleb128 0x1c
 2773 086e 22000000 		.4byte	.LVL67
 2774 0872 98060000 		.4byte	0x698
 2775 0876 17       		.uleb128 0x17
 2776 0877 01       		.uleb128 0x1
 2777 0878 50       		.byte	0x50
 2778 0879 02       		.uleb128 0x2
 2779 087a 74       		.byte	0x74
 2780 087b 00       		.sleb128 0
 2781 087c 00       		.byte	0
 2782 087d 00       		.byte	0
 2783 087e 06       		.uleb128 0x6
 2784 087f 04       		.byte	0x4
 2785 0880 6B000000 		.4byte	0x6b
 2786 0884 19       		.uleb128 0x19
 2787 0885 02050000 		.4byte	.LASF80
 2788 0889 01       		.byte	0x1
 2789 088a 3307     		.2byte	0x733
 2790 088c 00000000 		.4byte	.LFB80
 2791 0890 00010000 		.4byte	.LFE80-.LFB80
 2792 0894 01       		.uleb128 0x1
 2793 0895 9C       		.byte	0x9c
 2794 0896 F8080000 		.4byte	0x8f8
 2795 089a 1A       		.uleb128 0x1a
 2796 089b D7000000 		.4byte	.LASF69
 2797 089f 01       		.byte	0x1
 2798 08a0 3307     		.2byte	0x733
 2799 08a2 6B000000 		.4byte	0x6b
 2800 08a6 9D030000 		.4byte	.LLST18
 2801 08aa 1A       		.uleb128 0x1a
 2802 08ab 3F020000 		.4byte	.LASF76
 2803 08af 01       		.byte	0x1
 2804 08b0 3307     		.2byte	0x733
ARM GAS  C:\Users\LAIR\AppData\Local\Temp\ccdy23dh.s 			page 96


 2805 08b2 E6070000 		.4byte	0x7e6
 2806 08b6 BE030000 		.4byte	.LLST19
 2807 08ba 1A       		.uleb128 0x1a
 2808 08bb F7050000 		.4byte	.LASF77
 2809 08bf 01       		.byte	0x1
 2810 08c0 3307     		.2byte	0x733
 2811 08c2 77000000 		.4byte	0x77
 2812 08c6 2E040000 		.4byte	.LLST20
 2813 08ca 27       		.uleb128 0x27
 2814 08cb 74000000 		.4byte	.LBB4
 2815 08cf 50000000 		.4byte	.LBE4-.LBB4
 2816 08d3 E8080000 		.4byte	0x8e8
 2817 08d7 22       		.uleb128 0x22
 2818 08d8 15060000 		.4byte	.LASF78
 2819 08dc 01       		.byte	0x1
 2820 08dd 6507     		.2byte	0x765
 2821 08df 83000000 		.4byte	0x83
 2822 08e3 7B040000 		.4byte	.LLST21
 2823 08e7 00       		.byte	0
 2824 08e8 1C       		.uleb128 0x1c
 2825 08e9 12000000 		.4byte	.LVL78
 2826 08ed 440C0000 		.4byte	0xc44
 2827 08f1 17       		.uleb128 0x17
 2828 08f2 01       		.uleb128 0x1
 2829 08f3 50       		.byte	0x50
 2830 08f4 01       		.uleb128 0x1
 2831 08f5 30       		.byte	0x30
 2832 08f6 00       		.byte	0
 2833 08f7 00       		.byte	0
 2834 08f8 1E       		.uleb128 0x1e
 2835 08f9 20070000 		.4byte	.LASF81
 2836 08fd 01       		.byte	0x1
 2837 08fe 1F08     		.2byte	0x81f
 2838 0900 77000000 		.4byte	0x77
 2839 0904 00000000 		.4byte	.LFB81
 2840 0908 B8000000 		.4byte	.LFE81-.LFB81
 2841 090c 01       		.uleb128 0x1
 2842 090d 9C       		.byte	0x9c
 2843 090e A8090000 		.4byte	0x9a8
 2844 0912 1A       		.uleb128 0x1a
 2845 0913 D7000000 		.4byte	.LASF69
 2846 0917 01       		.byte	0x1
 2847 0918 1F08     		.2byte	0x81f
 2848 091a 6B000000 		.4byte	0x6b
 2849 091e A6040000 		.4byte	.LLST22
 2850 0922 1A       		.uleb128 0x1a
 2851 0923 3F020000 		.4byte	.LASF76
 2852 0927 01       		.byte	0x1
 2853 0928 1F08     		.2byte	0x81f
 2854 092a 7E080000 		.4byte	0x87e
 2855 092e C7040000 		.4byte	.LLST23
 2856 0932 1A       		.uleb128 0x1a
 2857 0933 F7050000 		.4byte	.LASF77
 2858 0937 01       		.byte	0x1
 2859 0938 1F08     		.2byte	0x81f
 2860 093a 77000000 		.4byte	0x77
 2861 093e 18050000 		.4byte	.LLST24
ARM GAS  C:\Users\LAIR\AppData\Local\Temp\ccdy23dh.s 			page 97


 2862 0942 22       		.uleb128 0x22
 2863 0943 32010000 		.4byte	.LASF82
 2864 0947 01       		.byte	0x1
 2865 0948 2108     		.2byte	0x821
 2866 094a 83000000 		.4byte	0x83
 2867 094e 5D050000 		.4byte	.LLST25
 2868 0952 27       		.uleb128 0x27
 2869 0953 3C000000 		.4byte	.LBB5
 2870 0957 50000000 		.4byte	.LBE5-.LBB5
 2871 095b 70090000 		.4byte	0x970
 2872 095f 22       		.uleb128 0x22
 2873 0960 15060000 		.4byte	.LASF78
 2874 0964 01       		.byte	0x1
 2875 0965 4308     		.2byte	0x843
 2876 0967 83000000 		.4byte	0x83
 2877 096b 70050000 		.4byte	.LLST26
 2878 096f 00       		.byte	0
 2879 0970 16       		.uleb128 0x16
 2880 0971 16000000 		.4byte	.LVL96
 2881 0975 440C0000 		.4byte	0xc44
 2882 0979 83090000 		.4byte	0x983
 2883 097d 17       		.uleb128 0x17
 2884 097e 01       		.uleb128 0x1
 2885 097f 50       		.byte	0x50
 2886 0980 01       		.uleb128 0x1
 2887 0981 30       		.byte	0x30
 2888 0982 00       		.byte	0
 2889 0983 16       		.uleb128 0x16
 2890 0984 28000000 		.4byte	.LVL97
 2891 0988 98060000 		.4byte	0x698
 2892 098c 97090000 		.4byte	0x997
 2893 0990 17       		.uleb128 0x17
 2894 0991 01       		.uleb128 0x1
 2895 0992 50       		.byte	0x50
 2896 0993 02       		.uleb128 0x2
 2897 0994 74       		.byte	0x74
 2898 0995 00       		.sleb128 0
 2899 0996 00       		.byte	0
 2900 0997 1C       		.uleb128 0x1c
 2901 0998 32000000 		.4byte	.LVL98
 2902 099c 98060000 		.4byte	0x698
 2903 09a0 17       		.uleb128 0x17
 2904 09a1 01       		.uleb128 0x1
 2905 09a2 50       		.byte	0x50
 2906 09a3 02       		.uleb128 0x2
 2907 09a4 74       		.byte	0x74
 2908 09a5 00       		.sleb128 0
 2909 09a6 00       		.byte	0
 2910 09a7 00       		.byte	0
 2911 09a8 19       		.uleb128 0x19
 2912 09a9 7B050000 		.4byte	.LASF83
 2913 09ad 01       		.byte	0x1
 2914 09ae C708     		.2byte	0x8c7
 2915 09b0 00000000 		.4byte	.LFB82
 2916 09b4 2C000000 		.4byte	.LFE82-.LFB82
 2917 09b8 01       		.uleb128 0x1
 2918 09b9 9C       		.byte	0x9c
ARM GAS  C:\Users\LAIR\AppData\Local\Temp\ccdy23dh.s 			page 98


 2919 09ba CF090000 		.4byte	0x9cf
 2920 09be 1A       		.uleb128 0x1a
 2921 09bf D7000000 		.4byte	.LASF69
 2922 09c3 01       		.byte	0x1
 2923 09c4 C708     		.2byte	0x8c7
 2924 09c6 6B000000 		.4byte	0x6b
 2925 09ca 83050000 		.4byte	.LLST27
 2926 09ce 00       		.byte	0
 2927 09cf 19       		.uleb128 0x19
 2928 09d0 B5060000 		.4byte	.LASF84
 2929 09d4 01       		.byte	0x1
 2930 09d5 DF08     		.2byte	0x8df
 2931 09d7 00000000 		.4byte	.LFB83
 2932 09db 18000000 		.4byte	.LFE83-.LFB83
 2933 09df 01       		.uleb128 0x1
 2934 09e0 9C       		.byte	0x9c
 2935 09e1 F6090000 		.4byte	0x9f6
 2936 09e5 1A       		.uleb128 0x1a
 2937 09e6 D7000000 		.4byte	.LASF69
 2938 09ea 01       		.byte	0x1
 2939 09eb DF08     		.2byte	0x8df
 2940 09ed 6B000000 		.4byte	0x6b
 2941 09f1 A4050000 		.4byte	.LLST28
 2942 09f5 00       		.byte	0
 2943 09f6 19       		.uleb128 0x19
 2944 09f7 72000000 		.4byte	.LASF85
 2945 09fb 01       		.byte	0x1
 2946 09fc FD08     		.2byte	0x8fd
 2947 09fe 00000000 		.4byte	.LFB84
 2948 0a02 0C000000 		.4byte	.LFE84-.LFB84
 2949 0a06 01       		.uleb128 0x1
 2950 0a07 9C       		.byte	0x9c
 2951 0a08 1B0A0000 		.4byte	0xa1b
 2952 0a0c 23       		.uleb128 0x23
 2953 0a0d E5050000 		.4byte	.LASF86
 2954 0a11 01       		.byte	0x1
 2955 0a12 FD08     		.2byte	0x8fd
 2956 0a14 6B000000 		.4byte	0x6b
 2957 0a18 01       		.uleb128 0x1
 2958 0a19 50       		.byte	0x50
 2959 0a1a 00       		.byte	0
 2960 0a1b 1E       		.uleb128 0x1e
 2961 0a1c 95000000 		.4byte	.LASF87
 2962 0a20 01       		.byte	0x1
 2963 0a21 1609     		.2byte	0x916
 2964 0a23 6B000000 		.4byte	0x6b
 2965 0a27 00000000 		.4byte	.LFB85
 2966 0a2b 20000000 		.4byte	.LFE85-.LFB85
 2967 0a2f 01       		.uleb128 0x1
 2968 0a30 9C       		.byte	0x9c
 2969 0a31 550A0000 		.4byte	0xa55
 2970 0a35 1A       		.uleb128 0x1a
 2971 0a36 D7000000 		.4byte	.LASF69
 2972 0a3a 01       		.byte	0x1
 2973 0a3b 1609     		.2byte	0x916
 2974 0a3d 6B000000 		.4byte	0x6b
 2975 0a41 C5050000 		.4byte	.LLST29
ARM GAS  C:\Users\LAIR\AppData\Local\Temp\ccdy23dh.s 			page 99


 2976 0a45 21       		.uleb128 0x21
 2977 0a46 637200   		.ascii	"cr\000"
 2978 0a49 01       		.byte	0x1
 2979 0a4a 1809     		.2byte	0x918
 2980 0a4c 83000000 		.4byte	0x83
 2981 0a50 FF050000 		.4byte	.LLST30
 2982 0a54 00       		.byte	0
 2983 0a55 19       		.uleb128 0x19
 2984 0a56 94030000 		.4byte	.LASF88
 2985 0a5a 01       		.byte	0x1
 2986 0a5b 3F09     		.2byte	0x93f
 2987 0a5d 00000000 		.4byte	.LFB86
 2988 0a61 20000000 		.4byte	.LFE86-.LFB86
 2989 0a65 01       		.uleb128 0x1
 2990 0a66 9C       		.byte	0x9c
 2991 0a67 7A0A0000 		.4byte	0xa7a
 2992 0a6b 23       		.uleb128 0x23
 2993 0a6c FF010000 		.4byte	.LASF89
 2994 0a70 01       		.byte	0x1
 2995 0a71 3F09     		.2byte	0x93f
 2996 0a73 6B000000 		.4byte	0x6b
 2997 0a77 01       		.uleb128 0x1
 2998 0a78 50       		.byte	0x50
 2999 0a79 00       		.byte	0
 3000 0a7a 1E       		.uleb128 0x1e
 3001 0a7b 52010000 		.4byte	.LASF90
 3002 0a7f 01       		.byte	0x1
 3003 0a80 7809     		.2byte	0x978
 3004 0a82 6B000000 		.4byte	0x6b
 3005 0a86 00000000 		.4byte	.LFB87
 3006 0a8a 14000000 		.4byte	.LFE87-.LFB87
 3007 0a8e 01       		.uleb128 0x1
 3008 0a8f 9C       		.byte	0x9c
 3009 0a90 A50A0000 		.4byte	0xaa5
 3010 0a94 22       		.uleb128 0x22
 3011 0a95 55070000 		.4byte	.LASF91
 3012 0a99 01       		.byte	0x1
 3013 0a9a 7A09     		.2byte	0x97a
 3014 0a9c 6B000000 		.4byte	0x6b
 3015 0aa0 35060000 		.4byte	.LLST31
 3016 0aa4 00       		.byte	0
 3017 0aa5 20       		.uleb128 0x20
 3018 0aa6 DC020000 		.4byte	.LASF93
 3019 0aaa 01       		.byte	0x1
 3020 0aab 9009     		.2byte	0x990
 3021 0aad 6B000000 		.4byte	0x6b
 3022 0ab1 00000000 		.4byte	.LFB88
 3023 0ab5 10000000 		.4byte	.LFE88-.LFB88
 3024 0ab9 01       		.uleb128 0x1
 3025 0aba 9C       		.byte	0x9c
 3026 0abb 1D       		.uleb128 0x1d
 3027 0abc 77030000 		.4byte	.LASF95
 3028 0ac0 01       		.byte	0x1
 3029 0ac1 9E09     		.2byte	0x99e
 3030 0ac3 00000000 		.4byte	.LFB89
 3031 0ac7 10000000 		.4byte	.LFE89-.LFB89
 3032 0acb 01       		.uleb128 0x1
ARM GAS  C:\Users\LAIR\AppData\Local\Temp\ccdy23dh.s 			page 100


 3033 0acc 9C       		.byte	0x9c
 3034 0acd 1D       		.uleb128 0x1d
 3035 0ace 13050000 		.4byte	.LASF96
 3036 0ad2 01       		.byte	0x1
 3037 0ad3 B409     		.2byte	0x9b4
 3038 0ad5 00000000 		.4byte	.LFB90
 3039 0ad9 10000000 		.4byte	.LFE90-.LFB90
 3040 0add 01       		.uleb128 0x1
 3041 0ade 9C       		.byte	0x9c
 3042 0adf 28       		.uleb128 0x28
 3043 0ae0 64000000 		.4byte	.LASF97
 3044 0ae4 01       		.byte	0x1
 3045 0ae5 27       		.byte	0x27
 3046 0ae6 6B000000 		.4byte	0x6b
 3047 0aea 05       		.uleb128 0x5
 3048 0aeb 03       		.byte	0x3
 3049 0aec 00000000 		.4byte	USBFS_initVar
 3050 0af0 29       		.uleb128 0x29
 3051 0af1 D8050000 		.4byte	.LASF98
 3052 0af5 03       		.byte	0x3
 3053 0af6 D302     		.2byte	0x2d3
 3054 0af8 A4000000 		.4byte	0xa4
 3055 0afc 29       		.uleb128 0x29
 3056 0afd 27050000 		.4byte	.LASF99
 3057 0b01 03       		.byte	0x3
 3058 0b02 D402     		.2byte	0x2d4
 3059 0b04 A4000000 		.4byte	0xa4
 3060 0b08 29       		.uleb128 0x29
 3061 0b09 45020000 		.4byte	.LASF100
 3062 0b0d 03       		.byte	0x3
 3063 0b0e D502     		.2byte	0x2d5
 3064 0b10 A4000000 		.4byte	0xa4
 3065 0b14 29       		.uleb128 0x29
 3066 0b15 56030000 		.4byte	.LASF101
 3067 0b19 03       		.byte	0x3
 3068 0b1a D602     		.2byte	0x2d6
 3069 0b1c A4000000 		.4byte	0xa4
 3070 0b20 29       		.uleb128 0x29
 3071 0b21 52060000 		.4byte	.LASF102
 3072 0b25 03       		.byte	0x3
 3073 0b26 D702     		.2byte	0x2d7
 3074 0b28 A4000000 		.4byte	0xa4
 3075 0b2c 2A       		.uleb128 0x2a
 3076 0b2d 3C010000 		.4byte	.LASF103
 3077 0b31 05       		.byte	0x5
 3078 0b32 72       		.byte	0x72
 3079 0b33 A4000000 		.4byte	0xa4
 3080 0b37 0D       		.uleb128 0xd
 3081 0b38 6B000000 		.4byte	0x6b
 3082 0b3c 470B0000 		.4byte	0xb47
 3083 0b40 0E       		.uleb128 0xe
 3084 0b41 CD000000 		.4byte	0xcd
 3085 0b45 00       		.byte	0
 3086 0b46 00       		.byte	0
 3087 0b47 2A       		.uleb128 0x2a
 3088 0b48 AC050000 		.4byte	.LASF104
 3089 0b4c 05       		.byte	0x5
ARM GAS  C:\Users\LAIR\AppData\Local\Temp\ccdy23dh.s 			page 101


 3090 0b4d 73       		.byte	0x73
 3091 0b4e 520B0000 		.4byte	0xb52
 3092 0b52 05       		.uleb128 0x5
 3093 0b53 370B0000 		.4byte	0xb37
 3094 0b57 2A       		.uleb128 0x2a
 3095 0b58 1E010000 		.4byte	.LASF105
 3096 0b5c 05       		.byte	0x5
 3097 0b5d 75       		.byte	0x75
 3098 0b5e A4000000 		.4byte	0xa4
 3099 0b62 0D       		.uleb128 0xd
 3100 0b63 4B010000 		.4byte	0x14b
 3101 0b67 720B0000 		.4byte	0xb72
 3102 0b6b 0E       		.uleb128 0xe
 3103 0b6c CD000000 		.4byte	0xcd
 3104 0b70 08       		.byte	0x8
 3105 0b71 00       		.byte	0
 3106 0b72 2A       		.uleb128 0x2a
 3107 0b73 EE040000 		.4byte	.LASF106
 3108 0b77 05       		.byte	0x5
 3109 0b78 79       		.byte	0x79
 3110 0b79 7D0B0000 		.4byte	0xb7d
 3111 0b7d 05       		.uleb128 0x5
 3112 0b7e 620B0000 		.4byte	0xb62
 3113 0b82 0D       		.uleb128 0xd
 3114 0b83 6B000000 		.4byte	0x6b
 3115 0b87 920B0000 		.4byte	0xb92
 3116 0b8b 0E       		.uleb128 0xe
 3117 0b8c CD000000 		.4byte	0xcd
 3118 0b90 08       		.byte	0x8
 3119 0b91 00       		.byte	0
 3120 0b92 28       		.uleb128 0x28
 3121 0b93 A7020000 		.4byte	.LASF107
 3122 0b97 01       		.byte	0x1
 3123 0b98 2E       		.byte	0x2e
 3124 0b99 A30B0000 		.4byte	0xba3
 3125 0b9d 05       		.uleb128 0x5
 3126 0b9e 03       		.byte	0x3
 3127 0b9f 00000000 		.4byte	USBFS_DmaChan
 3128 0ba3 26       		.uleb128 0x26
 3129 0ba4 820B0000 		.4byte	0xb82
 3130 0ba8 2A       		.uleb128 0x2a
 3131 0ba9 5A050000 		.4byte	.LASF108
 3132 0bad 05       		.byte	0x5
 3133 0bae 9B       		.byte	0x9b
 3134 0baf A4000000 		.4byte	0xa4
 3135 0bb3 2B       		.uleb128 0x2b
 3136 0bb4 EE010000 		.4byte	.LASF109
 3137 0bb8 06       		.byte	0x6
 3138 0bb9 D8       		.byte	0xd8
 3139 0bba C40B0000 		.4byte	0xbc4
 3140 0bbe 2C       		.uleb128 0x2c
 3141 0bbf 77000000 		.4byte	0x77
 3142 0bc3 00       		.byte	0
 3143 0bc4 2D       		.uleb128 0x2d
 3144 0bc5 29030000 		.4byte	.LASF112
 3145 0bc9 06       		.byte	0x6
 3146 0bca 64       		.byte	0x64
ARM GAS  C:\Users\LAIR\AppData\Local\Temp\ccdy23dh.s 			page 102


 3147 0bcb 83000000 		.4byte	0x83
 3148 0bcf 2B       		.uleb128 0x2b
 3149 0bd0 7E040000 		.4byte	.LASF110
 3150 0bd4 06       		.byte	0x6
 3151 0bd5 BE       		.byte	0xbe
 3152 0bd6 E50B0000 		.4byte	0xbe5
 3153 0bda 2C       		.uleb128 0x2c
 3154 0bdb 6B000000 		.4byte	0x6b
 3155 0bdf 2C       		.uleb128 0x2c
 3156 0be0 6B000000 		.4byte	0x6b
 3157 0be4 00       		.byte	0
 3158 0be5 2E       		.uleb128 0x2e
 3159 0be6 06030000 		.4byte	.LASF120
 3160 0bea 06       		.byte	0x6
 3161 0beb BB       		.byte	0xbb
 3162 0bec BA000000 		.4byte	0xba
 3163 0bf0 FF0B0000 		.4byte	0xbff
 3164 0bf4 2C       		.uleb128 0x2c
 3165 0bf5 6B000000 		.4byte	0x6b
 3166 0bf9 2C       		.uleb128 0x2c
 3167 0bfa BA000000 		.4byte	0xba
 3168 0bfe 00       		.byte	0
 3169 0bff 2B       		.uleb128 0x2b
 3170 0c00 6F050000 		.4byte	.LASF111
 3171 0c04 06       		.byte	0x6
 3172 0c05 C1       		.byte	0xc1
 3173 0c06 100C0000 		.4byte	0xc10
 3174 0c0a 2C       		.uleb128 0x2c
 3175 0c0b 6B000000 		.4byte	0x6b
 3176 0c0f 00       		.byte	0
 3177 0c10 2F       		.uleb128 0x2f
 3178 0c11 65060000 		.4byte	.LASF121
 3179 0c15 04       		.byte	0x4
 3180 0c16 6D       		.byte	0x6d
 3181 0c17 2D       		.uleb128 0x2d
 3182 0c18 B5020000 		.4byte	.LASF113
 3183 0c1c 06       		.byte	0x6
 3184 0c1d E3       		.byte	0xe3
 3185 0c1e 6B000000 		.4byte	0x6b
 3186 0c22 2B       		.uleb128 0x2b
 3187 0c23 28000000 		.4byte	.LASF114
 3188 0c27 06       		.byte	0x6
 3189 0c28 E4       		.byte	0xe4
 3190 0c29 330C0000 		.4byte	0xc33
 3191 0c2d 2C       		.uleb128 0x2c
 3192 0c2e 6B000000 		.4byte	0x6b
 3193 0c32 00       		.byte	0
 3194 0c33 2B       		.uleb128 0x2b
 3195 0c34 13070000 		.4byte	.LASF115
 3196 0c38 06       		.byte	0x6
 3197 0c39 C3       		.byte	0xc3
 3198 0c3a 440C0000 		.4byte	0xc44
 3199 0c3e 2C       		.uleb128 0x2c
 3200 0c3f 6B000000 		.4byte	0x6b
 3201 0c43 00       		.byte	0
 3202 0c44 30       		.uleb128 0x30
 3203 0c45 4E070000 		.4byte	.LASF122
ARM GAS  C:\Users\LAIR\AppData\Local\Temp\ccdy23dh.s 			page 103


 3204 0c49 06       		.byte	0x6
 3205 0c4a E5       		.byte	0xe5
 3206 0c4b 2C       		.uleb128 0x2c
 3207 0c4c 6B000000 		.4byte	0x6b
 3208 0c50 00       		.byte	0
 3209 0c51 00       		.byte	0
 3210              		.section	.debug_abbrev,"",%progbits
 3211              	.Ldebug_abbrev0:
 3212 0000 01       		.uleb128 0x1
 3213 0001 11       		.uleb128 0x11
 3214 0002 01       		.byte	0x1
 3215 0003 25       		.uleb128 0x25
 3216 0004 0E       		.uleb128 0xe
 3217 0005 13       		.uleb128 0x13
 3218 0006 0B       		.uleb128 0xb
 3219 0007 03       		.uleb128 0x3
 3220 0008 0E       		.uleb128 0xe
 3221 0009 1B       		.uleb128 0x1b
 3222 000a 0E       		.uleb128 0xe
 3223 000b 55       		.uleb128 0x55
 3224 000c 17       		.uleb128 0x17
 3225 000d 11       		.uleb128 0x11
 3226 000e 01       		.uleb128 0x1
 3227 000f 10       		.uleb128 0x10
 3228 0010 17       		.uleb128 0x17
 3229 0011 00       		.byte	0
 3230 0012 00       		.byte	0
 3231 0013 02       		.uleb128 0x2
 3232 0014 24       		.uleb128 0x24
 3233 0015 00       		.byte	0
 3234 0016 0B       		.uleb128 0xb
 3235 0017 0B       		.uleb128 0xb
 3236 0018 3E       		.uleb128 0x3e
 3237 0019 0B       		.uleb128 0xb
 3238 001a 03       		.uleb128 0x3
 3239 001b 0E       		.uleb128 0xe
 3240 001c 00       		.byte	0
 3241 001d 00       		.byte	0
 3242 001e 03       		.uleb128 0x3
 3243 001f 24       		.uleb128 0x24
 3244 0020 00       		.byte	0
 3245 0021 0B       		.uleb128 0xb
 3246 0022 0B       		.uleb128 0xb
 3247 0023 3E       		.uleb128 0x3e
 3248 0024 0B       		.uleb128 0xb
 3249 0025 03       		.uleb128 0x3
 3250 0026 08       		.uleb128 0x8
 3251 0027 00       		.byte	0
 3252 0028 00       		.byte	0
 3253 0029 04       		.uleb128 0x4
 3254 002a 16       		.uleb128 0x16
 3255 002b 00       		.byte	0
 3256 002c 03       		.uleb128 0x3
 3257 002d 0E       		.uleb128 0xe
 3258 002e 3A       		.uleb128 0x3a
 3259 002f 0B       		.uleb128 0xb
 3260 0030 3B       		.uleb128 0x3b
ARM GAS  C:\Users\LAIR\AppData\Local\Temp\ccdy23dh.s 			page 104


 3261 0031 05       		.uleb128 0x5
 3262 0032 49       		.uleb128 0x49
 3263 0033 13       		.uleb128 0x13
 3264 0034 00       		.byte	0
 3265 0035 00       		.byte	0
 3266 0036 05       		.uleb128 0x5
 3267 0037 35       		.uleb128 0x35
 3268 0038 00       		.byte	0
 3269 0039 49       		.uleb128 0x49
 3270 003a 13       		.uleb128 0x13
 3271 003b 00       		.byte	0
 3272 003c 00       		.byte	0
 3273 003d 06       		.uleb128 0x6
 3274 003e 0F       		.uleb128 0xf
 3275 003f 00       		.byte	0
 3276 0040 0B       		.uleb128 0xb
 3277 0041 0B       		.uleb128 0xb
 3278 0042 49       		.uleb128 0x49
 3279 0043 13       		.uleb128 0x13
 3280 0044 00       		.byte	0
 3281 0045 00       		.byte	0
 3282 0046 07       		.uleb128 0x7
 3283 0047 15       		.uleb128 0x15
 3284 0048 00       		.byte	0
 3285 0049 27       		.uleb128 0x27
 3286 004a 19       		.uleb128 0x19
 3287 004b 00       		.byte	0
 3288 004c 00       		.byte	0
 3289 004d 08       		.uleb128 0x8
 3290 004e 0F       		.uleb128 0xf
 3291 004f 00       		.byte	0
 3292 0050 0B       		.uleb128 0xb
 3293 0051 0B       		.uleb128 0xb
 3294 0052 00       		.byte	0
 3295 0053 00       		.byte	0
 3296 0054 09       		.uleb128 0x9
 3297 0055 13       		.uleb128 0x13
 3298 0056 01       		.byte	0x1
 3299 0057 0B       		.uleb128 0xb
 3300 0058 0B       		.uleb128 0xb
 3301 0059 3A       		.uleb128 0x3a
 3302 005a 0B       		.uleb128 0xb
 3303 005b 3B       		.uleb128 0x3b
 3304 005c 0B       		.uleb128 0xb
 3305 005d 01       		.uleb128 0x1
 3306 005e 13       		.uleb128 0x13
 3307 005f 00       		.byte	0
 3308 0060 00       		.byte	0
 3309 0061 0A       		.uleb128 0xa
 3310 0062 0D       		.uleb128 0xd
 3311 0063 00       		.byte	0
 3312 0064 03       		.uleb128 0x3
 3313 0065 0E       		.uleb128 0xe
 3314 0066 3A       		.uleb128 0x3a
 3315 0067 0B       		.uleb128 0xb
 3316 0068 3B       		.uleb128 0x3b
 3317 0069 0B       		.uleb128 0xb
ARM GAS  C:\Users\LAIR\AppData\Local\Temp\ccdy23dh.s 			page 105


 3318 006a 49       		.uleb128 0x49
 3319 006b 13       		.uleb128 0x13
 3320 006c 38       		.uleb128 0x38
 3321 006d 0B       		.uleb128 0xb
 3322 006e 00       		.byte	0
 3323 006f 00       		.byte	0
 3324 0070 0B       		.uleb128 0xb
 3325 0071 16       		.uleb128 0x16
 3326 0072 00       		.byte	0
 3327 0073 03       		.uleb128 0x3
 3328 0074 0E       		.uleb128 0xe
 3329 0075 3A       		.uleb128 0x3a
 3330 0076 0B       		.uleb128 0xb
 3331 0077 3B       		.uleb128 0x3b
 3332 0078 0B       		.uleb128 0xb
 3333 0079 49       		.uleb128 0x49
 3334 007a 13       		.uleb128 0x13
 3335 007b 00       		.byte	0
 3336 007c 00       		.byte	0
 3337 007d 0C       		.uleb128 0xc
 3338 007e 0D       		.uleb128 0xd
 3339 007f 00       		.byte	0
 3340 0080 03       		.uleb128 0x3
 3341 0081 08       		.uleb128 0x8
 3342 0082 3A       		.uleb128 0x3a
 3343 0083 0B       		.uleb128 0xb
 3344 0084 3B       		.uleb128 0x3b
 3345 0085 0B       		.uleb128 0xb
 3346 0086 49       		.uleb128 0x49
 3347 0087 13       		.uleb128 0x13
 3348 0088 38       		.uleb128 0x38
 3349 0089 0B       		.uleb128 0xb
 3350 008a 00       		.byte	0
 3351 008b 00       		.byte	0
 3352 008c 0D       		.uleb128 0xd
 3353 008d 01       		.uleb128 0x1
 3354 008e 01       		.byte	0x1
 3355 008f 49       		.uleb128 0x49
 3356 0090 13       		.uleb128 0x13
 3357 0091 01       		.uleb128 0x1
 3358 0092 13       		.uleb128 0x13
 3359 0093 00       		.byte	0
 3360 0094 00       		.byte	0
 3361 0095 0E       		.uleb128 0xe
 3362 0096 21       		.uleb128 0x21
 3363 0097 00       		.byte	0
 3364 0098 49       		.uleb128 0x49
 3365 0099 13       		.uleb128 0x13
 3366 009a 2F       		.uleb128 0x2f
 3367 009b 0B       		.uleb128 0xb
 3368 009c 00       		.byte	0
 3369 009d 00       		.byte	0
 3370 009e 0F       		.uleb128 0xf
 3371 009f 13       		.uleb128 0x13
 3372 00a0 01       		.byte	0x1
 3373 00a1 0B       		.uleb128 0xb
 3374 00a2 0B       		.uleb128 0xb
ARM GAS  C:\Users\LAIR\AppData\Local\Temp\ccdy23dh.s 			page 106


 3375 00a3 3A       		.uleb128 0x3a
 3376 00a4 0B       		.uleb128 0xb
 3377 00a5 3B       		.uleb128 0x3b
 3378 00a6 05       		.uleb128 0x5
 3379 00a7 01       		.uleb128 0x1
 3380 00a8 13       		.uleb128 0x13
 3381 00a9 00       		.byte	0
 3382 00aa 00       		.byte	0
 3383 00ab 10       		.uleb128 0x10
 3384 00ac 0D       		.uleb128 0xd
 3385 00ad 00       		.byte	0
 3386 00ae 03       		.uleb128 0x3
 3387 00af 0E       		.uleb128 0xe
 3388 00b0 3A       		.uleb128 0x3a
 3389 00b1 0B       		.uleb128 0xb
 3390 00b2 3B       		.uleb128 0x3b
 3391 00b3 05       		.uleb128 0x5
 3392 00b4 49       		.uleb128 0x49
 3393 00b5 13       		.uleb128 0x13
 3394 00b6 38       		.uleb128 0x38
 3395 00b7 0B       		.uleb128 0xb
 3396 00b8 00       		.byte	0
 3397 00b9 00       		.byte	0
 3398 00ba 11       		.uleb128 0x11
 3399 00bb 0D       		.uleb128 0xd
 3400 00bc 00       		.byte	0
 3401 00bd 03       		.uleb128 0x3
 3402 00be 08       		.uleb128 0x8
 3403 00bf 3A       		.uleb128 0x3a
 3404 00c0 0B       		.uleb128 0xb
 3405 00c1 3B       		.uleb128 0x3b
 3406 00c2 05       		.uleb128 0x5
 3407 00c3 49       		.uleb128 0x49
 3408 00c4 13       		.uleb128 0x13
 3409 00c5 38       		.uleb128 0x38
 3410 00c6 0B       		.uleb128 0xb
 3411 00c7 00       		.byte	0
 3412 00c8 00       		.byte	0
 3413 00c9 12       		.uleb128 0x12
 3414 00ca 13       		.uleb128 0x13
 3415 00cb 01       		.byte	0x1
 3416 00cc 0B       		.uleb128 0xb
 3417 00cd 05       		.uleb128 0x5
 3418 00ce 3A       		.uleb128 0x3a
 3419 00cf 0B       		.uleb128 0xb
 3420 00d0 3B       		.uleb128 0x3b
 3421 00d1 05       		.uleb128 0x5
 3422 00d2 01       		.uleb128 0x1
 3423 00d3 13       		.uleb128 0x13
 3424 00d4 00       		.byte	0
 3425 00d5 00       		.byte	0
 3426 00d6 13       		.uleb128 0x13
 3427 00d7 13       		.uleb128 0x13
 3428 00d8 01       		.byte	0x1
 3429 00d9 0B       		.uleb128 0xb
 3430 00da 05       		.uleb128 0x5
 3431 00db 3A       		.uleb128 0x3a
ARM GAS  C:\Users\LAIR\AppData\Local\Temp\ccdy23dh.s 			page 107


 3432 00dc 0B       		.uleb128 0xb
 3433 00dd 3B       		.uleb128 0x3b
 3434 00de 0B       		.uleb128 0xb
 3435 00df 01       		.uleb128 0x1
 3436 00e0 13       		.uleb128 0x13
 3437 00e1 00       		.byte	0
 3438 00e2 00       		.byte	0
 3439 00e3 14       		.uleb128 0x14
 3440 00e4 2E       		.uleb128 0x2e
 3441 00e5 00       		.byte	0
 3442 00e6 03       		.uleb128 0x3
 3443 00e7 0E       		.uleb128 0xe
 3444 00e8 3A       		.uleb128 0x3a
 3445 00e9 0B       		.uleb128 0xb
 3446 00ea 3B       		.uleb128 0x3b
 3447 00eb 05       		.uleb128 0x5
 3448 00ec 27       		.uleb128 0x27
 3449 00ed 19       		.uleb128 0x19
 3450 00ee 11       		.uleb128 0x11
 3451 00ef 01       		.uleb128 0x1
 3452 00f0 12       		.uleb128 0x12
 3453 00f1 06       		.uleb128 0x6
 3454 00f2 40       		.uleb128 0x40
 3455 00f3 18       		.uleb128 0x18
 3456 00f4 9742     		.uleb128 0x2117
 3457 00f6 19       		.uleb128 0x19
 3458 00f7 00       		.byte	0
 3459 00f8 00       		.byte	0
 3460 00f9 15       		.uleb128 0x15
 3461 00fa 2E       		.uleb128 0x2e
 3462 00fb 01       		.byte	0x1
 3463 00fc 3F       		.uleb128 0x3f
 3464 00fd 19       		.uleb128 0x19
 3465 00fe 03       		.uleb128 0x3
 3466 00ff 0E       		.uleb128 0xe
 3467 0100 3A       		.uleb128 0x3a
 3468 0101 0B       		.uleb128 0xb
 3469 0102 3B       		.uleb128 0x3b
 3470 0103 0B       		.uleb128 0xb
 3471 0104 27       		.uleb128 0x27
 3472 0105 19       		.uleb128 0x19
 3473 0106 11       		.uleb128 0x11
 3474 0107 01       		.uleb128 0x1
 3475 0108 12       		.uleb128 0x12
 3476 0109 06       		.uleb128 0x6
 3477 010a 40       		.uleb128 0x40
 3478 010b 18       		.uleb128 0x18
 3479 010c 9742     		.uleb128 0x2117
 3480 010e 19       		.uleb128 0x19
 3481 010f 01       		.uleb128 0x1
 3482 0110 13       		.uleb128 0x13
 3483 0111 00       		.byte	0
 3484 0112 00       		.byte	0
 3485 0113 16       		.uleb128 0x16
 3486 0114 898201   		.uleb128 0x4109
 3487 0117 01       		.byte	0x1
 3488 0118 11       		.uleb128 0x11
ARM GAS  C:\Users\LAIR\AppData\Local\Temp\ccdy23dh.s 			page 108


 3489 0119 01       		.uleb128 0x1
 3490 011a 31       		.uleb128 0x31
 3491 011b 13       		.uleb128 0x13
 3492 011c 01       		.uleb128 0x1
 3493 011d 13       		.uleb128 0x13
 3494 011e 00       		.byte	0
 3495 011f 00       		.byte	0
 3496 0120 17       		.uleb128 0x17
 3497 0121 8A8201   		.uleb128 0x410a
 3498 0124 00       		.byte	0
 3499 0125 02       		.uleb128 0x2
 3500 0126 18       		.uleb128 0x18
 3501 0127 9142     		.uleb128 0x2111
 3502 0129 18       		.uleb128 0x18
 3503 012a 00       		.byte	0
 3504 012b 00       		.byte	0
 3505 012c 18       		.uleb128 0x18
 3506 012d 898201   		.uleb128 0x4109
 3507 0130 00       		.byte	0
 3508 0131 11       		.uleb128 0x11
 3509 0132 01       		.uleb128 0x1
 3510 0133 31       		.uleb128 0x31
 3511 0134 13       		.uleb128 0x13
 3512 0135 00       		.byte	0
 3513 0136 00       		.byte	0
 3514 0137 19       		.uleb128 0x19
 3515 0138 2E       		.uleb128 0x2e
 3516 0139 01       		.byte	0x1
 3517 013a 3F       		.uleb128 0x3f
 3518 013b 19       		.uleb128 0x19
 3519 013c 03       		.uleb128 0x3
 3520 013d 0E       		.uleb128 0xe
 3521 013e 3A       		.uleb128 0x3a
 3522 013f 0B       		.uleb128 0xb
 3523 0140 3B       		.uleb128 0x3b
 3524 0141 05       		.uleb128 0x5
 3525 0142 27       		.uleb128 0x27
 3526 0143 19       		.uleb128 0x19
 3527 0144 11       		.uleb128 0x11
 3528 0145 01       		.uleb128 0x1
 3529 0146 12       		.uleb128 0x12
 3530 0147 06       		.uleb128 0x6
 3531 0148 40       		.uleb128 0x40
 3532 0149 18       		.uleb128 0x18
 3533 014a 9742     		.uleb128 0x2117
 3534 014c 19       		.uleb128 0x19
 3535 014d 01       		.uleb128 0x1
 3536 014e 13       		.uleb128 0x13
 3537 014f 00       		.byte	0
 3538 0150 00       		.byte	0
 3539 0151 1A       		.uleb128 0x1a
 3540 0152 05       		.uleb128 0x5
 3541 0153 00       		.byte	0
 3542 0154 03       		.uleb128 0x3
 3543 0155 0E       		.uleb128 0xe
 3544 0156 3A       		.uleb128 0x3a
 3545 0157 0B       		.uleb128 0xb
ARM GAS  C:\Users\LAIR\AppData\Local\Temp\ccdy23dh.s 			page 109


 3546 0158 3B       		.uleb128 0x3b
 3547 0159 05       		.uleb128 0x5
 3548 015a 49       		.uleb128 0x49
 3549 015b 13       		.uleb128 0x13
 3550 015c 02       		.uleb128 0x2
 3551 015d 17       		.uleb128 0x17
 3552 015e 00       		.byte	0
 3553 015f 00       		.byte	0
 3554 0160 1B       		.uleb128 0x1b
 3555 0161 05       		.uleb128 0x5
 3556 0162 00       		.byte	0
 3557 0163 03       		.uleb128 0x3
 3558 0164 0E       		.uleb128 0xe
 3559 0165 3A       		.uleb128 0x3a
 3560 0166 0B       		.uleb128 0xb
 3561 0167 3B       		.uleb128 0x3b
 3562 0168 0B       		.uleb128 0xb
 3563 0169 49       		.uleb128 0x49
 3564 016a 13       		.uleb128 0x13
 3565 016b 02       		.uleb128 0x2
 3566 016c 17       		.uleb128 0x17
 3567 016d 00       		.byte	0
 3568 016e 00       		.byte	0
 3569 016f 1C       		.uleb128 0x1c
 3570 0170 898201   		.uleb128 0x4109
 3571 0173 01       		.byte	0x1
 3572 0174 11       		.uleb128 0x11
 3573 0175 01       		.uleb128 0x1
 3574 0176 31       		.uleb128 0x31
 3575 0177 13       		.uleb128 0x13
 3576 0178 00       		.byte	0
 3577 0179 00       		.byte	0
 3578 017a 1D       		.uleb128 0x1d
 3579 017b 2E       		.uleb128 0x2e
 3580 017c 00       		.byte	0
 3581 017d 3F       		.uleb128 0x3f
 3582 017e 19       		.uleb128 0x19
 3583 017f 03       		.uleb128 0x3
 3584 0180 0E       		.uleb128 0xe
 3585 0181 3A       		.uleb128 0x3a
 3586 0182 0B       		.uleb128 0xb
 3587 0183 3B       		.uleb128 0x3b
 3588 0184 05       		.uleb128 0x5
 3589 0185 27       		.uleb128 0x27
 3590 0186 19       		.uleb128 0x19
 3591 0187 11       		.uleb128 0x11
 3592 0188 01       		.uleb128 0x1
 3593 0189 12       		.uleb128 0x12
 3594 018a 06       		.uleb128 0x6
 3595 018b 40       		.uleb128 0x40
 3596 018c 18       		.uleb128 0x18
 3597 018d 9742     		.uleb128 0x2117
 3598 018f 19       		.uleb128 0x19
 3599 0190 00       		.byte	0
 3600 0191 00       		.byte	0
 3601 0192 1E       		.uleb128 0x1e
 3602 0193 2E       		.uleb128 0x2e
ARM GAS  C:\Users\LAIR\AppData\Local\Temp\ccdy23dh.s 			page 110


 3603 0194 01       		.byte	0x1
 3604 0195 3F       		.uleb128 0x3f
 3605 0196 19       		.uleb128 0x19
 3606 0197 03       		.uleb128 0x3
 3607 0198 0E       		.uleb128 0xe
 3608 0199 3A       		.uleb128 0x3a
 3609 019a 0B       		.uleb128 0xb
 3610 019b 3B       		.uleb128 0x3b
 3611 019c 05       		.uleb128 0x5
 3612 019d 27       		.uleb128 0x27
 3613 019e 19       		.uleb128 0x19
 3614 019f 49       		.uleb128 0x49
 3615 01a0 13       		.uleb128 0x13
 3616 01a1 11       		.uleb128 0x11
 3617 01a2 01       		.uleb128 0x1
 3618 01a3 12       		.uleb128 0x12
 3619 01a4 06       		.uleb128 0x6
 3620 01a5 40       		.uleb128 0x40
 3621 01a6 18       		.uleb128 0x18
 3622 01a7 9742     		.uleb128 0x2117
 3623 01a9 19       		.uleb128 0x19
 3624 01aa 01       		.uleb128 0x1
 3625 01ab 13       		.uleb128 0x13
 3626 01ac 00       		.byte	0
 3627 01ad 00       		.byte	0
 3628 01ae 1F       		.uleb128 0x1f
 3629 01af 34       		.uleb128 0x34
 3630 01b0 00       		.byte	0
 3631 01b1 03       		.uleb128 0x3
 3632 01b2 0E       		.uleb128 0xe
 3633 01b3 3A       		.uleb128 0x3a
 3634 01b4 0B       		.uleb128 0xb
 3635 01b5 3B       		.uleb128 0x3b
 3636 01b6 05       		.uleb128 0x5
 3637 01b7 49       		.uleb128 0x49
 3638 01b8 13       		.uleb128 0x13
 3639 01b9 02       		.uleb128 0x2
 3640 01ba 18       		.uleb128 0x18
 3641 01bb 00       		.byte	0
 3642 01bc 00       		.byte	0
 3643 01bd 20       		.uleb128 0x20
 3644 01be 2E       		.uleb128 0x2e
 3645 01bf 00       		.byte	0
 3646 01c0 3F       		.uleb128 0x3f
 3647 01c1 19       		.uleb128 0x19
 3648 01c2 03       		.uleb128 0x3
 3649 01c3 0E       		.uleb128 0xe
 3650 01c4 3A       		.uleb128 0x3a
 3651 01c5 0B       		.uleb128 0xb
 3652 01c6 3B       		.uleb128 0x3b
 3653 01c7 05       		.uleb128 0x5
 3654 01c8 27       		.uleb128 0x27
 3655 01c9 19       		.uleb128 0x19
 3656 01ca 49       		.uleb128 0x49
 3657 01cb 13       		.uleb128 0x13
 3658 01cc 11       		.uleb128 0x11
 3659 01cd 01       		.uleb128 0x1
ARM GAS  C:\Users\LAIR\AppData\Local\Temp\ccdy23dh.s 			page 111


 3660 01ce 12       		.uleb128 0x12
 3661 01cf 06       		.uleb128 0x6
 3662 01d0 40       		.uleb128 0x40
 3663 01d1 18       		.uleb128 0x18
 3664 01d2 9742     		.uleb128 0x2117
 3665 01d4 19       		.uleb128 0x19
 3666 01d5 00       		.byte	0
 3667 01d6 00       		.byte	0
 3668 01d7 21       		.uleb128 0x21
 3669 01d8 34       		.uleb128 0x34
 3670 01d9 00       		.byte	0
 3671 01da 03       		.uleb128 0x3
 3672 01db 08       		.uleb128 0x8
 3673 01dc 3A       		.uleb128 0x3a
 3674 01dd 0B       		.uleb128 0xb
 3675 01de 3B       		.uleb128 0x3b
 3676 01df 05       		.uleb128 0x5
 3677 01e0 49       		.uleb128 0x49
 3678 01e1 13       		.uleb128 0x13
 3679 01e2 02       		.uleb128 0x2
 3680 01e3 17       		.uleb128 0x17
 3681 01e4 00       		.byte	0
 3682 01e5 00       		.byte	0
 3683 01e6 22       		.uleb128 0x22
 3684 01e7 34       		.uleb128 0x34
 3685 01e8 00       		.byte	0
 3686 01e9 03       		.uleb128 0x3
 3687 01ea 0E       		.uleb128 0xe
 3688 01eb 3A       		.uleb128 0x3a
 3689 01ec 0B       		.uleb128 0xb
 3690 01ed 3B       		.uleb128 0x3b
 3691 01ee 05       		.uleb128 0x5
 3692 01ef 49       		.uleb128 0x49
 3693 01f0 13       		.uleb128 0x13
 3694 01f1 02       		.uleb128 0x2
 3695 01f2 17       		.uleb128 0x17
 3696 01f3 00       		.byte	0
 3697 01f4 00       		.byte	0
 3698 01f5 23       		.uleb128 0x23
 3699 01f6 05       		.uleb128 0x5
 3700 01f7 00       		.byte	0
 3701 01f8 03       		.uleb128 0x3
 3702 01f9 0E       		.uleb128 0xe
 3703 01fa 3A       		.uleb128 0x3a
 3704 01fb 0B       		.uleb128 0xb
 3705 01fc 3B       		.uleb128 0x3b
 3706 01fd 05       		.uleb128 0x5
 3707 01fe 49       		.uleb128 0x49
 3708 01ff 13       		.uleb128 0x13
 3709 0200 02       		.uleb128 0x2
 3710 0201 18       		.uleb128 0x18
 3711 0202 00       		.byte	0
 3712 0203 00       		.byte	0
 3713 0204 24       		.uleb128 0x24
 3714 0205 34       		.uleb128 0x34
 3715 0206 00       		.byte	0
 3716 0207 03       		.uleb128 0x3
ARM GAS  C:\Users\LAIR\AppData\Local\Temp\ccdy23dh.s 			page 112


 3717 0208 08       		.uleb128 0x8
 3718 0209 3A       		.uleb128 0x3a
 3719 020a 0B       		.uleb128 0xb
 3720 020b 3B       		.uleb128 0x3b
 3721 020c 05       		.uleb128 0x5
 3722 020d 49       		.uleb128 0x49
 3723 020e 13       		.uleb128 0x13
 3724 020f 02       		.uleb128 0x2
 3725 0210 18       		.uleb128 0x18
 3726 0211 00       		.byte	0
 3727 0212 00       		.byte	0
 3728 0213 25       		.uleb128 0x25
 3729 0214 0B       		.uleb128 0xb
 3730 0215 01       		.byte	0x1
 3731 0216 11       		.uleb128 0x11
 3732 0217 01       		.uleb128 0x1
 3733 0218 12       		.uleb128 0x12
 3734 0219 06       		.uleb128 0x6
 3735 021a 00       		.byte	0
 3736 021b 00       		.byte	0
 3737 021c 26       		.uleb128 0x26
 3738 021d 26       		.uleb128 0x26
 3739 021e 00       		.byte	0
 3740 021f 49       		.uleb128 0x49
 3741 0220 13       		.uleb128 0x13
 3742 0221 00       		.byte	0
 3743 0222 00       		.byte	0
 3744 0223 27       		.uleb128 0x27
 3745 0224 0B       		.uleb128 0xb
 3746 0225 01       		.byte	0x1
 3747 0226 11       		.uleb128 0x11
 3748 0227 01       		.uleb128 0x1
 3749 0228 12       		.uleb128 0x12
 3750 0229 06       		.uleb128 0x6
 3751 022a 01       		.uleb128 0x1
 3752 022b 13       		.uleb128 0x13
 3753 022c 00       		.byte	0
 3754 022d 00       		.byte	0
 3755 022e 28       		.uleb128 0x28
 3756 022f 34       		.uleb128 0x34
 3757 0230 00       		.byte	0
 3758 0231 03       		.uleb128 0x3
 3759 0232 0E       		.uleb128 0xe
 3760 0233 3A       		.uleb128 0x3a
 3761 0234 0B       		.uleb128 0xb
 3762 0235 3B       		.uleb128 0x3b
 3763 0236 0B       		.uleb128 0xb
 3764 0237 49       		.uleb128 0x49
 3765 0238 13       		.uleb128 0x13
 3766 0239 3F       		.uleb128 0x3f
 3767 023a 19       		.uleb128 0x19
 3768 023b 02       		.uleb128 0x2
 3769 023c 18       		.uleb128 0x18
 3770 023d 00       		.byte	0
 3771 023e 00       		.byte	0
 3772 023f 29       		.uleb128 0x29
 3773 0240 34       		.uleb128 0x34
ARM GAS  C:\Users\LAIR\AppData\Local\Temp\ccdy23dh.s 			page 113


 3774 0241 00       		.byte	0
 3775 0242 03       		.uleb128 0x3
 3776 0243 0E       		.uleb128 0xe
 3777 0244 3A       		.uleb128 0x3a
 3778 0245 0B       		.uleb128 0xb
 3779 0246 3B       		.uleb128 0x3b
 3780 0247 05       		.uleb128 0x5
 3781 0248 49       		.uleb128 0x49
 3782 0249 13       		.uleb128 0x13
 3783 024a 3F       		.uleb128 0x3f
 3784 024b 19       		.uleb128 0x19
 3785 024c 3C       		.uleb128 0x3c
 3786 024d 19       		.uleb128 0x19
 3787 024e 00       		.byte	0
 3788 024f 00       		.byte	0
 3789 0250 2A       		.uleb128 0x2a
 3790 0251 34       		.uleb128 0x34
 3791 0252 00       		.byte	0
 3792 0253 03       		.uleb128 0x3
 3793 0254 0E       		.uleb128 0xe
 3794 0255 3A       		.uleb128 0x3a
 3795 0256 0B       		.uleb128 0xb
 3796 0257 3B       		.uleb128 0x3b
 3797 0258 0B       		.uleb128 0xb
 3798 0259 49       		.uleb128 0x49
 3799 025a 13       		.uleb128 0x13
 3800 025b 3F       		.uleb128 0x3f
 3801 025c 19       		.uleb128 0x19
 3802 025d 3C       		.uleb128 0x3c
 3803 025e 19       		.uleb128 0x19
 3804 025f 00       		.byte	0
 3805 0260 00       		.byte	0
 3806 0261 2B       		.uleb128 0x2b
 3807 0262 2E       		.uleb128 0x2e
 3808 0263 01       		.byte	0x1
 3809 0264 3F       		.uleb128 0x3f
 3810 0265 19       		.uleb128 0x19
 3811 0266 03       		.uleb128 0x3
 3812 0267 0E       		.uleb128 0xe
 3813 0268 3A       		.uleb128 0x3a
 3814 0269 0B       		.uleb128 0xb
 3815 026a 3B       		.uleb128 0x3b
 3816 026b 0B       		.uleb128 0xb
 3817 026c 27       		.uleb128 0x27
 3818 026d 19       		.uleb128 0x19
 3819 026e 3C       		.uleb128 0x3c
 3820 026f 19       		.uleb128 0x19
 3821 0270 01       		.uleb128 0x1
 3822 0271 13       		.uleb128 0x13
 3823 0272 00       		.byte	0
 3824 0273 00       		.byte	0
 3825 0274 2C       		.uleb128 0x2c
 3826 0275 05       		.uleb128 0x5
 3827 0276 00       		.byte	0
 3828 0277 49       		.uleb128 0x49
 3829 0278 13       		.uleb128 0x13
 3830 0279 00       		.byte	0
ARM GAS  C:\Users\LAIR\AppData\Local\Temp\ccdy23dh.s 			page 114


 3831 027a 00       		.byte	0
 3832 027b 2D       		.uleb128 0x2d
 3833 027c 2E       		.uleb128 0x2e
 3834 027d 00       		.byte	0
 3835 027e 3F       		.uleb128 0x3f
 3836 027f 19       		.uleb128 0x19
 3837 0280 03       		.uleb128 0x3
 3838 0281 0E       		.uleb128 0xe
 3839 0282 3A       		.uleb128 0x3a
 3840 0283 0B       		.uleb128 0xb
 3841 0284 3B       		.uleb128 0x3b
 3842 0285 0B       		.uleb128 0xb
 3843 0286 27       		.uleb128 0x27
 3844 0287 19       		.uleb128 0x19
 3845 0288 49       		.uleb128 0x49
 3846 0289 13       		.uleb128 0x13
 3847 028a 3C       		.uleb128 0x3c
 3848 028b 19       		.uleb128 0x19
 3849 028c 00       		.byte	0
 3850 028d 00       		.byte	0
 3851 028e 2E       		.uleb128 0x2e
 3852 028f 2E       		.uleb128 0x2e
 3853 0290 01       		.byte	0x1
 3854 0291 3F       		.uleb128 0x3f
 3855 0292 19       		.uleb128 0x19
 3856 0293 03       		.uleb128 0x3
 3857 0294 0E       		.uleb128 0xe
 3858 0295 3A       		.uleb128 0x3a
 3859 0296 0B       		.uleb128 0xb
 3860 0297 3B       		.uleb128 0x3b
 3861 0298 0B       		.uleb128 0xb
 3862 0299 27       		.uleb128 0x27
 3863 029a 19       		.uleb128 0x19
 3864 029b 49       		.uleb128 0x49
 3865 029c 13       		.uleb128 0x13
 3866 029d 3C       		.uleb128 0x3c
 3867 029e 19       		.uleb128 0x19
 3868 029f 01       		.uleb128 0x1
 3869 02a0 13       		.uleb128 0x13
 3870 02a1 00       		.byte	0
 3871 02a2 00       		.byte	0
 3872 02a3 2F       		.uleb128 0x2f
 3873 02a4 2E       		.uleb128 0x2e
 3874 02a5 00       		.byte	0
 3875 02a6 3F       		.uleb128 0x3f
 3876 02a7 19       		.uleb128 0x19
 3877 02a8 03       		.uleb128 0x3
 3878 02a9 0E       		.uleb128 0xe
 3879 02aa 3A       		.uleb128 0x3a
 3880 02ab 0B       		.uleb128 0xb
 3881 02ac 3B       		.uleb128 0x3b
 3882 02ad 0B       		.uleb128 0xb
 3883 02ae 27       		.uleb128 0x27
 3884 02af 19       		.uleb128 0x19
 3885 02b0 3C       		.uleb128 0x3c
 3886 02b1 19       		.uleb128 0x19
 3887 02b2 00       		.byte	0
ARM GAS  C:\Users\LAIR\AppData\Local\Temp\ccdy23dh.s 			page 115


 3888 02b3 00       		.byte	0
 3889 02b4 30       		.uleb128 0x30
 3890 02b5 2E       		.uleb128 0x2e
 3891 02b6 01       		.byte	0x1
 3892 02b7 3F       		.uleb128 0x3f
 3893 02b8 19       		.uleb128 0x19
 3894 02b9 03       		.uleb128 0x3
 3895 02ba 0E       		.uleb128 0xe
 3896 02bb 3A       		.uleb128 0x3a
 3897 02bc 0B       		.uleb128 0xb
 3898 02bd 3B       		.uleb128 0x3b
 3899 02be 0B       		.uleb128 0xb
 3900 02bf 27       		.uleb128 0x27
 3901 02c0 19       		.uleb128 0x19
 3902 02c1 3C       		.uleb128 0x3c
 3903 02c2 19       		.uleb128 0x19
 3904 02c3 00       		.byte	0
 3905 02c4 00       		.byte	0
 3906 02c5 00       		.byte	0
 3907              		.section	.debug_loc,"",%progbits
 3908              	.Ldebug_loc0:
 3909              	.LLST0:
 3910 0000 00000000 		.4byte	.LVL11
 3911 0004 28000000 		.4byte	.LVL12
 3912 0008 0100     		.2byte	0x1
 3913 000a 50       		.byte	0x50
 3914 000b 28000000 		.4byte	.LVL12
 3915 000f D4000000 		.4byte	.LFE67
 3916 0013 0400     		.2byte	0x4
 3917 0015 F3       		.byte	0xf3
 3918 0016 01       		.uleb128 0x1
 3919 0017 50       		.byte	0x50
 3920 0018 9F       		.byte	0x9f
 3921 0019 00000000 		.4byte	0
 3922 001d 00000000 		.4byte	0
 3923              	.LLST1:
 3924 0021 00000000 		.4byte	.LVL11
 3925 0025 2B000000 		.4byte	.LVL13-1
 3926 0029 0100     		.2byte	0x1
 3927 002b 51       		.byte	0x51
 3928 002c 2B000000 		.4byte	.LVL13-1
 3929 0030 D4000000 		.4byte	.LFE67
 3930 0034 0400     		.2byte	0x4
 3931 0036 F3       		.byte	0xf3
 3932 0037 01       		.uleb128 0x1
 3933 0038 51       		.byte	0x51
 3934 0039 9F       		.byte	0x9f
 3935 003a 00000000 		.4byte	0
 3936 003e 00000000 		.4byte	0
 3937              	.LLST2:
 3938 0042 00000000 		.4byte	.LVL17
 3939 0046 11000000 		.4byte	.LVL18-1
 3940 004a 0100     		.2byte	0x1
 3941 004c 50       		.byte	0x50
 3942 004d 11000000 		.4byte	.LVL18-1
 3943 0051 28000000 		.4byte	.LFE65
 3944 0055 0400     		.2byte	0x4
ARM GAS  C:\Users\LAIR\AppData\Local\Temp\ccdy23dh.s 			page 116


 3945 0057 F3       		.byte	0xf3
 3946 0058 01       		.uleb128 0x1
 3947 0059 50       		.byte	0x50
 3948 005a 9F       		.byte	0x9f
 3949 005b 00000000 		.4byte	0
 3950 005f 00000000 		.4byte	0
 3951              	.LLST3:
 3952 0063 00000000 		.4byte	.LVL17
 3953 0067 11000000 		.4byte	.LVL18-1
 3954 006b 0100     		.2byte	0x1
 3955 006d 51       		.byte	0x51
 3956 006e 11000000 		.4byte	.LVL18-1
 3957 0072 28000000 		.4byte	.LFE65
 3958 0076 0400     		.2byte	0x4
 3959 0078 F3       		.byte	0xf3
 3960 0079 01       		.uleb128 0x1
 3961 007a 51       		.byte	0x51
 3962 007b 9F       		.byte	0x9f
 3963 007c 00000000 		.4byte	0
 3964 0080 00000000 		.4byte	0
 3965              	.LLST4:
 3966 0084 00000000 		.4byte	.LVL21
 3967 0088 0E000000 		.4byte	.LVL22
 3968 008c 0200     		.2byte	0x2
 3969 008e 30       		.byte	0x30
 3970 008f 9F       		.byte	0x9f
 3971 0090 0E000000 		.4byte	.LVL22
 3972 0094 14000000 		.4byte	.LVL23
 3973 0098 0100     		.2byte	0x1
 3974 009a 50       		.byte	0x50
 3975 009b 14000000 		.4byte	.LVL23
 3976 009f 16000000 		.4byte	.LVL24
 3977 00a3 0200     		.2byte	0x2
 3978 00a5 30       		.byte	0x30
 3979 00a6 9F       		.byte	0x9f
 3980 00a7 16000000 		.4byte	.LVL24
 3981 00ab 1C000000 		.4byte	.LFE72
 3982 00af 0100     		.2byte	0x1
 3983 00b1 50       		.byte	0x50
 3984 00b2 00000000 		.4byte	0
 3985 00b6 00000000 		.4byte	0
 3986              	.LLST5:
 3987 00ba 00000000 		.4byte	.LVL25
 3988 00be 04000000 		.4byte	.LVL26
 3989 00c2 0100     		.2byte	0x1
 3990 00c4 50       		.byte	0x50
 3991 00c5 04000000 		.4byte	.LVL26
 3992 00c9 0C000000 		.4byte	.LFE73
 3993 00cd 0400     		.2byte	0x4
 3994 00cf F3       		.byte	0xf3
 3995 00d0 01       		.uleb128 0x1
 3996 00d1 50       		.byte	0x50
 3997 00d2 9F       		.byte	0x9f
 3998 00d3 00000000 		.4byte	0
 3999 00d7 00000000 		.4byte	0
 4000              	.LLST6:
 4001 00db 00000000 		.4byte	.LVL27
ARM GAS  C:\Users\LAIR\AppData\Local\Temp\ccdy23dh.s 			page 117


 4002 00df 04000000 		.4byte	.LVL28
 4003 00e3 0100     		.2byte	0x1
 4004 00e5 50       		.byte	0x50
 4005 00e6 04000000 		.4byte	.LVL28
 4006 00ea 14000000 		.4byte	.LFE74
 4007 00ee 0400     		.2byte	0x4
 4008 00f0 F3       		.byte	0xf3
 4009 00f1 01       		.uleb128 0x1
 4010 00f2 50       		.byte	0x50
 4011 00f3 9F       		.byte	0x9f
 4012 00f4 00000000 		.4byte	0
 4013 00f8 00000000 		.4byte	0
 4014              	.LLST7:
 4015 00fc 00000000 		.4byte	.LVL29
 4016 0100 0C000000 		.4byte	.LVL30
 4017 0104 0100     		.2byte	0x1
 4018 0106 50       		.byte	0x50
 4019 0107 0C000000 		.4byte	.LVL30
 4020 010b 24000000 		.4byte	.LVL36
 4021 010f 0400     		.2byte	0x4
 4022 0111 F3       		.byte	0xf3
 4023 0112 01       		.uleb128 0x1
 4024 0113 50       		.byte	0x50
 4025 0114 9F       		.byte	0x9f
 4026 0115 24000000 		.4byte	.LVL36
 4027 0119 26000000 		.4byte	.LVL37
 4028 011d 0100     		.2byte	0x1
 4029 011f 50       		.byte	0x50
 4030 0120 26000000 		.4byte	.LVL37
 4031 0124 2C000000 		.4byte	.LFE75
 4032 0128 0400     		.2byte	0x4
 4033 012a F3       		.byte	0xf3
 4034 012b 01       		.uleb128 0x1
 4035 012c 50       		.byte	0x50
 4036 012d 9F       		.byte	0x9f
 4037 012e 00000000 		.4byte	0
 4038 0132 00000000 		.4byte	0
 4039              	.LLST8:
 4040 0136 00000000 		.4byte	.LVL29
 4041 013a 10000000 		.4byte	.LVL31
 4042 013e 0200     		.2byte	0x2
 4043 0140 30       		.byte	0x30
 4044 0141 9F       		.byte	0x9f
 4045 0142 10000000 		.4byte	.LVL31
 4046 0146 12000000 		.4byte	.LVL32
 4047 014a 0100     		.2byte	0x1
 4048 014c 50       		.byte	0x50
 4049 014d 1E000000 		.4byte	.LVL33
 4050 0151 20000000 		.4byte	.LVL34
 4051 0155 0100     		.2byte	0x1
 4052 0157 50       		.byte	0x50
 4053 0158 20000000 		.4byte	.LVL34
 4054 015c 22000000 		.4byte	.LVL35
 4055 0160 0300     		.2byte	0x3
 4056 0162 70       		.byte	0x70
 4057 0163 02       		.sleb128 2
 4058 0164 9F       		.byte	0x9f
ARM GAS  C:\Users\LAIR\AppData\Local\Temp\ccdy23dh.s 			page 118


 4059 0165 22000000 		.4byte	.LVL35
 4060 0169 24000000 		.4byte	.LVL36
 4061 016d 0100     		.2byte	0x1
 4062 016f 50       		.byte	0x50
 4063 0170 24000000 		.4byte	.LVL36
 4064 0174 26000000 		.4byte	.LVL37
 4065 0178 0200     		.2byte	0x2
 4066 017a 30       		.byte	0x30
 4067 017b 9F       		.byte	0x9f
 4068 017c 26000000 		.4byte	.LVL37
 4069 0180 2C000000 		.4byte	.LFE75
 4070 0184 0100     		.2byte	0x1
 4071 0186 50       		.byte	0x50
 4072 0187 00000000 		.4byte	0
 4073 018b 00000000 		.4byte	0
 4074              	.LLST9:
 4075 018f 0C000000 		.4byte	.LVL42
 4076 0193 2D000000 		.4byte	.LVL43-1
 4077 0197 0100     		.2byte	0x1
 4078 0199 50       		.byte	0x50
 4079 019a 00000000 		.4byte	0
 4080 019e 00000000 		.4byte	0
 4081              	.LLST10:
 4082 01a2 00000000 		.4byte	.LVL47
 4083 01a6 9C000000 		.4byte	.LVL60
 4084 01aa 0100     		.2byte	0x1
 4085 01ac 50       		.byte	0x50
 4086 01ad 9C000000 		.4byte	.LVL60
 4087 01b1 AC000000 		.4byte	.LVL61
 4088 01b5 0400     		.2byte	0x4
 4089 01b7 F3       		.byte	0xf3
 4090 01b8 01       		.uleb128 0x1
 4091 01b9 50       		.byte	0x50
 4092 01ba 9F       		.byte	0x9f
 4093 01bb AC000000 		.4byte	.LVL61
 4094 01bf BC000000 		.4byte	.LVL63
 4095 01c3 0100     		.2byte	0x1
 4096 01c5 50       		.byte	0x50
 4097 01c6 BC000000 		.4byte	.LVL63
 4098 01ca E8000000 		.4byte	.LFE78
 4099 01ce 0400     		.2byte	0x4
 4100 01d0 F3       		.byte	0xf3
 4101 01d1 01       		.uleb128 0x1
 4102 01d2 50       		.byte	0x50
 4103 01d3 9F       		.byte	0x9f
 4104 01d4 00000000 		.4byte	0
 4105 01d8 00000000 		.4byte	0
 4106              	.LLST11:
 4107 01dc 00000000 		.4byte	.LVL47
 4108 01e0 74000000 		.4byte	.LVL52
 4109 01e4 0100     		.2byte	0x1
 4110 01e6 51       		.byte	0x51
 4111 01e7 74000000 		.4byte	.LVL52
 4112 01eb 76000000 		.4byte	.LVL53
 4113 01ef 0500     		.2byte	0x5
 4114 01f1 74       		.byte	0x74
 4115 01f2 00       		.sleb128 0
ARM GAS  C:\Users\LAIR\AppData\Local\Temp\ccdy23dh.s 			page 119


 4116 01f3 73       		.byte	0x73
 4117 01f4 00       		.sleb128 0
 4118 01f5 22       		.byte	0x22
 4119 01f6 76000000 		.4byte	.LVL53
 4120 01fa 7C000000 		.4byte	.LVL54
 4121 01fe 0600     		.2byte	0x6
 4122 0200 73       		.byte	0x73
 4123 0201 80B0C080 		.sleb128 1074796544
 4123      04
 4124 0206 7C000000 		.4byte	.LVL54
 4125 020a 80000000 		.4byte	.LVL55
 4126 020e 0500     		.2byte	0x5
 4127 0210 73       		.byte	0x73
 4128 0211 00       		.sleb128 0
 4129 0212 74       		.byte	0x74
 4130 0213 00       		.sleb128 0
 4131 0214 22       		.byte	0x22
 4132 0215 80000000 		.4byte	.LVL55
 4133 0219 82000000 		.4byte	.LVL56
 4134 021d 0200     		.2byte	0x2
 4135 021f 73       		.byte	0x73
 4136 0220 00       		.sleb128 0
 4137 0221 82000000 		.4byte	.LVL56
 4138 0225 AC000000 		.4byte	.LVL61
 4139 0229 0400     		.2byte	0x4
 4140 022b F3       		.byte	0xf3
 4141 022c 01       		.uleb128 0x1
 4142 022d 51       		.byte	0x51
 4143 022e 9F       		.byte	0x9f
 4144 022f AC000000 		.4byte	.LVL61
 4145 0233 C4000000 		.4byte	.LVL64
 4146 0237 0100     		.2byte	0x1
 4147 0239 51       		.byte	0x51
 4148 023a C4000000 		.4byte	.LVL64
 4149 023e E8000000 		.4byte	.LFE78
 4150 0242 0400     		.2byte	0x4
 4151 0244 F3       		.byte	0xf3
 4152 0245 01       		.uleb128 0x1
 4153 0246 51       		.byte	0x51
 4154 0247 9F       		.byte	0x9f
 4155 0248 00000000 		.4byte	0
 4156 024c 00000000 		.4byte	0
 4157              	.LLST12:
 4158 0250 00000000 		.4byte	.LVL47
 4159 0254 26000000 		.4byte	.LVL48
 4160 0258 0100     		.2byte	0x1
 4161 025a 52       		.byte	0x52
 4162 025b 26000000 		.4byte	.LVL48
 4163 025f 32000000 		.4byte	.LVL49
 4164 0263 0400     		.2byte	0x4
 4165 0265 F3       		.byte	0xf3
 4166 0266 01       		.uleb128 0x1
 4167 0267 52       		.byte	0x52
 4168 0268 9F       		.byte	0x9f
 4169 0269 32000000 		.4byte	.LVL49
 4170 026d 84000000 		.4byte	.LVL57
 4171 0271 0100     		.2byte	0x1
ARM GAS  C:\Users\LAIR\AppData\Local\Temp\ccdy23dh.s 			page 120


 4172 0273 52       		.byte	0x52
 4173 0274 86000000 		.4byte	.LVL58
 4174 0278 8A000000 		.4byte	.LVL59
 4175 027c 0100     		.2byte	0x1
 4176 027e 52       		.byte	0x52
 4177 027f AC000000 		.4byte	.LVL61
 4178 0283 B4000000 		.4byte	.LVL62
 4179 0287 0100     		.2byte	0x1
 4180 0289 52       		.byte	0x52
 4181 028a 00000000 		.4byte	0
 4182 028e 00000000 		.4byte	0
 4183              	.LLST13:
 4184 0292 60000000 		.4byte	.LVL50
 4185 0296 6E000000 		.4byte	.LVL51
 4186 029a 0100     		.2byte	0x1
 4187 029c 53       		.byte	0x53
 4188 029d 6E000000 		.4byte	.LVL51
 4189 02a1 9C000000 		.4byte	.LVL60
 4190 02a5 0E00     		.2byte	0xe
 4191 02a7 70       		.byte	0x70
 4192 02a8 00       		.sleb128 0
 4193 02a9 03       		.byte	0x3
 4194 02aa 00000000 		.4byte	.LANCHOR1
 4195 02ae 22       		.byte	0x22
 4196 02af 94       		.byte	0x94
 4197 02b0 01       		.byte	0x1
 4198 02b1 08       		.byte	0x8
 4199 02b2 FF       		.byte	0xff
 4200 02b3 1A       		.byte	0x1a
 4201 02b4 9F       		.byte	0x9f
 4202 02b5 00000000 		.4byte	0
 4203 02b9 00000000 		.4byte	0
 4204              	.LLST14:
 4205 02bd 00000000 		.4byte	.LVL65
 4206 02c1 17000000 		.4byte	.LVL66-1
 4207 02c5 0100     		.2byte	0x1
 4208 02c7 50       		.byte	0x50
 4209 02c8 17000000 		.4byte	.LVL66-1
 4210 02cc 6E000000 		.4byte	.LVL73
 4211 02d0 0400     		.2byte	0x4
 4212 02d2 F3       		.byte	0xf3
 4213 02d3 01       		.uleb128 0x1
 4214 02d4 50       		.byte	0x50
 4215 02d5 9F       		.byte	0x9f
 4216 02d6 6E000000 		.4byte	.LVL73
 4217 02da 78000000 		.4byte	.LVL74
 4218 02de 0100     		.2byte	0x1
 4219 02e0 50       		.byte	0x50
 4220 02e1 78000000 		.4byte	.LVL74
 4221 02e5 94000000 		.4byte	.LFE79
 4222 02e9 0400     		.2byte	0x4
 4223 02eb F3       		.byte	0xf3
 4224 02ec 01       		.uleb128 0x1
 4225 02ed 50       		.byte	0x50
 4226 02ee 9F       		.byte	0x9f
 4227 02ef 00000000 		.4byte	0
 4228 02f3 00000000 		.4byte	0
ARM GAS  C:\Users\LAIR\AppData\Local\Temp\ccdy23dh.s 			page 121


 4229              	.LLST15:
 4230 02f7 00000000 		.4byte	.LVL65
 4231 02fb 17000000 		.4byte	.LVL66-1
 4232 02ff 0100     		.2byte	0x1
 4233 0301 51       		.byte	0x51
 4234 0302 17000000 		.4byte	.LVL66-1
 4235 0306 4C000000 		.4byte	.LVL71
 4236 030a 0100     		.2byte	0x1
 4237 030c 56       		.byte	0x56
 4238 030d 4C000000 		.4byte	.LVL71
 4239 0311 50000000 		.4byte	.LVL72
 4240 0315 0200     		.2byte	0x2
 4241 0317 73       		.byte	0x73
 4242 0318 04       		.sleb128 4
 4243 0319 50000000 		.4byte	.LVL72
 4244 031d 6E000000 		.4byte	.LVL73
 4245 0321 0400     		.2byte	0x4
 4246 0323 F3       		.byte	0xf3
 4247 0324 01       		.uleb128 0x1
 4248 0325 51       		.byte	0x51
 4249 0326 9F       		.byte	0x9f
 4250 0327 6E000000 		.4byte	.LVL73
 4251 032b 78000000 		.4byte	.LVL74
 4252 032f 0100     		.2byte	0x1
 4253 0331 51       		.byte	0x51
 4254 0332 78000000 		.4byte	.LVL74
 4255 0336 94000000 		.4byte	.LFE79
 4256 033a 0400     		.2byte	0x4
 4257 033c F3       		.byte	0xf3
 4258 033d 01       		.uleb128 0x1
 4259 033e 51       		.byte	0x51
 4260 033f 9F       		.byte	0x9f
 4261 0340 00000000 		.4byte	0
 4262 0344 00000000 		.4byte	0
 4263              	.LLST16:
 4264 0348 00000000 		.4byte	.LVL65
 4265 034c 17000000 		.4byte	.LVL66-1
 4266 0350 0100     		.2byte	0x1
 4267 0352 52       		.byte	0x52
 4268 0353 17000000 		.4byte	.LVL66-1
 4269 0357 24000000 		.4byte	.LVL68
 4270 035b 0400     		.2byte	0x4
 4271 035d F3       		.byte	0xf3
 4272 035e 01       		.uleb128 0x1
 4273 035f 52       		.byte	0x52
 4274 0360 9F       		.byte	0x9f
 4275 0361 24000000 		.4byte	.LVL68
 4276 0365 6E000000 		.4byte	.LVL73
 4277 0369 0100     		.2byte	0x1
 4278 036b 55       		.byte	0x55
 4279 036c 6E000000 		.4byte	.LVL73
 4280 0370 78000000 		.4byte	.LVL74
 4281 0374 0100     		.2byte	0x1
 4282 0376 52       		.byte	0x52
 4283 0377 78000000 		.4byte	.LVL74
 4284 037b 7A000000 		.4byte	.LVL75
 4285 037f 0100     		.2byte	0x1
ARM GAS  C:\Users\LAIR\AppData\Local\Temp\ccdy23dh.s 			page 122


 4286 0381 55       		.byte	0x55
 4287 0382 00000000 		.4byte	0
 4288 0386 00000000 		.4byte	0
 4289              	.LLST17:
 4290 038a 28000000 		.4byte	.LVL69
 4291 038e 3C000000 		.4byte	.LVL70
 4292 0392 0100     		.2byte	0x1
 4293 0394 53       		.byte	0x53
 4294 0395 00000000 		.4byte	0
 4295 0399 00000000 		.4byte	0
 4296              	.LLST18:
 4297 039d 00000000 		.4byte	.LVL76
 4298 03a1 0E000000 		.4byte	.LVL77
 4299 03a5 0100     		.2byte	0x1
 4300 03a7 50       		.byte	0x50
 4301 03a8 0E000000 		.4byte	.LVL77
 4302 03ac 00010000 		.4byte	.LFE80
 4303 03b0 0400     		.2byte	0x4
 4304 03b2 F3       		.byte	0xf3
 4305 03b3 01       		.uleb128 0x1
 4306 03b4 50       		.byte	0x50
 4307 03b5 9F       		.byte	0x9f
 4308 03b6 00000000 		.4byte	0
 4309 03ba 00000000 		.4byte	0
 4310              	.LLST19:
 4311 03be 00000000 		.4byte	.LVL76
 4312 03c2 11000000 		.4byte	.LVL78-1
 4313 03c6 0100     		.2byte	0x1
 4314 03c8 51       		.byte	0x51
 4315 03c9 11000000 		.4byte	.LVL78-1
 4316 03cd 8E000000 		.4byte	.LVL84
 4317 03d1 0100     		.2byte	0x1
 4318 03d3 56       		.byte	0x56
 4319 03d4 8E000000 		.4byte	.LVL84
 4320 03d8 94000000 		.4byte	.LVL85
 4321 03dc 0600     		.2byte	0x6
 4322 03de 73       		.byte	0x73
 4323 03df 80B0C080 		.sleb128 1074796544
 4323      04
 4324 03e4 94000000 		.4byte	.LVL85
 4325 03e8 98000000 		.4byte	.LVL86
 4326 03ec 0500     		.2byte	0x5
 4327 03ee 73       		.byte	0x73
 4328 03ef 00       		.sleb128 0
 4329 03f0 76       		.byte	0x76
 4330 03f1 00       		.sleb128 0
 4331 03f2 22       		.byte	0x22
 4332 03f3 98000000 		.4byte	.LVL86
 4333 03f7 9A000000 		.4byte	.LVL87
 4334 03fb 0200     		.2byte	0x2
 4335 03fd 73       		.byte	0x73
 4336 03fe 00       		.sleb128 0
 4337 03ff 9A000000 		.4byte	.LVL87
 4338 0403 C6000000 		.4byte	.LVL92
 4339 0407 0400     		.2byte	0x4
 4340 0409 F3       		.byte	0xf3
 4341 040a 01       		.uleb128 0x1
ARM GAS  C:\Users\LAIR\AppData\Local\Temp\ccdy23dh.s 			page 123


 4342 040b 51       		.byte	0x51
 4343 040c 9F       		.byte	0x9f
 4344 040d C6000000 		.4byte	.LVL92
 4345 0411 DE000000 		.4byte	.LVL93
 4346 0415 0100     		.2byte	0x1
 4347 0417 56       		.byte	0x56
 4348 0418 DE000000 		.4byte	.LVL93
 4349 041c 00010000 		.4byte	.LFE80
 4350 0420 0400     		.2byte	0x4
 4351 0422 F3       		.byte	0xf3
 4352 0423 01       		.uleb128 0x1
 4353 0424 51       		.byte	0x51
 4354 0425 9F       		.byte	0x9f
 4355 0426 00000000 		.4byte	0
 4356 042a 00000000 		.4byte	0
 4357              	.LLST20:
 4358 042e 00000000 		.4byte	.LVL76
 4359 0432 11000000 		.4byte	.LVL78-1
 4360 0436 0100     		.2byte	0x1
 4361 0438 52       		.byte	0x52
 4362 0439 11000000 		.4byte	.LVL78-1
 4363 043d 42000000 		.4byte	.LVL79
 4364 0441 0400     		.2byte	0x4
 4365 0443 F3       		.byte	0xf3
 4366 0444 01       		.uleb128 0x1
 4367 0445 52       		.byte	0x52
 4368 0446 9F       		.byte	0x9f
 4369 0447 42000000 		.4byte	.LVL79
 4370 044b 66000000 		.4byte	.LVL80
 4371 044f 0100     		.2byte	0x1
 4372 0451 55       		.byte	0x55
 4373 0452 68000000 		.4byte	.LVL81
 4374 0456 9C000000 		.4byte	.LVL88
 4375 045a 0100     		.2byte	0x1
 4376 045c 55       		.byte	0x55
 4377 045d A0000000 		.4byte	.LVL89
 4378 0461 A4000000 		.4byte	.LVL90
 4379 0465 0100     		.2byte	0x1
 4380 0467 55       		.byte	0x55
 4381 0468 C6000000 		.4byte	.LVL92
 4382 046c DE000000 		.4byte	.LVL93
 4383 0470 0100     		.2byte	0x1
 4384 0472 55       		.byte	0x55
 4385 0473 00000000 		.4byte	0
 4386 0477 00000000 		.4byte	0
 4387              	.LLST21:
 4388 047b 78000000 		.4byte	.LVL82
 4389 047f 86000000 		.4byte	.LVL83
 4390 0483 0100     		.2byte	0x1
 4391 0485 53       		.byte	0x53
 4392 0486 86000000 		.4byte	.LVL83
 4393 048a B6000000 		.4byte	.LVL91
 4394 048e 0E00     		.2byte	0xe
 4395 0490 74       		.byte	0x74
 4396 0491 00       		.sleb128 0
 4397 0492 03       		.byte	0x3
 4398 0493 00000000 		.4byte	.LANCHOR1
ARM GAS  C:\Users\LAIR\AppData\Local\Temp\ccdy23dh.s 			page 124


 4399 0497 22       		.byte	0x22
 4400 0498 94       		.byte	0x94
 4401 0499 01       		.byte	0x1
 4402 049a 08       		.byte	0x8
 4403 049b FF       		.byte	0xff
 4404 049c 1A       		.byte	0x1a
 4405 049d 9F       		.byte	0x9f
 4406 049e 00000000 		.4byte	0
 4407 04a2 00000000 		.4byte	0
 4408              	.LLST22:
 4409 04a6 00000000 		.4byte	.LVL94
 4410 04aa 12000000 		.4byte	.LVL95
 4411 04ae 0100     		.2byte	0x1
 4412 04b0 50       		.byte	0x50
 4413 04b1 12000000 		.4byte	.LVL95
 4414 04b5 B8000000 		.4byte	.LFE81
 4415 04b9 0400     		.2byte	0x4
 4416 04bb F3       		.byte	0xf3
 4417 04bc 01       		.uleb128 0x1
 4418 04bd 50       		.byte	0x50
 4419 04be 9F       		.byte	0x9f
 4420 04bf 00000000 		.4byte	0
 4421 04c3 00000000 		.4byte	0
 4422              	.LLST23:
 4423 04c7 00000000 		.4byte	.LVL94
 4424 04cb 15000000 		.4byte	.LVL96-1
 4425 04cf 0100     		.2byte	0x1
 4426 04d1 51       		.byte	0x51
 4427 04d2 15000000 		.4byte	.LVL96-1
 4428 04d6 6C000000 		.4byte	.LVL103
 4429 04da 0100     		.2byte	0x1
 4430 04dc 56       		.byte	0x56
 4431 04dd 6C000000 		.4byte	.LVL103
 4432 04e1 70000000 		.4byte	.LVL104
 4433 04e5 0200     		.2byte	0x2
 4434 04e7 73       		.byte	0x73
 4435 04e8 04       		.sleb128 4
 4436 04e9 70000000 		.4byte	.LVL104
 4437 04ed 8E000000 		.4byte	.LVL105
 4438 04f1 0400     		.2byte	0x4
 4439 04f3 F3       		.byte	0xf3
 4440 04f4 01       		.uleb128 0x1
 4441 04f5 51       		.byte	0x51
 4442 04f6 9F       		.byte	0x9f
 4443 04f7 8E000000 		.4byte	.LVL105
 4444 04fb 98000000 		.4byte	.LVL106
 4445 04ff 0100     		.2byte	0x1
 4446 0501 56       		.byte	0x56
 4447 0502 98000000 		.4byte	.LVL106
 4448 0506 B8000000 		.4byte	.LFE81
 4449 050a 0400     		.2byte	0x4
 4450 050c F3       		.byte	0xf3
 4451 050d 01       		.uleb128 0x1
 4452 050e 51       		.byte	0x51
 4453 050f 9F       		.byte	0x9f
 4454 0510 00000000 		.4byte	0
 4455 0514 00000000 		.4byte	0
ARM GAS  C:\Users\LAIR\AppData\Local\Temp\ccdy23dh.s 			page 125


 4456              	.LLST24:
 4457 0518 00000000 		.4byte	.LVL94
 4458 051c 15000000 		.4byte	.LVL96-1
 4459 0520 0100     		.2byte	0x1
 4460 0522 52       		.byte	0x52
 4461 0523 15000000 		.4byte	.LVL96-1
 4462 0527 34000000 		.4byte	.LVL99
 4463 052b 0400     		.2byte	0x4
 4464 052d F3       		.byte	0xf3
 4465 052e 01       		.uleb128 0x1
 4466 052f 52       		.byte	0x52
 4467 0530 9F       		.byte	0x9f
 4468 0531 34000000 		.4byte	.LVL99
 4469 0535 8E000000 		.4byte	.LVL105
 4470 0539 0100     		.2byte	0x1
 4471 053b 55       		.byte	0x55
 4472 053c 8E000000 		.4byte	.LVL105
 4473 0540 98000000 		.4byte	.LVL106
 4474 0544 0400     		.2byte	0x4
 4475 0546 F3       		.byte	0xf3
 4476 0547 01       		.uleb128 0x1
 4477 0548 52       		.byte	0x52
 4478 0549 9F       		.byte	0x9f
 4479 054a 98000000 		.4byte	.LVL106
 4480 054e 9A000000 		.4byte	.LVL107
 4481 0552 0100     		.2byte	0x1
 4482 0554 55       		.byte	0x55
 4483 0555 00000000 		.4byte	0
 4484 0559 00000000 		.4byte	0
 4485              	.LLST25:
 4486 055d 3C000000 		.4byte	.LVL100
 4487 0561 8E000000 		.4byte	.LVL105
 4488 0565 0100     		.2byte	0x1
 4489 0567 58       		.byte	0x58
 4490 0568 00000000 		.4byte	0
 4491 056c 00000000 		.4byte	0
 4492              	.LLST26:
 4493 0570 40000000 		.4byte	.LVL101
 4494 0574 56000000 		.4byte	.LVL102
 4495 0578 0100     		.2byte	0x1
 4496 057a 53       		.byte	0x53
 4497 057b 00000000 		.4byte	0
 4498 057f 00000000 		.4byte	0
 4499              	.LLST27:
 4500 0583 00000000 		.4byte	.LVL108
 4501 0587 1A000000 		.4byte	.LVL109
 4502 058b 0100     		.2byte	0x1
 4503 058d 50       		.byte	0x50
 4504 058e 1A000000 		.4byte	.LVL109
 4505 0592 2C000000 		.4byte	.LFE82
 4506 0596 0400     		.2byte	0x4
 4507 0598 F3       		.byte	0xf3
 4508 0599 01       		.uleb128 0x1
 4509 059a 50       		.byte	0x50
 4510 059b 9F       		.byte	0x9f
 4511 059c 00000000 		.4byte	0
 4512 05a0 00000000 		.4byte	0
ARM GAS  C:\Users\LAIR\AppData\Local\Temp\ccdy23dh.s 			page 126


 4513              	.LLST28:
 4514 05a4 00000000 		.4byte	.LVL110
 4515 05a8 08000000 		.4byte	.LVL111
 4516 05ac 0100     		.2byte	0x1
 4517 05ae 50       		.byte	0x50
 4518 05af 08000000 		.4byte	.LVL111
 4519 05b3 18000000 		.4byte	.LFE83
 4520 05b7 0400     		.2byte	0x4
 4521 05b9 F3       		.byte	0xf3
 4522 05ba 01       		.uleb128 0x1
 4523 05bb 50       		.byte	0x50
 4524 05bc 9F       		.byte	0x9f
 4525 05bd 00000000 		.4byte	0
 4526 05c1 00000000 		.4byte	0
 4527              	.LLST29:
 4528 05c5 00000000 		.4byte	.LVL113
 4529 05c9 08000000 		.4byte	.LVL114
 4530 05cd 0100     		.2byte	0x1
 4531 05cf 50       		.byte	0x50
 4532 05d0 08000000 		.4byte	.LVL114
 4533 05d4 16000000 		.4byte	.LVL116
 4534 05d8 0400     		.2byte	0x4
 4535 05da F3       		.byte	0xf3
 4536 05db 01       		.uleb128 0x1
 4537 05dc 50       		.byte	0x50
 4538 05dd 9F       		.byte	0x9f
 4539 05de 16000000 		.4byte	.LVL116
 4540 05e2 18000000 		.4byte	.LVL117
 4541 05e6 0100     		.2byte	0x1
 4542 05e8 50       		.byte	0x50
 4543 05e9 18000000 		.4byte	.LVL117
 4544 05ed 20000000 		.4byte	.LFE85
 4545 05f1 0400     		.2byte	0x4
 4546 05f3 F3       		.byte	0xf3
 4547 05f4 01       		.uleb128 0x1
 4548 05f5 50       		.byte	0x50
 4549 05f6 9F       		.byte	0x9f
 4550 05f7 00000000 		.4byte	0
 4551 05fb 00000000 		.4byte	0
 4552              	.LLST30:
 4553 05ff 00000000 		.4byte	.LVL113
 4554 0603 14000000 		.4byte	.LVL115
 4555 0607 0200     		.2byte	0x2
 4556 0609 30       		.byte	0x30
 4557 060a 9F       		.byte	0x9f
 4558 060b 14000000 		.4byte	.LVL115
 4559 060f 16000000 		.4byte	.LVL116
 4560 0613 0100     		.2byte	0x1
 4561 0615 50       		.byte	0x50
 4562 0616 16000000 		.4byte	.LVL116
 4563 061a 18000000 		.4byte	.LVL117
 4564 061e 0200     		.2byte	0x2
 4565 0620 30       		.byte	0x30
 4566 0621 9F       		.byte	0x9f
 4567 0622 18000000 		.4byte	.LVL117
 4568 0626 1A000000 		.4byte	.LVL118
 4569 062a 0100     		.2byte	0x1
ARM GAS  C:\Users\LAIR\AppData\Local\Temp\ccdy23dh.s 			page 127


 4570 062c 50       		.byte	0x50
 4571 062d 00000000 		.4byte	0
 4572 0631 00000000 		.4byte	0
 4573              	.LLST31:
 4574 0635 00000000 		.4byte	.LVL120
 4575 0639 0E000000 		.4byte	.LVL121
 4576 063d 0200     		.2byte	0x2
 4577 063f 30       		.byte	0x30
 4578 0640 9F       		.byte	0x9f
 4579 0641 0E000000 		.4byte	.LVL121
 4580 0645 14000000 		.4byte	.LFE87
 4581 0649 0100     		.2byte	0x1
 4582 064b 50       		.byte	0x50
 4583 064c 00000000 		.4byte	0
 4584 0650 00000000 		.4byte	0
 4585              		.section	.debug_aranges,"",%progbits
 4586 0000 E4000000 		.4byte	0xe4
 4587 0004 0200     		.2byte	0x2
 4588 0006 00000000 		.4byte	.Ldebug_info0
 4589 000a 04       		.byte	0x4
 4590 000b 00       		.byte	0
 4591 000c 0000     		.2byte	0
 4592 000e 0000     		.2byte	0
 4593 0010 00000000 		.4byte	.LFB76
 4594 0014 10000000 		.4byte	.LFE76-.LFB76
 4595 0018 00000000 		.4byte	.LFB66
 4596 001c D4000000 		.4byte	.LFE66-.LFB66
 4597 0020 00000000 		.4byte	.LFB67
 4598 0024 D4000000 		.4byte	.LFE67-.LFB67
 4599 0028 00000000 		.4byte	.LFB65
 4600 002c 28000000 		.4byte	.LFE65-.LFB65
 4601 0030 00000000 		.4byte	.LFB68
 4602 0034 50000000 		.4byte	.LFE68-.LFB68
 4603 0038 00000000 		.4byte	.LFB70
 4604 003c 1C000000 		.4byte	.LFE70-.LFB70
 4605 0040 00000000 		.4byte	.LFB71
 4606 0044 0C000000 		.4byte	.LFE71-.LFB71
 4607 0048 00000000 		.4byte	.LFB72
 4608 004c 1C000000 		.4byte	.LFE72-.LFB72
 4609 0050 00000000 		.4byte	.LFB73
 4610 0054 0C000000 		.4byte	.LFE73-.LFB73
 4611 0058 00000000 		.4byte	.LFB74
 4612 005c 14000000 		.4byte	.LFE74-.LFB74
 4613 0060 00000000 		.4byte	.LFB75
 4614 0064 2C000000 		.4byte	.LFE75-.LFB75
 4615 0068 00000000 		.4byte	.LFB77
 4616 006c 34000000 		.4byte	.LFE77-.LFB77
 4617 0070 00000000 		.4byte	.LFB69
 4618 0074 80000000 		.4byte	.LFE69-.LFB69
 4619 0078 00000000 		.4byte	.LFB78
 4620 007c E8000000 		.4byte	.LFE78-.LFB78
 4621 0080 00000000 		.4byte	.LFB79
 4622 0084 94000000 		.4byte	.LFE79-.LFB79
 4623 0088 00000000 		.4byte	.LFB80
 4624 008c 00010000 		.4byte	.LFE80-.LFB80
 4625 0090 00000000 		.4byte	.LFB81
 4626 0094 B8000000 		.4byte	.LFE81-.LFB81
ARM GAS  C:\Users\LAIR\AppData\Local\Temp\ccdy23dh.s 			page 128


 4627 0098 00000000 		.4byte	.LFB82
 4628 009c 2C000000 		.4byte	.LFE82-.LFB82
 4629 00a0 00000000 		.4byte	.LFB83
 4630 00a4 18000000 		.4byte	.LFE83-.LFB83
 4631 00a8 00000000 		.4byte	.LFB84
 4632 00ac 0C000000 		.4byte	.LFE84-.LFB84
 4633 00b0 00000000 		.4byte	.LFB85
 4634 00b4 20000000 		.4byte	.LFE85-.LFB85
 4635 00b8 00000000 		.4byte	.LFB86
 4636 00bc 20000000 		.4byte	.LFE86-.LFB86
 4637 00c0 00000000 		.4byte	.LFB87
 4638 00c4 14000000 		.4byte	.LFE87-.LFB87
 4639 00c8 00000000 		.4byte	.LFB88
 4640 00cc 10000000 		.4byte	.LFE88-.LFB88
 4641 00d0 00000000 		.4byte	.LFB89
 4642 00d4 10000000 		.4byte	.LFE89-.LFB89
 4643 00d8 00000000 		.4byte	.LFB90
 4644 00dc 10000000 		.4byte	.LFE90-.LFB90
 4645 00e0 00000000 		.4byte	0
 4646 00e4 00000000 		.4byte	0
 4647              		.section	.debug_ranges,"",%progbits
 4648              	.Ldebug_ranges0:
 4649 0000 00000000 		.4byte	.LFB76
 4650 0004 10000000 		.4byte	.LFE76
 4651 0008 00000000 		.4byte	.LFB66
 4652 000c D4000000 		.4byte	.LFE66
 4653 0010 00000000 		.4byte	.LFB67
 4654 0014 D4000000 		.4byte	.LFE67
 4655 0018 00000000 		.4byte	.LFB65
 4656 001c 28000000 		.4byte	.LFE65
 4657 0020 00000000 		.4byte	.LFB68
 4658 0024 50000000 		.4byte	.LFE68
 4659 0028 00000000 		.4byte	.LFB70
 4660 002c 1C000000 		.4byte	.LFE70
 4661 0030 00000000 		.4byte	.LFB71
 4662 0034 0C000000 		.4byte	.LFE71
 4663 0038 00000000 		.4byte	.LFB72
 4664 003c 1C000000 		.4byte	.LFE72
 4665 0040 00000000 		.4byte	.LFB73
 4666 0044 0C000000 		.4byte	.LFE73
 4667 0048 00000000 		.4byte	.LFB74
 4668 004c 14000000 		.4byte	.LFE74
 4669 0050 00000000 		.4byte	.LFB75
 4670 0054 2C000000 		.4byte	.LFE75
 4671 0058 00000000 		.4byte	.LFB77
 4672 005c 34000000 		.4byte	.LFE77
 4673 0060 00000000 		.4byte	.LFB69
 4674 0064 80000000 		.4byte	.LFE69
 4675 0068 00000000 		.4byte	.LFB78
 4676 006c E8000000 		.4byte	.LFE78
 4677 0070 00000000 		.4byte	.LFB79
 4678 0074 94000000 		.4byte	.LFE79
 4679 0078 00000000 		.4byte	.LFB80
 4680 007c 00010000 		.4byte	.LFE80
 4681 0080 00000000 		.4byte	.LFB81
 4682 0084 B8000000 		.4byte	.LFE81
 4683 0088 00000000 		.4byte	.LFB82
ARM GAS  C:\Users\LAIR\AppData\Local\Temp\ccdy23dh.s 			page 129


 4684 008c 2C000000 		.4byte	.LFE82
 4685 0090 00000000 		.4byte	.LFB83
 4686 0094 18000000 		.4byte	.LFE83
 4687 0098 00000000 		.4byte	.LFB84
 4688 009c 0C000000 		.4byte	.LFE84
 4689 00a0 00000000 		.4byte	.LFB85
 4690 00a4 20000000 		.4byte	.LFE85
 4691 00a8 00000000 		.4byte	.LFB86
 4692 00ac 20000000 		.4byte	.LFE86
 4693 00b0 00000000 		.4byte	.LFB87
 4694 00b4 14000000 		.4byte	.LFE87
 4695 00b8 00000000 		.4byte	.LFB88
 4696 00bc 10000000 		.4byte	.LFE88
 4697 00c0 00000000 		.4byte	.LFB89
 4698 00c4 10000000 		.4byte	.LFE89
 4699 00c8 00000000 		.4byte	.LFB90
 4700 00cc 10000000 		.4byte	.LFE90
 4701 00d0 00000000 		.4byte	0
 4702 00d4 00000000 		.4byte	0
 4703              		.section	.debug_line,"",%progbits
 4704              	.Ldebug_line0:
 4705 0000 1D040000 		.section	.debug_str,"MS",%progbits,1
 4705      02008B00 
 4705      00000201 
 4705      FB0E0D00 
 4705      01010101 
 4706              	.LASF117:
 4707 0000 2E5C4765 		.ascii	".\\Generated_Source\\PSoC4\\USBFS.c\000"
 4707      6E657261 
 4707      7465645F 
 4707      536F7572 
 4707      63655C50 
 4708              	.LASF10:
 4709 0021 75696E74 		.ascii	"uint16\000"
 4709      313600
 4710              	.LASF114:
 4711 0028 43794578 		.ascii	"CyExitCriticalSection\000"
 4711      69744372 
 4711      69746963 
 4711      616C5365 
 4711      6374696F 
 4712              	.LASF51:
 4713 003e 55534246 		.ascii	"USBFS_arb_eps_struct\000"
 4713      535F6172 
 4713      625F6570 
 4713      735F7374 
 4713      72756374 
 4714              	.LASF70:
 4715 0053 55534246 		.ascii	"USBFS_GetEPCount\000"
 4715      535F4765 
 4715      74455043 
 4715      6F756E74 
 4715      00
 4716              	.LASF97:
 4717 0064 55534246 		.ascii	"USBFS_initVar\000"
 4717      535F696E 
 4717      69745661 
ARM GAS  C:\Users\LAIR\AppData\Local\Temp\ccdy23dh.s 			page 130


 4717      7200
 4718              	.LASF85:
 4719 0072 55534246 		.ascii	"USBFS_Force\000"
 4719      535F466F 
 4719      72636500 
 4720              	.LASF7:
 4721 007e 6C6F6E67 		.ascii	"long long unsigned int\000"
 4721      206C6F6E 
 4721      6720756E 
 4721      7369676E 
 4721      65642069 
 4722              	.LASF87:
 4723 0095 55534246 		.ascii	"USBFS_GetEPAckState\000"
 4723      535F4765 
 4723      74455041 
 4723      636B5374 
 4723      61746500 
 4724              	.LASF22:
 4725 00a9 61646472 		.ascii	"addr\000"
 4725      00
 4726              	.LASF42:
 4727 00ae 72775761 		.ascii	"rwWa16\000"
 4727      313600
 4728              	.LASF32:
 4729 00b5 65704366 		.ascii	"epCfg\000"
 4729      6700
 4730              	.LASF49:
 4731 00bb 55534246 		.ascii	"USBFS_sie_eps_struct\000"
 4731      535F7369 
 4731      655F6570 
 4731      735F7374 
 4731      72756374 
 4732              	.LASF46:
 4733 00d0 72774472 		.ascii	"rwDr16\000"
 4733      313600
 4734              	.LASF69:
 4735 00d7 65704E75 		.ascii	"epNumber\000"
 4735      6D626572 
 4735      00
 4736              	.LASF60:
 4737 00e0 64657669 		.ascii	"device\000"
 4737      636500
 4738              	.LASF6:
 4739 00e7 6C6F6E67 		.ascii	"long long int\000"
 4739      206C6F6E 
 4739      6720696E 
 4739      7400
 4740              	.LASF0:
 4741 00f5 7369676E 		.ascii	"signed char\000"
 4741      65642063 
 4741      68617200 
 4742              	.LASF64:
 4743 0101 55534246 		.ascii	"USBFS_IsConfigurationChanged\000"
 4743      535F4973 
 4743      436F6E66 
 4743      69677572 
 4743      6174696F 
ARM GAS  C:\Users\LAIR\AppData\Local\Temp\ccdy23dh.s 			page 131


 4744              	.LASF105:
 4745 011e 55534246 		.ascii	"USBFS_deviceAddress\000"
 4745      535F6465 
 4745      76696365 
 4745      41646472 
 4745      65737300 
 4746              	.LASF82:
 4747 0132 61646A4C 		.ascii	"adjLength\000"
 4747      656E6774 
 4747      6800
 4748              	.LASF103:
 4749 013c 55534246 		.ascii	"USBFS_interfaceNumber\000"
 4749      535F696E 
 4749      74657266 
 4749      6163654E 
 4749      756D6265 
 4750              	.LASF90:
 4751 0152 55534246 		.ascii	"USBFS_RWUEnabled\000"
 4751      535F5257 
 4751      55456E61 
 4751      626C6564 
 4751      00
 4752              	.LASF41:
 4753 0163 55534246 		.ascii	"USBFS_arb_ep_struct\000"
 4753      535F6172 
 4753      625F6570 
 4753      5F737472 
 4753      75637400 
 4754              	.LASF71:
 4755 0177 636E7472 		.ascii	"cntr\000"
 4755      00
 4756              	.LASF73:
 4757 017c 55534246 		.ascii	"USBFS_Stop\000"
 4757      535F5374 
 4757      6F7000
 4758              	.LASF4:
 4759 0187 6C6F6E67 		.ascii	"long int\000"
 4759      20696E74 
 4759      00
 4760              	.LASF53:
 4761 0190 6379646D 		.ascii	"cydma_channel_ctl_struct\000"
 4761      615F6368 
 4761      616E6E65 
 4761      6C5F6374 
 4761      6C5F7374 
 4762              	.LASF92:
 4763 01a9 55534246 		.ascii	"USBFS_GetConfiguration\000"
 4763      535F4765 
 4763      74436F6E 
 4763      66696775 
 4763      72617469 
 4764              	.LASF9:
 4765 01c0 75696E74 		.ascii	"uint8\000"
 4765      3800
 4766              	.LASF21:
 4767 01c6 6570546F 		.ascii	"epToggle\000"
 4767      67676C65 
ARM GAS  C:\Users\LAIR\AppData\Local\Temp\ccdy23dh.s 			page 132


 4767      00
 4768              	.LASF47:
 4769 01cf 55534246 		.ascii	"USBFS_arb_ep_reg16_struct\000"
 4769      535F6172 
 4769      625F6570 
 4769      5F726567 
 4769      31365F73 
 4770              	.LASF36:
 4771 01e9 72775761 		.ascii	"rwWa\000"
 4771      00
 4772              	.LASF109:
 4773 01ee 43794465 		.ascii	"CyDelayUs\000"
 4773      6C617955 
 4773      7300
 4774              	.LASF13:
 4775 01f8 646F7562 		.ascii	"double\000"
 4775      6C6500
 4776              	.LASF89:
 4777 01ff 706F7765 		.ascii	"powerStatus\000"
 4777      72537461 
 4777      74757300 
 4778              	.LASF34:
 4779 020b 65705372 		.ascii	"epSr\000"
 4779      00
 4780              	.LASF11:
 4781 0210 75696E74 		.ascii	"uint32\000"
 4781      333200
 4782              	.LASF63:
 4783 0217 55534246 		.ascii	"USBFS_CheckActivity\000"
 4783      535F4368 
 4783      65636B41 
 4783      63746976 
 4783      69747900 
 4784              	.LASF59:
 4785 022b 55534246 		.ascii	"USBFS_InitComponent\000"
 4785      535F496E 
 4785      6974436F 
 4785      6D706F6E 
 4785      656E7400 
 4786              	.LASF76:
 4787 023f 70446174 		.ascii	"pData\000"
 4787      6100
 4788              	.LASF100:
 4789 0245 55534246 		.ascii	"USBFS_configuration\000"
 4789      535F636F 
 4789      6E666967 
 4789      75726174 
 4789      696F6E00 
 4790              	.LASF23:
 4791 0259 65704D6F 		.ascii	"epMode\000"
 4791      646500
 4792              	.LASF35:
 4793 0260 72657365 		.ascii	"reserved\000"
 4793      72766564 
 4793      00
 4794              	.LASF79:
 4795 0269 55534246 		.ascii	"USBFS_ReadOutEP\000"
ARM GAS  C:\Users\LAIR\AppData\Local\Temp\ccdy23dh.s 			page 133


 4795      535F5265 
 4795      61644F75 
 4795      74455000 
 4796              	.LASF72:
 4797 0279 55534246 		.ascii	"USBFS_Stop_DMA\000"
 4797      535F5374 
 4797      6F705F44 
 4797      4D4100
 4798              	.LASF8:
 4799 0288 756E7369 		.ascii	"unsigned int\000"
 4799      676E6564 
 4799      20696E74 
 4799      00
 4800              	.LASF5:
 4801 0295 6C6F6E67 		.ascii	"long unsigned int\000"
 4801      20756E73 
 4801      69676E65 
 4801      6420696E 
 4801      7400
 4802              	.LASF107:
 4803 02a7 55534246 		.ascii	"USBFS_DmaChan\000"
 4803      535F446D 
 4803      61436861 
 4803      6E00
 4804              	.LASF113:
 4805 02b5 4379456E 		.ascii	"CyEnterCriticalSection\000"
 4805      74657243 
 4805      72697469 
 4805      63616C53 
 4805      65637469 
 4806              	.LASF119:
 4807 02cc 55534246 		.ascii	"USBFS_InitEpDma\000"
 4807      535F496E 
 4807      69744570 
 4807      446D6100 
 4808              	.LASF93:
 4809 02dc 55534246 		.ascii	"USBFS_GetDeviceAddress\000"
 4809      535F4765 
 4809      74446576 
 4809      69636541 
 4809      64647265 
 4810              	.LASF3:
 4811 02f3 73686F72 		.ascii	"short unsigned int\000"
 4811      7420756E 
 4811      7369676E 
 4811      65642069 
 4811      6E7400
 4812              	.LASF120:
 4813 0306 4379496E 		.ascii	"CyIntSetVector\000"
 4813      74536574 
 4813      56656374 
 4813      6F7200
 4814              	.LASF31:
 4815 0315 55534246 		.ascii	"USBFS_sie_ep_struct\000"
 4815      535F7369 
 4815      655F6570 
 4815      5F737472 
ARM GAS  C:\Users\LAIR\AppData\Local\Temp\ccdy23dh.s 			page 134


 4815      75637400 
 4816              	.LASF112:
 4817 0329 43795379 		.ascii	"CySysClkImoGetUsbLock\000"
 4817      73436C6B 
 4817      496D6F47 
 4817      65745573 
 4817      624C6F63 
 4818              	.LASF50:
 4819 033f 61726245 		.ascii	"arbEp\000"
 4819      7000
 4820              	.LASF26:
 4821 0345 696E7465 		.ascii	"interface\000"
 4821      72666163 
 4821      6500
 4822              	.LASF65:
 4823 034f 63723152 		.ascii	"cr1Reg\000"
 4823      656700
 4824              	.LASF101:
 4825 0356 55534246 		.ascii	"USBFS_configurationChanged\000"
 4825      535F636F 
 4825      6E666967 
 4825      75726174 
 4825      696F6E43 
 4826              	.LASF15:
 4827 0371 72656733 		.ascii	"reg32\000"
 4827      3200
 4828              	.LASF95:
 4829 0377 55534246 		.ascii	"USBFS_EnableSofInt\000"
 4829      535F456E 
 4829      61626C65 
 4829      536F6649 
 4829      6E7400
 4830              	.LASF20:
 4831 038a 68774570 		.ascii	"hwEpState\000"
 4831      53746174 
 4831      6500
 4832              	.LASF88:
 4833 0394 55534246 		.ascii	"USBFS_SetPowerStatus\000"
 4833      535F5365 
 4833      74506F77 
 4833      65725374 
 4833      61747573 
 4834              	.LASF17:
 4835 03a9 73697A65 		.ascii	"sizetype\000"
 4835      74797065 
 4835      00
 4836              	.LASF48:
 4837 03b2 73696545 		.ascii	"sieEp\000"
 4837      7000
 4838              	.LASF18:
 4839 03b8 61747472 		.ascii	"attrib\000"
 4839      696200
 4840              	.LASF52:
 4841 03bf 55534246 		.ascii	"USBFS_arb_eps_reg16_struct\000"
 4841      535F6172 
 4841      625F6570 
 4841      735F7265 
ARM GAS  C:\Users\LAIR\AppData\Local\Temp\ccdy23dh.s 			page 135


 4841      6731365F 
 4842              	.LASF39:
 4843 03da 72775261 		.ascii	"rwRaMsb\000"
 4843      4D736200 
 4844              	.LASF116:
 4845 03e2 474E5520 		.ascii	"GNU C 4.9.3 20150303 (release) [ARM/embedded-4_9-br"
 4845      4320342E 
 4845      392E3320 
 4845      32303135 
 4845      30333033 
 4846 0415 616E6368 		.ascii	"anch revision 221220] -mcpu=cortex-m0 -mthumb -g -O"
 4846      20726576 
 4846      6973696F 
 4846      6E203232 
 4846      31323230 
 4847 0448 67202D66 		.ascii	"g -ffunction-sections -ffat-lto-objects\000"
 4847      66756E63 
 4847      74696F6E 
 4847      2D736563 
 4847      74696F6E 
 4848              	.LASF28:
 4849 0470 6570436E 		.ascii	"epCnt0\000"
 4849      743000
 4850              	.LASF29:
 4851 0477 6570436E 		.ascii	"epCnt1\000"
 4851      743100
 4852              	.LASF110:
 4853 047e 4379496E 		.ascii	"CyIntSetPriority\000"
 4853      74536574 
 4853      5072696F 
 4853      72697479 
 4853      00
 4854              	.LASF30:
 4855 048f 65704372 		.ascii	"epCr0\000"
 4855      3000
 4856              	.LASF118:
 4857 0495 433A5C55 		.ascii	"C:\\Users\\LAIR\\Documents\\GitHub\\ARC-Controller\\"
 4857      73657273 
 4857      5C4C4149 
 4857      525C446F 
 4857      63756D65 
 4858 04c3 50536F43 		.ascii	"PSoC-Code\\ARC-EMBED.cydsn\000"
 4858      2D436F64 
 4858      655C4152 
 4858      432D454D 
 4858      4245442E 
 4859              	.LASF12:
 4860 04dd 666C6F61 		.ascii	"float\000"
 4860      7400
 4861              	.LASF19:
 4862 04e3 61706945 		.ascii	"apiEpState\000"
 4862      70537461 
 4862      746500
 4863              	.LASF106:
 4864 04ee 55534246 		.ascii	"USBFS_EP\000"
 4864      535F4550 
 4864      00
ARM GAS  C:\Users\LAIR\AppData\Local\Temp\ccdy23dh.s 			page 136


 4865              	.LASF58:
 4866 04f7 55534246 		.ascii	"USBFS_Init\000"
 4866      535F496E 
 4866      697400
 4867              	.LASF80:
 4868 0502 55534246 		.ascii	"USBFS_LoadInEP16\000"
 4868      535F4C6F 
 4868      6164496E 
 4868      45503136 
 4868      00
 4869              	.LASF96:
 4870 0513 55534246 		.ascii	"USBFS_DisableSofInt\000"
 4870      535F4469 
 4870      7361626C 
 4870      65536F66 
 4870      496E7400 
 4871              	.LASF99:
 4872 0527 55534246 		.ascii	"USBFS_transferState\000"
 4872      535F7472 
 4872      616E7366 
 4872      65725374 
 4872      61746500 
 4873              	.LASF1:
 4874 053b 756E7369 		.ascii	"unsigned char\000"
 4874      676E6564 
 4874      20636861 
 4874      7200
 4875              	.LASF44:
 4876 0549 72775261 		.ascii	"rwRa16\000"
 4876      313600
 4877              	.LASF2:
 4878 0550 73686F72 		.ascii	"short int\000"
 4878      7420696E 
 4878      7400
 4879              	.LASF108:
 4880 055a 55534246 		.ascii	"USBFS_lastPacketSize\000"
 4880      535F6C61 
 4880      73745061 
 4880      636B6574 
 4880      53697A65 
 4881              	.LASF111:
 4882 056f 4379496E 		.ascii	"CyIntEnable\000"
 4882      74456E61 
 4882      626C6500 
 4883              	.LASF83:
 4884 057b 55534246 		.ascii	"USBFS_EnableOutEP\000"
 4884      535F456E 
 4884      61626C65 
 4884      4F757445 
 4884      5000
 4885              	.LASF66:
 4886 058d 55534246 		.ascii	"USBFS_GetInterfaceSetting\000"
 4886      535F4765 
 4886      74496E74 
 4886      65726661 
 4886      63655365 
 4887              	.LASF38:
ARM GAS  C:\Users\LAIR\AppData\Local\Temp\ccdy23dh.s 			page 137


 4888 05a7 72775261 		.ascii	"rwRa\000"
 4888      00
 4889              	.LASF104:
 4890 05ac 55534246 		.ascii	"USBFS_interfaceSetting\000"
 4890      535F696E 
 4890      74657266 
 4890      61636553 
 4890      65747469 
 4891              	.LASF27:
 4892 05c3 545F5553 		.ascii	"T_USBFS_EP_CTL_BLOCK\000"
 4892      4246535F 
 4892      45505F43 
 4892      544C5F42 
 4892      4C4F434B 
 4893              	.LASF98:
 4894 05d8 55534246 		.ascii	"USBFS_device\000"
 4894      535F6465 
 4894      76696365 
 4894      00
 4895              	.LASF86:
 4896 05e5 62537461 		.ascii	"bState\000"
 4896      746500
 4897              	.LASF56:
 4898 05ec 64657363 		.ascii	"descriptor\000"
 4898      72697074 
 4898      6F7200
 4899              	.LASF77:
 4900 05f7 6C656E67 		.ascii	"length\000"
 4900      746800
 4901              	.LASF14:
 4902 05fe 63686172 		.ascii	"char\000"
 4902      00
 4903              	.LASF61:
 4904 0603 6D6F6465 		.ascii	"mode\000"
 4904      00
 4905              	.LASF16:
 4906 0608 63796973 		.ascii	"cyisraddress\000"
 4906      72616464 
 4906      72657373 
 4906      00
 4907              	.LASF78:
 4908 0615 6368616E 		.ascii	"channelNum\000"
 4908      6E656C4E 
 4908      756D00
 4909              	.LASF25:
 4910 0620 62756666 		.ascii	"bufferSize\000"
 4910      65725369 
 4910      7A6500
 4911              	.LASF62:
 4912 062b 55534246 		.ascii	"USBFS_Start\000"
 4912      535F5374 
 4912      61727400 
 4913              	.LASF24:
 4914 0637 62756666 		.ascii	"buffOffset\000"
 4914      4F666673 
 4914      657400
 4915              	.LASF67:
ARM GAS  C:\Users\LAIR\AppData\Local\Temp\ccdy23dh.s 			page 138


 4916 0642 696E7465 		.ascii	"interfaceNumber\000"
 4916      72666163 
 4916      654E756D 
 4916      62657200 
 4917              	.LASF102:
 4918 0652 55534246 		.ascii	"USBFS_deviceStatus\000"
 4918      535F6465 
 4918      76696365 
 4918      53746174 
 4918      757300
 4919              	.LASF121:
 4920 0665 4379446D 		.ascii	"CyDmaEnable\000"
 4920      61456E61 
 4920      626C6500 
 4921              	.LASF68:
 4922 0671 55534246 		.ascii	"USBFS_GetEPState\000"
 4922      535F4765 
 4922      74455053 
 4922      74617465 
 4922      00
 4923              	.LASF94:
 4924 0682 55534246 		.ascii	"USBFS_ReInitComponent\000"
 4924      535F5265 
 4924      496E6974 
 4924      436F6D70 
 4924      6F6E656E 
 4925              	.LASF74:
 4926 0698 656E6162 		.ascii	"enableInterrupts\000"
 4926      6C65496E 
 4926      74657272 
 4926      75707473 
 4926      00
 4927              	.LASF54:
 4928 06a9 73746174 		.ascii	"status\000"
 4928      757300
 4929              	.LASF40:
 4930 06b0 72774472 		.ascii	"rwDr\000"
 4930      00
 4931              	.LASF84:
 4932 06b5 55534246 		.ascii	"USBFS_DisableOutEP\000"
 4932      535F4469 
 4932      7361626C 
 4932      654F7574 
 4932      455000
 4933              	.LASF75:
 4934 06c8 55534246 		.ascii	"USBFS_LoadInEP\000"
 4934      535F4C6F 
 4934      6164496E 
 4934      455000
 4935              	.LASF55:
 4936 06d7 6379646D 		.ascii	"cydma_descriptor_struct\000"
 4936      615F6465 
 4936      73637269 
 4936      70746F72 
 4936      5F737472 
 4937              	.LASF37:
 4938 06ef 72775761 		.ascii	"rwWaMsb\000"
ARM GAS  C:\Users\LAIR\AppData\Local\Temp\ccdy23dh.s 			page 139


 4938      4D736200 
 4939              	.LASF33:
 4940 06f7 6570496E 		.ascii	"epIntEn\000"
 4940      74456E00 
 4941              	.LASF43:
 4942 06ff 72657365 		.ascii	"reserved0\000"
 4942      72766564 
 4942      3000
 4943              	.LASF45:
 4944 0709 72657365 		.ascii	"reserved1\000"
 4944      72766564 
 4944      3100
 4945              	.LASF115:
 4946 0713 4379496E 		.ascii	"CyIntDisable\000"
 4946      74446973 
 4946      61626C65 
 4946      00
 4947              	.LASF81:
 4948 0720 55534246 		.ascii	"USBFS_ReadOutEP16\000"
 4948      535F5265 
 4948      61644F75 
 4948      74455031 
 4948      3600
 4949              	.LASF57:
 4950 0732 6379646D 		.ascii	"cydma_descriptor_ram_struct\000"
 4950      615F6465 
 4950      73637269 
 4950      70746F72 
 4950      5F72616D 
 4951              	.LASF122:
 4952 074e 43794861 		.ascii	"CyHalt\000"
 4952      6C7400
 4953              	.LASF91:
 4954 0755 72657375 		.ascii	"result\000"
 4954      6C7400
 4955              		.ident	"GCC: (GNU Tools for ARM Embedded Processors) 4.9.3 20150303 (release) [ARM/embedded-4_9-br
