ARM GAS  C:\Users\LAIR\AppData\Local\Temp\ccjrpnb6.s 			page 1


   1              		.cpu cortex-m0
   2              		.fpu softvfp
   3              		.eabi_attribute 20, 1
   4              		.eabi_attribute 21, 1
   5              		.eabi_attribute 23, 3
   6              		.eabi_attribute 24, 1
   7              		.eabi_attribute 25, 1
   8              		.eabi_attribute 26, 1
   9              		.eabi_attribute 30, 1
  10              		.eabi_attribute 34, 0
  11              		.eabi_attribute 18, 4
  12              		.code	16
  13              		.file	"USBFS_drv.c"
  14              		.text
  15              	.Ltext0:
  16              		.cfi_sections	.debug_frame
  17              		.section	.text.USBFS_LoadEP0,"ax",%progbits
  18              		.align	2
  19              		.global	USBFS_LoadEP0
  20              		.code	16
  21              		.thumb_func
  22              		.type	USBFS_LoadEP0, %function
  23              	USBFS_LoadEP0:
  24              	.LFB69:
  25              		.file 1 ".\\Generated_Source\\PSoC4\\USBFS_drv.c"
   1:.\Generated_Source\PSoC4/USBFS_drv.c **** /***************************************************************************//**
   2:.\Generated_Source\PSoC4/USBFS_drv.c **** * \file USBFS_drv.c
   3:.\Generated_Source\PSoC4/USBFS_drv.c **** * \version 3.0
   4:.\Generated_Source\PSoC4/USBFS_drv.c **** *
   5:.\Generated_Source\PSoC4/USBFS_drv.c **** * \brief
   6:.\Generated_Source\PSoC4/USBFS_drv.c **** *  This file contains the Endpoint 0 Driver for the USBFS Component.  
   7:.\Generated_Source\PSoC4/USBFS_drv.c **** *
   8:.\Generated_Source\PSoC4/USBFS_drv.c **** ********************************************************************************
   9:.\Generated_Source\PSoC4/USBFS_drv.c **** * \copyright
  10:.\Generated_Source\PSoC4/USBFS_drv.c **** * Copyright 2008-2015, Cypress Semiconductor Corporation.  All rights reserved.
  11:.\Generated_Source\PSoC4/USBFS_drv.c **** * You may use this file only in accordance with the license, terms, conditions,
  12:.\Generated_Source\PSoC4/USBFS_drv.c **** * disclaimers, and limitations in the end user license agreement accompanying
  13:.\Generated_Source\PSoC4/USBFS_drv.c **** * the software package with which this file was provided.
  14:.\Generated_Source\PSoC4/USBFS_drv.c **** *******************************************************************************/
  15:.\Generated_Source\PSoC4/USBFS_drv.c **** 
  16:.\Generated_Source\PSoC4/USBFS_drv.c **** #include "USBFS_pvt.h"
  17:.\Generated_Source\PSoC4/USBFS_drv.c **** #include "cyapicallbacks.h"
  18:.\Generated_Source\PSoC4/USBFS_drv.c **** 
  19:.\Generated_Source\PSoC4/USBFS_drv.c **** 
  20:.\Generated_Source\PSoC4/USBFS_drv.c **** /***************************************
  21:.\Generated_Source\PSoC4/USBFS_drv.c **** * Global data allocation
  22:.\Generated_Source\PSoC4/USBFS_drv.c **** ***************************************/
  23:.\Generated_Source\PSoC4/USBFS_drv.c **** 
  24:.\Generated_Source\PSoC4/USBFS_drv.c **** volatile T_USBFS_EP_CTL_BLOCK USBFS_EP[USBFS_MAX_EP];
  25:.\Generated_Source\PSoC4/USBFS_drv.c **** 
  26:.\Generated_Source\PSoC4/USBFS_drv.c **** /** Contains the current configuration number, which is set by the host using a 
  27:.\Generated_Source\PSoC4/USBFS_drv.c ****  * SET_CONFIGURATION request. This variable is initialized to zero in 
  28:.\Generated_Source\PSoC4/USBFS_drv.c ****  * USBFS_InitComponent() API and can be read by the USBFS_GetConfiguration() 
  29:.\Generated_Source\PSoC4/USBFS_drv.c ****  * API.*/
  30:.\Generated_Source\PSoC4/USBFS_drv.c **** volatile uint8 USBFS_configuration;
  31:.\Generated_Source\PSoC4/USBFS_drv.c **** 
  32:.\Generated_Source\PSoC4/USBFS_drv.c **** /** Contains the current interface number.*/
ARM GAS  C:\Users\LAIR\AppData\Local\Temp\ccjrpnb6.s 			page 2


  33:.\Generated_Source\PSoC4/USBFS_drv.c **** volatile uint8 USBFS_interfaceNumber;
  34:.\Generated_Source\PSoC4/USBFS_drv.c **** 
  35:.\Generated_Source\PSoC4/USBFS_drv.c **** /** This variable is set to one after SET_CONFIGURATION and SET_INTERFACE 
  36:.\Generated_Source\PSoC4/USBFS_drv.c ****  *requests. It can be read by the USBFS_IsConfigurationChanged() API */
  37:.\Generated_Source\PSoC4/USBFS_drv.c **** volatile uint8 USBFS_configurationChanged;
  38:.\Generated_Source\PSoC4/USBFS_drv.c **** 
  39:.\Generated_Source\PSoC4/USBFS_drv.c **** /** Contains the current device address.*/
  40:.\Generated_Source\PSoC4/USBFS_drv.c **** volatile uint8 USBFS_deviceAddress;
  41:.\Generated_Source\PSoC4/USBFS_drv.c **** 
  42:.\Generated_Source\PSoC4/USBFS_drv.c **** /** This is a two-bit variable that contains power status in the bit 0 
  43:.\Generated_Source\PSoC4/USBFS_drv.c ****  * (DEVICE_STATUS_BUS_POWERED or DEVICE_STATUS_SELF_POWERED) and remote wakeup 
  44:.\Generated_Source\PSoC4/USBFS_drv.c ****  * status (DEVICE_STATUS_REMOTE_WAKEUP) in the bit 1. This variable is 
  45:.\Generated_Source\PSoC4/USBFS_drv.c ****  * initialized to zero in USBFS_InitComponent() API, configured by the 
  46:.\Generated_Source\PSoC4/USBFS_drv.c ****  * USBFS_SetPowerStatus() API. The remote wakeup status cannot be set using the 
  47:.\Generated_Source\PSoC4/USBFS_drv.c ****  * API SetPowerStatus(). */
  48:.\Generated_Source\PSoC4/USBFS_drv.c **** volatile uint8 USBFS_deviceStatus;
  49:.\Generated_Source\PSoC4/USBFS_drv.c **** 
  50:.\Generated_Source\PSoC4/USBFS_drv.c **** volatile uint8 USBFS_interfaceSetting[USBFS_MAX_INTERFACES_NUMBER];
  51:.\Generated_Source\PSoC4/USBFS_drv.c **** volatile uint8 USBFS_interfaceSetting_last[USBFS_MAX_INTERFACES_NUMBER];
  52:.\Generated_Source\PSoC4/USBFS_drv.c **** volatile uint8 USBFS_interfaceStatus[USBFS_MAX_INTERFACES_NUMBER];
  53:.\Generated_Source\PSoC4/USBFS_drv.c **** 
  54:.\Generated_Source\PSoC4/USBFS_drv.c **** /** Contains the started device number. This variable is set by the 
  55:.\Generated_Source\PSoC4/USBFS_drv.c ****  * USBFS_Start() or USBFS_InitComponent() APIs.*/
  56:.\Generated_Source\PSoC4/USBFS_drv.c **** volatile uint8 USBFS_device;
  57:.\Generated_Source\PSoC4/USBFS_drv.c **** 
  58:.\Generated_Source\PSoC4/USBFS_drv.c **** /** Initialized class array for each interface. It is used for handling Class 
  59:.\Generated_Source\PSoC4/USBFS_drv.c ****  * specific requests depend on interface class. Different classes in multiple 
  60:.\Generated_Source\PSoC4/USBFS_drv.c ****  * alternate settings are not supported.*/
  61:.\Generated_Source\PSoC4/USBFS_drv.c **** const uint8 CYCODE *USBFS_interfaceClass;
  62:.\Generated_Source\PSoC4/USBFS_drv.c **** 
  63:.\Generated_Source\PSoC4/USBFS_drv.c **** 
  64:.\Generated_Source\PSoC4/USBFS_drv.c **** /***************************************
  65:.\Generated_Source\PSoC4/USBFS_drv.c **** * Local data allocation
  66:.\Generated_Source\PSoC4/USBFS_drv.c **** ***************************************/
  67:.\Generated_Source\PSoC4/USBFS_drv.c **** 
  68:.\Generated_Source\PSoC4/USBFS_drv.c **** volatile uint8  USBFS_ep0Toggle;
  69:.\Generated_Source\PSoC4/USBFS_drv.c **** volatile uint8  USBFS_lastPacketSize;
  70:.\Generated_Source\PSoC4/USBFS_drv.c **** 
  71:.\Generated_Source\PSoC4/USBFS_drv.c **** /** This variable is used by the communication functions to handle the current 
  72:.\Generated_Source\PSoC4/USBFS_drv.c **** * transfer state.
  73:.\Generated_Source\PSoC4/USBFS_drv.c **** * Initialized to TRANS_STATE_IDLE in the USBFS_InitComponent() API and after a 
  74:.\Generated_Source\PSoC4/USBFS_drv.c **** * complete transfer in the status stage.
  75:.\Generated_Source\PSoC4/USBFS_drv.c **** * Changed to the TRANS_STATE_CONTROL_READ or TRANS_STATE_CONTROL_WRITE in setup 
  76:.\Generated_Source\PSoC4/USBFS_drv.c **** * transaction depending on the request type.
  77:.\Generated_Source\PSoC4/USBFS_drv.c **** */
  78:.\Generated_Source\PSoC4/USBFS_drv.c **** volatile uint8  USBFS_transferState;
  79:.\Generated_Source\PSoC4/USBFS_drv.c **** volatile T_USBFS_TD USBFS_currentTD;
  80:.\Generated_Source\PSoC4/USBFS_drv.c **** volatile uint8  USBFS_ep0Mode;
  81:.\Generated_Source\PSoC4/USBFS_drv.c **** volatile uint8  USBFS_ep0Count;
  82:.\Generated_Source\PSoC4/USBFS_drv.c **** volatile uint16 USBFS_transferByteCount;
  83:.\Generated_Source\PSoC4/USBFS_drv.c **** 
  84:.\Generated_Source\PSoC4/USBFS_drv.c **** 
  85:.\Generated_Source\PSoC4/USBFS_drv.c **** /*******************************************************************************
  86:.\Generated_Source\PSoC4/USBFS_drv.c **** * Function Name: USBFS_ep_0_Interrupt
  87:.\Generated_Source\PSoC4/USBFS_drv.c **** ****************************************************************************//**
  88:.\Generated_Source\PSoC4/USBFS_drv.c **** *
  89:.\Generated_Source\PSoC4/USBFS_drv.c **** *  This Interrupt Service Routine handles Endpoint 0 (Control Pipe) traffic.
ARM GAS  C:\Users\LAIR\AppData\Local\Temp\ccjrpnb6.s 			page 3


  90:.\Generated_Source\PSoC4/USBFS_drv.c **** *  It dispatches setup requests and handles the data and status stages.
  91:.\Generated_Source\PSoC4/USBFS_drv.c **** *
  92:.\Generated_Source\PSoC4/USBFS_drv.c **** *
  93:.\Generated_Source\PSoC4/USBFS_drv.c **** *******************************************************************************/
  94:.\Generated_Source\PSoC4/USBFS_drv.c **** CY_ISR(USBFS_EP_0_ISR)
  95:.\Generated_Source\PSoC4/USBFS_drv.c **** {
  96:.\Generated_Source\PSoC4/USBFS_drv.c ****     uint32 tempReg;
  97:.\Generated_Source\PSoC4/USBFS_drv.c ****     uint32 modifyReg;
  98:.\Generated_Source\PSoC4/USBFS_drv.c **** 
  99:.\Generated_Source\PSoC4/USBFS_drv.c **** #ifdef USBFS_EP_0_ISR_ENTRY_CALLBACK
 100:.\Generated_Source\PSoC4/USBFS_drv.c ****     USBFS_EP_0_ISR_EntryCallback();
 101:.\Generated_Source\PSoC4/USBFS_drv.c **** #endif /* (USBFS_EP_0_ISR_ENTRY_CALLBACK) */
 102:.\Generated_Source\PSoC4/USBFS_drv.c ****     
 103:.\Generated_Source\PSoC4/USBFS_drv.c ****     tempReg = USBFS_EP0_CR_REG;
 104:.\Generated_Source\PSoC4/USBFS_drv.c ****     if ((tempReg & USBFS_MODE_ACKD) != 0u)
 105:.\Generated_Source\PSoC4/USBFS_drv.c ****     {
 106:.\Generated_Source\PSoC4/USBFS_drv.c ****         modifyReg = 1u;
 107:.\Generated_Source\PSoC4/USBFS_drv.c ****         if ((tempReg & USBFS_MODE_SETUP_RCVD) != 0u)
 108:.\Generated_Source\PSoC4/USBFS_drv.c ****         {
 109:.\Generated_Source\PSoC4/USBFS_drv.c ****             if ((tempReg & USBFS_MODE_MASK) != USBFS_MODE_NAK_IN_OUT)
 110:.\Generated_Source\PSoC4/USBFS_drv.c ****             {
 111:.\Generated_Source\PSoC4/USBFS_drv.c ****                 /* Mode not equal to NAK_IN_OUT: invalid setup */
 112:.\Generated_Source\PSoC4/USBFS_drv.c ****                 modifyReg = 0u;
 113:.\Generated_Source\PSoC4/USBFS_drv.c ****             }
 114:.\Generated_Source\PSoC4/USBFS_drv.c ****             else
 115:.\Generated_Source\PSoC4/USBFS_drv.c ****             {
 116:.\Generated_Source\PSoC4/USBFS_drv.c ****                 USBFS_HandleSetup();
 117:.\Generated_Source\PSoC4/USBFS_drv.c ****                 
 118:.\Generated_Source\PSoC4/USBFS_drv.c ****                 if ((USBFS_ep0Mode & USBFS_MODE_SETUP_RCVD) != 0u)
 119:.\Generated_Source\PSoC4/USBFS_drv.c ****                 {
 120:.\Generated_Source\PSoC4/USBFS_drv.c ****                     /* SETUP bit set: exit without mode modificaiton */
 121:.\Generated_Source\PSoC4/USBFS_drv.c ****                     modifyReg = 0u;
 122:.\Generated_Source\PSoC4/USBFS_drv.c ****                 }
 123:.\Generated_Source\PSoC4/USBFS_drv.c ****             }
 124:.\Generated_Source\PSoC4/USBFS_drv.c ****         }
 125:.\Generated_Source\PSoC4/USBFS_drv.c ****         else if ((tempReg & USBFS_MODE_IN_RCVD) != 0u)
 126:.\Generated_Source\PSoC4/USBFS_drv.c ****         {
 127:.\Generated_Source\PSoC4/USBFS_drv.c ****             USBFS_HandleIN();
 128:.\Generated_Source\PSoC4/USBFS_drv.c ****         }
 129:.\Generated_Source\PSoC4/USBFS_drv.c ****         else if ((tempReg & USBFS_MODE_OUT_RCVD) != 0u)
 130:.\Generated_Source\PSoC4/USBFS_drv.c ****         {
 131:.\Generated_Source\PSoC4/USBFS_drv.c ****             USBFS_HandleOUT();
 132:.\Generated_Source\PSoC4/USBFS_drv.c ****         }
 133:.\Generated_Source\PSoC4/USBFS_drv.c ****         else
 134:.\Generated_Source\PSoC4/USBFS_drv.c ****         {
 135:.\Generated_Source\PSoC4/USBFS_drv.c ****             modifyReg = 0u;
 136:.\Generated_Source\PSoC4/USBFS_drv.c ****         }
 137:.\Generated_Source\PSoC4/USBFS_drv.c ****         
 138:.\Generated_Source\PSoC4/USBFS_drv.c ****         /* Modify the EP0_CR register */
 139:.\Generated_Source\PSoC4/USBFS_drv.c ****         if (modifyReg != 0u)
 140:.\Generated_Source\PSoC4/USBFS_drv.c ****         {
 141:.\Generated_Source\PSoC4/USBFS_drv.c ****             
 142:.\Generated_Source\PSoC4/USBFS_drv.c ****             tempReg = USBFS_EP0_CR_REG;
 143:.\Generated_Source\PSoC4/USBFS_drv.c ****             
 144:.\Generated_Source\PSoC4/USBFS_drv.c ****             /* Make sure that SETUP bit is cleared before modification */
 145:.\Generated_Source\PSoC4/USBFS_drv.c ****             if ((tempReg & USBFS_MODE_SETUP_RCVD) == 0u)
 146:.\Generated_Source\PSoC4/USBFS_drv.c ****             {
ARM GAS  C:\Users\LAIR\AppData\Local\Temp\ccjrpnb6.s 			page 4


 147:.\Generated_Source\PSoC4/USBFS_drv.c ****                 /* Update count register */
 148:.\Generated_Source\PSoC4/USBFS_drv.c ****                 tempReg = (uint32) USBFS_ep0Toggle | USBFS_ep0Count;
 149:.\Generated_Source\PSoC4/USBFS_drv.c ****                 USBFS_EP0_CNT_REG = tempReg;
 150:.\Generated_Source\PSoC4/USBFS_drv.c ****                
 151:.\Generated_Source\PSoC4/USBFS_drv.c ****                 /* Make sure that previous write operaiton was successful */
 152:.\Generated_Source\PSoC4/USBFS_drv.c ****                 if (tempReg == USBFS_EP0_CNT_REG)
 153:.\Generated_Source\PSoC4/USBFS_drv.c ****                 {
 154:.\Generated_Source\PSoC4/USBFS_drv.c ****                     /* Repeat until next successful write operation */
 155:.\Generated_Source\PSoC4/USBFS_drv.c ****                     do
 156:.\Generated_Source\PSoC4/USBFS_drv.c ****                     {
 157:.\Generated_Source\PSoC4/USBFS_drv.c ****                         /* Init temporary variable */
 158:.\Generated_Source\PSoC4/USBFS_drv.c ****                         modifyReg = USBFS_ep0Mode;
 159:.\Generated_Source\PSoC4/USBFS_drv.c ****                         
 160:.\Generated_Source\PSoC4/USBFS_drv.c ****                         /* Unlock register */
 161:.\Generated_Source\PSoC4/USBFS_drv.c ****                         tempReg = (uint8) (USBFS_EP0_CR_REG & USBFS_MODE_SETUP_RCVD);
 162:.\Generated_Source\PSoC4/USBFS_drv.c ****                         
 163:.\Generated_Source\PSoC4/USBFS_drv.c ****                         /* Check if SETUP bit is not set */
 164:.\Generated_Source\PSoC4/USBFS_drv.c ****                         if (0u == tempReg)
 165:.\Generated_Source\PSoC4/USBFS_drv.c ****                         {
 166:.\Generated_Source\PSoC4/USBFS_drv.c ****                             /* Set the Mode Register  */
 167:.\Generated_Source\PSoC4/USBFS_drv.c ****                             USBFS_EP0_CR_REG = USBFS_ep0Mode;
 168:.\Generated_Source\PSoC4/USBFS_drv.c ****                             
 169:.\Generated_Source\PSoC4/USBFS_drv.c ****                             /* Writing check */
 170:.\Generated_Source\PSoC4/USBFS_drv.c ****                             modifyReg = USBFS_EP0_CR_REG & USBFS_MODE_MASK;
 171:.\Generated_Source\PSoC4/USBFS_drv.c ****                         }
 172:.\Generated_Source\PSoC4/USBFS_drv.c ****                     }
 173:.\Generated_Source\PSoC4/USBFS_drv.c ****                     while (modifyReg != USBFS_ep0Mode);
 174:.\Generated_Source\PSoC4/USBFS_drv.c ****                 }
 175:.\Generated_Source\PSoC4/USBFS_drv.c ****             }
 176:.\Generated_Source\PSoC4/USBFS_drv.c ****         }
 177:.\Generated_Source\PSoC4/USBFS_drv.c ****     }
 178:.\Generated_Source\PSoC4/USBFS_drv.c **** 
 179:.\Generated_Source\PSoC4/USBFS_drv.c ****     USBFS_ClearSieInterruptSource(USBFS_INTR_SIE_EP0_INTR);
 180:.\Generated_Source\PSoC4/USBFS_drv.c **** 	
 181:.\Generated_Source\PSoC4/USBFS_drv.c **** #ifdef USBFS_EP_0_ISR_EXIT_CALLBACK
 182:.\Generated_Source\PSoC4/USBFS_drv.c ****     USBFS_EP_0_ISR_ExitCallback();
 183:.\Generated_Source\PSoC4/USBFS_drv.c **** #endif /* (USBFS_EP_0_ISR_EXIT_CALLBACK) */
 184:.\Generated_Source\PSoC4/USBFS_drv.c **** }
 185:.\Generated_Source\PSoC4/USBFS_drv.c **** 
 186:.\Generated_Source\PSoC4/USBFS_drv.c **** 
 187:.\Generated_Source\PSoC4/USBFS_drv.c **** /*******************************************************************************
 188:.\Generated_Source\PSoC4/USBFS_drv.c **** * Function Name: USBFS_HandleSetup
 189:.\Generated_Source\PSoC4/USBFS_drv.c **** ****************************************************************************//**
 190:.\Generated_Source\PSoC4/USBFS_drv.c **** *
 191:.\Generated_Source\PSoC4/USBFS_drv.c **** *  This Routine dispatches requests for the four USB request types
 192:.\Generated_Source\PSoC4/USBFS_drv.c **** *
 193:.\Generated_Source\PSoC4/USBFS_drv.c **** *
 194:.\Generated_Source\PSoC4/USBFS_drv.c **** * \reentrant
 195:.\Generated_Source\PSoC4/USBFS_drv.c **** *  No.
 196:.\Generated_Source\PSoC4/USBFS_drv.c **** *
 197:.\Generated_Source\PSoC4/USBFS_drv.c **** *******************************************************************************/
 198:.\Generated_Source\PSoC4/USBFS_drv.c **** void USBFS_HandleSetup(void) 
 199:.\Generated_Source\PSoC4/USBFS_drv.c **** {
 200:.\Generated_Source\PSoC4/USBFS_drv.c ****     uint8 requestHandled;
 201:.\Generated_Source\PSoC4/USBFS_drv.c ****     
 202:.\Generated_Source\PSoC4/USBFS_drv.c ****     /* Clear register lock by SIE (read register) and clear setup bit 
 203:.\Generated_Source\PSoC4/USBFS_drv.c ****     * (write any value in register).
ARM GAS  C:\Users\LAIR\AppData\Local\Temp\ccjrpnb6.s 			page 5


 204:.\Generated_Source\PSoC4/USBFS_drv.c ****     */
 205:.\Generated_Source\PSoC4/USBFS_drv.c ****     requestHandled = (uint8) USBFS_EP0_CR_REG;
 206:.\Generated_Source\PSoC4/USBFS_drv.c ****     USBFS_EP0_CR_REG = (uint32) requestHandled;
 207:.\Generated_Source\PSoC4/USBFS_drv.c ****     requestHandled = (uint8) USBFS_EP0_CR_REG;
 208:.\Generated_Source\PSoC4/USBFS_drv.c **** 
 209:.\Generated_Source\PSoC4/USBFS_drv.c ****     if ((requestHandled & USBFS_MODE_SETUP_RCVD) != 0u)
 210:.\Generated_Source\PSoC4/USBFS_drv.c ****     {
 211:.\Generated_Source\PSoC4/USBFS_drv.c ****         /* SETUP bit is set: exit without mode modification. */
 212:.\Generated_Source\PSoC4/USBFS_drv.c ****         USBFS_ep0Mode = requestHandled;
 213:.\Generated_Source\PSoC4/USBFS_drv.c ****     }
 214:.\Generated_Source\PSoC4/USBFS_drv.c ****     else
 215:.\Generated_Source\PSoC4/USBFS_drv.c ****     {
 216:.\Generated_Source\PSoC4/USBFS_drv.c ****         /* In case the previous transfer did not complete, close it out */
 217:.\Generated_Source\PSoC4/USBFS_drv.c ****         USBFS_UpdateStatusBlock(USBFS_XFER_PREMATURE);
 218:.\Generated_Source\PSoC4/USBFS_drv.c **** 
 219:.\Generated_Source\PSoC4/USBFS_drv.c ****         /* Check request type. */
 220:.\Generated_Source\PSoC4/USBFS_drv.c ****         switch (USBFS_bmRequestTypeReg & USBFS_RQST_TYPE_MASK)
 221:.\Generated_Source\PSoC4/USBFS_drv.c ****         {
 222:.\Generated_Source\PSoC4/USBFS_drv.c ****             case USBFS_RQST_TYPE_STD:
 223:.\Generated_Source\PSoC4/USBFS_drv.c ****                 requestHandled = USBFS_HandleStandardRqst();
 224:.\Generated_Source\PSoC4/USBFS_drv.c ****                 break;
 225:.\Generated_Source\PSoC4/USBFS_drv.c ****                 
 226:.\Generated_Source\PSoC4/USBFS_drv.c ****             case USBFS_RQST_TYPE_CLS:
 227:.\Generated_Source\PSoC4/USBFS_drv.c ****                 requestHandled = USBFS_DispatchClassRqst();
 228:.\Generated_Source\PSoC4/USBFS_drv.c ****                 break;
 229:.\Generated_Source\PSoC4/USBFS_drv.c ****                 
 230:.\Generated_Source\PSoC4/USBFS_drv.c ****             case USBFS_RQST_TYPE_VND:
 231:.\Generated_Source\PSoC4/USBFS_drv.c ****                 requestHandled = USBFS_HandleVendorRqst();
 232:.\Generated_Source\PSoC4/USBFS_drv.c ****                 break;
 233:.\Generated_Source\PSoC4/USBFS_drv.c ****                 
 234:.\Generated_Source\PSoC4/USBFS_drv.c ****             default:
 235:.\Generated_Source\PSoC4/USBFS_drv.c ****                 requestHandled = USBFS_FALSE;
 236:.\Generated_Source\PSoC4/USBFS_drv.c ****                 break;
 237:.\Generated_Source\PSoC4/USBFS_drv.c ****         }
 238:.\Generated_Source\PSoC4/USBFS_drv.c ****         
 239:.\Generated_Source\PSoC4/USBFS_drv.c ****         /* If request is not recognized. Stall endpoint 0 IN and OUT. */
 240:.\Generated_Source\PSoC4/USBFS_drv.c ****         if (requestHandled == USBFS_FALSE)
 241:.\Generated_Source\PSoC4/USBFS_drv.c ****         {
 242:.\Generated_Source\PSoC4/USBFS_drv.c ****             USBFS_ep0Mode = USBFS_MODE_STALL_IN_OUT;
 243:.\Generated_Source\PSoC4/USBFS_drv.c ****         }
 244:.\Generated_Source\PSoC4/USBFS_drv.c ****     }
 245:.\Generated_Source\PSoC4/USBFS_drv.c **** }
 246:.\Generated_Source\PSoC4/USBFS_drv.c **** 
 247:.\Generated_Source\PSoC4/USBFS_drv.c **** 
 248:.\Generated_Source\PSoC4/USBFS_drv.c **** /*******************************************************************************
 249:.\Generated_Source\PSoC4/USBFS_drv.c **** * Function Name: USBFS_HandleIN
 250:.\Generated_Source\PSoC4/USBFS_drv.c **** ****************************************************************************//**
 251:.\Generated_Source\PSoC4/USBFS_drv.c **** *
 252:.\Generated_Source\PSoC4/USBFS_drv.c **** *  This routine handles EP0 IN transfers.
 253:.\Generated_Source\PSoC4/USBFS_drv.c **** *
 254:.\Generated_Source\PSoC4/USBFS_drv.c **** *
 255:.\Generated_Source\PSoC4/USBFS_drv.c **** * \reentrant
 256:.\Generated_Source\PSoC4/USBFS_drv.c **** *  No.
 257:.\Generated_Source\PSoC4/USBFS_drv.c **** *
 258:.\Generated_Source\PSoC4/USBFS_drv.c **** *******************************************************************************/
 259:.\Generated_Source\PSoC4/USBFS_drv.c **** void USBFS_HandleIN(void) 
 260:.\Generated_Source\PSoC4/USBFS_drv.c **** {
ARM GAS  C:\Users\LAIR\AppData\Local\Temp\ccjrpnb6.s 			page 6


 261:.\Generated_Source\PSoC4/USBFS_drv.c ****     switch (USBFS_transferState)
 262:.\Generated_Source\PSoC4/USBFS_drv.c ****     {
 263:.\Generated_Source\PSoC4/USBFS_drv.c ****         case USBFS_TRANS_STATE_IDLE:
 264:.\Generated_Source\PSoC4/USBFS_drv.c ****             break;
 265:.\Generated_Source\PSoC4/USBFS_drv.c ****         
 266:.\Generated_Source\PSoC4/USBFS_drv.c ****         case USBFS_TRANS_STATE_CONTROL_READ:
 267:.\Generated_Source\PSoC4/USBFS_drv.c ****             USBFS_ControlReadDataStage();
 268:.\Generated_Source\PSoC4/USBFS_drv.c ****             break;
 269:.\Generated_Source\PSoC4/USBFS_drv.c ****             
 270:.\Generated_Source\PSoC4/USBFS_drv.c ****         case USBFS_TRANS_STATE_CONTROL_WRITE:
 271:.\Generated_Source\PSoC4/USBFS_drv.c ****             USBFS_ControlWriteStatusStage();
 272:.\Generated_Source\PSoC4/USBFS_drv.c ****             break;
 273:.\Generated_Source\PSoC4/USBFS_drv.c ****             
 274:.\Generated_Source\PSoC4/USBFS_drv.c ****         case USBFS_TRANS_STATE_NO_DATA_CONTROL:
 275:.\Generated_Source\PSoC4/USBFS_drv.c ****             USBFS_NoDataControlStatusStage();
 276:.\Generated_Source\PSoC4/USBFS_drv.c ****             break;
 277:.\Generated_Source\PSoC4/USBFS_drv.c ****             
 278:.\Generated_Source\PSoC4/USBFS_drv.c ****         default:    /* there are no more states */
 279:.\Generated_Source\PSoC4/USBFS_drv.c ****             break;
 280:.\Generated_Source\PSoC4/USBFS_drv.c ****     }
 281:.\Generated_Source\PSoC4/USBFS_drv.c **** }
 282:.\Generated_Source\PSoC4/USBFS_drv.c **** 
 283:.\Generated_Source\PSoC4/USBFS_drv.c **** 
 284:.\Generated_Source\PSoC4/USBFS_drv.c **** /*******************************************************************************
 285:.\Generated_Source\PSoC4/USBFS_drv.c **** * Function Name: USBFS_HandleOUT
 286:.\Generated_Source\PSoC4/USBFS_drv.c **** ****************************************************************************//**
 287:.\Generated_Source\PSoC4/USBFS_drv.c **** *
 288:.\Generated_Source\PSoC4/USBFS_drv.c **** *  This routine handles EP0 OUT transfers.
 289:.\Generated_Source\PSoC4/USBFS_drv.c **** *
 290:.\Generated_Source\PSoC4/USBFS_drv.c **** *
 291:.\Generated_Source\PSoC4/USBFS_drv.c **** * \reentrant
 292:.\Generated_Source\PSoC4/USBFS_drv.c **** *  No.
 293:.\Generated_Source\PSoC4/USBFS_drv.c **** *
 294:.\Generated_Source\PSoC4/USBFS_drv.c **** *******************************************************************************/
 295:.\Generated_Source\PSoC4/USBFS_drv.c **** void USBFS_HandleOUT(void) 
 296:.\Generated_Source\PSoC4/USBFS_drv.c **** {
 297:.\Generated_Source\PSoC4/USBFS_drv.c ****     switch (USBFS_transferState)
 298:.\Generated_Source\PSoC4/USBFS_drv.c ****     {
 299:.\Generated_Source\PSoC4/USBFS_drv.c ****         case USBFS_TRANS_STATE_IDLE:
 300:.\Generated_Source\PSoC4/USBFS_drv.c ****             break;
 301:.\Generated_Source\PSoC4/USBFS_drv.c ****         
 302:.\Generated_Source\PSoC4/USBFS_drv.c ****         case USBFS_TRANS_STATE_CONTROL_READ:
 303:.\Generated_Source\PSoC4/USBFS_drv.c ****             USBFS_ControlReadStatusStage();
 304:.\Generated_Source\PSoC4/USBFS_drv.c ****             break;
 305:.\Generated_Source\PSoC4/USBFS_drv.c ****             
 306:.\Generated_Source\PSoC4/USBFS_drv.c ****         case USBFS_TRANS_STATE_CONTROL_WRITE:
 307:.\Generated_Source\PSoC4/USBFS_drv.c ****             USBFS_ControlWriteDataStage();
 308:.\Generated_Source\PSoC4/USBFS_drv.c ****             break;
 309:.\Generated_Source\PSoC4/USBFS_drv.c ****             
 310:.\Generated_Source\PSoC4/USBFS_drv.c ****         case USBFS_TRANS_STATE_NO_DATA_CONTROL:
 311:.\Generated_Source\PSoC4/USBFS_drv.c ****             /* Update the completion block */
 312:.\Generated_Source\PSoC4/USBFS_drv.c ****             USBFS_UpdateStatusBlock(USBFS_XFER_ERROR);
 313:.\Generated_Source\PSoC4/USBFS_drv.c ****             
 314:.\Generated_Source\PSoC4/USBFS_drv.c ****             /* We expect no more data, so stall INs and OUTs */
 315:.\Generated_Source\PSoC4/USBFS_drv.c ****             USBFS_ep0Mode = USBFS_MODE_STALL_IN_OUT;
 316:.\Generated_Source\PSoC4/USBFS_drv.c ****             break;
 317:.\Generated_Source\PSoC4/USBFS_drv.c ****             
ARM GAS  C:\Users\LAIR\AppData\Local\Temp\ccjrpnb6.s 			page 7


 318:.\Generated_Source\PSoC4/USBFS_drv.c ****         default:    
 319:.\Generated_Source\PSoC4/USBFS_drv.c ****             /* There are no more states */
 320:.\Generated_Source\PSoC4/USBFS_drv.c ****             break;
 321:.\Generated_Source\PSoC4/USBFS_drv.c ****     }
 322:.\Generated_Source\PSoC4/USBFS_drv.c **** }
 323:.\Generated_Source\PSoC4/USBFS_drv.c **** 
 324:.\Generated_Source\PSoC4/USBFS_drv.c **** 
 325:.\Generated_Source\PSoC4/USBFS_drv.c **** /*******************************************************************************
 326:.\Generated_Source\PSoC4/USBFS_drv.c **** * Function Name: USBFS_LoadEP0
 327:.\Generated_Source\PSoC4/USBFS_drv.c **** ****************************************************************************//**
 328:.\Generated_Source\PSoC4/USBFS_drv.c **** *
 329:.\Generated_Source\PSoC4/USBFS_drv.c **** *  This routine loads the EP0 data registers for OUT transfers. It uses the
 330:.\Generated_Source\PSoC4/USBFS_drv.c **** *  currentTD (previously initialized by the _InitControlWrite function and
 331:.\Generated_Source\PSoC4/USBFS_drv.c **** *  updated for each OUT transfer, and the bLastPacketSize) to determine how
 332:.\Generated_Source\PSoC4/USBFS_drv.c **** *  many uint8s to transfer on the current OUT.
 333:.\Generated_Source\PSoC4/USBFS_drv.c **** *
 334:.\Generated_Source\PSoC4/USBFS_drv.c **** *  If the number of uint8s remaining is zero and the last transfer was full,
 335:.\Generated_Source\PSoC4/USBFS_drv.c **** *  we need to send a zero length packet.  Otherwise we send the minimum
 336:.\Generated_Source\PSoC4/USBFS_drv.c **** *  of the control endpoint size (8) or remaining number of uint8s for the
 337:.\Generated_Source\PSoC4/USBFS_drv.c **** *  transaction.
 338:.\Generated_Source\PSoC4/USBFS_drv.c **** *
 339:.\Generated_Source\PSoC4/USBFS_drv.c **** *
 340:.\Generated_Source\PSoC4/USBFS_drv.c **** * \globalvars
 341:.\Generated_Source\PSoC4/USBFS_drv.c **** *  USBFS_transferByteCount - Update the transfer byte count from the
 342:.\Generated_Source\PSoC4/USBFS_drv.c **** *     last transaction.
 343:.\Generated_Source\PSoC4/USBFS_drv.c **** *  USBFS_ep0Count - counts the data loaded to the SIE memory in
 344:.\Generated_Source\PSoC4/USBFS_drv.c **** *     current packet.
 345:.\Generated_Source\PSoC4/USBFS_drv.c **** *  USBFS_lastPacketSize - remembers the USBFS_ep0Count value for the
 346:.\Generated_Source\PSoC4/USBFS_drv.c **** *     next packet.
 347:.\Generated_Source\PSoC4/USBFS_drv.c **** *  USBFS_transferByteCount - sum of the previous bytes transferred
 348:.\Generated_Source\PSoC4/USBFS_drv.c **** *     on previous packets(sum of USBFS_lastPacketSize)
 349:.\Generated_Source\PSoC4/USBFS_drv.c **** *  USBFS_ep0Toggle - inverted
 350:.\Generated_Source\PSoC4/USBFS_drv.c **** *  USBFS_ep0Mode  - prepare for mode register content.
 351:.\Generated_Source\PSoC4/USBFS_drv.c **** *  USBFS_transferState - set to TRANS_STATE_CONTROL_READ
 352:.\Generated_Source\PSoC4/USBFS_drv.c **** *
 353:.\Generated_Source\PSoC4/USBFS_drv.c **** * \reentrant
 354:.\Generated_Source\PSoC4/USBFS_drv.c **** *  No.
 355:.\Generated_Source\PSoC4/USBFS_drv.c **** *
 356:.\Generated_Source\PSoC4/USBFS_drv.c **** *******************************************************************************/
 357:.\Generated_Source\PSoC4/USBFS_drv.c **** void USBFS_LoadEP0(void) 
 358:.\Generated_Source\PSoC4/USBFS_drv.c **** {
  26              		.loc 1 358 0
  27              		.cfi_startproc
  28 0000 10B5     		push	{r4, lr}
  29              		.cfi_def_cfa_offset 8
  30              		.cfi_offset 4, -8
  31              		.cfi_offset 14, -4
  32              	.LVL0:
 359:.\Generated_Source\PSoC4/USBFS_drv.c ****     uint32 ep0Count = 0u;
 360:.\Generated_Source\PSoC4/USBFS_drv.c **** 
 361:.\Generated_Source\PSoC4/USBFS_drv.c ****     /* Update the transfer byte count from the last transaction */
 362:.\Generated_Source\PSoC4/USBFS_drv.c ****     USBFS_transferByteCount += USBFS_lastPacketSize;
  33              		.loc 1 362 0
  34 0002 1E4B     		ldr	r3, .L8
  35 0004 1B78     		ldrb	r3, [r3]
  36 0006 1E4A     		ldr	r2, .L8+4
  37 0008 1188     		ldrh	r1, [r2]
ARM GAS  C:\Users\LAIR\AppData\Local\Temp\ccjrpnb6.s 			page 8


  38 000a CB18     		add	r3, r1, r3
  39 000c 9BB2     		uxth	r3, r3
  40 000e 1380     		strh	r3, [r2]
 359:.\Generated_Source\PSoC4/USBFS_drv.c ****     uint32 ep0Count = 0u;
  41              		.loc 1 359 0
  42 0010 0021     		mov	r1, #0
 363:.\Generated_Source\PSoC4/USBFS_drv.c **** 
 364:.\Generated_Source\PSoC4/USBFS_drv.c ****     /* Now load the next transaction */
 365:.\Generated_Source\PSoC4/USBFS_drv.c ****     while ((USBFS_currentTD.count > 0u) && (ep0Count < 8u))
  43              		.loc 1 365 0
  44 0012 0EE0     		b	.L2
  45              	.LVL1:
  46              	.L4:
 366:.\Generated_Source\PSoC4/USBFS_drv.c ****     {
 367:.\Generated_Source\PSoC4/USBFS_drv.c ****         USBFS_EP0_DR_BASE.epData[ep0Count] = (uint32) *USBFS_currentTD.pData;
  47              		.loc 1 367 0
  48 0014 1B4B     		ldr	r3, .L8+8
  49 0016 5A68     		ldr	r2, [r3, #4]
  50 0018 1278     		ldrb	r2, [r2]
  51 001a D2B2     		uxtb	r2, r2
  52 001c 8C00     		lsl	r4, r1, #2
  53 001e 1A48     		ldr	r0, .L8+12
  54 0020 2250     		str	r2, [r4, r0]
 368:.\Generated_Source\PSoC4/USBFS_drv.c ****         USBFS_currentTD.pData = &USBFS_currentTD.pData[1u];
  55              		.loc 1 368 0
  56 0022 5A68     		ldr	r2, [r3, #4]
  57 0024 0132     		add	r2, r2, #1
  58 0026 5A60     		str	r2, [r3, #4]
 369:.\Generated_Source\PSoC4/USBFS_drv.c ****         ep0Count++;
  59              		.loc 1 369 0
  60 0028 0131     		add	r1, r1, #1
  61              	.LVL2:
 370:.\Generated_Source\PSoC4/USBFS_drv.c ****         USBFS_currentTD.count--;
  62              		.loc 1 370 0
  63 002a 1A88     		ldrh	r2, [r3]
  64 002c 013A     		sub	r2, r2, #1
  65 002e 92B2     		uxth	r2, r2
  66 0030 1A80     		strh	r2, [r3]
  67              	.LVL3:
  68              	.L2:
 365:.\Generated_Source\PSoC4/USBFS_drv.c ****     {
  69              		.loc 1 365 0
  70 0032 144B     		ldr	r3, .L8+8
  71 0034 1B88     		ldrh	r3, [r3]
  72 0036 9BB2     		uxth	r3, r3
  73 0038 002B     		cmp	r3, #0
  74 003a 01D0     		beq	.L3
 365:.\Generated_Source\PSoC4/USBFS_drv.c ****     {
  75              		.loc 1 365 0 is_stmt 0 discriminator 1
  76 003c 0729     		cmp	r1, #7
  77 003e E9D9     		bls	.L4
  78              	.L3:
 371:.\Generated_Source\PSoC4/USBFS_drv.c ****     }
 372:.\Generated_Source\PSoC4/USBFS_drv.c **** 
 373:.\Generated_Source\PSoC4/USBFS_drv.c ****     /* Support zero-length packet */
 374:.\Generated_Source\PSoC4/USBFS_drv.c ****     if ((USBFS_lastPacketSize == 8u) || (ep0Count > 0u))
  79              		.loc 1 374 0 is_stmt 1
ARM GAS  C:\Users\LAIR\AppData\Local\Temp\ccjrpnb6.s 			page 9


  80 0040 0E4B     		ldr	r3, .L8
  81 0042 1B78     		ldrb	r3, [r3]
  82 0044 082B     		cmp	r3, #8
  83 0046 01D0     		beq	.L5
  84              		.loc 1 374 0 is_stmt 0 discriminator 1
  85 0048 0029     		cmp	r1, #0
  86 004a 0BD0     		beq	.L6
  87              	.L5:
 375:.\Generated_Source\PSoC4/USBFS_drv.c ****     {
 376:.\Generated_Source\PSoC4/USBFS_drv.c ****         /* Update the data toggle */
 377:.\Generated_Source\PSoC4/USBFS_drv.c ****         USBFS_ep0Toggle ^= USBFS_EP0_CNT_DATA_TOGGLE;
  88              		.loc 1 377 0 is_stmt 1
  89 004c 0F4A     		ldr	r2, .L8+16
  90 004e 1078     		ldrb	r0, [r2]
  91 0050 8023     		mov	r3, #128
  92 0052 4340     		eor	r3, r0
  93 0054 1370     		strb	r3, [r2]
 378:.\Generated_Source\PSoC4/USBFS_drv.c ****         /* Set the Mode Register  */
 379:.\Generated_Source\PSoC4/USBFS_drv.c ****         USBFS_ep0Mode = USBFS_MODE_ACK_IN_STATUS_OUT;
  94              		.loc 1 379 0
  95 0056 0F22     		mov	r2, #15
  96 0058 0D4B     		ldr	r3, .L8+20
  97 005a 1A70     		strb	r2, [r3]
 380:.\Generated_Source\PSoC4/USBFS_drv.c ****         /* Update the state (or stay the same) */
 381:.\Generated_Source\PSoC4/USBFS_drv.c ****         USBFS_transferState = USBFS_TRANS_STATE_CONTROL_READ;
  98              		.loc 1 381 0
  99 005c 0D3A     		sub	r2, r2, #13
 100 005e 0D4B     		ldr	r3, .L8+24
 101 0060 1A70     		strb	r2, [r3]
 102 0062 04E0     		b	.L7
 103              	.L6:
 382:.\Generated_Source\PSoC4/USBFS_drv.c ****     }
 383:.\Generated_Source\PSoC4/USBFS_drv.c ****     else
 384:.\Generated_Source\PSoC4/USBFS_drv.c ****     {
 385:.\Generated_Source\PSoC4/USBFS_drv.c ****         /* Expect Status Stage Out */
 386:.\Generated_Source\PSoC4/USBFS_drv.c ****         USBFS_ep0Mode = USBFS_MODE_STATUS_OUT_ONLY;
 104              		.loc 1 386 0
 105 0064 0223     		mov	r3, #2
 106 0066 0A4A     		ldr	r2, .L8+20
 107 0068 1370     		strb	r3, [r2]
 387:.\Generated_Source\PSoC4/USBFS_drv.c ****         /* Update the state (or stay the same) */
 388:.\Generated_Source\PSoC4/USBFS_drv.c ****         USBFS_transferState = USBFS_TRANS_STATE_CONTROL_READ;
 108              		.loc 1 388 0
 109 006a 0A4A     		ldr	r2, .L8+24
 110 006c 1370     		strb	r3, [r2]
 111              	.L7:
 389:.\Generated_Source\PSoC4/USBFS_drv.c ****     }
 390:.\Generated_Source\PSoC4/USBFS_drv.c **** 
 391:.\Generated_Source\PSoC4/USBFS_drv.c ****     /* Save the packet size for next time */
 392:.\Generated_Source\PSoC4/USBFS_drv.c ****     USBFS_ep0Count =       (uint8) ep0Count;
 112              		.loc 1 392 0
 113 006e C9B2     		uxtb	r1, r1
 114              	.LVL4:
 115 0070 094B     		ldr	r3, .L8+28
 116 0072 1970     		strb	r1, [r3]
 393:.\Generated_Source\PSoC4/USBFS_drv.c ****     USBFS_lastPacketSize = (uint8) ep0Count;
 117              		.loc 1 393 0
ARM GAS  C:\Users\LAIR\AppData\Local\Temp\ccjrpnb6.s 			page 10


 118 0074 014B     		ldr	r3, .L8
 119 0076 1970     		strb	r1, [r3]
 394:.\Generated_Source\PSoC4/USBFS_drv.c **** }
 120              		.loc 1 394 0
 121              		@ sp needed
 122 0078 10BD     		pop	{r4, pc}
 123              	.L9:
 124 007a C046     		.align	2
 125              	.L8:
 126 007c 00000000 		.word	USBFS_lastPacketSize
 127 0080 00000000 		.word	USBFS_transferByteCount
 128 0084 00000000 		.word	USBFS_currentTD
 129 0088 00002C40 		.word	1076625408
 130 008c 00000000 		.word	USBFS_ep0Toggle
 131 0090 00000000 		.word	USBFS_ep0Mode
 132 0094 00000000 		.word	USBFS_transferState
 133 0098 00000000 		.word	USBFS_ep0Count
 134              		.cfi_endproc
 135              	.LFE69:
 136              		.size	USBFS_LoadEP0, .-USBFS_LoadEP0
 137              		.section	.text.USBFS_InitZeroLengthControlTransfer,"ax",%progbits
 138              		.align	2
 139              		.global	USBFS_InitZeroLengthControlTransfer
 140              		.code	16
 141              		.thumb_func
 142              		.type	USBFS_InitZeroLengthControlTransfer, %function
 143              	USBFS_InitZeroLengthControlTransfer:
 144              	.LFB71:
 395:.\Generated_Source\PSoC4/USBFS_drv.c **** 
 396:.\Generated_Source\PSoC4/USBFS_drv.c **** 
 397:.\Generated_Source\PSoC4/USBFS_drv.c **** /*******************************************************************************
 398:.\Generated_Source\PSoC4/USBFS_drv.c **** * Function Name: USBFS_InitControlRead
 399:.\Generated_Source\PSoC4/USBFS_drv.c **** ****************************************************************************//**
 400:.\Generated_Source\PSoC4/USBFS_drv.c **** *
 401:.\Generated_Source\PSoC4/USBFS_drv.c **** *  Initialize a control read transaction. It is used to send data to the host.
 402:.\Generated_Source\PSoC4/USBFS_drv.c **** *  The following global variables should be initialized before this function
 403:.\Generated_Source\PSoC4/USBFS_drv.c **** *  called. To send zero length packet use InitZeroLengthControlTransfer
 404:.\Generated_Source\PSoC4/USBFS_drv.c **** *  function.
 405:.\Generated_Source\PSoC4/USBFS_drv.c **** *
 406:.\Generated_Source\PSoC4/USBFS_drv.c **** *
 407:.\Generated_Source\PSoC4/USBFS_drv.c **** * \return
 408:.\Generated_Source\PSoC4/USBFS_drv.c **** *  requestHandled state.
 409:.\Generated_Source\PSoC4/USBFS_drv.c **** *
 410:.\Generated_Source\PSoC4/USBFS_drv.c **** * \globalvars
 411:.\Generated_Source\PSoC4/USBFS_drv.c **** *  USBFS_currentTD.count - counts of data to be sent.
 412:.\Generated_Source\PSoC4/USBFS_drv.c **** *  USBFS_currentTD.pData - data pointer.
 413:.\Generated_Source\PSoC4/USBFS_drv.c **** *
 414:.\Generated_Source\PSoC4/USBFS_drv.c **** * \reentrant
 415:.\Generated_Source\PSoC4/USBFS_drv.c **** *  No.
 416:.\Generated_Source\PSoC4/USBFS_drv.c **** *
 417:.\Generated_Source\PSoC4/USBFS_drv.c **** *******************************************************************************/
 418:.\Generated_Source\PSoC4/USBFS_drv.c **** uint8 USBFS_InitControlRead(void) 
 419:.\Generated_Source\PSoC4/USBFS_drv.c **** {
 420:.\Generated_Source\PSoC4/USBFS_drv.c ****     uint16 xferCount;
 421:.\Generated_Source\PSoC4/USBFS_drv.c **** 
 422:.\Generated_Source\PSoC4/USBFS_drv.c ****     if (USBFS_currentTD.count == 0u)
 423:.\Generated_Source\PSoC4/USBFS_drv.c ****     {
ARM GAS  C:\Users\LAIR\AppData\Local\Temp\ccjrpnb6.s 			page 11


 424:.\Generated_Source\PSoC4/USBFS_drv.c ****         (void) USBFS_InitZeroLengthControlTransfer();
 425:.\Generated_Source\PSoC4/USBFS_drv.c ****     }
 426:.\Generated_Source\PSoC4/USBFS_drv.c ****     else
 427:.\Generated_Source\PSoC4/USBFS_drv.c ****     {
 428:.\Generated_Source\PSoC4/USBFS_drv.c ****         /* Set up the state machine */
 429:.\Generated_Source\PSoC4/USBFS_drv.c ****         USBFS_transferState = USBFS_TRANS_STATE_CONTROL_READ;
 430:.\Generated_Source\PSoC4/USBFS_drv.c ****         
 431:.\Generated_Source\PSoC4/USBFS_drv.c ****         /* Set the toggle, it gets updated in LoadEP */
 432:.\Generated_Source\PSoC4/USBFS_drv.c ****         USBFS_ep0Toggle = 0u;
 433:.\Generated_Source\PSoC4/USBFS_drv.c ****         
 434:.\Generated_Source\PSoC4/USBFS_drv.c ****         /* Initialize the Status Block */
 435:.\Generated_Source\PSoC4/USBFS_drv.c ****         USBFS_InitializeStatusBlock();
 436:.\Generated_Source\PSoC4/USBFS_drv.c ****         
 437:.\Generated_Source\PSoC4/USBFS_drv.c ****         xferCount = ((uint16)((uint16) USBFS_lengthHiReg << 8u) | ((uint16) USBFS_lengthLoReg));
 438:.\Generated_Source\PSoC4/USBFS_drv.c **** 
 439:.\Generated_Source\PSoC4/USBFS_drv.c ****         if (USBFS_currentTD.count > xferCount)
 440:.\Generated_Source\PSoC4/USBFS_drv.c ****         {
 441:.\Generated_Source\PSoC4/USBFS_drv.c ****             USBFS_currentTD.count = xferCount;
 442:.\Generated_Source\PSoC4/USBFS_drv.c ****         }
 443:.\Generated_Source\PSoC4/USBFS_drv.c ****         
 444:.\Generated_Source\PSoC4/USBFS_drv.c ****         USBFS_LoadEP0();
 445:.\Generated_Source\PSoC4/USBFS_drv.c ****     }
 446:.\Generated_Source\PSoC4/USBFS_drv.c **** 
 447:.\Generated_Source\PSoC4/USBFS_drv.c ****     return (USBFS_TRUE);
 448:.\Generated_Source\PSoC4/USBFS_drv.c **** }
 449:.\Generated_Source\PSoC4/USBFS_drv.c **** 
 450:.\Generated_Source\PSoC4/USBFS_drv.c **** 
 451:.\Generated_Source\PSoC4/USBFS_drv.c **** /*******************************************************************************
 452:.\Generated_Source\PSoC4/USBFS_drv.c **** * Function Name: USBFS_InitZeroLengthControlTransfer
 453:.\Generated_Source\PSoC4/USBFS_drv.c **** ****************************************************************************//**
 454:.\Generated_Source\PSoC4/USBFS_drv.c **** *
 455:.\Generated_Source\PSoC4/USBFS_drv.c **** *  Initialize a zero length data IN transfer.
 456:.\Generated_Source\PSoC4/USBFS_drv.c **** *
 457:.\Generated_Source\PSoC4/USBFS_drv.c **** * \return
 458:.\Generated_Source\PSoC4/USBFS_drv.c **** *  requestHandled state.
 459:.\Generated_Source\PSoC4/USBFS_drv.c **** *
 460:.\Generated_Source\PSoC4/USBFS_drv.c **** * \globalvars
 461:.\Generated_Source\PSoC4/USBFS_drv.c **** *  USBFS_ep0Toggle - set to EP0_CNT_DATA_TOGGLE
 462:.\Generated_Source\PSoC4/USBFS_drv.c **** *  USBFS_ep0Mode  - prepare for mode register content.
 463:.\Generated_Source\PSoC4/USBFS_drv.c **** *  USBFS_transferState - set to TRANS_STATE_CONTROL_READ
 464:.\Generated_Source\PSoC4/USBFS_drv.c **** *  USBFS_ep0Count - cleared, means the zero-length packet.
 465:.\Generated_Source\PSoC4/USBFS_drv.c **** *  USBFS_lastPacketSize - cleared.
 466:.\Generated_Source\PSoC4/USBFS_drv.c **** *
 467:.\Generated_Source\PSoC4/USBFS_drv.c **** * \reentrant
 468:.\Generated_Source\PSoC4/USBFS_drv.c **** *  No.
 469:.\Generated_Source\PSoC4/USBFS_drv.c **** *
 470:.\Generated_Source\PSoC4/USBFS_drv.c **** *******************************************************************************/
 471:.\Generated_Source\PSoC4/USBFS_drv.c **** uint8 USBFS_InitZeroLengthControlTransfer(void)
 472:.\Generated_Source\PSoC4/USBFS_drv.c ****                                                 
 473:.\Generated_Source\PSoC4/USBFS_drv.c **** {
 145              		.loc 1 473 0
 146              		.cfi_startproc
 474:.\Generated_Source\PSoC4/USBFS_drv.c ****     /* Update the state */
 475:.\Generated_Source\PSoC4/USBFS_drv.c ****     USBFS_transferState = USBFS_TRANS_STATE_CONTROL_READ;
 147              		.loc 1 475 0
 148 0000 0222     		mov	r2, #2
 149 0002 074B     		ldr	r3, .L11
ARM GAS  C:\Users\LAIR\AppData\Local\Temp\ccjrpnb6.s 			page 12


 150 0004 1A70     		strb	r2, [r3]
 476:.\Generated_Source\PSoC4/USBFS_drv.c ****     
 477:.\Generated_Source\PSoC4/USBFS_drv.c ****     /* Set the data toggle */
 478:.\Generated_Source\PSoC4/USBFS_drv.c ****     USBFS_ep0Toggle = USBFS_EP0_CNT_DATA_TOGGLE;
 151              		.loc 1 478 0
 152 0006 7E32     		add	r2, r2, #126
 153 0008 064B     		ldr	r3, .L11+4
 154 000a 1A70     		strb	r2, [r3]
 479:.\Generated_Source\PSoC4/USBFS_drv.c ****     
 480:.\Generated_Source\PSoC4/USBFS_drv.c ****     /* Set the Mode Register  */
 481:.\Generated_Source\PSoC4/USBFS_drv.c ****     USBFS_ep0Mode = USBFS_MODE_ACK_IN_STATUS_OUT;
 155              		.loc 1 481 0
 156 000c 713A     		sub	r2, r2, #113
 157 000e 064B     		ldr	r3, .L11+8
 158 0010 1A70     		strb	r2, [r3]
 482:.\Generated_Source\PSoC4/USBFS_drv.c ****     
 483:.\Generated_Source\PSoC4/USBFS_drv.c ****     /* Save the packet size for next time */
 484:.\Generated_Source\PSoC4/USBFS_drv.c ****     USBFS_lastPacketSize = 0u;
 159              		.loc 1 484 0
 160 0012 0023     		mov	r3, #0
 161 0014 054A     		ldr	r2, .L11+12
 162 0016 1370     		strb	r3, [r2]
 485:.\Generated_Source\PSoC4/USBFS_drv.c ****     
 486:.\Generated_Source\PSoC4/USBFS_drv.c ****     USBFS_ep0Count = 0u;
 163              		.loc 1 486 0
 164 0018 054A     		ldr	r2, .L11+16
 165 001a 1370     		strb	r3, [r2]
 487:.\Generated_Source\PSoC4/USBFS_drv.c **** 
 488:.\Generated_Source\PSoC4/USBFS_drv.c ****     return (USBFS_TRUE);
 489:.\Generated_Source\PSoC4/USBFS_drv.c **** }
 166              		.loc 1 489 0
 167 001c 0120     		mov	r0, #1
 168              		@ sp needed
 169 001e 7047     		bx	lr
 170              	.L12:
 171              		.align	2
 172              	.L11:
 173 0020 00000000 		.word	USBFS_transferState
 174 0024 00000000 		.word	USBFS_ep0Toggle
 175 0028 00000000 		.word	USBFS_ep0Mode
 176 002c 00000000 		.word	USBFS_lastPacketSize
 177 0030 00000000 		.word	USBFS_ep0Count
 178              		.cfi_endproc
 179              	.LFE71:
 180              		.size	USBFS_InitZeroLengthControlTransfer, .-USBFS_InitZeroLengthControlTransfer
 181              		.section	.text.USBFS_ControlReadDataStage,"ax",%progbits
 182              		.align	2
 183              		.global	USBFS_ControlReadDataStage
 184              		.code	16
 185              		.thumb_func
 186              		.type	USBFS_ControlReadDataStage, %function
 187              	USBFS_ControlReadDataStage:
 188              	.LFB72:
 490:.\Generated_Source\PSoC4/USBFS_drv.c **** 
 491:.\Generated_Source\PSoC4/USBFS_drv.c **** 
 492:.\Generated_Source\PSoC4/USBFS_drv.c **** /*******************************************************************************
 493:.\Generated_Source\PSoC4/USBFS_drv.c **** * Function Name: USBFS_ControlReadDataStage
ARM GAS  C:\Users\LAIR\AppData\Local\Temp\ccjrpnb6.s 			page 13


 494:.\Generated_Source\PSoC4/USBFS_drv.c **** ****************************************************************************//**
 495:.\Generated_Source\PSoC4/USBFS_drv.c **** *
 496:.\Generated_Source\PSoC4/USBFS_drv.c **** *  Handle the Data Stage of a control read transfer.
 497:.\Generated_Source\PSoC4/USBFS_drv.c **** *
 498:.\Generated_Source\PSoC4/USBFS_drv.c **** *
 499:.\Generated_Source\PSoC4/USBFS_drv.c **** * \reentrant
 500:.\Generated_Source\PSoC4/USBFS_drv.c **** *  No.
 501:.\Generated_Source\PSoC4/USBFS_drv.c **** *
 502:.\Generated_Source\PSoC4/USBFS_drv.c **** *******************************************************************************/
 503:.\Generated_Source\PSoC4/USBFS_drv.c **** void USBFS_ControlReadDataStage(void) 
 504:.\Generated_Source\PSoC4/USBFS_drv.c **** 
 505:.\Generated_Source\PSoC4/USBFS_drv.c **** {
 189              		.loc 1 505 0
 190              		.cfi_startproc
 191 0000 08B5     		push	{r3, lr}
 192              		.cfi_def_cfa_offset 8
 193              		.cfi_offset 3, -8
 194              		.cfi_offset 14, -4
 506:.\Generated_Source\PSoC4/USBFS_drv.c ****     USBFS_LoadEP0();
 195              		.loc 1 506 0
 196 0002 FFF7FEFF 		bl	USBFS_LoadEP0
 197              	.LVL5:
 507:.\Generated_Source\PSoC4/USBFS_drv.c **** }
 198              		.loc 1 507 0
 199              		@ sp needed
 200 0006 08BD     		pop	{r3, pc}
 201              		.cfi_endproc
 202              	.LFE72:
 203              		.size	USBFS_ControlReadDataStage, .-USBFS_ControlReadDataStage
 204              		.section	.text.USBFS_ControlWriteDataStage,"ax",%progbits
 205              		.align	2
 206              		.global	USBFS_ControlWriteDataStage
 207              		.code	16
 208              		.thumb_func
 209              		.type	USBFS_ControlWriteDataStage, %function
 210              	USBFS_ControlWriteDataStage:
 211              	.LFB75:
 508:.\Generated_Source\PSoC4/USBFS_drv.c **** 
 509:.\Generated_Source\PSoC4/USBFS_drv.c **** 
 510:.\Generated_Source\PSoC4/USBFS_drv.c **** /*******************************************************************************
 511:.\Generated_Source\PSoC4/USBFS_drv.c **** * Function Name: USBFS_ControlReadStatusStage
 512:.\Generated_Source\PSoC4/USBFS_drv.c **** ****************************************************************************//**
 513:.\Generated_Source\PSoC4/USBFS_drv.c **** *
 514:.\Generated_Source\PSoC4/USBFS_drv.c **** *  Handle the Status Stage of a control read transfer.
 515:.\Generated_Source\PSoC4/USBFS_drv.c **** *
 516:.\Generated_Source\PSoC4/USBFS_drv.c **** *
 517:.\Generated_Source\PSoC4/USBFS_drv.c **** * \globalvars
 518:.\Generated_Source\PSoC4/USBFS_drv.c **** *  USBFS_USBFS_transferByteCount - updated with last packet size.
 519:.\Generated_Source\PSoC4/USBFS_drv.c **** *  USBFS_transferState - set to TRANS_STATE_IDLE.
 520:.\Generated_Source\PSoC4/USBFS_drv.c **** *  USBFS_ep0Mode  - set to MODE_STALL_IN_OUT.
 521:.\Generated_Source\PSoC4/USBFS_drv.c **** *
 522:.\Generated_Source\PSoC4/USBFS_drv.c **** * \reentrant
 523:.\Generated_Source\PSoC4/USBFS_drv.c **** *  No.
 524:.\Generated_Source\PSoC4/USBFS_drv.c **** *
 525:.\Generated_Source\PSoC4/USBFS_drv.c **** *******************************************************************************/
 526:.\Generated_Source\PSoC4/USBFS_drv.c **** void USBFS_ControlReadStatusStage(void) 
 527:.\Generated_Source\PSoC4/USBFS_drv.c **** {
ARM GAS  C:\Users\LAIR\AppData\Local\Temp\ccjrpnb6.s 			page 14


 528:.\Generated_Source\PSoC4/USBFS_drv.c ****     /* Update the transfer byte count */
 529:.\Generated_Source\PSoC4/USBFS_drv.c ****     USBFS_transferByteCount += USBFS_lastPacketSize;
 530:.\Generated_Source\PSoC4/USBFS_drv.c ****     
 531:.\Generated_Source\PSoC4/USBFS_drv.c ****     /* Go Idle */
 532:.\Generated_Source\PSoC4/USBFS_drv.c ****     USBFS_transferState = USBFS_TRANS_STATE_IDLE;
 533:.\Generated_Source\PSoC4/USBFS_drv.c ****     
 534:.\Generated_Source\PSoC4/USBFS_drv.c ****     /* Update the completion block */
 535:.\Generated_Source\PSoC4/USBFS_drv.c ****     USBFS_UpdateStatusBlock(USBFS_XFER_STATUS_ACK);
 536:.\Generated_Source\PSoC4/USBFS_drv.c ****     
 537:.\Generated_Source\PSoC4/USBFS_drv.c ****     /* We expect no more data, so stall INs and OUTs */
 538:.\Generated_Source\PSoC4/USBFS_drv.c ****     USBFS_ep0Mode = USBFS_MODE_STALL_IN_OUT;
 539:.\Generated_Source\PSoC4/USBFS_drv.c **** }
 540:.\Generated_Source\PSoC4/USBFS_drv.c **** 
 541:.\Generated_Source\PSoC4/USBFS_drv.c **** 
 542:.\Generated_Source\PSoC4/USBFS_drv.c **** /*******************************************************************************
 543:.\Generated_Source\PSoC4/USBFS_drv.c **** * Function Name: USBFS_InitControlWrite
 544:.\Generated_Source\PSoC4/USBFS_drv.c **** ****************************************************************************//**
 545:.\Generated_Source\PSoC4/USBFS_drv.c **** *
 546:.\Generated_Source\PSoC4/USBFS_drv.c **** *  Initialize a control write transaction
 547:.\Generated_Source\PSoC4/USBFS_drv.c **** *
 548:.\Generated_Source\PSoC4/USBFS_drv.c **** * \return
 549:.\Generated_Source\PSoC4/USBFS_drv.c **** *  requestHandled state.
 550:.\Generated_Source\PSoC4/USBFS_drv.c **** *
 551:.\Generated_Source\PSoC4/USBFS_drv.c **** * \globalvars
 552:.\Generated_Source\PSoC4/USBFS_drv.c **** *  USBFS_USBFS_transferState - set to TRANS_STATE_CONTROL_WRITE
 553:.\Generated_Source\PSoC4/USBFS_drv.c **** *  USBFS_ep0Toggle - set to EP0_CNT_DATA_TOGGLE
 554:.\Generated_Source\PSoC4/USBFS_drv.c **** *  USBFS_ep0Mode  - set to MODE_ACK_OUT_STATUS_IN
 555:.\Generated_Source\PSoC4/USBFS_drv.c **** *
 556:.\Generated_Source\PSoC4/USBFS_drv.c **** * \reentrant
 557:.\Generated_Source\PSoC4/USBFS_drv.c **** *  No.
 558:.\Generated_Source\PSoC4/USBFS_drv.c **** *
 559:.\Generated_Source\PSoC4/USBFS_drv.c **** *******************************************************************************/
 560:.\Generated_Source\PSoC4/USBFS_drv.c **** uint8 USBFS_InitControlWrite(void) 
 561:.\Generated_Source\PSoC4/USBFS_drv.c **** {
 562:.\Generated_Source\PSoC4/USBFS_drv.c ****     uint16 xferCount;
 563:.\Generated_Source\PSoC4/USBFS_drv.c **** 
 564:.\Generated_Source\PSoC4/USBFS_drv.c ****     /* Set up the state machine */
 565:.\Generated_Source\PSoC4/USBFS_drv.c ****     USBFS_transferState = USBFS_TRANS_STATE_CONTROL_WRITE;
 566:.\Generated_Source\PSoC4/USBFS_drv.c ****     
 567:.\Generated_Source\PSoC4/USBFS_drv.c ****     /* This might not be necessary */
 568:.\Generated_Source\PSoC4/USBFS_drv.c ****     USBFS_ep0Toggle = USBFS_EP0_CNT_DATA_TOGGLE;
 569:.\Generated_Source\PSoC4/USBFS_drv.c ****     
 570:.\Generated_Source\PSoC4/USBFS_drv.c ****     /* Initialize the Status Block */
 571:.\Generated_Source\PSoC4/USBFS_drv.c ****     USBFS_InitializeStatusBlock();
 572:.\Generated_Source\PSoC4/USBFS_drv.c **** 
 573:.\Generated_Source\PSoC4/USBFS_drv.c ****     xferCount = ((uint16)((uint16) USBFS_lengthHiReg << 8u) | ((uint16) USBFS_lengthLoReg));
 574:.\Generated_Source\PSoC4/USBFS_drv.c **** 
 575:.\Generated_Source\PSoC4/USBFS_drv.c ****     if (USBFS_currentTD.count > xferCount)
 576:.\Generated_Source\PSoC4/USBFS_drv.c ****     {
 577:.\Generated_Source\PSoC4/USBFS_drv.c ****         USBFS_currentTD.count = xferCount;
 578:.\Generated_Source\PSoC4/USBFS_drv.c ****     }
 579:.\Generated_Source\PSoC4/USBFS_drv.c **** 
 580:.\Generated_Source\PSoC4/USBFS_drv.c ****     /* Expect Data or Status Stage */
 581:.\Generated_Source\PSoC4/USBFS_drv.c ****     USBFS_ep0Mode = USBFS_MODE_ACK_OUT_STATUS_IN;
 582:.\Generated_Source\PSoC4/USBFS_drv.c **** 
 583:.\Generated_Source\PSoC4/USBFS_drv.c ****     return(USBFS_TRUE);
 584:.\Generated_Source\PSoC4/USBFS_drv.c **** }
ARM GAS  C:\Users\LAIR\AppData\Local\Temp\ccjrpnb6.s 			page 15


 585:.\Generated_Source\PSoC4/USBFS_drv.c **** 
 586:.\Generated_Source\PSoC4/USBFS_drv.c **** 
 587:.\Generated_Source\PSoC4/USBFS_drv.c **** /*******************************************************************************
 588:.\Generated_Source\PSoC4/USBFS_drv.c **** * Function Name: USBFS_ControlWriteDataStage
 589:.\Generated_Source\PSoC4/USBFS_drv.c **** ****************************************************************************//**
 590:.\Generated_Source\PSoC4/USBFS_drv.c **** *
 591:.\Generated_Source\PSoC4/USBFS_drv.c **** *  Handle the Data Stage of a control write transfer
 592:.\Generated_Source\PSoC4/USBFS_drv.c **** *       1. Get the data (We assume the destination was validated previously)
 593:.\Generated_Source\PSoC4/USBFS_drv.c **** *       2. Update the count and data toggle
 594:.\Generated_Source\PSoC4/USBFS_drv.c **** *       3. Update the mode register for the next transaction
 595:.\Generated_Source\PSoC4/USBFS_drv.c **** *
 596:.\Generated_Source\PSoC4/USBFS_drv.c **** *
 597:.\Generated_Source\PSoC4/USBFS_drv.c **** * \globalvars
 598:.\Generated_Source\PSoC4/USBFS_drv.c **** *  USBFS_transferByteCount - Update the transfer byte count from the
 599:.\Generated_Source\PSoC4/USBFS_drv.c **** *    last transaction.
 600:.\Generated_Source\PSoC4/USBFS_drv.c **** *  USBFS_ep0Count - counts the data loaded from the SIE memory
 601:.\Generated_Source\PSoC4/USBFS_drv.c **** *    in current packet.
 602:.\Generated_Source\PSoC4/USBFS_drv.c **** *  USBFS_transferByteCount - sum of the previous bytes transferred
 603:.\Generated_Source\PSoC4/USBFS_drv.c **** *    on previous packets(sum of USBFS_lastPacketSize)
 604:.\Generated_Source\PSoC4/USBFS_drv.c **** *  USBFS_ep0Toggle - inverted
 605:.\Generated_Source\PSoC4/USBFS_drv.c **** *  USBFS_ep0Mode  - set to MODE_ACK_OUT_STATUS_IN.
 606:.\Generated_Source\PSoC4/USBFS_drv.c **** *
 607:.\Generated_Source\PSoC4/USBFS_drv.c **** * \reentrant
 608:.\Generated_Source\PSoC4/USBFS_drv.c **** *  No.
 609:.\Generated_Source\PSoC4/USBFS_drv.c **** *
 610:.\Generated_Source\PSoC4/USBFS_drv.c **** *******************************************************************************/
 611:.\Generated_Source\PSoC4/USBFS_drv.c **** void USBFS_ControlWriteDataStage(void) 
 612:.\Generated_Source\PSoC4/USBFS_drv.c **** {
 212              		.loc 1 612 0
 213              		.cfi_startproc
 214 0000 30B5     		push	{r4, r5, lr}
 215              		.cfi_def_cfa_offset 12
 216              		.cfi_offset 4, -12
 217              		.cfi_offset 5, -8
 218              		.cfi_offset 14, -4
 219              	.LVL6:
 613:.\Generated_Source\PSoC4/USBFS_drv.c ****     uint32 ep0Count;
 614:.\Generated_Source\PSoC4/USBFS_drv.c ****     uint32 regIndex = 0u;
 615:.\Generated_Source\PSoC4/USBFS_drv.c **** 
 616:.\Generated_Source\PSoC4/USBFS_drv.c ****     ep0Count = (USBFS_EP0_CNT_REG & USBFS_EPX_CNT0_MASK) - USBFS_EPX_CNTX_CRC_COUNT;
 220              		.loc 1 616 0
 221 0002 184B     		ldr	r3, .L18
 222 0004 1B68     		ldr	r3, [r3]
 223 0006 0F21     		mov	r1, #15
 224 0008 1940     		and	r1, r3
 225 000a 0239     		sub	r1, r1, #2
 226              	.LVL7:
 617:.\Generated_Source\PSoC4/USBFS_drv.c **** 
 618:.\Generated_Source\PSoC4/USBFS_drv.c ****     USBFS_transferByteCount += (uint8)ep0Count;
 227              		.loc 1 618 0
 228 000c CBB2     		uxtb	r3, r1
 229 000e 164A     		ldr	r2, .L18+4
 230 0010 1088     		ldrh	r0, [r2]
 231 0012 C318     		add	r3, r0, r3
 232 0014 9BB2     		uxth	r3, r3
 233 0016 1380     		strh	r3, [r2]
 614:.\Generated_Source\PSoC4/USBFS_drv.c **** 
ARM GAS  C:\Users\LAIR\AppData\Local\Temp\ccjrpnb6.s 			page 16


 234              		.loc 1 614 0
 235 0018 0020     		mov	r0, #0
 619:.\Generated_Source\PSoC4/USBFS_drv.c **** 
 620:.\Generated_Source\PSoC4/USBFS_drv.c ****     while ((USBFS_currentTD.count > 0u) && (ep0Count > 0u))
 236              		.loc 1 620 0
 237 001a 0FE0     		b	.L15
 238              	.LVL8:
 239              	.L17:
 621:.\Generated_Source\PSoC4/USBFS_drv.c ****     {
 622:.\Generated_Source\PSoC4/USBFS_drv.c ****         *USBFS_currentTD.pData = (uint8) USBFS_EP0_DR_BASE.epData[regIndex];
 240              		.loc 1 622 0
 241 001c 134B     		ldr	r3, .L18+8
 242 001e 5C68     		ldr	r4, [r3, #4]
 243 0020 8500     		lsl	r5, r0, #2
 244 0022 134A     		ldr	r2, .L18+12
 245 0024 AA58     		ldr	r2, [r5, r2]
 246 0026 D2B2     		uxtb	r2, r2
 247 0028 2270     		strb	r2, [r4]
 623:.\Generated_Source\PSoC4/USBFS_drv.c ****         USBFS_currentTD.pData = &USBFS_currentTD.pData[1u];
 248              		.loc 1 623 0
 249 002a 5A68     		ldr	r2, [r3, #4]
 250 002c 0132     		add	r2, r2, #1
 251 002e 5A60     		str	r2, [r3, #4]
 624:.\Generated_Source\PSoC4/USBFS_drv.c ****         regIndex++;
 252              		.loc 1 624 0
 253 0030 0130     		add	r0, r0, #1
 254              	.LVL9:
 625:.\Generated_Source\PSoC4/USBFS_drv.c ****         ep0Count--;
 255              		.loc 1 625 0
 256 0032 0139     		sub	r1, r1, #1
 257              	.LVL10:
 626:.\Generated_Source\PSoC4/USBFS_drv.c ****         USBFS_currentTD.count--;
 258              		.loc 1 626 0
 259 0034 1A88     		ldrh	r2, [r3]
 260 0036 013A     		sub	r2, r2, #1
 261 0038 92B2     		uxth	r2, r2
 262 003a 1A80     		strh	r2, [r3]
 263              	.LVL11:
 264              	.L15:
 620:.\Generated_Source\PSoC4/USBFS_drv.c ****     {
 265              		.loc 1 620 0
 266 003c 0B4B     		ldr	r3, .L18+8
 267 003e 1B88     		ldrh	r3, [r3]
 268 0040 9BB2     		uxth	r3, r3
 269 0042 002B     		cmp	r3, #0
 270 0044 01D0     		beq	.L16
 620:.\Generated_Source\PSoC4/USBFS_drv.c ****     {
 271              		.loc 1 620 0 is_stmt 0 discriminator 1
 272 0046 0029     		cmp	r1, #0
 273 0048 E8D1     		bne	.L17
 274              	.L16:
 627:.\Generated_Source\PSoC4/USBFS_drv.c ****     }
 628:.\Generated_Source\PSoC4/USBFS_drv.c ****     
 629:.\Generated_Source\PSoC4/USBFS_drv.c ****     USBFS_ep0Count = (uint8)ep0Count;
 275              		.loc 1 629 0 is_stmt 1
 276 004a C9B2     		uxtb	r1, r1
 277              	.LVL12:
ARM GAS  C:\Users\LAIR\AppData\Local\Temp\ccjrpnb6.s 			page 17


 278 004c 094B     		ldr	r3, .L18+16
 279 004e 1970     		strb	r1, [r3]
 630:.\Generated_Source\PSoC4/USBFS_drv.c ****     
 631:.\Generated_Source\PSoC4/USBFS_drv.c ****     /* Update the data toggle */
 632:.\Generated_Source\PSoC4/USBFS_drv.c ****     USBFS_ep0Toggle ^= USBFS_EP0_CNT_DATA_TOGGLE;
 280              		.loc 1 632 0
 281 0050 094A     		ldr	r2, .L18+20
 282 0052 1178     		ldrb	r1, [r2]
 283 0054 8023     		mov	r3, #128
 284 0056 4B40     		eor	r3, r1
 285 0058 1370     		strb	r3, [r2]
 633:.\Generated_Source\PSoC4/USBFS_drv.c ****     
 634:.\Generated_Source\PSoC4/USBFS_drv.c ****     /* Expect Data or Status Stage */
 635:.\Generated_Source\PSoC4/USBFS_drv.c ****     USBFS_ep0Mode = USBFS_MODE_ACK_OUT_STATUS_IN;
 286              		.loc 1 635 0
 287 005a 0B22     		mov	r2, #11
 288 005c 074B     		ldr	r3, .L18+24
 289 005e 1A70     		strb	r2, [r3]
 636:.\Generated_Source\PSoC4/USBFS_drv.c **** }
 290              		.loc 1 636 0
 291              		@ sp needed
 292 0060 30BD     		pop	{r4, r5, pc}
 293              	.L19:
 294 0062 C046     		.align	2
 295              	.L18:
 296 0064 A4002C40 		.word	1076625572
 297 0068 00000000 		.word	USBFS_transferByteCount
 298 006c 00000000 		.word	USBFS_currentTD
 299 0070 00002C40 		.word	1076625408
 300 0074 00000000 		.word	USBFS_ep0Count
 301 0078 00000000 		.word	USBFS_ep0Toggle
 302 007c 00000000 		.word	USBFS_ep0Mode
 303              		.cfi_endproc
 304              	.LFE75:
 305              		.size	USBFS_ControlWriteDataStage, .-USBFS_ControlWriteDataStage
 306              		.section	.text.USBFS_InitNoDataControlTransfer,"ax",%progbits
 307              		.align	2
 308              		.global	USBFS_InitNoDataControlTransfer
 309              		.code	16
 310              		.thumb_func
 311              		.type	USBFS_InitNoDataControlTransfer, %function
 312              	USBFS_InitNoDataControlTransfer:
 313              	.LFB77:
 637:.\Generated_Source\PSoC4/USBFS_drv.c **** 
 638:.\Generated_Source\PSoC4/USBFS_drv.c **** 
 639:.\Generated_Source\PSoC4/USBFS_drv.c **** /*******************************************************************************
 640:.\Generated_Source\PSoC4/USBFS_drv.c **** * Function Name: USBFS_ControlWriteStatusStage
 641:.\Generated_Source\PSoC4/USBFS_drv.c **** ****************************************************************************//**
 642:.\Generated_Source\PSoC4/USBFS_drv.c **** *
 643:.\Generated_Source\PSoC4/USBFS_drv.c **** *  Handle the Status Stage of a control write transfer
 644:.\Generated_Source\PSoC4/USBFS_drv.c **** *
 645:.\Generated_Source\PSoC4/USBFS_drv.c **** * \globalvars
 646:.\Generated_Source\PSoC4/USBFS_drv.c **** *  USBFS_transferState - set to TRANS_STATE_IDLE.
 647:.\Generated_Source\PSoC4/USBFS_drv.c **** *  USBFS_USBFS_ep0Mode  - set to MODE_STALL_IN_OUT.
 648:.\Generated_Source\PSoC4/USBFS_drv.c **** *
 649:.\Generated_Source\PSoC4/USBFS_drv.c **** * \reentrant
 650:.\Generated_Source\PSoC4/USBFS_drv.c **** *  No.
ARM GAS  C:\Users\LAIR\AppData\Local\Temp\ccjrpnb6.s 			page 18


 651:.\Generated_Source\PSoC4/USBFS_drv.c **** *
 652:.\Generated_Source\PSoC4/USBFS_drv.c **** *******************************************************************************/
 653:.\Generated_Source\PSoC4/USBFS_drv.c **** void USBFS_ControlWriteStatusStage(void) 
 654:.\Generated_Source\PSoC4/USBFS_drv.c **** {
 655:.\Generated_Source\PSoC4/USBFS_drv.c ****     /* Go Idle */
 656:.\Generated_Source\PSoC4/USBFS_drv.c ****     USBFS_transferState = USBFS_TRANS_STATE_IDLE;
 657:.\Generated_Source\PSoC4/USBFS_drv.c ****     
 658:.\Generated_Source\PSoC4/USBFS_drv.c ****     /* Update the completion block */    
 659:.\Generated_Source\PSoC4/USBFS_drv.c ****     USBFS_UpdateStatusBlock(USBFS_XFER_STATUS_ACK);
 660:.\Generated_Source\PSoC4/USBFS_drv.c ****     
 661:.\Generated_Source\PSoC4/USBFS_drv.c ****     /* We expect no more data, so stall INs and OUTs */
 662:.\Generated_Source\PSoC4/USBFS_drv.c ****     USBFS_ep0Mode = USBFS_MODE_STALL_IN_OUT;
 663:.\Generated_Source\PSoC4/USBFS_drv.c **** }
 664:.\Generated_Source\PSoC4/USBFS_drv.c **** 
 665:.\Generated_Source\PSoC4/USBFS_drv.c **** 
 666:.\Generated_Source\PSoC4/USBFS_drv.c **** /*******************************************************************************
 667:.\Generated_Source\PSoC4/USBFS_drv.c **** * Function Name: USBFS_InitNoDataControlTransfer
 668:.\Generated_Source\PSoC4/USBFS_drv.c **** ****************************************************************************//**
 669:.\Generated_Source\PSoC4/USBFS_drv.c **** *
 670:.\Generated_Source\PSoC4/USBFS_drv.c **** *  Initialize a no data control transfer
 671:.\Generated_Source\PSoC4/USBFS_drv.c **** *
 672:.\Generated_Source\PSoC4/USBFS_drv.c **** * \return
 673:.\Generated_Source\PSoC4/USBFS_drv.c **** *  requestHandled state.
 674:.\Generated_Source\PSoC4/USBFS_drv.c **** *
 675:.\Generated_Source\PSoC4/USBFS_drv.c **** * \globalvars
 676:.\Generated_Source\PSoC4/USBFS_drv.c **** *  USBFS_transferState - set to TRANS_STATE_NO_DATA_CONTROL.
 677:.\Generated_Source\PSoC4/USBFS_drv.c **** *  USBFS_ep0Mode  - set to MODE_STATUS_IN_ONLY.
 678:.\Generated_Source\PSoC4/USBFS_drv.c **** *  USBFS_ep0Count - cleared.
 679:.\Generated_Source\PSoC4/USBFS_drv.c **** *  USBFS_ep0Toggle - set to EP0_CNT_DATA_TOGGLE
 680:.\Generated_Source\PSoC4/USBFS_drv.c **** *
 681:.\Generated_Source\PSoC4/USBFS_drv.c **** * \reentrant
 682:.\Generated_Source\PSoC4/USBFS_drv.c **** *  No.
 683:.\Generated_Source\PSoC4/USBFS_drv.c **** *
 684:.\Generated_Source\PSoC4/USBFS_drv.c **** *******************************************************************************/
 685:.\Generated_Source\PSoC4/USBFS_drv.c **** uint8 USBFS_InitNoDataControlTransfer(void) 
 686:.\Generated_Source\PSoC4/USBFS_drv.c **** {
 314              		.loc 1 686 0
 315              		.cfi_startproc
 687:.\Generated_Source\PSoC4/USBFS_drv.c ****     USBFS_transferState = USBFS_TRANS_STATE_NO_DATA_CONTROL;
 316              		.loc 1 687 0
 317 0000 0623     		mov	r3, #6
 318 0002 064A     		ldr	r2, .L21
 319 0004 1370     		strb	r3, [r2]
 688:.\Generated_Source\PSoC4/USBFS_drv.c ****     USBFS_ep0Mode       = USBFS_MODE_STATUS_IN_ONLY;
 320              		.loc 1 688 0
 321 0006 064A     		ldr	r2, .L21+4
 322 0008 1370     		strb	r3, [r2]
 689:.\Generated_Source\PSoC4/USBFS_drv.c ****     USBFS_ep0Toggle     = USBFS_EP0_CNT_DATA_TOGGLE;
 323              		.loc 1 689 0
 324 000a 8022     		mov	r2, #128
 325 000c 054B     		ldr	r3, .L21+8
 326 000e 1A70     		strb	r2, [r3]
 690:.\Generated_Source\PSoC4/USBFS_drv.c ****     USBFS_ep0Count      = 0u;
 327              		.loc 1 690 0
 328 0010 0022     		mov	r2, #0
 329 0012 054B     		ldr	r3, .L21+12
 330 0014 1A70     		strb	r2, [r3]
ARM GAS  C:\Users\LAIR\AppData\Local\Temp\ccjrpnb6.s 			page 19


 691:.\Generated_Source\PSoC4/USBFS_drv.c **** 
 692:.\Generated_Source\PSoC4/USBFS_drv.c ****     return (USBFS_TRUE);
 693:.\Generated_Source\PSoC4/USBFS_drv.c **** }
 331              		.loc 1 693 0
 332 0016 0120     		mov	r0, #1
 333              		@ sp needed
 334 0018 7047     		bx	lr
 335              	.L22:
 336 001a C046     		.align	2
 337              	.L21:
 338 001c 00000000 		.word	USBFS_transferState
 339 0020 00000000 		.word	USBFS_ep0Mode
 340 0024 00000000 		.word	USBFS_ep0Toggle
 341 0028 00000000 		.word	USBFS_ep0Count
 342              		.cfi_endproc
 343              	.LFE77:
 344              		.size	USBFS_InitNoDataControlTransfer, .-USBFS_InitNoDataControlTransfer
 345              		.section	.text.USBFS_UpdateStatusBlock,"ax",%progbits
 346              		.align	2
 347              		.global	USBFS_UpdateStatusBlock
 348              		.code	16
 349              		.thumb_func
 350              		.type	USBFS_UpdateStatusBlock, %function
 351              	USBFS_UpdateStatusBlock:
 352              	.LFB79:
 694:.\Generated_Source\PSoC4/USBFS_drv.c **** 
 695:.\Generated_Source\PSoC4/USBFS_drv.c **** 
 696:.\Generated_Source\PSoC4/USBFS_drv.c **** /*******************************************************************************
 697:.\Generated_Source\PSoC4/USBFS_drv.c **** * Function Name: USBFS_NoDataControlStatusStage
 698:.\Generated_Source\PSoC4/USBFS_drv.c **** ****************************************************************************//**
 699:.\Generated_Source\PSoC4/USBFS_drv.c **** *  Handle the Status Stage of a no data control transfer.
 700:.\Generated_Source\PSoC4/USBFS_drv.c **** *
 701:.\Generated_Source\PSoC4/USBFS_drv.c **** *  SET_ADDRESS is special, since we need to receive the status stage with
 702:.\Generated_Source\PSoC4/USBFS_drv.c **** *  the old address.
 703:.\Generated_Source\PSoC4/USBFS_drv.c **** *
 704:.\Generated_Source\PSoC4/USBFS_drv.c **** * \globalvars
 705:.\Generated_Source\PSoC4/USBFS_drv.c **** *  USBFS_transferState - set to TRANS_STATE_IDLE.
 706:.\Generated_Source\PSoC4/USBFS_drv.c **** *  USBFS_ep0Mode  - set to MODE_STALL_IN_OUT.
 707:.\Generated_Source\PSoC4/USBFS_drv.c **** *  USBFS_ep0Toggle - set to EP0_CNT_DATA_TOGGLE
 708:.\Generated_Source\PSoC4/USBFS_drv.c **** *  USBFS_deviceAddress - used to set new address and cleared
 709:.\Generated_Source\PSoC4/USBFS_drv.c **** *
 710:.\Generated_Source\PSoC4/USBFS_drv.c **** * \reentrant
 711:.\Generated_Source\PSoC4/USBFS_drv.c **** *  No.
 712:.\Generated_Source\PSoC4/USBFS_drv.c **** *
 713:.\Generated_Source\PSoC4/USBFS_drv.c **** *******************************************************************************/
 714:.\Generated_Source\PSoC4/USBFS_drv.c **** void USBFS_NoDataControlStatusStage(void) 
 715:.\Generated_Source\PSoC4/USBFS_drv.c **** {
 716:.\Generated_Source\PSoC4/USBFS_drv.c ****     if (0u != USBFS_deviceAddress)
 717:.\Generated_Source\PSoC4/USBFS_drv.c ****     {
 718:.\Generated_Source\PSoC4/USBFS_drv.c ****         /* Update device address if we got new address. */
 719:.\Generated_Source\PSoC4/USBFS_drv.c ****         USBFS_CR0_REG = (uint32) USBFS_deviceAddress | USBFS_CR0_ENABLE;
 720:.\Generated_Source\PSoC4/USBFS_drv.c ****         USBFS_deviceAddress = 0u;
 721:.\Generated_Source\PSoC4/USBFS_drv.c ****     }
 722:.\Generated_Source\PSoC4/USBFS_drv.c **** 
 723:.\Generated_Source\PSoC4/USBFS_drv.c ****     USBFS_transferState = USBFS_TRANS_STATE_IDLE;
 724:.\Generated_Source\PSoC4/USBFS_drv.c ****     
 725:.\Generated_Source\PSoC4/USBFS_drv.c ****     /* Update the completion block. */
ARM GAS  C:\Users\LAIR\AppData\Local\Temp\ccjrpnb6.s 			page 20


 726:.\Generated_Source\PSoC4/USBFS_drv.c ****     USBFS_UpdateStatusBlock(USBFS_XFER_STATUS_ACK);
 727:.\Generated_Source\PSoC4/USBFS_drv.c ****     
 728:.\Generated_Source\PSoC4/USBFS_drv.c ****     /* Stall IN and OUT, no more data is expected. */
 729:.\Generated_Source\PSoC4/USBFS_drv.c ****     USBFS_ep0Mode = USBFS_MODE_STALL_IN_OUT;
 730:.\Generated_Source\PSoC4/USBFS_drv.c **** }
 731:.\Generated_Source\PSoC4/USBFS_drv.c **** 
 732:.\Generated_Source\PSoC4/USBFS_drv.c **** 
 733:.\Generated_Source\PSoC4/USBFS_drv.c **** /*******************************************************************************
 734:.\Generated_Source\PSoC4/USBFS_drv.c **** * Function Name: USBFS_UpdateStatusBlock
 735:.\Generated_Source\PSoC4/USBFS_drv.c **** ****************************************************************************//**
 736:.\Generated_Source\PSoC4/USBFS_drv.c **** *
 737:.\Generated_Source\PSoC4/USBFS_drv.c **** *  Update the Completion Status Block for a Request.  The block is updated
 738:.\Generated_Source\PSoC4/USBFS_drv.c **** *  with the completion code the USBFS_transferByteCount.  The
 739:.\Generated_Source\PSoC4/USBFS_drv.c **** *  StatusBlock Pointer is set to NULL.
 740:.\Generated_Source\PSoC4/USBFS_drv.c **** *
 741:.\Generated_Source\PSoC4/USBFS_drv.c **** *  completionCode - status.
 742:.\Generated_Source\PSoC4/USBFS_drv.c **** *
 743:.\Generated_Source\PSoC4/USBFS_drv.c **** *
 744:.\Generated_Source\PSoC4/USBFS_drv.c **** * \globalvars
 745:.\Generated_Source\PSoC4/USBFS_drv.c **** *  USBFS_currentTD.pStatusBlock->status - updated by the
 746:.\Generated_Source\PSoC4/USBFS_drv.c **** *    completionCode parameter.
 747:.\Generated_Source\PSoC4/USBFS_drv.c **** *  USBFS_currentTD.pStatusBlock->length - updated.
 748:.\Generated_Source\PSoC4/USBFS_drv.c **** *  USBFS_currentTD.pStatusBlock - cleared.
 749:.\Generated_Source\PSoC4/USBFS_drv.c **** *
 750:.\Generated_Source\PSoC4/USBFS_drv.c **** * \reentrant
 751:.\Generated_Source\PSoC4/USBFS_drv.c **** *  No.
 752:.\Generated_Source\PSoC4/USBFS_drv.c **** *
 753:.\Generated_Source\PSoC4/USBFS_drv.c **** *******************************************************************************/
 754:.\Generated_Source\PSoC4/USBFS_drv.c **** void USBFS_UpdateStatusBlock(uint8 completionCode) 
 755:.\Generated_Source\PSoC4/USBFS_drv.c **** {
 353              		.loc 1 755 0
 354              		.cfi_startproc
 355              	.LVL13:
 756:.\Generated_Source\PSoC4/USBFS_drv.c ****     if (USBFS_currentTD.pStatusBlock != NULL)
 356              		.loc 1 756 0
 357 0000 064B     		ldr	r3, .L25
 358 0002 9B68     		ldr	r3, [r3, #8]
 359 0004 002B     		cmp	r3, #0
 360 0006 08D0     		beq	.L23
 757:.\Generated_Source\PSoC4/USBFS_drv.c ****     {
 758:.\Generated_Source\PSoC4/USBFS_drv.c ****         USBFS_currentTD.pStatusBlock->status = completionCode;
 361              		.loc 1 758 0
 362 0008 044B     		ldr	r3, .L25
 363 000a 9A68     		ldr	r2, [r3, #8]
 364 000c 1070     		strb	r0, [r2]
 759:.\Generated_Source\PSoC4/USBFS_drv.c ****         USBFS_currentTD.pStatusBlock->length = USBFS_transferByteCount;
 365              		.loc 1 759 0
 366 000e 9A68     		ldr	r2, [r3, #8]
 367 0010 0349     		ldr	r1, .L25+4
 368 0012 0988     		ldrh	r1, [r1]
 369 0014 5180     		strh	r1, [r2, #2]
 760:.\Generated_Source\PSoC4/USBFS_drv.c ****         USBFS_currentTD.pStatusBlock = NULL;
 370              		.loc 1 760 0
 371 0016 0022     		mov	r2, #0
 372 0018 9A60     		str	r2, [r3, #8]
 373              	.L23:
 761:.\Generated_Source\PSoC4/USBFS_drv.c ****     }
ARM GAS  C:\Users\LAIR\AppData\Local\Temp\ccjrpnb6.s 			page 21


 762:.\Generated_Source\PSoC4/USBFS_drv.c **** }
 374              		.loc 1 762 0
 375              		@ sp needed
 376 001a 7047     		bx	lr
 377              	.L26:
 378              		.align	2
 379              	.L25:
 380 001c 00000000 		.word	USBFS_currentTD
 381 0020 00000000 		.word	USBFS_transferByteCount
 382              		.cfi_endproc
 383              	.LFE79:
 384              		.size	USBFS_UpdateStatusBlock, .-USBFS_UpdateStatusBlock
 385              		.section	.text.USBFS_HandleSetup,"ax",%progbits
 386              		.align	2
 387              		.global	USBFS_HandleSetup
 388              		.code	16
 389              		.thumb_func
 390              		.type	USBFS_HandleSetup, %function
 391              	USBFS_HandleSetup:
 392              	.LFB66:
 199:.\Generated_Source\PSoC4/USBFS_drv.c ****     uint8 requestHandled;
 393              		.loc 1 199 0
 394              		.cfi_startproc
 395 0000 08B5     		push	{r3, lr}
 396              		.cfi_def_cfa_offset 8
 397              		.cfi_offset 3, -8
 398              		.cfi_offset 14, -4
 205:.\Generated_Source\PSoC4/USBFS_drv.c ****     USBFS_EP0_CR_REG = (uint32) requestHandled;
 399              		.loc 1 205 0
 400 0002 144B     		ldr	r3, .L36
 401 0004 1A68     		ldr	r2, [r3]
 402              	.LVL14:
 206:.\Generated_Source\PSoC4/USBFS_drv.c ****     requestHandled = (uint8) USBFS_EP0_CR_REG;
 403              		.loc 1 206 0
 404 0006 FF21     		mov	r1, #255
 405 0008 0A40     		and	r2, r1
 406              	.LVL15:
 407 000a 1A60     		str	r2, [r3]
 207:.\Generated_Source\PSoC4/USBFS_drv.c **** 
 408              		.loc 1 207 0
 409 000c 1B68     		ldr	r3, [r3]
 410              	.LVL16:
 209:.\Generated_Source\PSoC4/USBFS_drv.c ****     {
 411              		.loc 1 209 0
 412 000e DAB2     		uxtb	r2, r3
 413 0010 1B06     		lsl	r3, r3, #24
 414 0012 02D5     		bpl	.L28
 415              	.LVL17:
 212:.\Generated_Source\PSoC4/USBFS_drv.c ****     }
 416              		.loc 1 212 0
 417 0014 104B     		ldr	r3, .L36+4
 418 0016 1A70     		strb	r2, [r3]
 419 0018 1BE0     		b	.L27
 420              	.L28:
 217:.\Generated_Source\PSoC4/USBFS_drv.c **** 
 421              		.loc 1 217 0
 422 001a 0220     		mov	r0, #2
ARM GAS  C:\Users\LAIR\AppData\Local\Temp\ccjrpnb6.s 			page 22


 423 001c FFF7FEFF 		bl	USBFS_UpdateStatusBlock
 424              	.LVL18:
 220:.\Generated_Source\PSoC4/USBFS_drv.c ****         {
 425              		.loc 1 220 0
 426 0020 0E4B     		ldr	r3, .L36+8
 427 0022 1B68     		ldr	r3, [r3]
 428 0024 6022     		mov	r2, #96
 429 0026 1340     		and	r3, r2
 430 0028 202B     		cmp	r3, #32
 431 002a 06D0     		beq	.L31
 432 002c 402B     		cmp	r3, #64
 433 002e 07D0     		beq	.L32
 434 0030 002B     		cmp	r3, #0
 435 0032 08D1     		bne	.L35
 223:.\Generated_Source\PSoC4/USBFS_drv.c ****                 break;
 436              		.loc 1 223 0
 437 0034 FFF7FEFF 		bl	USBFS_HandleStandardRqst
 438              	.LVL19:
 224:.\Generated_Source\PSoC4/USBFS_drv.c ****                 
 439              		.loc 1 224 0
 440 0038 06E0     		b	.L30
 441              	.LVL20:
 442              	.L31:
 227:.\Generated_Source\PSoC4/USBFS_drv.c ****                 break;
 443              		.loc 1 227 0
 444 003a FFF7FEFF 		bl	USBFS_DispatchClassRqst
 445              	.LVL21:
 228:.\Generated_Source\PSoC4/USBFS_drv.c ****                 
 446              		.loc 1 228 0
 447 003e 03E0     		b	.L30
 448              	.LVL22:
 449              	.L32:
 231:.\Generated_Source\PSoC4/USBFS_drv.c ****                 break;
 450              		.loc 1 231 0
 451 0040 FFF7FEFF 		bl	USBFS_HandleVendorRqst
 452              	.LVL23:
 232:.\Generated_Source\PSoC4/USBFS_drv.c ****                 
 453              		.loc 1 232 0
 454 0044 00E0     		b	.L30
 455              	.LVL24:
 456              	.L35:
 235:.\Generated_Source\PSoC4/USBFS_drv.c ****                 break;
 457              		.loc 1 235 0
 458 0046 0020     		mov	r0, #0
 459              	.L30:
 460              	.LVL25:
 240:.\Generated_Source\PSoC4/USBFS_drv.c ****         {
 461              		.loc 1 240 0
 462 0048 0028     		cmp	r0, #0
 463 004a 02D1     		bne	.L27
 242:.\Generated_Source\PSoC4/USBFS_drv.c ****         }
 464              		.loc 1 242 0
 465 004c 0322     		mov	r2, #3
 466 004e 024B     		ldr	r3, .L36+4
 467 0050 1A70     		strb	r2, [r3]
 468              	.LVL26:
 469              	.L27:
ARM GAS  C:\Users\LAIR\AppData\Local\Temp\ccjrpnb6.s 			page 23


 245:.\Generated_Source\PSoC4/USBFS_drv.c **** 
 470              		.loc 1 245 0
 471              		@ sp needed
 472 0052 08BD     		pop	{r3, pc}
 473              	.L37:
 474              		.align	2
 475              	.L36:
 476 0054 A0002C40 		.word	1076625568
 477 0058 00000000 		.word	USBFS_ep0Mode
 478 005c 00002C40 		.word	1076625408
 479              		.cfi_endproc
 480              	.LFE66:
 481              		.size	USBFS_HandleSetup, .-USBFS_HandleSetup
 482              		.section	.text.USBFS_ControlReadStatusStage,"ax",%progbits
 483              		.align	2
 484              		.global	USBFS_ControlReadStatusStage
 485              		.code	16
 486              		.thumb_func
 487              		.type	USBFS_ControlReadStatusStage, %function
 488              	USBFS_ControlReadStatusStage:
 489              	.LFB73:
 527:.\Generated_Source\PSoC4/USBFS_drv.c ****     /* Update the transfer byte count */
 490              		.loc 1 527 0
 491              		.cfi_startproc
 492 0000 08B5     		push	{r3, lr}
 493              		.cfi_def_cfa_offset 8
 494              		.cfi_offset 3, -8
 495              		.cfi_offset 14, -4
 529:.\Generated_Source\PSoC4/USBFS_drv.c ****     
 496              		.loc 1 529 0
 497 0002 084B     		ldr	r3, .L39
 498 0004 1B78     		ldrb	r3, [r3]
 499 0006 084A     		ldr	r2, .L39+4
 500 0008 1188     		ldrh	r1, [r2]
 501 000a CB18     		add	r3, r1, r3
 502 000c 9BB2     		uxth	r3, r3
 503 000e 1380     		strh	r3, [r2]
 532:.\Generated_Source\PSoC4/USBFS_drv.c ****     
 504              		.loc 1 532 0
 505 0010 0022     		mov	r2, #0
 506 0012 064B     		ldr	r3, .L39+8
 507 0014 1A70     		strb	r2, [r3]
 535:.\Generated_Source\PSoC4/USBFS_drv.c ****     
 508              		.loc 1 535 0
 509 0016 0120     		mov	r0, #1
 510 0018 FFF7FEFF 		bl	USBFS_UpdateStatusBlock
 511              	.LVL27:
 538:.\Generated_Source\PSoC4/USBFS_drv.c **** }
 512              		.loc 1 538 0
 513 001c 0322     		mov	r2, #3
 514 001e 044B     		ldr	r3, .L39+12
 515 0020 1A70     		strb	r2, [r3]
 539:.\Generated_Source\PSoC4/USBFS_drv.c **** 
 516              		.loc 1 539 0
 517              		@ sp needed
 518 0022 08BD     		pop	{r3, pc}
 519              	.L40:
ARM GAS  C:\Users\LAIR\AppData\Local\Temp\ccjrpnb6.s 			page 24


 520              		.align	2
 521              	.L39:
 522 0024 00000000 		.word	USBFS_lastPacketSize
 523 0028 00000000 		.word	USBFS_transferByteCount
 524 002c 00000000 		.word	USBFS_transferState
 525 0030 00000000 		.word	USBFS_ep0Mode
 526              		.cfi_endproc
 527              	.LFE73:
 528              		.size	USBFS_ControlReadStatusStage, .-USBFS_ControlReadStatusStage
 529              		.section	.text.USBFS_HandleOUT,"ax",%progbits
 530              		.align	2
 531              		.global	USBFS_HandleOUT
 532              		.code	16
 533              		.thumb_func
 534              		.type	USBFS_HandleOUT, %function
 535              	USBFS_HandleOUT:
 536              	.LFB68:
 296:.\Generated_Source\PSoC4/USBFS_drv.c ****     switch (USBFS_transferState)
 537              		.loc 1 296 0
 538              		.cfi_startproc
 539 0000 08B5     		push	{r3, lr}
 540              		.cfi_def_cfa_offset 8
 541              		.cfi_offset 3, -8
 542              		.cfi_offset 14, -4
 297:.\Generated_Source\PSoC4/USBFS_drv.c ****     {
 543              		.loc 1 297 0
 544 0002 0B4B     		ldr	r3, .L46
 545 0004 1B78     		ldrb	r3, [r3]
 546 0006 DBB2     		uxtb	r3, r3
 547 0008 042B     		cmp	r3, #4
 548 000a 06D0     		beq	.L43
 549 000c 062B     		cmp	r3, #6
 550 000e 07D0     		beq	.L44
 551 0010 022B     		cmp	r3, #2
 552 0012 0BD1     		bne	.L41
 303:.\Generated_Source\PSoC4/USBFS_drv.c ****             break;
 553              		.loc 1 303 0
 554 0014 FFF7FEFF 		bl	USBFS_ControlReadStatusStage
 555              	.LVL28:
 304:.\Generated_Source\PSoC4/USBFS_drv.c ****             
 556              		.loc 1 304 0
 557 0018 08E0     		b	.L41
 558              	.L43:
 307:.\Generated_Source\PSoC4/USBFS_drv.c ****             break;
 559              		.loc 1 307 0
 560 001a FFF7FEFF 		bl	USBFS_ControlWriteDataStage
 561              	.LVL29:
 308:.\Generated_Source\PSoC4/USBFS_drv.c ****             
 562              		.loc 1 308 0
 563 001e 05E0     		b	.L41
 564              	.L44:
 312:.\Generated_Source\PSoC4/USBFS_drv.c ****             
 565              		.loc 1 312 0
 566 0020 0320     		mov	r0, #3
 567 0022 FFF7FEFF 		bl	USBFS_UpdateStatusBlock
 568              	.LVL30:
 315:.\Generated_Source\PSoC4/USBFS_drv.c ****             break;
ARM GAS  C:\Users\LAIR\AppData\Local\Temp\ccjrpnb6.s 			page 25


 569              		.loc 1 315 0
 570 0026 0322     		mov	r2, #3
 571 0028 024B     		ldr	r3, .L46+4
 572 002a 1A70     		strb	r2, [r3]
 573              	.L41:
 322:.\Generated_Source\PSoC4/USBFS_drv.c **** 
 574              		.loc 1 322 0
 575              		@ sp needed
 576 002c 08BD     		pop	{r3, pc}
 577              	.L47:
 578 002e C046     		.align	2
 579              	.L46:
 580 0030 00000000 		.word	USBFS_transferState
 581 0034 00000000 		.word	USBFS_ep0Mode
 582              		.cfi_endproc
 583              	.LFE68:
 584              		.size	USBFS_HandleOUT, .-USBFS_HandleOUT
 585              		.section	.text.USBFS_ControlWriteStatusStage,"ax",%progbits
 586              		.align	2
 587              		.global	USBFS_ControlWriteStatusStage
 588              		.code	16
 589              		.thumb_func
 590              		.type	USBFS_ControlWriteStatusStage, %function
 591              	USBFS_ControlWriteStatusStage:
 592              	.LFB76:
 654:.\Generated_Source\PSoC4/USBFS_drv.c ****     /* Go Idle */
 593              		.loc 1 654 0
 594              		.cfi_startproc
 595 0000 08B5     		push	{r3, lr}
 596              		.cfi_def_cfa_offset 8
 597              		.cfi_offset 3, -8
 598              		.cfi_offset 14, -4
 656:.\Generated_Source\PSoC4/USBFS_drv.c ****     
 599              		.loc 1 656 0
 600 0002 0022     		mov	r2, #0
 601 0004 044B     		ldr	r3, .L49
 602 0006 1A70     		strb	r2, [r3]
 659:.\Generated_Source\PSoC4/USBFS_drv.c ****     
 603              		.loc 1 659 0
 604 0008 0120     		mov	r0, #1
 605 000a FFF7FEFF 		bl	USBFS_UpdateStatusBlock
 606              	.LVL31:
 662:.\Generated_Source\PSoC4/USBFS_drv.c **** }
 607              		.loc 1 662 0
 608 000e 0322     		mov	r2, #3
 609 0010 024B     		ldr	r3, .L49+4
 610 0012 1A70     		strb	r2, [r3]
 663:.\Generated_Source\PSoC4/USBFS_drv.c **** 
 611              		.loc 1 663 0
 612              		@ sp needed
 613 0014 08BD     		pop	{r3, pc}
 614              	.L50:
 615 0016 C046     		.align	2
 616              	.L49:
 617 0018 00000000 		.word	USBFS_transferState
 618 001c 00000000 		.word	USBFS_ep0Mode
 619              		.cfi_endproc
ARM GAS  C:\Users\LAIR\AppData\Local\Temp\ccjrpnb6.s 			page 26


 620              	.LFE76:
 621              		.size	USBFS_ControlWriteStatusStage, .-USBFS_ControlWriteStatusStage
 622              		.section	.text.USBFS_NoDataControlStatusStage,"ax",%progbits
 623              		.align	2
 624              		.global	USBFS_NoDataControlStatusStage
 625              		.code	16
 626              		.thumb_func
 627              		.type	USBFS_NoDataControlStatusStage, %function
 628              	USBFS_NoDataControlStatusStage:
 629              	.LFB78:
 715:.\Generated_Source\PSoC4/USBFS_drv.c ****     if (0u != USBFS_deviceAddress)
 630              		.loc 1 715 0
 631              		.cfi_startproc
 632 0000 08B5     		push	{r3, lr}
 633              		.cfi_def_cfa_offset 8
 634              		.cfi_offset 3, -8
 635              		.cfi_offset 14, -4
 716:.\Generated_Source\PSoC4/USBFS_drv.c ****     {
 636              		.loc 1 716 0
 637 0002 0B4B     		ldr	r3, .L53
 638 0004 1B78     		ldrb	r3, [r3]
 639 0006 002B     		cmp	r3, #0
 640 0008 07D0     		beq	.L52
 719:.\Generated_Source\PSoC4/USBFS_drv.c ****         USBFS_deviceAddress = 0u;
 641              		.loc 1 719 0
 642 000a 094A     		ldr	r2, .L53
 643 000c 1178     		ldrb	r1, [r2]
 644 000e 8023     		mov	r3, #128
 645 0010 0B43     		orr	r3, r1
 646 0012 0849     		ldr	r1, .L53+4
 647 0014 0B60     		str	r3, [r1]
 720:.\Generated_Source\PSoC4/USBFS_drv.c ****     }
 648              		.loc 1 720 0
 649 0016 0023     		mov	r3, #0
 650 0018 1370     		strb	r3, [r2]
 651              	.L52:
 723:.\Generated_Source\PSoC4/USBFS_drv.c ****     
 652              		.loc 1 723 0
 653 001a 0022     		mov	r2, #0
 654 001c 064B     		ldr	r3, .L53+8
 655 001e 1A70     		strb	r2, [r3]
 726:.\Generated_Source\PSoC4/USBFS_drv.c ****     
 656              		.loc 1 726 0
 657 0020 0120     		mov	r0, #1
 658 0022 FFF7FEFF 		bl	USBFS_UpdateStatusBlock
 659              	.LVL32:
 729:.\Generated_Source\PSoC4/USBFS_drv.c **** }
 660              		.loc 1 729 0
 661 0026 0322     		mov	r2, #3
 662 0028 044B     		ldr	r3, .L53+12
 663 002a 1A70     		strb	r2, [r3]
 730:.\Generated_Source\PSoC4/USBFS_drv.c **** 
 664              		.loc 1 730 0
 665              		@ sp needed
 666 002c 08BD     		pop	{r3, pc}
 667              	.L54:
 668 002e C046     		.align	2
ARM GAS  C:\Users\LAIR\AppData\Local\Temp\ccjrpnb6.s 			page 27


 669              	.L53:
 670 0030 00000000 		.word	USBFS_deviceAddress
 671 0034 20002C40 		.word	1076625440
 672 0038 00000000 		.word	USBFS_transferState
 673 003c 00000000 		.word	USBFS_ep0Mode
 674              		.cfi_endproc
 675              	.LFE78:
 676              		.size	USBFS_NoDataControlStatusStage, .-USBFS_NoDataControlStatusStage
 677              		.section	.text.USBFS_HandleIN,"ax",%progbits
 678              		.align	2
 679              		.global	USBFS_HandleIN
 680              		.code	16
 681              		.thumb_func
 682              		.type	USBFS_HandleIN, %function
 683              	USBFS_HandleIN:
 684              	.LFB67:
 260:.\Generated_Source\PSoC4/USBFS_drv.c ****     switch (USBFS_transferState)
 685              		.loc 1 260 0
 686              		.cfi_startproc
 687 0000 08B5     		push	{r3, lr}
 688              		.cfi_def_cfa_offset 8
 689              		.cfi_offset 3, -8
 690              		.cfi_offset 14, -4
 261:.\Generated_Source\PSoC4/USBFS_drv.c ****     {
 691              		.loc 1 261 0
 692 0002 094B     		ldr	r3, .L60
 693 0004 1B78     		ldrb	r3, [r3]
 694 0006 DBB2     		uxtb	r3, r3
 695 0008 042B     		cmp	r3, #4
 696 000a 06D0     		beq	.L57
 697 000c 062B     		cmp	r3, #6
 698 000e 07D0     		beq	.L58
 699 0010 022B     		cmp	r3, #2
 700 0012 07D1     		bne	.L55
 267:.\Generated_Source\PSoC4/USBFS_drv.c ****             break;
 701              		.loc 1 267 0
 702 0014 FFF7FEFF 		bl	USBFS_ControlReadDataStage
 703              	.LVL33:
 268:.\Generated_Source\PSoC4/USBFS_drv.c ****             
 704              		.loc 1 268 0
 705 0018 04E0     		b	.L55
 706              	.L57:
 271:.\Generated_Source\PSoC4/USBFS_drv.c ****             break;
 707              		.loc 1 271 0
 708 001a FFF7FEFF 		bl	USBFS_ControlWriteStatusStage
 709              	.LVL34:
 272:.\Generated_Source\PSoC4/USBFS_drv.c ****             
 710              		.loc 1 272 0
 711 001e 01E0     		b	.L55
 712              	.L58:
 275:.\Generated_Source\PSoC4/USBFS_drv.c ****             break;
 713              		.loc 1 275 0
 714 0020 FFF7FEFF 		bl	USBFS_NoDataControlStatusStage
 715              	.LVL35:
 716              	.L55:
 281:.\Generated_Source\PSoC4/USBFS_drv.c **** 
 717              		.loc 1 281 0
ARM GAS  C:\Users\LAIR\AppData\Local\Temp\ccjrpnb6.s 			page 28


 718              		@ sp needed
 719 0024 08BD     		pop	{r3, pc}
 720              	.L61:
 721 0026 C046     		.align	2
 722              	.L60:
 723 0028 00000000 		.word	USBFS_transferState
 724              		.cfi_endproc
 725              	.LFE67:
 726              		.size	USBFS_HandleIN, .-USBFS_HandleIN
 727              		.section	.text.USBFS_EP_0_ISR,"ax",%progbits
 728              		.align	2
 729              		.global	USBFS_EP_0_ISR
 730              		.code	16
 731              		.thumb_func
 732              		.type	USBFS_EP_0_ISR, %function
 733              	USBFS_EP_0_ISR:
 734              	.LFB65:
  95:.\Generated_Source\PSoC4/USBFS_drv.c ****     uint32 tempReg;
 735              		.loc 1 95 0
 736              		.cfi_startproc
 737 0000 08B5     		push	{r3, lr}
 738              		.cfi_def_cfa_offset 8
 739              		.cfi_offset 3, -8
 740              		.cfi_offset 14, -4
 103:.\Generated_Source\PSoC4/USBFS_drv.c ****     if ((tempReg & USBFS_MODE_ACKD) != 0u)
 741              		.loc 1 103 0
 742 0002 264B     		ldr	r3, .L72
 743 0004 1B68     		ldr	r3, [r3]
 744              	.LVL36:
 104:.\Generated_Source\PSoC4/USBFS_drv.c ****     {
 745              		.loc 1 104 0
 746 0006 DA06     		lsl	r2, r3, #27
 747 0008 43D5     		bpl	.L63
 748              	.LVL37:
 107:.\Generated_Source\PSoC4/USBFS_drv.c ****         {
 749              		.loc 1 107 0
 750 000a 1A06     		lsl	r2, r3, #24
 751 000c 0CD5     		bpl	.L64
 109:.\Generated_Source\PSoC4/USBFS_drv.c ****             {
 752              		.loc 1 109 0
 753 000e 0F22     		mov	r2, #15
 754 0010 1340     		and	r3, r2
 755              	.LVL38:
 756 0012 012B     		cmp	r3, #1
 757 0014 14D1     		bne	.L69
 116:.\Generated_Source\PSoC4/USBFS_drv.c ****                 
 758              		.loc 1 116 0
 759 0016 FFF7FEFF 		bl	USBFS_HandleSetup
 760              	.LVL39:
 118:.\Generated_Source\PSoC4/USBFS_drv.c ****                 {
 761              		.loc 1 118 0
 762 001a 214B     		ldr	r3, .L72+4
 763 001c 1B78     		ldrb	r3, [r3]
 764 001e 5BB2     		sxtb	r3, r3
 765 0020 002B     		cmp	r3, #0
 766 0022 0FDB     		blt	.L70
 106:.\Generated_Source\PSoC4/USBFS_drv.c ****         if ((tempReg & USBFS_MODE_SETUP_RCVD) != 0u)
ARM GAS  C:\Users\LAIR\AppData\Local\Temp\ccjrpnb6.s 			page 29


 767              		.loc 1 106 0
 768 0024 0123     		mov	r3, #1
 769 0026 10E0     		b	.L65
 770              	.LVL40:
 771              	.L64:
 125:.\Generated_Source\PSoC4/USBFS_drv.c ****         {
 772              		.loc 1 125 0
 773 0028 5A06     		lsl	r2, r3, #25
 774 002a 03D5     		bpl	.L66
 127:.\Generated_Source\PSoC4/USBFS_drv.c ****         }
 775              		.loc 1 127 0
 776 002c FFF7FEFF 		bl	USBFS_HandleIN
 777              	.LVL41:
 106:.\Generated_Source\PSoC4/USBFS_drv.c ****         if ((tempReg & USBFS_MODE_SETUP_RCVD) != 0u)
 778              		.loc 1 106 0
 779 0030 0123     		mov	r3, #1
 780 0032 0AE0     		b	.L65
 781              	.LVL42:
 782              	.L66:
 129:.\Generated_Source\PSoC4/USBFS_drv.c ****         {
 783              		.loc 1 129 0
 784 0034 9B06     		lsl	r3, r3, #26
 785 0036 07D5     		bpl	.L71
 786              	.LVL43:
 131:.\Generated_Source\PSoC4/USBFS_drv.c ****         }
 787              		.loc 1 131 0
 788 0038 FFF7FEFF 		bl	USBFS_HandleOUT
 789              	.LVL44:
 106:.\Generated_Source\PSoC4/USBFS_drv.c ****         if ((tempReg & USBFS_MODE_SETUP_RCVD) != 0u)
 790              		.loc 1 106 0
 791 003c 0123     		mov	r3, #1
 792 003e 04E0     		b	.L65
 793              	.L69:
 112:.\Generated_Source\PSoC4/USBFS_drv.c ****             }
 794              		.loc 1 112 0
 795 0040 0023     		mov	r3, #0
 796 0042 02E0     		b	.L65
 797              	.L70:
 121:.\Generated_Source\PSoC4/USBFS_drv.c ****                 }
 798              		.loc 1 121 0
 799 0044 0023     		mov	r3, #0
 800 0046 00E0     		b	.L65
 801              	.L71:
 135:.\Generated_Source\PSoC4/USBFS_drv.c ****         }
 802              		.loc 1 135 0
 803 0048 0023     		mov	r3, #0
 804              	.L65:
 805              	.LVL45:
 139:.\Generated_Source\PSoC4/USBFS_drv.c ****         {
 806              		.loc 1 139 0
 807 004a 002B     		cmp	r3, #0
 808 004c 21D0     		beq	.L63
 142:.\Generated_Source\PSoC4/USBFS_drv.c ****             
 809              		.loc 1 142 0
 810 004e 134B     		ldr	r3, .L72
 811              	.LVL46:
 812 0050 1B68     		ldr	r3, [r3]
ARM GAS  C:\Users\LAIR\AppData\Local\Temp\ccjrpnb6.s 			page 30


 813              	.LVL47:
 145:.\Generated_Source\PSoC4/USBFS_drv.c ****             {
 814              		.loc 1 145 0
 815 0052 1B06     		lsl	r3, r3, #24
 816 0054 1DD4     		bmi	.L63
 817              	.LVL48:
 148:.\Generated_Source\PSoC4/USBFS_drv.c ****                 USBFS_EP0_CNT_REG = tempReg;
 818              		.loc 1 148 0
 819 0056 134B     		ldr	r3, .L72+8
 820 0058 1B78     		ldrb	r3, [r3]
 821 005a 134A     		ldr	r2, .L72+12
 822 005c 1278     		ldrb	r2, [r2]
 823 005e 1343     		orr	r3, r2
 824              	.LVL49:
 149:.\Generated_Source\PSoC4/USBFS_drv.c ****                
 825              		.loc 1 149 0
 826 0060 124A     		ldr	r2, .L72+16
 827 0062 1360     		str	r3, [r2]
 152:.\Generated_Source\PSoC4/USBFS_drv.c ****                 {
 828              		.loc 1 152 0
 829 0064 1268     		ldr	r2, [r2]
 830 0066 9A42     		cmp	r2, r3
 831 0068 13D1     		bne	.L63
 832              	.LVL50:
 833              	.L68:
 158:.\Generated_Source\PSoC4/USBFS_drv.c ****                         
 834              		.loc 1 158 0
 835 006a 0D4B     		ldr	r3, .L72+4
 836 006c 1B78     		ldrb	r3, [r3]
 837 006e DBB2     		uxtb	r3, r3
 838              	.LVL51:
 161:.\Generated_Source\PSoC4/USBFS_drv.c ****                         
 839              		.loc 1 161 0
 840 0070 0A4A     		ldr	r2, .L72
 841 0072 1268     		ldr	r2, [r2]
 842              	.LVL52:
 164:.\Generated_Source\PSoC4/USBFS_drv.c ****                         {
 843              		.loc 1 164 0
 844 0074 1206     		lsl	r2, r2, #24
 845 0076 07D4     		bmi	.L67
 846              	.LVL53:
 167:.\Generated_Source\PSoC4/USBFS_drv.c ****                             
 847              		.loc 1 167 0
 848 0078 094B     		ldr	r3, .L72+4
 849              	.LVL54:
 850 007a 1B78     		ldrb	r3, [r3]
 851 007c DBB2     		uxtb	r3, r3
 852 007e 074A     		ldr	r2, .L72
 853 0080 1360     		str	r3, [r2]
 170:.\Generated_Source\PSoC4/USBFS_drv.c ****                         }
 854              		.loc 1 170 0
 855 0082 1368     		ldr	r3, [r2]
 856 0084 0F22     		mov	r2, #15
 857 0086 1340     		and	r3, r2
 858              	.LVL55:
 859              	.L67:
 173:.\Generated_Source\PSoC4/USBFS_drv.c ****                 }
ARM GAS  C:\Users\LAIR\AppData\Local\Temp\ccjrpnb6.s 			page 31


 860              		.loc 1 173 0
 861 0088 054A     		ldr	r2, .L72+4
 862 008a 1278     		ldrb	r2, [r2]
 863 008c D2B2     		uxtb	r2, r2
 864 008e 9A42     		cmp	r2, r3
 865 0090 EBD1     		bne	.L68
 866              	.LVL56:
 867              	.L63:
 179:.\Generated_Source\PSoC4/USBFS_drv.c **** 	
 868              		.loc 1 179 0
 869 0092 0422     		mov	r2, #4
 870 0094 064B     		ldr	r3, .L72+20
 871 0096 1A60     		str	r2, [r3]
 184:.\Generated_Source\PSoC4/USBFS_drv.c **** 
 872              		.loc 1 184 0
 873              		@ sp needed
 874 0098 08BD     		pop	{r3, pc}
 875              	.L73:
 876 009a C046     		.align	2
 877              	.L72:
 878 009c A0002C40 		.word	1076625568
 879 00a0 00000000 		.word	USBFS_ep0Mode
 880 00a4 00000000 		.word	USBFS_ep0Toggle
 881 00a8 00000000 		.word	USBFS_ep0Count
 882 00ac A4002C40 		.word	1076625572
 883 00b0 20202C40 		.word	1076633632
 884              		.cfi_endproc
 885              	.LFE65:
 886              		.size	USBFS_EP_0_ISR, .-USBFS_EP_0_ISR
 887              		.section	.text.USBFS_InitializeStatusBlock,"ax",%progbits
 888              		.align	2
 889              		.global	USBFS_InitializeStatusBlock
 890              		.code	16
 891              		.thumb_func
 892              		.type	USBFS_InitializeStatusBlock, %function
 893              	USBFS_InitializeStatusBlock:
 894              	.LFB80:
 763:.\Generated_Source\PSoC4/USBFS_drv.c **** 
 764:.\Generated_Source\PSoC4/USBFS_drv.c **** 
 765:.\Generated_Source\PSoC4/USBFS_drv.c **** /*******************************************************************************
 766:.\Generated_Source\PSoC4/USBFS_drv.c **** * Function Name: USBFS_InitializeStatusBlock
 767:.\Generated_Source\PSoC4/USBFS_drv.c **** ****************************************************************************//**
 768:.\Generated_Source\PSoC4/USBFS_drv.c **** *
 769:.\Generated_Source\PSoC4/USBFS_drv.c **** *  Initialize the Completion Status Block for a Request.  The completion
 770:.\Generated_Source\PSoC4/USBFS_drv.c **** *  code is set to USB_XFER_IDLE.
 771:.\Generated_Source\PSoC4/USBFS_drv.c **** *
 772:.\Generated_Source\PSoC4/USBFS_drv.c **** *  Also, initializes USBFS_transferByteCount.  Save some space,
 773:.\Generated_Source\PSoC4/USBFS_drv.c **** *  this is the only consumer.
 774:.\Generated_Source\PSoC4/USBFS_drv.c **** *
 775:.\Generated_Source\PSoC4/USBFS_drv.c **** * \globalvars
 776:.\Generated_Source\PSoC4/USBFS_drv.c **** *  USBFS_currentTD.pStatusBlock->status - set to XFER_IDLE.
 777:.\Generated_Source\PSoC4/USBFS_drv.c **** *  USBFS_currentTD.pStatusBlock->length - cleared.
 778:.\Generated_Source\PSoC4/USBFS_drv.c **** *  USBFS_transferByteCount - cleared.
 779:.\Generated_Source\PSoC4/USBFS_drv.c **** *
 780:.\Generated_Source\PSoC4/USBFS_drv.c **** * \reentrant
 781:.\Generated_Source\PSoC4/USBFS_drv.c **** *  No.
 782:.\Generated_Source\PSoC4/USBFS_drv.c **** *
ARM GAS  C:\Users\LAIR\AppData\Local\Temp\ccjrpnb6.s 			page 32


 783:.\Generated_Source\PSoC4/USBFS_drv.c **** *******************************************************************************/
 784:.\Generated_Source\PSoC4/USBFS_drv.c **** void USBFS_InitializeStatusBlock(void) 
 785:.\Generated_Source\PSoC4/USBFS_drv.c **** {
 895              		.loc 1 785 0
 896              		.cfi_startproc
 786:.\Generated_Source\PSoC4/USBFS_drv.c ****     USBFS_transferByteCount = 0u;
 897              		.loc 1 786 0
 898 0000 0022     		mov	r2, #0
 899 0002 064B     		ldr	r3, .L76
 900 0004 1A80     		strh	r2, [r3]
 787:.\Generated_Source\PSoC4/USBFS_drv.c ****     
 788:.\Generated_Source\PSoC4/USBFS_drv.c ****     if (USBFS_currentTD.pStatusBlock != NULL)
 901              		.loc 1 788 0
 902 0006 064B     		ldr	r3, .L76+4
 903 0008 9B68     		ldr	r3, [r3, #8]
 904 000a 002B     		cmp	r3, #0
 905 000c 05D0     		beq	.L74
 789:.\Generated_Source\PSoC4/USBFS_drv.c ****     {
 790:.\Generated_Source\PSoC4/USBFS_drv.c ****         USBFS_currentTD.pStatusBlock->status = USBFS_XFER_IDLE;
 906              		.loc 1 790 0
 907 000e 044A     		ldr	r2, .L76+4
 908 0010 9168     		ldr	r1, [r2, #8]
 909 0012 0023     		mov	r3, #0
 910 0014 0B70     		strb	r3, [r1]
 791:.\Generated_Source\PSoC4/USBFS_drv.c ****         USBFS_currentTD.pStatusBlock->length = 0u;
 911              		.loc 1 791 0
 912 0016 9268     		ldr	r2, [r2, #8]
 913 0018 5380     		strh	r3, [r2, #2]
 914              	.L74:
 792:.\Generated_Source\PSoC4/USBFS_drv.c ****     }
 793:.\Generated_Source\PSoC4/USBFS_drv.c **** }
 915              		.loc 1 793 0
 916              		@ sp needed
 917 001a 7047     		bx	lr
 918              	.L77:
 919              		.align	2
 920              	.L76:
 921 001c 00000000 		.word	USBFS_transferByteCount
 922 0020 00000000 		.word	USBFS_currentTD
 923              		.cfi_endproc
 924              	.LFE80:
 925              		.size	USBFS_InitializeStatusBlock, .-USBFS_InitializeStatusBlock
 926              		.section	.text.USBFS_InitControlRead,"ax",%progbits
 927              		.align	2
 928              		.global	USBFS_InitControlRead
 929              		.code	16
 930              		.thumb_func
 931              		.type	USBFS_InitControlRead, %function
 932              	USBFS_InitControlRead:
 933              	.LFB70:
 419:.\Generated_Source\PSoC4/USBFS_drv.c ****     uint16 xferCount;
 934              		.loc 1 419 0
 935              		.cfi_startproc
 936 0000 08B5     		push	{r3, lr}
 937              		.cfi_def_cfa_offset 8
 938              		.cfi_offset 3, -8
 939              		.cfi_offset 14, -4
ARM GAS  C:\Users\LAIR\AppData\Local\Temp\ccjrpnb6.s 			page 33


 422:.\Generated_Source\PSoC4/USBFS_drv.c ****     {
 940              		.loc 1 422 0
 941 0002 114B     		ldr	r3, .L82
 942 0004 1B88     		ldrh	r3, [r3]
 943 0006 9BB2     		uxth	r3, r3
 944 0008 002B     		cmp	r3, #0
 945 000a 02D1     		bne	.L79
 424:.\Generated_Source\PSoC4/USBFS_drv.c ****     }
 946              		.loc 1 424 0
 947 000c FFF7FEFF 		bl	USBFS_InitZeroLengthControlTransfer
 948              	.LVL57:
 949 0010 18E0     		b	.L80
 950              	.L79:
 429:.\Generated_Source\PSoC4/USBFS_drv.c ****         
 951              		.loc 1 429 0
 952 0012 0222     		mov	r2, #2
 953 0014 0D4B     		ldr	r3, .L82+4
 954 0016 1A70     		strb	r2, [r3]
 432:.\Generated_Source\PSoC4/USBFS_drv.c ****         
 955              		.loc 1 432 0
 956 0018 0022     		mov	r2, #0
 957 001a 0D4B     		ldr	r3, .L82+8
 958 001c 1A70     		strb	r2, [r3]
 435:.\Generated_Source\PSoC4/USBFS_drv.c ****         
 959              		.loc 1 435 0
 960 001e FFF7FEFF 		bl	USBFS_InitializeStatusBlock
 961              	.LVL58:
 437:.\Generated_Source\PSoC4/USBFS_drv.c **** 
 962              		.loc 1 437 0
 963 0022 0C4A     		ldr	r2, .L82+12
 964 0024 D369     		ldr	r3, [r2, #28]
 965 0026 9BB2     		uxth	r3, r3
 966 0028 1B02     		lsl	r3, r3, #8
 967 002a 9BB2     		uxth	r3, r3
 968 002c 9269     		ldr	r2, [r2, #24]
 969 002e 92B2     		uxth	r2, r2
 970 0030 1343     		orr	r3, r2
 971              	.LVL59:
 439:.\Generated_Source\PSoC4/USBFS_drv.c ****         {
 972              		.loc 1 439 0
 973 0032 054A     		ldr	r2, .L82
 974 0034 1288     		ldrh	r2, [r2]
 975 0036 92B2     		uxth	r2, r2
 976 0038 9A42     		cmp	r2, r3
 977 003a 01D9     		bls	.L81
 441:.\Generated_Source\PSoC4/USBFS_drv.c ****         }
 978              		.loc 1 441 0
 979 003c 024A     		ldr	r2, .L82
 980 003e 1380     		strh	r3, [r2]
 981              	.L81:
 444:.\Generated_Source\PSoC4/USBFS_drv.c ****     }
 982              		.loc 1 444 0
 983 0040 FFF7FEFF 		bl	USBFS_LoadEP0
 984              	.LVL60:
 985              	.L80:
 448:.\Generated_Source\PSoC4/USBFS_drv.c **** 
 986              		.loc 1 448 0
ARM GAS  C:\Users\LAIR\AppData\Local\Temp\ccjrpnb6.s 			page 34


 987 0044 0120     		mov	r0, #1
 988              		@ sp needed
 989 0046 08BD     		pop	{r3, pc}
 990              	.L83:
 991              		.align	2
 992              	.L82:
 993 0048 00000000 		.word	USBFS_currentTD
 994 004c 00000000 		.word	USBFS_transferState
 995 0050 00000000 		.word	USBFS_ep0Toggle
 996 0054 00002C40 		.word	1076625408
 997              		.cfi_endproc
 998              	.LFE70:
 999              		.size	USBFS_InitControlRead, .-USBFS_InitControlRead
 1000              		.section	.text.USBFS_InitControlWrite,"ax",%progbits
 1001              		.align	2
 1002              		.global	USBFS_InitControlWrite
 1003              		.code	16
 1004              		.thumb_func
 1005              		.type	USBFS_InitControlWrite, %function
 1006              	USBFS_InitControlWrite:
 1007              	.LFB74:
 561:.\Generated_Source\PSoC4/USBFS_drv.c ****     uint16 xferCount;
 1008              		.loc 1 561 0
 1009              		.cfi_startproc
 1010 0000 08B5     		push	{r3, lr}
 1011              		.cfi_def_cfa_offset 8
 1012              		.cfi_offset 3, -8
 1013              		.cfi_offset 14, -4
 565:.\Generated_Source\PSoC4/USBFS_drv.c ****     
 1014              		.loc 1 565 0
 1015 0002 0422     		mov	r2, #4
 1016 0004 0D4B     		ldr	r3, .L86
 1017 0006 1A70     		strb	r2, [r3]
 568:.\Generated_Source\PSoC4/USBFS_drv.c ****     
 1018              		.loc 1 568 0
 1019 0008 7C32     		add	r2, r2, #124
 1020 000a 0D4B     		ldr	r3, .L86+4
 1021 000c 1A70     		strb	r2, [r3]
 571:.\Generated_Source\PSoC4/USBFS_drv.c **** 
 1022              		.loc 1 571 0
 1023 000e FFF7FEFF 		bl	USBFS_InitializeStatusBlock
 1024              	.LVL61:
 573:.\Generated_Source\PSoC4/USBFS_drv.c **** 
 1025              		.loc 1 573 0
 1026 0012 0C4A     		ldr	r2, .L86+8
 1027 0014 D369     		ldr	r3, [r2, #28]
 1028 0016 9BB2     		uxth	r3, r3
 1029 0018 1B02     		lsl	r3, r3, #8
 1030 001a 9BB2     		uxth	r3, r3
 1031 001c 9269     		ldr	r2, [r2, #24]
 1032 001e 92B2     		uxth	r2, r2
 1033 0020 1343     		orr	r3, r2
 1034              	.LVL62:
 575:.\Generated_Source\PSoC4/USBFS_drv.c ****     {
 1035              		.loc 1 575 0
 1036 0022 094A     		ldr	r2, .L86+12
 1037 0024 1288     		ldrh	r2, [r2]
ARM GAS  C:\Users\LAIR\AppData\Local\Temp\ccjrpnb6.s 			page 35


 1038 0026 92B2     		uxth	r2, r2
 1039 0028 9A42     		cmp	r2, r3
 1040 002a 01D9     		bls	.L85
 577:.\Generated_Source\PSoC4/USBFS_drv.c ****     }
 1041              		.loc 1 577 0
 1042 002c 064A     		ldr	r2, .L86+12
 1043 002e 1380     		strh	r3, [r2]
 1044              	.L85:
 581:.\Generated_Source\PSoC4/USBFS_drv.c **** 
 1045              		.loc 1 581 0
 1046 0030 0B22     		mov	r2, #11
 1047 0032 064B     		ldr	r3, .L86+16
 1048              	.LVL63:
 1049 0034 1A70     		strb	r2, [r3]
 584:.\Generated_Source\PSoC4/USBFS_drv.c **** 
 1050              		.loc 1 584 0
 1051 0036 0120     		mov	r0, #1
 1052              		@ sp needed
 1053 0038 08BD     		pop	{r3, pc}
 1054              	.L87:
 1055 003a C046     		.align	2
 1056              	.L86:
 1057 003c 00000000 		.word	USBFS_transferState
 1058 0040 00000000 		.word	USBFS_ep0Toggle
 1059 0044 00002C40 		.word	1076625408
 1060 0048 00000000 		.word	USBFS_currentTD
 1061 004c 00000000 		.word	USBFS_ep0Mode
 1062              		.cfi_endproc
 1063              	.LFE74:
 1064              		.size	USBFS_InitControlWrite, .-USBFS_InitControlWrite
 1065              		.comm	USBFS_transferByteCount,2,2
 1066              		.comm	USBFS_ep0Count,1,1
 1067              		.comm	USBFS_ep0Mode,1,1
 1068              		.comm	USBFS_currentTD,12,4
 1069              		.comm	USBFS_transferState,1,1
 1070              		.comm	USBFS_lastPacketSize,1,1
 1071              		.comm	USBFS_ep0Toggle,1,1
 1072              		.comm	USBFS_interfaceClass,4,4
 1073              		.comm	USBFS_device,1,1
 1074              		.comm	USBFS_interfaceStatus,1,4
 1075              		.comm	USBFS_interfaceSettingLast,1,4
 1076              		.comm	USBFS_interfaceSetting,1,4
 1077              		.comm	USBFS_deviceStatus,1,1
 1078              		.comm	USBFS_deviceAddress,1,1
 1079              		.comm	USBFS_configurationChanged,1,1
 1080              		.comm	USBFS_interfaceNumber,1,1
 1081              		.comm	USBFS_configuration,1,1
 1082              		.comm	USBFS_EP,108,4
 1083              		.text
 1084              	.Letext0:
 1085              		.file 2 ".\\Generated_Source\\PSoC4\\cytypes.h"
 1086              		.file 3 ".\\Generated_Source\\PSoC4\\USBFS.h"
 1087              		.file 4 ".\\Generated_Source\\PSoC4\\USBFS_pvt.h"