ARM GAS  C:\Users\LAIR\AppData\Local\Temp\ccCKtTdm.s 			page 1


   1              		.cpu cortex-m0
   2              		.fpu softvfp
   3              		.eabi_attribute 20, 1
   4              		.eabi_attribute 21, 1
   5              		.eabi_attribute 23, 3
   6              		.eabi_attribute 24, 1
   7              		.eabi_attribute 25, 1
   8              		.eabi_attribute 26, 1
   9              		.eabi_attribute 30, 1
  10              		.eabi_attribute 34, 0
  11              		.eabi_attribute 18, 4
  12              		.code	16
  13              		.file	"USBFS_pm.c"
  14              		.text
  15              	.Ltext0:
  16              		.cfi_sections	.debug_frame
  17              		.section	.text.USBFS_DP_ISR,"ax",%progbits
  18              		.align	2
  19              		.global	USBFS_DP_ISR
  20              		.code	16
  21              		.thumb_func
  22              		.type	USBFS_DP_ISR, %function
  23              	USBFS_DP_ISR:
  24              	.LFB65:
  25              		.file 1 ".\\Generated_Source\\PSoC4\\USBFS_pm.c"
   1:.\Generated_Source\PSoC4/USBFS_pm.c **** /***************************************************************************//**
   2:.\Generated_Source\PSoC4/USBFS_pm.c **** * \file USBFS_pm.c
   3:.\Generated_Source\PSoC4/USBFS_pm.c **** * \version 3.0
   4:.\Generated_Source\PSoC4/USBFS_pm.c **** *
   5:.\Generated_Source\PSoC4/USBFS_pm.c **** * \brief
   6:.\Generated_Source\PSoC4/USBFS_pm.c **** *  This file provides Suspend/Resume APIs implementation.
   7:.\Generated_Source\PSoC4/USBFS_pm.c **** *
   8:.\Generated_Source\PSoC4/USBFS_pm.c **** ********************************************************************************
   9:.\Generated_Source\PSoC4/USBFS_pm.c **** * \copyright
  10:.\Generated_Source\PSoC4/USBFS_pm.c **** * Copyright 2008-2015, Cypress Semiconductor Corporation.  All rights reserved.
  11:.\Generated_Source\PSoC4/USBFS_pm.c **** * You may use this file only in accordance with the license, terms, conditions,
  12:.\Generated_Source\PSoC4/USBFS_pm.c **** * disclaimers, and limitations in the end user license agreement accompanying
  13:.\Generated_Source\PSoC4/USBFS_pm.c **** * the software package with which this file was provided.
  14:.\Generated_Source\PSoC4/USBFS_pm.c **** *******************************************************************************/
  15:.\Generated_Source\PSoC4/USBFS_pm.c **** 
  16:.\Generated_Source\PSoC4/USBFS_pm.c **** #include "USBFS_pvt.h"
  17:.\Generated_Source\PSoC4/USBFS_pm.c **** #include "USBFS_Dp.h"
  18:.\Generated_Source\PSoC4/USBFS_pm.c **** #include "cyapicallbacks.h"
  19:.\Generated_Source\PSoC4/USBFS_pm.c **** 
  20:.\Generated_Source\PSoC4/USBFS_pm.c **** /***************************************
  21:.\Generated_Source\PSoC4/USBFS_pm.c **** * Custom Declarations
  22:.\Generated_Source\PSoC4/USBFS_pm.c **** ***************************************/
  23:.\Generated_Source\PSoC4/USBFS_pm.c **** /* `#START PM_CUSTOM_DECLARATIONS` Place your declaration here */
  24:.\Generated_Source\PSoC4/USBFS_pm.c **** 
  25:.\Generated_Source\PSoC4/USBFS_pm.c **** /* `#END` */
  26:.\Generated_Source\PSoC4/USBFS_pm.c **** 
  27:.\Generated_Source\PSoC4/USBFS_pm.c **** 
  28:.\Generated_Source\PSoC4/USBFS_pm.c **** /***************************************
  29:.\Generated_Source\PSoC4/USBFS_pm.c **** * Local data allocation
  30:.\Generated_Source\PSoC4/USBFS_pm.c **** ***************************************/
  31:.\Generated_Source\PSoC4/USBFS_pm.c **** 
  32:.\Generated_Source\PSoC4/USBFS_pm.c **** static USBFS_BACKUP_STRUCT  USBFS_backup;
ARM GAS  C:\Users\LAIR\AppData\Local\Temp\ccCKtTdm.s 			page 2


  33:.\Generated_Source\PSoC4/USBFS_pm.c **** 
  34:.\Generated_Source\PSoC4/USBFS_pm.c **** #if (USBFS_DP_ISR_ACTIVE)
  35:.\Generated_Source\PSoC4/USBFS_pm.c ****     /*******************************************************************************
  36:.\Generated_Source\PSoC4/USBFS_pm.c ****     * Function Name: USBFS_DP_ISR
  37:.\Generated_Source\PSoC4/USBFS_pm.c ****     ****************************************************************************//**
  38:.\Generated_Source\PSoC4/USBFS_pm.c ****     *
  39:.\Generated_Source\PSoC4/USBFS_pm.c ****     *  This Interrupt Service Routine handles DP pin changes for wake-up from
  40:.\Generated_Source\PSoC4/USBFS_pm.c ****     *  the sleep mode.
  41:.\Generated_Source\PSoC4/USBFS_pm.c ****     *
  42:.\Generated_Source\PSoC4/USBFS_pm.c ****     *******************************************************************************/
  43:.\Generated_Source\PSoC4/USBFS_pm.c ****     CY_ISR(USBFS_DP_ISR)
  44:.\Generated_Source\PSoC4/USBFS_pm.c ****     {
  26              		.loc 1 44 0
  27              		.cfi_startproc
  28 0000 08B5     		push	{r3, lr}
  29              		.cfi_def_cfa_offset 8
  30              		.cfi_offset 3, -8
  31              		.cfi_offset 14, -4
  45:.\Generated_Source\PSoC4/USBFS_pm.c ****     #ifdef USBFS_DP_ISR_ENTRY_CALLBACK
  46:.\Generated_Source\PSoC4/USBFS_pm.c ****         USBFS_DP_ISR_EntryCallback();
  47:.\Generated_Source\PSoC4/USBFS_pm.c ****     #endif /* (USBFS_DP_ISR_ENTRY_CALLBACK) */
  48:.\Generated_Source\PSoC4/USBFS_pm.c **** 
  49:.\Generated_Source\PSoC4/USBFS_pm.c ****         /* `#START DP_USER_CODE` Place your code here */
  50:.\Generated_Source\PSoC4/USBFS_pm.c **** 
  51:.\Generated_Source\PSoC4/USBFS_pm.c ****         /* `#END` */
  52:.\Generated_Source\PSoC4/USBFS_pm.c **** 
  53:.\Generated_Source\PSoC4/USBFS_pm.c ****         (void) USBFS_Dp_ClearInterrupt();
  32              		.loc 1 53 0
  33 0002 FFF7FEFF 		bl	USBFS_Dp_ClearInterrupt
  34              	.LVL0:
  54:.\Generated_Source\PSoC4/USBFS_pm.c **** 		
  55:.\Generated_Source\PSoC4/USBFS_pm.c **** 	#ifdef USBFS_DP_ISR_EXIT_CALLBACK
  56:.\Generated_Source\PSoC4/USBFS_pm.c ****         USBFS_DP_ISR_ExitCallback();
  57:.\Generated_Source\PSoC4/USBFS_pm.c ****     #endif /* (USBFS_DP_ISR_EXIT_CALLBACK) */
  58:.\Generated_Source\PSoC4/USBFS_pm.c ****     }
  35              		.loc 1 58 0
  36              		@ sp needed
  37 0006 08BD     		pop	{r3, pc}
  38              		.cfi_endproc
  39              	.LFE65:
  40              		.size	USBFS_DP_ISR, .-USBFS_DP_ISR
  41              		.section	.text.USBFS_SaveConfig,"ax",%progbits
  42              		.align	2
  43              		.global	USBFS_SaveConfig
  44              		.code	16
  45              		.thumb_func
  46              		.type	USBFS_SaveConfig, %function
  47              	USBFS_SaveConfig:
  48              	.LFB66:
  59:.\Generated_Source\PSoC4/USBFS_pm.c **** #endif /* (USBFS_DP_ISR_ACTIVE) */
  60:.\Generated_Source\PSoC4/USBFS_pm.c **** 
  61:.\Generated_Source\PSoC4/USBFS_pm.c **** 
  62:.\Generated_Source\PSoC4/USBFS_pm.c **** /*******************************************************************************
  63:.\Generated_Source\PSoC4/USBFS_pm.c **** * Function Name: USBFS_SaveConfig
  64:.\Generated_Source\PSoC4/USBFS_pm.c **** ****************************************************************************//**
  65:.\Generated_Source\PSoC4/USBFS_pm.c **** *
  66:.\Generated_Source\PSoC4/USBFS_pm.c **** *  Saves the current user configuration.
ARM GAS  C:\Users\LAIR\AppData\Local\Temp\ccCKtTdm.s 			page 3


  67:.\Generated_Source\PSoC4/USBFS_pm.c **** *
  68:.\Generated_Source\PSoC4/USBFS_pm.c **** * \reentrant
  69:.\Generated_Source\PSoC4/USBFS_pm.c **** *  No.
  70:.\Generated_Source\PSoC4/USBFS_pm.c **** *
  71:.\Generated_Source\PSoC4/USBFS_pm.c **** *******************************************************************************/
  72:.\Generated_Source\PSoC4/USBFS_pm.c **** void USBFS_SaveConfig(void) 
  73:.\Generated_Source\PSoC4/USBFS_pm.c **** {
  49              		.loc 1 73 0
  50              		.cfi_startproc
  74:.\Generated_Source\PSoC4/USBFS_pm.c ****     /* Empty function added for the compatibility purpose. */
  75:.\Generated_Source\PSoC4/USBFS_pm.c **** }
  51              		.loc 1 75 0
  52              		@ sp needed
  53 0000 7047     		bx	lr
  54              		.cfi_endproc
  55              	.LFE66:
  56              		.size	USBFS_SaveConfig, .-USBFS_SaveConfig
  57 0002 C046     		.section	.text.USBFS_RestoreConfig,"ax",%progbits
  58              		.align	2
  59              		.global	USBFS_RestoreConfig
  60              		.code	16
  61              		.thumb_func
  62              		.type	USBFS_RestoreConfig, %function
  63              	USBFS_RestoreConfig:
  64              	.LFB67:
  76:.\Generated_Source\PSoC4/USBFS_pm.c **** 
  77:.\Generated_Source\PSoC4/USBFS_pm.c **** 
  78:.\Generated_Source\PSoC4/USBFS_pm.c **** /*******************************************************************************
  79:.\Generated_Source\PSoC4/USBFS_pm.c **** * Function Name: USBFS_RestoreConfig
  80:.\Generated_Source\PSoC4/USBFS_pm.c **** ****************************************************************************//**
  81:.\Generated_Source\PSoC4/USBFS_pm.c **** *
  82:.\Generated_Source\PSoC4/USBFS_pm.c **** *  Restores the current user configuration.
  83:.\Generated_Source\PSoC4/USBFS_pm.c **** *
  84:.\Generated_Source\PSoC4/USBFS_pm.c **** * \reentrant
  85:.\Generated_Source\PSoC4/USBFS_pm.c **** *  No.
  86:.\Generated_Source\PSoC4/USBFS_pm.c **** *
  87:.\Generated_Source\PSoC4/USBFS_pm.c **** *******************************************************************************/
  88:.\Generated_Source\PSoC4/USBFS_pm.c **** void USBFS_RestoreConfig(void) 
  89:.\Generated_Source\PSoC4/USBFS_pm.c **** {
  65              		.loc 1 89 0
  66              		.cfi_startproc
  67 0000 08B5     		push	{r3, lr}
  68              		.cfi_def_cfa_offset 8
  69              		.cfi_offset 3, -8
  70              		.cfi_offset 14, -4
  90:.\Generated_Source\PSoC4/USBFS_pm.c ****     if (USBFS_configuration != 0u)
  71              		.loc 1 90 0
  72 0002 044B     		ldr	r3, .L5
  73 0004 1B78     		ldrb	r3, [r3]
  74 0006 002B     		cmp	r3, #0
  75 0008 03D0     		beq	.L3
  91:.\Generated_Source\PSoC4/USBFS_pm.c ****     {
  92:.\Generated_Source\PSoC4/USBFS_pm.c ****         USBFS_ConfigReg();
  76              		.loc 1 92 0
  77 000a FFF7FEFF 		bl	USBFS_ConfigReg
  78              	.LVL1:
  93:.\Generated_Source\PSoC4/USBFS_pm.c ****         USBFS_EpStateInit();
ARM GAS  C:\Users\LAIR\AppData\Local\Temp\ccCKtTdm.s 			page 4


  79              		.loc 1 93 0
  80 000e FFF7FEFF 		bl	USBFS_EpStateInit
  81              	.LVL2:
  82              	.L3:
  94:.\Generated_Source\PSoC4/USBFS_pm.c ****     }
  95:.\Generated_Source\PSoC4/USBFS_pm.c **** }
  83              		.loc 1 95 0
  84              		@ sp needed
  85 0012 08BD     		pop	{r3, pc}
  86              	.L6:
  87              		.align	2
  88              	.L5:
  89 0014 00000000 		.word	USBFS_configuration
  90              		.cfi_endproc
  91              	.LFE67:
  92              		.size	USBFS_RestoreConfig, .-USBFS_RestoreConfig
  93              		.section	.text.USBFS_Suspend,"ax",%progbits
  94              		.align	2
  95              		.global	USBFS_Suspend
  96              		.code	16
  97              		.thumb_func
  98              		.type	USBFS_Suspend, %function
  99              	USBFS_Suspend:
 100              	.LFB68:
  96:.\Generated_Source\PSoC4/USBFS_pm.c **** 
  97:.\Generated_Source\PSoC4/USBFS_pm.c **** 
  98:.\Generated_Source\PSoC4/USBFS_pm.c **** /*******************************************************************************
  99:.\Generated_Source\PSoC4/USBFS_pm.c **** * Function Name: USBFS_Suspend
 100:.\Generated_Source\PSoC4/USBFS_pm.c **** ****************************************************************************//**
 101:.\Generated_Source\PSoC4/USBFS_pm.c **** *
 102:.\Generated_Source\PSoC4/USBFS_pm.c **** *  This function prepares the USBFS component to enter low power mode. The 
 103:.\Generated_Source\PSoC4/USBFS_pm.c **** *  interrupt on falling edge on Dp pin is configured to wakeup device when the 
 104:.\Generated_Source\PSoC4/USBFS_pm.c **** *  host drives resume condition. The pull-up is enabled on the Dp line while 
 105:.\Generated_Source\PSoC4/USBFS_pm.c **** *  device is in low power mode. The supported low power modes are Deep Sleep 
 106:.\Generated_Source\PSoC4/USBFS_pm.c **** *  (PSoC 4200L) and Sleep (PSoC 3/ PSoC 5LP).
 107:.\Generated_Source\PSoC4/USBFS_pm.c **** *  
 108:.\Generated_Source\PSoC4/USBFS_pm.c **** *  *Note* For PSoC 4200L devices, this function should not be called before 
 109:.\Generated_Source\PSoC4/USBFS_pm.c **** *  entering Sleep.
 110:.\Generated_Source\PSoC4/USBFS_pm.c **** *  
 111:.\Generated_Source\PSoC4/USBFS_pm.c **** *  *Note* After enter low power mode, the data which is left in the IN or OUT 
 112:.\Generated_Source\PSoC4/USBFS_pm.c **** *  endpoint buffers is not restored after wakeup and lost. Therefore it should 
 113:.\Generated_Source\PSoC4/USBFS_pm.c **** *  be stored in the SRAM for OUT endpoint or read by the host for IN endpoint 
 114:.\Generated_Source\PSoC4/USBFS_pm.c **** *  before enter low power mode.
 115:.\Generated_Source\PSoC4/USBFS_pm.c **** *
 116:.\Generated_Source\PSoC4/USBFS_pm.c **** * \globalvars
 117:.\Generated_Source\PSoC4/USBFS_pm.c **** *  USBFS_backup.enable:  modified.
 118:.\Generated_Source\PSoC4/USBFS_pm.c **** *
 119:.\Generated_Source\PSoC4/USBFS_pm.c **** * \reentrant
 120:.\Generated_Source\PSoC4/USBFS_pm.c **** *  No.
 121:.\Generated_Source\PSoC4/USBFS_pm.c **** *
 122:.\Generated_Source\PSoC4/USBFS_pm.c **** *******************************************************************************/
 123:.\Generated_Source\PSoC4/USBFS_pm.c **** void USBFS_Suspend(void) 
 124:.\Generated_Source\PSoC4/USBFS_pm.c **** {
 101              		.loc 1 124 0
 102              		.cfi_startproc
 103 0000 70B5     		push	{r4, r5, r6, lr}
 104              		.cfi_def_cfa_offset 16
ARM GAS  C:\Users\LAIR\AppData\Local\Temp\ccCKtTdm.s 			page 5


 105              		.cfi_offset 4, -16
 106              		.cfi_offset 5, -12
 107              		.cfi_offset 6, -8
 108              		.cfi_offset 14, -4
 125:.\Generated_Source\PSoC4/USBFS_pm.c ****     uint8 enableInterrupts;
 126:.\Generated_Source\PSoC4/USBFS_pm.c **** 
 127:.\Generated_Source\PSoC4/USBFS_pm.c ****     enableInterrupts = CyEnterCriticalSection();
 109              		.loc 1 127 0
 110 0002 FFF7FEFF 		bl	CyEnterCriticalSection
 111              	.LVL3:
 112 0006 041C     		mov	r4, r0
 113              	.LVL4:
 128:.\Generated_Source\PSoC4/USBFS_pm.c **** 
 129:.\Generated_Source\PSoC4/USBFS_pm.c ****     if (0u != (USBFS_CR0_REG & USBFS_CR0_ENABLE))
 114              		.loc 1 129 0
 115 0008 144B     		ldr	r3, .L10
 116 000a 1B68     		ldr	r3, [r3]
 117 000c 1B06     		lsl	r3, r3, #24
 118 000e 16D5     		bpl	.L8
 130:.\Generated_Source\PSoC4/USBFS_pm.c ****     {
 131:.\Generated_Source\PSoC4/USBFS_pm.c ****         /* USB block is enabled. */
 132:.\Generated_Source\PSoC4/USBFS_pm.c ****         USBFS_backup.enableState = 1u;
 119              		.loc 1 132 0
 120 0010 134D     		ldr	r5, .L10+4
 121 0012 0126     		mov	r6, #1
 122 0014 2E70     		strb	r6, [r5]
 133:.\Generated_Source\PSoC4/USBFS_pm.c **** 
 134:.\Generated_Source\PSoC4/USBFS_pm.c ****     #if (USBFS_EP_MANAGEMENT_DMA)
 135:.\Generated_Source\PSoC4/USBFS_pm.c ****         USBFS_Stop_DMA(USBFS_MAX_EP);
 123              		.loc 1 135 0
 124 0016 0920     		mov	r0, #9
 125 0018 FFF7FEFF 		bl	USBFS_Stop_DMA
 126              	.LVL5:
 136:.\Generated_Source\PSoC4/USBFS_pm.c ****     #endif /* (USBFS_EP_MANAGEMENT_DMA) */
 137:.\Generated_Source\PSoC4/USBFS_pm.c **** 
 138:.\Generated_Source\PSoC4/USBFS_pm.c ****     #if (CY_PSOC4)
 139:.\Generated_Source\PSoC4/USBFS_pm.c ****         /* Suspend enter sequence. */
 140:.\Generated_Source\PSoC4/USBFS_pm.c ****         USBFS_POWER_CTRL_REG |= (USBFS_POWER_CTRL_SUSPEND |
 127              		.loc 1 140 0
 128 001c 114A     		ldr	r2, .L10+8
 129 001e 1168     		ldr	r1, [r2]
 130 0020 0C23     		mov	r3, #12
 131 0022 0B43     		orr	r3, r1
 132 0024 1360     		str	r3, [r2]
 141:.\Generated_Source\PSoC4/USBFS_pm.c ****                                             USBFS_POWER_CTRL_SUSPEND_DEL);
 142:.\Generated_Source\PSoC4/USBFS_pm.c **** 
 143:.\Generated_Source\PSoC4/USBFS_pm.c ****         /* Store state of USB regulator and disable it. */
 144:.\Generated_Source\PSoC4/USBFS_pm.c ****         USBFS_backup.mode = (uint8)  (USBFS_CR1_REG & USBFS_CR1_REG_ENABLE);
 133              		.loc 1 144 0
 134 0026 104B     		ldr	r3, .L10+12
 135 0028 1A68     		ldr	r2, [r3]
 136 002a 0121     		mov	r1, #1
 137 002c 0A40     		and	r2, r1
 138 002e 6A70     		strb	r2, [r5, #1]
 145:.\Generated_Source\PSoC4/USBFS_pm.c ****         USBFS_CR1_REG    &= (uint32) ~USBFS_CR1_REG_ENABLE;
 139              		.loc 1 145 0
 140 0030 1A68     		ldr	r2, [r3]
ARM GAS  C:\Users\LAIR\AppData\Local\Temp\ccCKtTdm.s 			page 6


 141 0032 B243     		bic	r2, r6
 142 0034 1A60     		str	r2, [r3]
 146:.\Generated_Source\PSoC4/USBFS_pm.c ****         
 147:.\Generated_Source\PSoC4/USBFS_pm.c ****         /* Store SIE interrupt sources. Valid bits are 0 - 4. */
 148:.\Generated_Source\PSoC4/USBFS_pm.c ****         USBFS_backup.intrSeiMask = (uint8) USBFS_INTR_SIE_MASK_REG;
 143              		.loc 1 148 0
 144 0036 0D4B     		ldr	r3, .L10+16
 145 0038 1B68     		ldr	r3, [r3]
 146 003a AB70     		strb	r3, [r5, #2]
 147 003c 02E0     		b	.L9
 148              	.L8:
 149:.\Generated_Source\PSoC4/USBFS_pm.c **** 
 150:.\Generated_Source\PSoC4/USBFS_pm.c ****     #else
 151:.\Generated_Source\PSoC4/USBFS_pm.c ****         /* Ensure USB transmit enable is low (USB_USBIO_CR0.ten). - Manual Transmission - Disabled.
 152:.\Generated_Source\PSoC4/USBFS_pm.c ****         USBFS_USBIO_CR0_REG &= (uint8) ~USBFS_USBIO_CR0_TEN;
 153:.\Generated_Source\PSoC4/USBFS_pm.c ****         CyDelayUs(USBFS_WAIT_REG_STABILITY_50NS);  /*~50ns delay. */
 154:.\Generated_Source\PSoC4/USBFS_pm.c **** 
 155:.\Generated_Source\PSoC4/USBFS_pm.c ****         /* Disable the USBIO by asserting PM.USB_CR0.fsusbio_pd_n(Inverted) and pd_pullup_hv(Invert
 156:.\Generated_Source\PSoC4/USBFS_pm.c ****         USBFS_PM_USB_CR0_REG &= (uint8) ~(USBFS_PM_USB_CR0_PD_N |
 157:.\Generated_Source\PSoC4/USBFS_pm.c ****                                                      USBFS_PM_USB_CR0_PD_PULLUP_N);
 158:.\Generated_Source\PSoC4/USBFS_pm.c **** 
 159:.\Generated_Source\PSoC4/USBFS_pm.c ****         /* Disable the SIE. */
 160:.\Generated_Source\PSoC4/USBFS_pm.c ****         USBFS_CR0_REG &= (uint8) ~USBFS_CR0_ENABLE;
 161:.\Generated_Source\PSoC4/USBFS_pm.c **** 
 162:.\Generated_Source\PSoC4/USBFS_pm.c ****         CyDelayUs(USBFS_WAIT_REG_STABILITY_50NS);  /* ~50ns delay. */
 163:.\Generated_Source\PSoC4/USBFS_pm.c ****         /* Store mode and disable VRegulator. */
 164:.\Generated_Source\PSoC4/USBFS_pm.c ****         USBFS_backup.mode = (uint8) (USBFS_CR1_REG & USBFS_CR1_REG_ENABLE);
 165:.\Generated_Source\PSoC4/USBFS_pm.c ****         USBFS_CR1_REG    &= (uint8) ~USBFS_CR1_REG_ENABLE;
 166:.\Generated_Source\PSoC4/USBFS_pm.c **** 
 167:.\Generated_Source\PSoC4/USBFS_pm.c ****         CyDelayUs(USBFS_WAIT_REG_STABILITY_1US); /* min 0.5us delay required. */
 168:.\Generated_Source\PSoC4/USBFS_pm.c **** 
 169:.\Generated_Source\PSoC4/USBFS_pm.c ****         /* Disable the USBIO reference by setting PM.USB_CR0.fsusbio_ref_en.*/
 170:.\Generated_Source\PSoC4/USBFS_pm.c ****         USBFS_PM_USB_CR0_REG &= (uint8) ~USBFS_PM_USB_CR0_REF_EN;
 171:.\Generated_Source\PSoC4/USBFS_pm.c **** 
 172:.\Generated_Source\PSoC4/USBFS_pm.c ****         /* Switch DP and DM terminals to GPIO mode and disconnect 1.5k pull-up. */
 173:.\Generated_Source\PSoC4/USBFS_pm.c ****         USBFS_USBIO_CR1_REG |= USBFS_USBIO_CR1_IOMODE;
 174:.\Generated_Source\PSoC4/USBFS_pm.c **** 
 175:.\Generated_Source\PSoC4/USBFS_pm.c ****         /* Disable USBFS block. */
 176:.\Generated_Source\PSoC4/USBFS_pm.c ****         /* Clear power active and standby mode templates: disable USB block. */
 177:.\Generated_Source\PSoC4/USBFS_pm.c ****         USBFS_PM_ACT_CFG_REG  &= (uint8) ~USBFS_PM_ACT_EN_FSUSB;
 178:.\Generated_Source\PSoC4/USBFS_pm.c ****         USBFS_PM_STBY_CFG_REG &= (uint8) ~USBFS_PM_STBY_EN_FSUSB;
 179:.\Generated_Source\PSoC4/USBFS_pm.c **** 
 180:.\Generated_Source\PSoC4/USBFS_pm.c ****         CyDelayUs(USBFS_WAIT_REG_STABILITY_1US); /* min 0.5us delay required. */
 181:.\Generated_Source\PSoC4/USBFS_pm.c ****     #endif /* (CY_PSOC4) */
 182:.\Generated_Source\PSoC4/USBFS_pm.c ****     }
 183:.\Generated_Source\PSoC4/USBFS_pm.c ****     else
 184:.\Generated_Source\PSoC4/USBFS_pm.c ****     {
 185:.\Generated_Source\PSoC4/USBFS_pm.c ****         USBFS_backup.enableState = 0u;
 149              		.loc 1 185 0
 150 003e 0022     		mov	r2, #0
 151 0040 074B     		ldr	r3, .L10+4
 152 0042 1A70     		strb	r2, [r3]
 153              	.L9:
 186:.\Generated_Source\PSoC4/USBFS_pm.c ****     }
 187:.\Generated_Source\PSoC4/USBFS_pm.c **** 
 188:.\Generated_Source\PSoC4/USBFS_pm.c ****     CyExitCriticalSection(enableInterrupts);
 154              		.loc 1 188 0
ARM GAS  C:\Users\LAIR\AppData\Local\Temp\ccCKtTdm.s 			page 7


 155 0044 201C     		mov	r0, r4
 156 0046 FFF7FEFF 		bl	CyExitCriticalSection
 157              	.LVL6:
 189:.\Generated_Source\PSoC4/USBFS_pm.c **** 
 190:.\Generated_Source\PSoC4/USBFS_pm.c **** #if (USBFS_DP_ISR_ACTIVE)
 191:.\Generated_Source\PSoC4/USBFS_pm.c ****     /* Clear active mode Dp interrupt source history. */
 192:.\Generated_Source\PSoC4/USBFS_pm.c ****     (void) USBFS_Dp_ClearInterrupt();
 158              		.loc 1 192 0
 159 004a FFF7FEFF 		bl	USBFS_Dp_ClearInterrupt
 160              	.LVL7:
 193:.\Generated_Source\PSoC4/USBFS_pm.c ****     CyIntClearPending(USBFS_DP_INTC_VECT_NUM);
 161              		.loc 1 193 0
 162 004e 0520     		mov	r0, #5
 163 0050 FFF7FEFF 		bl	CyIntClearPending
 164              	.LVL8:
 194:.\Generated_Source\PSoC4/USBFS_pm.c **** 
 195:.\Generated_Source\PSoC4/USBFS_pm.c ****     CyIntEnable      (USBFS_DP_INTC_VECT_NUM);
 165              		.loc 1 195 0
 166 0054 0520     		mov	r0, #5
 167 0056 FFF7FEFF 		bl	CyIntEnable
 168              	.LVL9:
 196:.\Generated_Source\PSoC4/USBFS_pm.c **** #endif /* (USBFS_DP_ISR_ACTIVE). */
 197:.\Generated_Source\PSoC4/USBFS_pm.c **** }
 169              		.loc 1 197 0
 170              		@ sp needed
 171              	.LVL10:
 172 005a 70BD     		pop	{r4, r5, r6, pc}
 173              	.L11:
 174              		.align	2
 175              	.L10:
 176 005c 20002C40 		.word	1076625440
 177 0060 00000000 		.word	.LANCHOR0
 178 0064 00202C40 		.word	1076633600
 179 0068 24002C40 		.word	1076625444
 180 006c 28202C40 		.word	1076633640
 181              		.cfi_endproc
 182              	.LFE68:
 183              		.size	USBFS_Suspend, .-USBFS_Suspend
 184              		.section	.text.USBFS_Resume,"ax",%progbits
 185              		.align	2
 186              		.global	USBFS_Resume
 187              		.code	16
 188              		.thumb_func
 189              		.type	USBFS_Resume, %function
 190              	USBFS_Resume:
 191              	.LFB69:
 198:.\Generated_Source\PSoC4/USBFS_pm.c **** 
 199:.\Generated_Source\PSoC4/USBFS_pm.c **** 
 200:.\Generated_Source\PSoC4/USBFS_pm.c **** /*******************************************************************************
 201:.\Generated_Source\PSoC4/USBFS_pm.c **** * Function Name: USBFS_Resume
 202:.\Generated_Source\PSoC4/USBFS_pm.c **** ****************************************************************************//**
 203:.\Generated_Source\PSoC4/USBFS_pm.c **** *
 204:.\Generated_Source\PSoC4/USBFS_pm.c **** *  This function prepares the USBFS component for active mode operation after 
 205:.\Generated_Source\PSoC4/USBFS_pm.c **** *  exit low power mode. It restores the component active mode configuration such 
 206:.\Generated_Source\PSoC4/USBFS_pm.c **** *  as device address assigned previously by the host, endpoints buffer and disables 
 207:.\Generated_Source\PSoC4/USBFS_pm.c **** *  interrupt on Dp pin.
 208:.\Generated_Source\PSoC4/USBFS_pm.c **** *  The supported low power modes are Deep Sleep (PSoC 4200L) and Sleep 
ARM GAS  C:\Users\LAIR\AppData\Local\Temp\ccCKtTdm.s 			page 8


 209:.\Generated_Source\PSoC4/USBFS_pm.c **** *  (PSoC 3/ PSoC 5LP).
 210:.\Generated_Source\PSoC4/USBFS_pm.c **** *  
 211:.\Generated_Source\PSoC4/USBFS_pm.c **** *  *Note* For PSoC 4200L devices, this function should not be called after 
 212:.\Generated_Source\PSoC4/USBFS_pm.c **** *  exiting Sleep.
 213:.\Generated_Source\PSoC4/USBFS_pm.c **** *  
 214:.\Generated_Source\PSoC4/USBFS_pm.c **** *  *Note* To resume communication with the host, the data endpoints must be 
 215:.\Generated_Source\PSoC4/USBFS_pm.c **** *  managed: the OUT endpoints must be enabled and IN endpoints must be loaded 
 216:.\Generated_Source\PSoC4/USBFS_pm.c **** *  with data. For DMA with Automatic Buffer Management, all endpoints buffers 
 217:.\Generated_Source\PSoC4/USBFS_pm.c **** *  must be initialized again before making them available to the host.
 218:.\Generated_Source\PSoC4/USBFS_pm.c **** *
 219:.\Generated_Source\PSoC4/USBFS_pm.c **** *
 220:.\Generated_Source\PSoC4/USBFS_pm.c **** * \globalvars
 221:.\Generated_Source\PSoC4/USBFS_pm.c **** *  USBFS_backup - checked.
 222:.\Generated_Source\PSoC4/USBFS_pm.c **** *
 223:.\Generated_Source\PSoC4/USBFS_pm.c **** * \reentrant
 224:.\Generated_Source\PSoC4/USBFS_pm.c **** *  No.
 225:.\Generated_Source\PSoC4/USBFS_pm.c **** *
 226:.\Generated_Source\PSoC4/USBFS_pm.c **** *******************************************************************************/
 227:.\Generated_Source\PSoC4/USBFS_pm.c **** void USBFS_Resume(void) 
 228:.\Generated_Source\PSoC4/USBFS_pm.c **** {
 192              		.loc 1 228 0
 193              		.cfi_startproc
 194 0000 38B5     		push	{r3, r4, r5, lr}
 195              		.cfi_def_cfa_offset 16
 196              		.cfi_offset 3, -16
 197              		.cfi_offset 4, -12
 198              		.cfi_offset 5, -8
 199              		.cfi_offset 14, -4
 229:.\Generated_Source\PSoC4/USBFS_pm.c ****     uint8 enableInterrupts;
 230:.\Generated_Source\PSoC4/USBFS_pm.c **** 
 231:.\Generated_Source\PSoC4/USBFS_pm.c ****     enableInterrupts = CyEnterCriticalSection();
 200              		.loc 1 231 0
 201 0002 FFF7FEFF 		bl	CyEnterCriticalSection
 202              	.LVL11:
 203 0006 041C     		mov	r4, r0
 204              	.LVL12:
 232:.\Generated_Source\PSoC4/USBFS_pm.c **** 
 233:.\Generated_Source\PSoC4/USBFS_pm.c ****     if (0u != USBFS_backup.enableState)
 205              		.loc 1 233 0
 206 0008 1A4B     		ldr	r3, .L14
 207 000a 1B78     		ldrb	r3, [r3]
 208 000c 002B     		cmp	r3, #0
 209 000e 2CD0     		beq	.L13
 234:.\Generated_Source\PSoC4/USBFS_pm.c ****     {
 235:.\Generated_Source\PSoC4/USBFS_pm.c ****     #if (USBFS_DP_ISR_ACTIVE)
 236:.\Generated_Source\PSoC4/USBFS_pm.c ****         CyIntDisable(USBFS_DP_INTC_VECT_NUM);
 210              		.loc 1 236 0
 211 0010 0520     		mov	r0, #5
 212 0012 FFF7FEFF 		bl	CyIntDisable
 213              	.LVL13:
 237:.\Generated_Source\PSoC4/USBFS_pm.c ****     #endif /* (USBFS_DP_ISR_ACTIVE) */
 238:.\Generated_Source\PSoC4/USBFS_pm.c **** 
 239:.\Generated_Source\PSoC4/USBFS_pm.c ****     #if (CY_PSOC4)
 240:.\Generated_Source\PSoC4/USBFS_pm.c ****         /* Enable clock to USB IP. */
 241:.\Generated_Source\PSoC4/USBFS_pm.c ****         USBFS_USB_CLK_EN_REG |= USBFS_USB_CLK_CSR_CLK_EN;
 214              		.loc 1 241 0
 215 0016 1849     		ldr	r1, .L14+4
ARM GAS  C:\Users\LAIR\AppData\Local\Temp\ccCKtTdm.s 			page 9


 216 0018 0B68     		ldr	r3, [r1]
 217 001a 0122     		mov	r2, #1
 218 001c 1343     		orr	r3, r2
 219 001e 0B60     		str	r3, [r1]
 242:.\Generated_Source\PSoC4/USBFS_pm.c **** 
 243:.\Generated_Source\PSoC4/USBFS_pm.c ****         /* Restore arbiter configuration for DMA transfers. */
 244:.\Generated_Source\PSoC4/USBFS_pm.c ****         #if (USBFS_EP_MANAGEMENT_DMA)
 245:.\Generated_Source\PSoC4/USBFS_pm.c ****             #if (USBFS_ARB_ISR_ACTIVE)
 246:.\Generated_Source\PSoC4/USBFS_pm.c ****                 /* Enable ARB EP interrupt sources. */
 247:.\Generated_Source\PSoC4/USBFS_pm.c ****                 USBFS_ARB_INT_EN_REG = USBFS_DEFAULT_ARB_INT_EN;
 220              		.loc 1 247 0
 221 0020 0321     		mov	r1, #3
 222 0022 164B     		ldr	r3, .L14+8
 223 0024 1960     		str	r1, [r3]
 248:.\Generated_Source\PSoC4/USBFS_pm.c ****             #endif /* (USBFS_EP_MANAGEMENT_DMA) */
 249:.\Generated_Source\PSoC4/USBFS_pm.c **** 
 250:.\Generated_Source\PSoC4/USBFS_pm.c ****             /* Configure arbiter for Manual or Auto DMA operation and clear 
 251:.\Generated_Source\PSoC4/USBFS_pm.c ****             * configuration completion. 
 252:.\Generated_Source\PSoC4/USBFS_pm.c ****             */
 253:.\Generated_Source\PSoC4/USBFS_pm.c ****             USBFS_ARB_CFG_REG = USBFS_DEFAULT_ARB_CFG;
 224              		.loc 1 253 0
 225 0026 1D31     		add	r1, r1, #29
 226 0028 154B     		ldr	r3, .L14+12
 227 002a 1960     		str	r1, [r3]
 254:.\Generated_Source\PSoC4/USBFS_pm.c ****         #endif /* (USBFS_EP_MANAGEMENT_DMA) */
 255:.\Generated_Source\PSoC4/USBFS_pm.c **** 
 256:.\Generated_Source\PSoC4/USBFS_pm.c ****         /* Restore level (hi, lo, med) for each interrupt source. */
 257:.\Generated_Source\PSoC4/USBFS_pm.c ****         USBFS_INTR_LVL_SEL_REG = USBFS_DEFAULT_INTR_LVL_SEL;
 228              		.loc 1 257 0
 229 002c 1549     		ldr	r1, .L14+16
 230 002e 164B     		ldr	r3, .L14+20
 231 0030 1960     		str	r1, [r3]
 258:.\Generated_Source\PSoC4/USBFS_pm.c ****         
 259:.\Generated_Source\PSoC4/USBFS_pm.c ****         /* Store SIE interrupt sources. */
 260:.\Generated_Source\PSoC4/USBFS_pm.c ****         USBFS_INTR_SIE_MASK_REG = (uint32) USBFS_backup.intrSeiMask;
 232              		.loc 1 260 0
 233 0032 104D     		ldr	r5, .L14
 234 0034 A978     		ldrb	r1, [r5, #2]
 235 0036 154B     		ldr	r3, .L14+24
 236 0038 1960     		str	r1, [r3]
 261:.\Generated_Source\PSoC4/USBFS_pm.c **** 
 262:.\Generated_Source\PSoC4/USBFS_pm.c ****         /* Set EP0.CR: ACK Setup, NAK IN/OUT. */
 263:.\Generated_Source\PSoC4/USBFS_pm.c ****         USBFS_EP0_CR_REG = USBFS_MODE_NAK_IN_OUT;
 237              		.loc 1 263 0
 238 003a 154B     		ldr	r3, .L14+28
 239 003c 1A60     		str	r2, [r3]
 264:.\Generated_Source\PSoC4/USBFS_pm.c **** 
 265:.\Generated_Source\PSoC4/USBFS_pm.c ****         /* Restore data EP1-8 configuration. */
 266:.\Generated_Source\PSoC4/USBFS_pm.c ****         USBFS_RestoreConfig();
 240              		.loc 1 266 0
 241 003e FFF7FEFF 		bl	USBFS_RestoreConfig
 242              	.LVL14:
 267:.\Generated_Source\PSoC4/USBFS_pm.c **** 
 268:.\Generated_Source\PSoC4/USBFS_pm.c ****         /* Restore state of USB regulator and wait until it supples stable power. */
 269:.\Generated_Source\PSoC4/USBFS_pm.c ****         USBFS_CR1_REG |= USBFS_backup.mode;
 243              		.loc 1 269 0
 244 0042 144A     		ldr	r2, .L14+32
ARM GAS  C:\Users\LAIR\AppData\Local\Temp\ccCKtTdm.s 			page 10


 245 0044 1168     		ldr	r1, [r2]
 246 0046 6B78     		ldrb	r3, [r5, #1]
 247 0048 0B43     		orr	r3, r1
 248 004a 1360     		str	r3, [r2]
 270:.\Generated_Source\PSoC4/USBFS_pm.c ****         CyDelayUs(USBFS_WAIT_VREF_STABILITY);
 249              		.loc 1 270 0
 250 004c 0020     		mov	r0, #0
 251 004e FFF7FEFF 		bl	CyDelayUs
 252              	.LVL15:
 271:.\Generated_Source\PSoC4/USBFS_pm.c **** 
 272:.\Generated_Source\PSoC4/USBFS_pm.c ****         /* Suspend exit sequence. */
 273:.\Generated_Source\PSoC4/USBFS_pm.c ****         USBFS_POWER_CTRL_REG &= (uint32) ~USBFS_POWER_CTRL_SUSPEND;
 253              		.loc 1 273 0
 254 0052 114D     		ldr	r5, .L14+36
 255 0054 2B68     		ldr	r3, [r5]
 256 0056 0422     		mov	r2, #4
 257 0058 9343     		bic	r3, r2
 258 005a 2B60     		str	r3, [r5]
 274:.\Generated_Source\PSoC4/USBFS_pm.c ****         CyDelayUs(USBFS_WAIT_SUSPEND_DEL_DISABLE);
 259              		.loc 1 274 0
 260 005c 0220     		mov	r0, #2
 261 005e FFF7FEFF 		bl	CyDelayUs
 262              	.LVL16:
 275:.\Generated_Source\PSoC4/USBFS_pm.c ****         USBFS_POWER_CTRL_REG &= (uint32) ~USBFS_POWER_CTRL_SUSPEND_DEL;
 263              		.loc 1 275 0
 264 0062 2B68     		ldr	r3, [r5]
 265 0064 0822     		mov	r2, #8
 266 0066 9343     		bic	r3, r2
 267 0068 2B60     		str	r3, [r5]
 268              	.L13:
 276:.\Generated_Source\PSoC4/USBFS_pm.c **** 
 277:.\Generated_Source\PSoC4/USBFS_pm.c ****     #else
 278:.\Generated_Source\PSoC4/USBFS_pm.c ****         /* Set power active and standby mode templates: enable USB block. */
 279:.\Generated_Source\PSoC4/USBFS_pm.c ****         USBFS_PM_ACT_CFG_REG  |= USBFS_PM_ACT_EN_FSUSB;
 280:.\Generated_Source\PSoC4/USBFS_pm.c ****         USBFS_PM_STBY_CFG_REG |= USBFS_PM_STBY_EN_FSUSB;
 281:.\Generated_Source\PSoC4/USBFS_pm.c **** 
 282:.\Generated_Source\PSoC4/USBFS_pm.c ****         /* Enable core clock. */
 283:.\Generated_Source\PSoC4/USBFS_pm.c ****         USBFS_USB_CLK_EN_REG |= USBFS_USB_CLK_ENABLE;
 284:.\Generated_Source\PSoC4/USBFS_pm.c **** 
 285:.\Generated_Source\PSoC4/USBFS_pm.c ****         /* Enable the USBIO reference by setting PM.USB_CR0.fsusbio_ref_en.*/
 286:.\Generated_Source\PSoC4/USBFS_pm.c ****         USBFS_PM_USB_CR0_REG |= USBFS_PM_USB_CR0_REF_EN;
 287:.\Generated_Source\PSoC4/USBFS_pm.c **** 
 288:.\Generated_Source\PSoC4/USBFS_pm.c ****         /* The reference is available ~40us after power restored. */
 289:.\Generated_Source\PSoC4/USBFS_pm.c ****         CyDelayUs(USBFS_WAIT_VREF_RESTORE);
 290:.\Generated_Source\PSoC4/USBFS_pm.c ****         /* Restore state of USB regulator and wait until it supples stable power. */
 291:.\Generated_Source\PSoC4/USBFS_pm.c ****         USBFS_CR1_REG |= USBFS_backup.mode;
 292:.\Generated_Source\PSoC4/USBFS_pm.c ****         CyDelayUs(USBFS_WAIT_VREF_STABILITY);   /*~50ns delay. */
 293:.\Generated_Source\PSoC4/USBFS_pm.c **** 
 294:.\Generated_Source\PSoC4/USBFS_pm.c ****         /* Enable USBIO. */
 295:.\Generated_Source\PSoC4/USBFS_pm.c ****         USBFS_PM_USB_CR0_REG |= USBFS_PM_USB_CR0_PD_N;
 296:.\Generated_Source\PSoC4/USBFS_pm.c ****         CyDelayUs(USBFS_WAIT_PD_PULLUP_N_ENABLE);
 297:.\Generated_Source\PSoC4/USBFS_pm.c ****         /* Set the USBIO pull-up enable. */
 298:.\Generated_Source\PSoC4/USBFS_pm.c ****         USBFS_PM_USB_CR0_REG |= USBFS_PM_USB_CR0_PD_PULLUP_N;
 299:.\Generated_Source\PSoC4/USBFS_pm.c **** 
 300:.\Generated_Source\PSoC4/USBFS_pm.c ****         /* Restore arbiter configuration for DMA transfers. */
 301:.\Generated_Source\PSoC4/USBFS_pm.c ****         #if (USBFS_EP_MANAGEMENT_DMA)
 302:.\Generated_Source\PSoC4/USBFS_pm.c ****             #if (USBFS_ARB_ISR_ACTIVE)
ARM GAS  C:\Users\LAIR\AppData\Local\Temp\ccCKtTdm.s 			page 11


 303:.\Generated_Source\PSoC4/USBFS_pm.c ****                 /* Enable ARB EP interrupt sources. */
 304:.\Generated_Source\PSoC4/USBFS_pm.c ****                 USBFS_ARB_INT_EN_REG = USBFS_DEFAULT_ARB_INT_EN;
 305:.\Generated_Source\PSoC4/USBFS_pm.c ****             #endif /* (USBFS_EP_MANAGEMENT_DMA) */
 306:.\Generated_Source\PSoC4/USBFS_pm.c **** 
 307:.\Generated_Source\PSoC4/USBFS_pm.c ****             /* Configure arbiter for Manual or Auto DMA operation and clear 
 308:.\Generated_Source\PSoC4/USBFS_pm.c ****             * configuration completion. 
 309:.\Generated_Source\PSoC4/USBFS_pm.c ****             */
 310:.\Generated_Source\PSoC4/USBFS_pm.c ****             USBFS_ARB_CFG_REG = USBFS_DEFAULT_ARB_CFG;
 311:.\Generated_Source\PSoC4/USBFS_pm.c ****         #endif /* (USBFS_EP_MANAGEMENT_DMA) */
 312:.\Generated_Source\PSoC4/USBFS_pm.c **** 
 313:.\Generated_Source\PSoC4/USBFS_pm.c ****         /* Set EP0.CR: ACK Setup, STALL IN/OUT. */
 314:.\Generated_Source\PSoC4/USBFS_pm.c ****         USBFS_EP0_CR_REG = USBFS_MODE_STALL_IN_OUT;
 315:.\Generated_Source\PSoC4/USBFS_pm.c **** 
 316:.\Generated_Source\PSoC4/USBFS_pm.c ****         /* Enable the USB IP to respond to USB traffic with the last address. */
 317:.\Generated_Source\PSoC4/USBFS_pm.c ****         USBFS_CR0_REG |= USBFS_CR0_ENABLE;
 318:.\Generated_Source\PSoC4/USBFS_pm.c ****         CyDelayCycles(USBFS_WAIT_CR0_REG_STABILITY);
 319:.\Generated_Source\PSoC4/USBFS_pm.c **** 
 320:.\Generated_Source\PSoC4/USBFS_pm.c ****         /* Enable D+ pull-up and keep USB control on IO. */
 321:.\Generated_Source\PSoC4/USBFS_pm.c ****         USBFS_USBIO_CR1_REG = USBFS_USBIO_CR1_USBPUEN;
 322:.\Generated_Source\PSoC4/USBFS_pm.c **** 
 323:.\Generated_Source\PSoC4/USBFS_pm.c ****         /* Restore data EP1-8 configuration. */
 324:.\Generated_Source\PSoC4/USBFS_pm.c ****         USBFS_RestoreConfig();
 325:.\Generated_Source\PSoC4/USBFS_pm.c ****     #endif /* (CY_PSOC4) */
 326:.\Generated_Source\PSoC4/USBFS_pm.c ****     }
 327:.\Generated_Source\PSoC4/USBFS_pm.c **** 
 328:.\Generated_Source\PSoC4/USBFS_pm.c ****     CyExitCriticalSection(enableInterrupts);
 269              		.loc 1 328 0
 270 006a 201C     		mov	r0, r4
 271 006c FFF7FEFF 		bl	CyExitCriticalSection
 272              	.LVL17:
 329:.\Generated_Source\PSoC4/USBFS_pm.c **** }
 273              		.loc 1 329 0
 274              		@ sp needed
 275              	.LVL18:
 276 0070 38BD     		pop	{r3, r4, r5, pc}
 277              	.L15:
 278 0072 C046     		.align	2
 279              	.L14:
 280 0074 00000000 		.word	.LANCHOR0
 281 0078 74022C40 		.word	1076626036
 282 007c 78022C40 		.word	1076626040
 283 0080 70022C40 		.word	1076626032
 284 0084 28800A00 		.word	688168
 285 0088 30202C40 		.word	1076633648
 286 008c 28202C40 		.word	1076633640
 287 0090 A0002C40 		.word	1076625568
 288 0094 24002C40 		.word	1076625444
 289 0098 00202C40 		.word	1076633600
 290              		.cfi_endproc
 291              	.LFE69:
 292              		.size	USBFS_Resume, .-USBFS_Resume
 293              		.bss
 294              		.align	2
 295              		.set	.LANCHOR0,. + 0
 296              		.type	USBFS_backup, %object
 297              		.size	USBFS_backup, 3
 298              	USBFS_backup:
ARM GAS  C:\Users\LAIR\AppData\Local\Temp\ccCKtTdm.s 			page 12


 299 0000 000000   		.space	3
 300 0003 00       		.text
 301              	.Letext0:
 302              		.file 2 ".\\Generated_Source\\PSoC4\\cytypes.h"
 303              		.file 3 ".\\Generated_Source\\PSoC4\\USBFS.h"
 304              		.file 4 ".\\Generated_Source\\PSoC4\\USBFS_pvt.h"
 305              		.file 5 ".\\Generated_Source\\PSoC4\\USBFS_Dp.h"
 306              		.file 6 ".\\Generated_Source\\PSoC4\\CyLib.h"