ARM GAS  C:\Users\LAIR\AppData\Local\Temp\cciUanLt.s 			page 1


   1              		.cpu cortex-m0
   2              		.fpu softvfp
   3              		.eabi_attribute 20, 1
   4              		.eabi_attribute 21, 1
   5              		.eabi_attribute 23, 3
   6              		.eabi_attribute 24, 1
   7              		.eabi_attribute 25, 1
   8              		.eabi_attribute 26, 1
   9              		.eabi_attribute 30, 1
  10              		.eabi_attribute 34, 0
  11              		.eabi_attribute 18, 4
  12              		.code	16
  13              		.file	"USBFS_std.c"
  14              		.text
  15              	.Ltext0:
  16              		.cfi_sections	.debug_frame
  17              		.section	.text.USBFS_ReadDieID,"ax",%progbits
  18              		.align	2
  19              		.global	USBFS_ReadDieID
  20              		.code	16
  21              		.thumb_func
  22              		.type	USBFS_ReadDieID, %function
  23              	USBFS_ReadDieID:
  24              	.LFB66:
  25              		.file 1 ".\\Generated_Source\\PSoC4\\USBFS_std.c"
   1:.\Generated_Source\PSoC4/USBFS_std.c **** /***************************************************************************//**
   2:.\Generated_Source\PSoC4/USBFS_std.c **** * \file USBFS_std.c
   3:.\Generated_Source\PSoC4/USBFS_std.c **** * \version 3.0
   4:.\Generated_Source\PSoC4/USBFS_std.c **** *
   5:.\Generated_Source\PSoC4/USBFS_std.c **** * \brief
   6:.\Generated_Source\PSoC4/USBFS_std.c **** *  This file contains the USB Standard request handler.
   7:.\Generated_Source\PSoC4/USBFS_std.c **** *
   8:.\Generated_Source\PSoC4/USBFS_std.c **** ********************************************************************************
   9:.\Generated_Source\PSoC4/USBFS_std.c **** * \copyright
  10:.\Generated_Source\PSoC4/USBFS_std.c **** * Copyright 2008-2015, Cypress Semiconductor Corporation.  All rights reserved.
  11:.\Generated_Source\PSoC4/USBFS_std.c **** * You may use this file only in accordance with the license, terms, conditions,
  12:.\Generated_Source\PSoC4/USBFS_std.c **** * disclaimers, and limitations in the end user license agreement accompanying
  13:.\Generated_Source\PSoC4/USBFS_std.c **** * the software package with which this file was provided.
  14:.\Generated_Source\PSoC4/USBFS_std.c **** *******************************************************************************/
  15:.\Generated_Source\PSoC4/USBFS_std.c **** 
  16:.\Generated_Source\PSoC4/USBFS_std.c **** #include "USBFS_pvt.h"
  17:.\Generated_Source\PSoC4/USBFS_std.c **** 
  18:.\Generated_Source\PSoC4/USBFS_std.c **** /***************************************
  19:.\Generated_Source\PSoC4/USBFS_std.c **** *   Static data allocation
  20:.\Generated_Source\PSoC4/USBFS_std.c **** ***************************************/
  21:.\Generated_Source\PSoC4/USBFS_std.c **** 
  22:.\Generated_Source\PSoC4/USBFS_std.c **** #if defined(USBFS_ENABLE_FWSN_STRING)
  23:.\Generated_Source\PSoC4/USBFS_std.c ****     static volatile uint8* USBFS_fwSerialNumberStringDescriptor;
  24:.\Generated_Source\PSoC4/USBFS_std.c ****     static volatile uint8  USBFS_snStringConfirm = USBFS_FALSE;
  25:.\Generated_Source\PSoC4/USBFS_std.c **** #endif  /* (USBFS_ENABLE_FWSN_STRING) */
  26:.\Generated_Source\PSoC4/USBFS_std.c **** 
  27:.\Generated_Source\PSoC4/USBFS_std.c **** #if defined(USBFS_ENABLE_FWSN_STRING)
  28:.\Generated_Source\PSoC4/USBFS_std.c ****     /***************************************************************************
  29:.\Generated_Source\PSoC4/USBFS_std.c ****     * Function Name: USBFS_SerialNumString
  30:.\Generated_Source\PSoC4/USBFS_std.c ****     ************************************************************************//**
  31:.\Generated_Source\PSoC4/USBFS_std.c ****     *
  32:.\Generated_Source\PSoC4/USBFS_std.c ****     *  This function is available only when the User Call Back option in the 
ARM GAS  C:\Users\LAIR\AppData\Local\Temp\cciUanLt.s 			page 2


  33:.\Generated_Source\PSoC4/USBFS_std.c ****     *  Serial Number String descriptor properties is selected. Application 
  34:.\Generated_Source\PSoC4/USBFS_std.c ****     *  firmware can provide the source of the USB device serial number string 
  35:.\Generated_Source\PSoC4/USBFS_std.c ****     *  descriptor during run time. The default string is used if the application 
  36:.\Generated_Source\PSoC4/USBFS_std.c ****     *  firmware does not use this function or sets the wrong string descriptor.
  37:.\Generated_Source\PSoC4/USBFS_std.c ****     *
  38:.\Generated_Source\PSoC4/USBFS_std.c ****     *  \param snString:  Pointer to the user-defined string descriptor. The 
  39:.\Generated_Source\PSoC4/USBFS_std.c ****     *  string descriptor should meet the Universal Serial Bus Specification 
  40:.\Generated_Source\PSoC4/USBFS_std.c ****     *  revision 2.0 chapter 9.6.7
  41:.\Generated_Source\PSoC4/USBFS_std.c ****     *  Offset|Size|Value|Description
  42:.\Generated_Source\PSoC4/USBFS_std.c ****     *  ------|----|------|---------------------------------
  43:.\Generated_Source\PSoC4/USBFS_std.c ****     *  0     |1   |N     |Size of this descriptor in bytes
  44:.\Generated_Source\PSoC4/USBFS_std.c ****     *  1     |1   |0x03  |STRING Descriptor Type
  45:.\Generated_Source\PSoC4/USBFS_std.c ****     *  2     |N-2 |Number|UNICODE encoded string
  46:.\Generated_Source\PSoC4/USBFS_std.c ****     *  
  47:.\Generated_Source\PSoC4/USBFS_std.c ****     * *For example:* uint8 snString[16]={0x0E,0x03,'F',0,'W',0,'S',0,'N',0,'0',0,'1',0};
  48:.\Generated_Source\PSoC4/USBFS_std.c ****     *
  49:.\Generated_Source\PSoC4/USBFS_std.c ****     * \reentrant
  50:.\Generated_Source\PSoC4/USBFS_std.c ****     *  No.
  51:.\Generated_Source\PSoC4/USBFS_std.c ****     *
  52:.\Generated_Source\PSoC4/USBFS_std.c ****     ***************************************************************************/
  53:.\Generated_Source\PSoC4/USBFS_std.c ****     void  USBFS_SerialNumString(uint8 snString[]) 
  54:.\Generated_Source\PSoC4/USBFS_std.c ****     {
  55:.\Generated_Source\PSoC4/USBFS_std.c ****         USBFS_snStringConfirm = USBFS_FALSE;
  56:.\Generated_Source\PSoC4/USBFS_std.c ****         
  57:.\Generated_Source\PSoC4/USBFS_std.c ****         if (snString != NULL)
  58:.\Generated_Source\PSoC4/USBFS_std.c ****         {
  59:.\Generated_Source\PSoC4/USBFS_std.c ****             /* Check descriptor validation */
  60:.\Generated_Source\PSoC4/USBFS_std.c ****             if ((snString[0u] > 1u) && (snString[1u] == USBFS_DESCR_STRING))
  61:.\Generated_Source\PSoC4/USBFS_std.c ****             {
  62:.\Generated_Source\PSoC4/USBFS_std.c ****                 USBFS_fwSerialNumberStringDescriptor = snString;
  63:.\Generated_Source\PSoC4/USBFS_std.c ****                 USBFS_snStringConfirm = USBFS_TRUE;
  64:.\Generated_Source\PSoC4/USBFS_std.c ****             }
  65:.\Generated_Source\PSoC4/USBFS_std.c ****         }
  66:.\Generated_Source\PSoC4/USBFS_std.c ****     }
  67:.\Generated_Source\PSoC4/USBFS_std.c **** #endif  /* USBFS_ENABLE_FWSN_STRING */
  68:.\Generated_Source\PSoC4/USBFS_std.c **** 
  69:.\Generated_Source\PSoC4/USBFS_std.c **** 
  70:.\Generated_Source\PSoC4/USBFS_std.c **** /*******************************************************************************
  71:.\Generated_Source\PSoC4/USBFS_std.c **** * Function Name: USBFS_HandleStandardRqst
  72:.\Generated_Source\PSoC4/USBFS_std.c **** ****************************************************************************//**
  73:.\Generated_Source\PSoC4/USBFS_std.c **** *
  74:.\Generated_Source\PSoC4/USBFS_std.c **** *  This Routine dispatches standard requests
  75:.\Generated_Source\PSoC4/USBFS_std.c **** *
  76:.\Generated_Source\PSoC4/USBFS_std.c **** *
  77:.\Generated_Source\PSoC4/USBFS_std.c **** * \return
  78:.\Generated_Source\PSoC4/USBFS_std.c **** *  TRUE if request handled.
  79:.\Generated_Source\PSoC4/USBFS_std.c **** *
  80:.\Generated_Source\PSoC4/USBFS_std.c **** * \reentrant
  81:.\Generated_Source\PSoC4/USBFS_std.c **** *  No.
  82:.\Generated_Source\PSoC4/USBFS_std.c **** *
  83:.\Generated_Source\PSoC4/USBFS_std.c **** *******************************************************************************/
  84:.\Generated_Source\PSoC4/USBFS_std.c **** uint8 USBFS_HandleStandardRqst(void) 
  85:.\Generated_Source\PSoC4/USBFS_std.c **** {
  86:.\Generated_Source\PSoC4/USBFS_std.c ****     uint8 requestHandled = USBFS_FALSE;
  87:.\Generated_Source\PSoC4/USBFS_std.c ****     uint32 interfaceNumber;
  88:.\Generated_Source\PSoC4/USBFS_std.c ****     uint32 configurationN;
  89:.\Generated_Source\PSoC4/USBFS_std.c ****     uint32 bmRequestType = USBFS_bmRequestTypeReg;
ARM GAS  C:\Users\LAIR\AppData\Local\Temp\cciUanLt.s 			page 3


  90:.\Generated_Source\PSoC4/USBFS_std.c **** 
  91:.\Generated_Source\PSoC4/USBFS_std.c **** #if defined(USBFS_ENABLE_STRINGS)
  92:.\Generated_Source\PSoC4/USBFS_std.c ****     volatile uint8 *pStr = 0u;
  93:.\Generated_Source\PSoC4/USBFS_std.c ****     #if defined(USBFS_ENABLE_DESCRIPTOR_STRINGS)
  94:.\Generated_Source\PSoC4/USBFS_std.c ****         uint8 nStr;
  95:.\Generated_Source\PSoC4/USBFS_std.c ****         uint8 descrLength;
  96:.\Generated_Source\PSoC4/USBFS_std.c ****     #endif /* (USBFS_ENABLE_DESCRIPTOR_STRINGS) */
  97:.\Generated_Source\PSoC4/USBFS_std.c **** #endif /* (USBFS_ENABLE_STRINGS) */
  98:.\Generated_Source\PSoC4/USBFS_std.c ****     
  99:.\Generated_Source\PSoC4/USBFS_std.c ****     static volatile uint8 USBFS_tBuffer[USBFS_STATUS_LENGTH_MAX];
 100:.\Generated_Source\PSoC4/USBFS_std.c ****     const T_USBFS_LUT CYCODE *pTmp;
 101:.\Generated_Source\PSoC4/USBFS_std.c **** 
 102:.\Generated_Source\PSoC4/USBFS_std.c ****     USBFS_currentTD.count = 0u;
 103:.\Generated_Source\PSoC4/USBFS_std.c **** 
 104:.\Generated_Source\PSoC4/USBFS_std.c ****     if (USBFS_RQST_DIR_D2H == (bmRequestType & USBFS_RQST_DIR_MASK))
 105:.\Generated_Source\PSoC4/USBFS_std.c ****     {
 106:.\Generated_Source\PSoC4/USBFS_std.c ****         /* Control Read */
 107:.\Generated_Source\PSoC4/USBFS_std.c ****         switch (USBFS_bRequestReg)
 108:.\Generated_Source\PSoC4/USBFS_std.c ****         {
 109:.\Generated_Source\PSoC4/USBFS_std.c ****             case USBFS_GET_DESCRIPTOR:
 110:.\Generated_Source\PSoC4/USBFS_std.c ****                 if (USBFS_DESCR_DEVICE ==USBFS_wValueHiReg)
 111:.\Generated_Source\PSoC4/USBFS_std.c ****                 {
 112:.\Generated_Source\PSoC4/USBFS_std.c ****                     pTmp = USBFS_GetDeviceTablePtr();
 113:.\Generated_Source\PSoC4/USBFS_std.c ****                     USBFS_currentTD.pData = (volatile uint8 *)pTmp->p_list;
 114:.\Generated_Source\PSoC4/USBFS_std.c ****                     USBFS_currentTD.count = USBFS_DEVICE_DESCR_LENGTH;
 115:.\Generated_Source\PSoC4/USBFS_std.c ****                     
 116:.\Generated_Source\PSoC4/USBFS_std.c ****                     requestHandled  = USBFS_InitControlRead();
 117:.\Generated_Source\PSoC4/USBFS_std.c ****                 }
 118:.\Generated_Source\PSoC4/USBFS_std.c ****                 else if (USBFS_DESCR_CONFIG == USBFS_wValueHiReg)
 119:.\Generated_Source\PSoC4/USBFS_std.c ****                 {
 120:.\Generated_Source\PSoC4/USBFS_std.c ****                     pTmp = USBFS_GetConfigTablePtr((uint8) USBFS_wValueLoReg);
 121:.\Generated_Source\PSoC4/USBFS_std.c ****                     
 122:.\Generated_Source\PSoC4/USBFS_std.c ****                     /* Verify that requested descriptor exists */
 123:.\Generated_Source\PSoC4/USBFS_std.c ****                     if (pTmp != NULL)
 124:.\Generated_Source\PSoC4/USBFS_std.c ****                     {
 125:.\Generated_Source\PSoC4/USBFS_std.c ****                         USBFS_currentTD.pData = (volatile uint8 *)pTmp->p_list;
 126:.\Generated_Source\PSoC4/USBFS_std.c ****                         USBFS_currentTD.count = (uint16)((uint16)(USBFS_currentTD.pData)[USBFS_CONF
 127:.\Generated_Source\PSoC4/USBFS_std.c ****                                                                             (USBFS_currentTD.pData)
 128:.\Generated_Source\PSoC4/USBFS_std.c ****                         requestHandled  = USBFS_InitControlRead();
 129:.\Generated_Source\PSoC4/USBFS_std.c ****                     }
 130:.\Generated_Source\PSoC4/USBFS_std.c ****                 }
 131:.\Generated_Source\PSoC4/USBFS_std.c ****                 
 132:.\Generated_Source\PSoC4/USBFS_std.c ****             #if(USBFS_BOS_ENABLE)
 133:.\Generated_Source\PSoC4/USBFS_std.c ****                 else if (USBFS_DESCR_BOS == USBFS_wValueHiReg)
 134:.\Generated_Source\PSoC4/USBFS_std.c ****                 {
 135:.\Generated_Source\PSoC4/USBFS_std.c ****                     pTmp = USBFS_GetBOSPtr();
 136:.\Generated_Source\PSoC4/USBFS_std.c ****                     
 137:.\Generated_Source\PSoC4/USBFS_std.c ****                     /* Verify that requested descriptor exists */
 138:.\Generated_Source\PSoC4/USBFS_std.c ****                     if (pTmp != NULL)
 139:.\Generated_Source\PSoC4/USBFS_std.c ****                     {
 140:.\Generated_Source\PSoC4/USBFS_std.c ****                         USBFS_currentTD.pData = (volatile uint8 *)pTmp;
 141:.\Generated_Source\PSoC4/USBFS_std.c ****                         USBFS_currentTD.count = ((uint16)((uint16)(USBFS_currentTD.pData)[USBFS_BOS
 142:.\Generated_Source\PSoC4/USBFS_std.c ****                                                                              (USBFS_currentTD.pData
 143:.\Generated_Source\PSoC4/USBFS_std.c ****                         requestHandled  = USBFS_InitControlRead();
 144:.\Generated_Source\PSoC4/USBFS_std.c ****                     }
 145:.\Generated_Source\PSoC4/USBFS_std.c ****                 }
 146:.\Generated_Source\PSoC4/USBFS_std.c ****             #endif /*(USBFS_BOS_ENABLE)*/
ARM GAS  C:\Users\LAIR\AppData\Local\Temp\cciUanLt.s 			page 4


 147:.\Generated_Source\PSoC4/USBFS_std.c ****             
 148:.\Generated_Source\PSoC4/USBFS_std.c ****             #if defined(USBFS_ENABLE_STRINGS)
 149:.\Generated_Source\PSoC4/USBFS_std.c ****                 else if (USBFS_DESCR_STRING == USBFS_wValueHiReg)
 150:.\Generated_Source\PSoC4/USBFS_std.c ****                 {
 151:.\Generated_Source\PSoC4/USBFS_std.c ****                 /* Descriptor Strings */
 152:.\Generated_Source\PSoC4/USBFS_std.c ****                 #if defined(USBFS_ENABLE_DESCRIPTOR_STRINGS)
 153:.\Generated_Source\PSoC4/USBFS_std.c ****                     nStr = 0u;
 154:.\Generated_Source\PSoC4/USBFS_std.c ****                     pStr = (volatile uint8 *) &USBFS_STRING_DESCRIPTORS[0u];
 155:.\Generated_Source\PSoC4/USBFS_std.c ****                     
 156:.\Generated_Source\PSoC4/USBFS_std.c ****                     while ((USBFS_wValueLoReg > nStr) && (*pStr != 0u))
 157:.\Generated_Source\PSoC4/USBFS_std.c ****                     {
 158:.\Generated_Source\PSoC4/USBFS_std.c ****                         /* Read descriptor length from 1st byte */
 159:.\Generated_Source\PSoC4/USBFS_std.c ****                         descrLength = *pStr;
 160:.\Generated_Source\PSoC4/USBFS_std.c ****                         /* Move to next string descriptor */
 161:.\Generated_Source\PSoC4/USBFS_std.c ****                         pStr = &pStr[descrLength];
 162:.\Generated_Source\PSoC4/USBFS_std.c ****                         nStr++;
 163:.\Generated_Source\PSoC4/USBFS_std.c ****                     }
 164:.\Generated_Source\PSoC4/USBFS_std.c ****                 #endif /* (USBFS_ENABLE_DESCRIPTOR_STRINGS) */
 165:.\Generated_Source\PSoC4/USBFS_std.c ****                 
 166:.\Generated_Source\PSoC4/USBFS_std.c ****                 /* Microsoft OS String */
 167:.\Generated_Source\PSoC4/USBFS_std.c ****                 #if defined(USBFS_ENABLE_MSOS_STRING)
 168:.\Generated_Source\PSoC4/USBFS_std.c ****                     if (USBFS_STRING_MSOS == USBFS_wValueLoReg)
 169:.\Generated_Source\PSoC4/USBFS_std.c ****                     {
 170:.\Generated_Source\PSoC4/USBFS_std.c ****                         pStr = (volatile uint8 *)& USBFS_MSOS_DESCRIPTOR[0u];
 171:.\Generated_Source\PSoC4/USBFS_std.c ****                     }
 172:.\Generated_Source\PSoC4/USBFS_std.c ****                 #endif /* (USBFS_ENABLE_MSOS_STRING) */
 173:.\Generated_Source\PSoC4/USBFS_std.c ****                 
 174:.\Generated_Source\PSoC4/USBFS_std.c ****                 /* SN string */
 175:.\Generated_Source\PSoC4/USBFS_std.c ****                 #if defined(USBFS_ENABLE_SN_STRING)
 176:.\Generated_Source\PSoC4/USBFS_std.c ****                     if ((USBFS_wValueLoReg != 0u) && 
 177:.\Generated_Source\PSoC4/USBFS_std.c ****                         (USBFS_wValueLoReg == USBFS_DEVICE0_DESCR[USBFS_DEVICE_DESCR_SN_SHIFT]))
 178:.\Generated_Source\PSoC4/USBFS_std.c ****                     {
 179:.\Generated_Source\PSoC4/USBFS_std.c ****                     #if defined(USBFS_ENABLE_IDSN_STRING)
 180:.\Generated_Source\PSoC4/USBFS_std.c ****                         /* Read DIE ID and generate string descriptor in RAM */
 181:.\Generated_Source\PSoC4/USBFS_std.c ****                         USBFS_ReadDieID(USBFS_idSerialNumberStringDescriptor);
 182:.\Generated_Source\PSoC4/USBFS_std.c ****                         pStr = USBFS_idSerialNumberStringDescriptor;
 183:.\Generated_Source\PSoC4/USBFS_std.c ****                     #elif defined(USBFS_ENABLE_FWSN_STRING)
 184:.\Generated_Source\PSoC4/USBFS_std.c ****                         
 185:.\Generated_Source\PSoC4/USBFS_std.c ****                         if(USBFS_snStringConfirm != USBFS_FALSE)
 186:.\Generated_Source\PSoC4/USBFS_std.c ****                         {
 187:.\Generated_Source\PSoC4/USBFS_std.c ****                             pStr = USBFS_fwSerialNumberStringDescriptor;
 188:.\Generated_Source\PSoC4/USBFS_std.c ****                         }
 189:.\Generated_Source\PSoC4/USBFS_std.c ****                         else
 190:.\Generated_Source\PSoC4/USBFS_std.c ****                         {
 191:.\Generated_Source\PSoC4/USBFS_std.c ****                             pStr = (volatile uint8 *)&USBFS_SN_STRING_DESCRIPTOR[0u];
 192:.\Generated_Source\PSoC4/USBFS_std.c ****                         }
 193:.\Generated_Source\PSoC4/USBFS_std.c ****                     #else
 194:.\Generated_Source\PSoC4/USBFS_std.c ****                         pStr = (volatile uint8 *)&USBFS_SN_STRING_DESCRIPTOR[0u];
 195:.\Generated_Source\PSoC4/USBFS_std.c ****                     #endif  /* (USBFS_ENABLE_IDSN_STRING) */
 196:.\Generated_Source\PSoC4/USBFS_std.c ****                     }
 197:.\Generated_Source\PSoC4/USBFS_std.c ****                 #endif /* (USBFS_ENABLE_SN_STRING) */
 198:.\Generated_Source\PSoC4/USBFS_std.c ****                 
 199:.\Generated_Source\PSoC4/USBFS_std.c ****                     if (*pStr != 0u)
 200:.\Generated_Source\PSoC4/USBFS_std.c ****                     {
 201:.\Generated_Source\PSoC4/USBFS_std.c ****                         USBFS_currentTD.count = *pStr;
 202:.\Generated_Source\PSoC4/USBFS_std.c ****                         USBFS_currentTD.pData = pStr;
 203:.\Generated_Source\PSoC4/USBFS_std.c ****                         requestHandled  = USBFS_InitControlRead();
ARM GAS  C:\Users\LAIR\AppData\Local\Temp\cciUanLt.s 			page 5


 204:.\Generated_Source\PSoC4/USBFS_std.c ****                     }
 205:.\Generated_Source\PSoC4/USBFS_std.c ****                 }
 206:.\Generated_Source\PSoC4/USBFS_std.c ****             #endif /*  USBFS_ENABLE_STRINGS */
 207:.\Generated_Source\PSoC4/USBFS_std.c ****                 else
 208:.\Generated_Source\PSoC4/USBFS_std.c ****                 {
 209:.\Generated_Source\PSoC4/USBFS_std.c ****                     requestHandled = USBFS_DispatchClassRqst();
 210:.\Generated_Source\PSoC4/USBFS_std.c ****                 }
 211:.\Generated_Source\PSoC4/USBFS_std.c ****                 break;
 212:.\Generated_Source\PSoC4/USBFS_std.c ****                 
 213:.\Generated_Source\PSoC4/USBFS_std.c ****             case USBFS_GET_STATUS:
 214:.\Generated_Source\PSoC4/USBFS_std.c ****                 switch (bmRequestType & USBFS_RQST_RCPT_MASK)
 215:.\Generated_Source\PSoC4/USBFS_std.c ****                 {
 216:.\Generated_Source\PSoC4/USBFS_std.c ****                     case USBFS_RQST_RCPT_EP:
 217:.\Generated_Source\PSoC4/USBFS_std.c ****                         USBFS_currentTD.count = USBFS_EP_STATUS_LENGTH;
 218:.\Generated_Source\PSoC4/USBFS_std.c ****                         USBFS_tBuffer[0u]     = USBFS_EP[USBFS_wIndexLoReg & USBFS_DIR_UNUSED].hwEp
 219:.\Generated_Source\PSoC4/USBFS_std.c ****                         USBFS_tBuffer[1u]     = 0u;
 220:.\Generated_Source\PSoC4/USBFS_std.c ****                         USBFS_currentTD.pData = &USBFS_tBuffer[0u];
 221:.\Generated_Source\PSoC4/USBFS_std.c ****                         
 222:.\Generated_Source\PSoC4/USBFS_std.c ****                         requestHandled  = USBFS_InitControlRead();
 223:.\Generated_Source\PSoC4/USBFS_std.c ****                         break;
 224:.\Generated_Source\PSoC4/USBFS_std.c ****                     case USBFS_RQST_RCPT_DEV:
 225:.\Generated_Source\PSoC4/USBFS_std.c ****                         USBFS_currentTD.count = USBFS_DEVICE_STATUS_LENGTH;
 226:.\Generated_Source\PSoC4/USBFS_std.c ****                         USBFS_tBuffer[0u]     = USBFS_deviceStatus;
 227:.\Generated_Source\PSoC4/USBFS_std.c ****                         USBFS_tBuffer[1u]     = 0u;
 228:.\Generated_Source\PSoC4/USBFS_std.c ****                         USBFS_currentTD.pData = &USBFS_tBuffer[0u];
 229:.\Generated_Source\PSoC4/USBFS_std.c ****                         
 230:.\Generated_Source\PSoC4/USBFS_std.c ****                         requestHandled  = USBFS_InitControlRead();
 231:.\Generated_Source\PSoC4/USBFS_std.c ****                         break;
 232:.\Generated_Source\PSoC4/USBFS_std.c ****                     default:    /* requestHandled is initialized as FALSE by default */
 233:.\Generated_Source\PSoC4/USBFS_std.c ****                         break;
 234:.\Generated_Source\PSoC4/USBFS_std.c ****                 }
 235:.\Generated_Source\PSoC4/USBFS_std.c ****                 break;
 236:.\Generated_Source\PSoC4/USBFS_std.c ****                 
 237:.\Generated_Source\PSoC4/USBFS_std.c ****             case USBFS_GET_CONFIGURATION:
 238:.\Generated_Source\PSoC4/USBFS_std.c ****                 USBFS_currentTD.count = 1u;
 239:.\Generated_Source\PSoC4/USBFS_std.c ****                 USBFS_currentTD.pData = (volatile uint8 *) &USBFS_configuration;
 240:.\Generated_Source\PSoC4/USBFS_std.c ****                 requestHandled  = USBFS_InitControlRead();
 241:.\Generated_Source\PSoC4/USBFS_std.c ****                 break;
 242:.\Generated_Source\PSoC4/USBFS_std.c ****                 
 243:.\Generated_Source\PSoC4/USBFS_std.c ****             case USBFS_GET_INTERFACE:
 244:.\Generated_Source\PSoC4/USBFS_std.c ****                 USBFS_currentTD.count = 1u;
 245:.\Generated_Source\PSoC4/USBFS_std.c ****                 USBFS_currentTD.pData = (volatile uint8 *) &USBFS_interfaceSetting[USBFS_wIndexLoRe
 246:.\Generated_Source\PSoC4/USBFS_std.c ****                 requestHandled  = USBFS_InitControlRead();
 247:.\Generated_Source\PSoC4/USBFS_std.c ****                 break;
 248:.\Generated_Source\PSoC4/USBFS_std.c ****                 
 249:.\Generated_Source\PSoC4/USBFS_std.c ****             default: /* requestHandled is initialized as FALSE by default */
 250:.\Generated_Source\PSoC4/USBFS_std.c ****                 break;
 251:.\Generated_Source\PSoC4/USBFS_std.c ****         }
 252:.\Generated_Source\PSoC4/USBFS_std.c ****     }
 253:.\Generated_Source\PSoC4/USBFS_std.c ****     else
 254:.\Generated_Source\PSoC4/USBFS_std.c ****     {
 255:.\Generated_Source\PSoC4/USBFS_std.c ****         /* Control Write */
 256:.\Generated_Source\PSoC4/USBFS_std.c ****         switch (USBFS_bRequestReg)
 257:.\Generated_Source\PSoC4/USBFS_std.c ****         {
 258:.\Generated_Source\PSoC4/USBFS_std.c ****             case USBFS_SET_ADDRESS:
 259:.\Generated_Source\PSoC4/USBFS_std.c ****                 /* Store address to be set in USBFS_NoDataControlStatusStage(). */
 260:.\Generated_Source\PSoC4/USBFS_std.c ****                 USBFS_deviceAddress = (uint8) USBFS_wValueLoReg;
ARM GAS  C:\Users\LAIR\AppData\Local\Temp\cciUanLt.s 			page 6


 261:.\Generated_Source\PSoC4/USBFS_std.c ****                 requestHandled = USBFS_InitNoDataControlTransfer();
 262:.\Generated_Source\PSoC4/USBFS_std.c ****                 break;
 263:.\Generated_Source\PSoC4/USBFS_std.c ****                 
 264:.\Generated_Source\PSoC4/USBFS_std.c ****             case USBFS_SET_CONFIGURATION:
 265:.\Generated_Source\PSoC4/USBFS_std.c ****                 configurationN = USBFS_wValueLoReg;
 266:.\Generated_Source\PSoC4/USBFS_std.c ****                 
 267:.\Generated_Source\PSoC4/USBFS_std.c ****                 /* Verify that configuration descriptor exists */
 268:.\Generated_Source\PSoC4/USBFS_std.c ****                 if(configurationN > 0u)
 269:.\Generated_Source\PSoC4/USBFS_std.c ****                 {
 270:.\Generated_Source\PSoC4/USBFS_std.c ****                     pTmp = USBFS_GetConfigTablePtr((uint8) configurationN - 1u);
 271:.\Generated_Source\PSoC4/USBFS_std.c ****                 }
 272:.\Generated_Source\PSoC4/USBFS_std.c ****                 
 273:.\Generated_Source\PSoC4/USBFS_std.c ****                 /* Responds with a Request Error when configuration number is invalid */
 274:.\Generated_Source\PSoC4/USBFS_std.c ****                 if (((configurationN > 0u) && (pTmp != NULL)) || (configurationN == 0u))
 275:.\Generated_Source\PSoC4/USBFS_std.c ****                 {
 276:.\Generated_Source\PSoC4/USBFS_std.c ****                     /* Set new configuration if it has been changed */
 277:.\Generated_Source\PSoC4/USBFS_std.c ****                     if(configurationN != USBFS_configuration)
 278:.\Generated_Source\PSoC4/USBFS_std.c ****                     {
 279:.\Generated_Source\PSoC4/USBFS_std.c ****                         USBFS_configuration = (uint8) configurationN;
 280:.\Generated_Source\PSoC4/USBFS_std.c ****                         USBFS_configurationChanged = USBFS_TRUE;
 281:.\Generated_Source\PSoC4/USBFS_std.c ****                         USBFS_Config(USBFS_TRUE);
 282:.\Generated_Source\PSoC4/USBFS_std.c ****                     }
 283:.\Generated_Source\PSoC4/USBFS_std.c ****                     requestHandled = USBFS_InitNoDataControlTransfer();
 284:.\Generated_Source\PSoC4/USBFS_std.c ****                 }
 285:.\Generated_Source\PSoC4/USBFS_std.c ****                 break;
 286:.\Generated_Source\PSoC4/USBFS_std.c ****                 
 287:.\Generated_Source\PSoC4/USBFS_std.c ****             case USBFS_SET_INTERFACE:
 288:.\Generated_Source\PSoC4/USBFS_std.c ****                 if (0u != USBFS_ValidateAlternateSetting())
 289:.\Generated_Source\PSoC4/USBFS_std.c ****                 {
 290:.\Generated_Source\PSoC4/USBFS_std.c ****                     /* Get interface number from the request. */
 291:.\Generated_Source\PSoC4/USBFS_std.c ****                     interfaceNumber = USBFS_wIndexLoReg;
 292:.\Generated_Source\PSoC4/USBFS_std.c ****                     USBFS_interfaceNumber = (uint8) USBFS_wIndexLoReg;
 293:.\Generated_Source\PSoC4/USBFS_std.c ****                      
 294:.\Generated_Source\PSoC4/USBFS_std.c ****                     /* Check if alternate settings is changed for interface. */
 295:.\Generated_Source\PSoC4/USBFS_std.c ****                     if (USBFS_interfaceSettingLast[interfaceNumber] != USBFS_interfaceSetting[inter
 296:.\Generated_Source\PSoC4/USBFS_std.c ****                     {
 297:.\Generated_Source\PSoC4/USBFS_std.c ****                         USBFS_configurationChanged = USBFS_TRUE;
 298:.\Generated_Source\PSoC4/USBFS_std.c ****                     
 299:.\Generated_Source\PSoC4/USBFS_std.c ****                         /* Change alternate setting for the endpoints. */
 300:.\Generated_Source\PSoC4/USBFS_std.c ****                     #if (USBFS_EP_MANAGEMENT_MANUAL && USBFS_EP_ALLOC_DYNAMIC)
 301:.\Generated_Source\PSoC4/USBFS_std.c ****                         USBFS_Config(USBFS_FALSE);
 302:.\Generated_Source\PSoC4/USBFS_std.c ****                     #else
 303:.\Generated_Source\PSoC4/USBFS_std.c ****                         USBFS_ConfigAltChanged();
 304:.\Generated_Source\PSoC4/USBFS_std.c ****                     #endif /* (USBFS_EP_MANAGEMENT_MANUAL && USBFS_EP_ALLOC_DYNAMIC) */
 305:.\Generated_Source\PSoC4/USBFS_std.c ****                     }
 306:.\Generated_Source\PSoC4/USBFS_std.c ****                     
 307:.\Generated_Source\PSoC4/USBFS_std.c ****                     requestHandled = USBFS_InitNoDataControlTransfer();
 308:.\Generated_Source\PSoC4/USBFS_std.c ****                 }
 309:.\Generated_Source\PSoC4/USBFS_std.c ****                 break;
 310:.\Generated_Source\PSoC4/USBFS_std.c ****                 
 311:.\Generated_Source\PSoC4/USBFS_std.c ****             case USBFS_CLEAR_FEATURE:
 312:.\Generated_Source\PSoC4/USBFS_std.c ****                 switch (bmRequestType & USBFS_RQST_RCPT_MASK)
 313:.\Generated_Source\PSoC4/USBFS_std.c ****                 {
 314:.\Generated_Source\PSoC4/USBFS_std.c ****                     case USBFS_RQST_RCPT_EP:
 315:.\Generated_Source\PSoC4/USBFS_std.c ****                         if (USBFS_wValueLoReg == USBFS_ENDPOINT_HALT)
 316:.\Generated_Source\PSoC4/USBFS_std.c ****                         {
 317:.\Generated_Source\PSoC4/USBFS_std.c ****                             requestHandled = USBFS_ClearEndpointHalt();
ARM GAS  C:\Users\LAIR\AppData\Local\Temp\cciUanLt.s 			page 7


 318:.\Generated_Source\PSoC4/USBFS_std.c ****                         }
 319:.\Generated_Source\PSoC4/USBFS_std.c ****                         break;
 320:.\Generated_Source\PSoC4/USBFS_std.c ****                     case USBFS_RQST_RCPT_DEV:
 321:.\Generated_Source\PSoC4/USBFS_std.c ****                         /* Clear device REMOTE_WAKEUP */
 322:.\Generated_Source\PSoC4/USBFS_std.c ****                         if (USBFS_wValueLoReg == USBFS_DEVICE_REMOTE_WAKEUP)
 323:.\Generated_Source\PSoC4/USBFS_std.c ****                         {
 324:.\Generated_Source\PSoC4/USBFS_std.c ****                             USBFS_deviceStatus &= (uint8)~USBFS_DEVICE_STATUS_REMOTE_WAKEUP;
 325:.\Generated_Source\PSoC4/USBFS_std.c ****                             requestHandled = USBFS_InitNoDataControlTransfer();
 326:.\Generated_Source\PSoC4/USBFS_std.c ****                         }
 327:.\Generated_Source\PSoC4/USBFS_std.c ****                         break;
 328:.\Generated_Source\PSoC4/USBFS_std.c ****                     case USBFS_RQST_RCPT_IFC:
 329:.\Generated_Source\PSoC4/USBFS_std.c ****                         /* Validate interfaceNumber */
 330:.\Generated_Source\PSoC4/USBFS_std.c ****                         if (USBFS_wIndexLoReg < USBFS_MAX_INTERFACES_NUMBER)
 331:.\Generated_Source\PSoC4/USBFS_std.c ****                         {
 332:.\Generated_Source\PSoC4/USBFS_std.c ****                             USBFS_interfaceStatus[USBFS_wIndexLoReg] &= (uint8) ~USBFS_wValueLoReg;
 333:.\Generated_Source\PSoC4/USBFS_std.c ****                             requestHandled = USBFS_InitNoDataControlTransfer();
 334:.\Generated_Source\PSoC4/USBFS_std.c ****                         }
 335:.\Generated_Source\PSoC4/USBFS_std.c ****                         break;
 336:.\Generated_Source\PSoC4/USBFS_std.c ****                     default:    /* requestHandled is initialized as FALSE by default */
 337:.\Generated_Source\PSoC4/USBFS_std.c ****                         break;
 338:.\Generated_Source\PSoC4/USBFS_std.c ****                 }
 339:.\Generated_Source\PSoC4/USBFS_std.c ****                 break;
 340:.\Generated_Source\PSoC4/USBFS_std.c ****                 
 341:.\Generated_Source\PSoC4/USBFS_std.c ****             case USBFS_SET_FEATURE:
 342:.\Generated_Source\PSoC4/USBFS_std.c ****                 switch (bmRequestType & USBFS_RQST_RCPT_MASK)
 343:.\Generated_Source\PSoC4/USBFS_std.c ****                 {
 344:.\Generated_Source\PSoC4/USBFS_std.c ****                     case USBFS_RQST_RCPT_EP:
 345:.\Generated_Source\PSoC4/USBFS_std.c ****                         if (USBFS_wValueLoReg == USBFS_ENDPOINT_HALT)
 346:.\Generated_Source\PSoC4/USBFS_std.c ****                         {
 347:.\Generated_Source\PSoC4/USBFS_std.c ****                             requestHandled = USBFS_SetEndpointHalt();
 348:.\Generated_Source\PSoC4/USBFS_std.c ****                         }
 349:.\Generated_Source\PSoC4/USBFS_std.c ****                         break;
 350:.\Generated_Source\PSoC4/USBFS_std.c ****                         
 351:.\Generated_Source\PSoC4/USBFS_std.c ****                     case USBFS_RQST_RCPT_DEV:
 352:.\Generated_Source\PSoC4/USBFS_std.c ****                         /* Set device REMOTE_WAKEUP */
 353:.\Generated_Source\PSoC4/USBFS_std.c ****                         if (USBFS_wValueLoReg == USBFS_DEVICE_REMOTE_WAKEUP)
 354:.\Generated_Source\PSoC4/USBFS_std.c ****                         {
 355:.\Generated_Source\PSoC4/USBFS_std.c ****                             USBFS_deviceStatus |= USBFS_DEVICE_STATUS_REMOTE_WAKEUP;
 356:.\Generated_Source\PSoC4/USBFS_std.c ****                             requestHandled = USBFS_InitNoDataControlTransfer();
 357:.\Generated_Source\PSoC4/USBFS_std.c ****                         }
 358:.\Generated_Source\PSoC4/USBFS_std.c ****                         break;
 359:.\Generated_Source\PSoC4/USBFS_std.c ****                         
 360:.\Generated_Source\PSoC4/USBFS_std.c ****                     case USBFS_RQST_RCPT_IFC:
 361:.\Generated_Source\PSoC4/USBFS_std.c ****                         /* Validate interfaceNumber */
 362:.\Generated_Source\PSoC4/USBFS_std.c ****                         if (USBFS_wIndexLoReg < USBFS_MAX_INTERFACES_NUMBER)
 363:.\Generated_Source\PSoC4/USBFS_std.c ****                         {
 364:.\Generated_Source\PSoC4/USBFS_std.c ****                             USBFS_interfaceStatus[USBFS_wIndexLoReg] &= (uint8) ~USBFS_wValueLoReg;
 365:.\Generated_Source\PSoC4/USBFS_std.c ****                             requestHandled = USBFS_InitNoDataControlTransfer();
 366:.\Generated_Source\PSoC4/USBFS_std.c ****                         }
 367:.\Generated_Source\PSoC4/USBFS_std.c ****                         break;
 368:.\Generated_Source\PSoC4/USBFS_std.c ****                     
 369:.\Generated_Source\PSoC4/USBFS_std.c ****                     default:    /* requestHandled is initialized as FALSE by default */
 370:.\Generated_Source\PSoC4/USBFS_std.c ****                         break;
 371:.\Generated_Source\PSoC4/USBFS_std.c ****                 }
 372:.\Generated_Source\PSoC4/USBFS_std.c ****                 break;
 373:.\Generated_Source\PSoC4/USBFS_std.c ****                 
 374:.\Generated_Source\PSoC4/USBFS_std.c ****             default:    /* requestHandled is initialized as FALSE by default */
ARM GAS  C:\Users\LAIR\AppData\Local\Temp\cciUanLt.s 			page 8


 375:.\Generated_Source\PSoC4/USBFS_std.c ****                 break;
 376:.\Generated_Source\PSoC4/USBFS_std.c ****         }
 377:.\Generated_Source\PSoC4/USBFS_std.c ****     }
 378:.\Generated_Source\PSoC4/USBFS_std.c ****     
 379:.\Generated_Source\PSoC4/USBFS_std.c ****     return (requestHandled);
 380:.\Generated_Source\PSoC4/USBFS_std.c **** }
 381:.\Generated_Source\PSoC4/USBFS_std.c **** 
 382:.\Generated_Source\PSoC4/USBFS_std.c **** 
 383:.\Generated_Source\PSoC4/USBFS_std.c **** #if defined(USBFS_ENABLE_IDSN_STRING)
 384:.\Generated_Source\PSoC4/USBFS_std.c ****     /***************************************************************************
 385:.\Generated_Source\PSoC4/USBFS_std.c ****     * Function Name: USBFS_ReadDieID
 386:.\Generated_Source\PSoC4/USBFS_std.c ****     ************************************************************************//**
 387:.\Generated_Source\PSoC4/USBFS_std.c ****     *
 388:.\Generated_Source\PSoC4/USBFS_std.c ****     *  This routine read Die ID and generate Serial Number string descriptor.
 389:.\Generated_Source\PSoC4/USBFS_std.c ****     *
 390:.\Generated_Source\PSoC4/USBFS_std.c ****     *  \param descr:  pointer on string descriptor. This string size has to be equal or
 391:.\Generated_Source\PSoC4/USBFS_std.c ****     *          greater than USBFS_IDSN_DESCR_LENGTH.
 392:.\Generated_Source\PSoC4/USBFS_std.c ****     *
 393:.\Generated_Source\PSoC4/USBFS_std.c ****     *
 394:.\Generated_Source\PSoC4/USBFS_std.c ****     * \reentrant
 395:.\Generated_Source\PSoC4/USBFS_std.c ****     *  No.
 396:.\Generated_Source\PSoC4/USBFS_std.c ****     *
 397:.\Generated_Source\PSoC4/USBFS_std.c ****     ***************************************************************************/
 398:.\Generated_Source\PSoC4/USBFS_std.c ****     void USBFS_ReadDieID(uint8 descr[]) 
 399:.\Generated_Source\PSoC4/USBFS_std.c ****     {
  26              		.loc 1 399 0
  27              		.cfi_startproc
  28              	.LVL0:
  29 0000 F0B5     		push	{r4, r5, r6, r7, lr}
  30              		.cfi_def_cfa_offset 20
  31              		.cfi_offset 4, -20
  32              		.cfi_offset 5, -16
  33              		.cfi_offset 6, -12
  34              		.cfi_offset 7, -8
  35              		.cfi_offset 14, -4
  36 0002 89B0     		sub	sp, sp, #36
  37              		.cfi_def_cfa_offset 56
 400:.\Generated_Source\PSoC4/USBFS_std.c ****         const char8 CYCODE hex[] = "0123456789ABCDEF";
  38              		.loc 1 400 0
  39 0004 03AB     		add	r3, sp, #12
  40 0006 164A     		ldr	r2, .L5
  41 0008 32CA     		ldmia	r2!, {r1, r4, r5}
  42 000a 32C3     		stmia	r3!, {r1, r4, r5}
  43 000c 191C     		mov	r1, r3
  44 000e 1368     		ldr	r3, [r2]
  45 0010 0B60     		str	r3, [r1]
  46 0012 1379     		ldrb	r3, [r2, #4]
  47 0014 0B71     		strb	r3, [r1, #4]
  48              	.LVL1:
 401:.\Generated_Source\PSoC4/USBFS_std.c ****         uint32 i;
 402:.\Generated_Source\PSoC4/USBFS_std.c ****         uint32 j = 0u;
 403:.\Generated_Source\PSoC4/USBFS_std.c ****         uint8 uniqueId[8u];
 404:.\Generated_Source\PSoC4/USBFS_std.c **** 
 405:.\Generated_Source\PSoC4/USBFS_std.c ****         if (NULL != descr)
  49              		.loc 1 405 0
  50 0016 0028     		cmp	r0, #0
  51 0018 20D0     		beq	.L1
ARM GAS  C:\Users\LAIR\AppData\Local\Temp\cciUanLt.s 			page 9


  52 001a 041C     		mov	r4, r0
 406:.\Generated_Source\PSoC4/USBFS_std.c ****         {
 407:.\Generated_Source\PSoC4/USBFS_std.c ****             /* Initialize descriptor header. */
 408:.\Generated_Source\PSoC4/USBFS_std.c ****             descr[0u] = USBFS_IDSN_DESCR_LENGTH;
  53              		.loc 1 408 0
  54 001c 2223     		mov	r3, #34
  55 001e 0370     		strb	r3, [r0]
 409:.\Generated_Source\PSoC4/USBFS_std.c ****             descr[1u] = USBFS_DESCR_STRING;
  56              		.loc 1 409 0
  57 0020 1F3B     		sub	r3, r3, #31
  58 0022 4370     		strb	r3, [r0, #1]
 410:.\Generated_Source\PSoC4/USBFS_std.c ****             
 411:.\Generated_Source\PSoC4/USBFS_std.c ****             /* Unique ID size is 8 bytes. */
 412:.\Generated_Source\PSoC4/USBFS_std.c ****             CyGetUniqueId((uint32 *) uniqueId);
  59              		.loc 1 412 0
  60 0024 01A8     		add	r0, sp, #4
  61              	.LVL2:
  62 0026 FFF7FEFF 		bl	CyGetUniqueId
  63              	.LVL3:
 402:.\Generated_Source\PSoC4/USBFS_std.c ****         uint8 uniqueId[8u];
  64              		.loc 1 402 0
  65 002a 0020     		mov	r0, #0
 413:.\Generated_Source\PSoC4/USBFS_std.c **** 
 414:.\Generated_Source\PSoC4/USBFS_std.c ****             /* Fill descriptor with unique device ID. */
 415:.\Generated_Source\PSoC4/USBFS_std.c ****             for (i = 2u; i < USBFS_IDSN_DESCR_LENGTH; i += 4u)
  66              		.loc 1 415 0
  67 002c 0223     		mov	r3, #2
  68 002e 13E0     		b	.L3
  69              	.LVL4:
  70              	.L4:
 416:.\Generated_Source\PSoC4/USBFS_std.c ****             {
 417:.\Generated_Source\PSoC4/USBFS_std.c ****                 descr[i]      = (uint8) hex[(uniqueId[j] >> 4u)];
  71              		.loc 1 417 0 discriminator 3
  72 0030 01AA     		add	r2, sp, #4
  73 0032 125C     		ldrb	r2, [r2, r0]
  74 0034 1109     		lsr	r1, r2, #4
  75 0036 03AD     		add	r5, sp, #12
  76 0038 695C     		ldrb	r1, [r5, r1]
  77 003a E154     		strb	r1, [r4, r3]
 418:.\Generated_Source\PSoC4/USBFS_std.c ****                 descr[i + 1u] = 0u;
  78              		.loc 1 418 0 discriminator 3
  79 003c 591C     		add	r1, r3, #1
  80 003e 6118     		add	r1, r4, r1
  81 0040 0026     		mov	r6, #0
  82 0042 0E70     		strb	r6, [r1]
 419:.\Generated_Source\PSoC4/USBFS_std.c ****                 descr[i + 2u] = (uint8) hex[(uniqueId[j] & 0x0Fu)];
  83              		.loc 1 419 0 discriminator 3
  84 0044 991C     		add	r1, r3, #2
  85 0046 0F27     		mov	r7, #15
  86 0048 3A40     		and	r2, r7
  87 004a AA5C     		ldrb	r2, [r5, r2]
  88 004c 6254     		strb	r2, [r4, r1]
 420:.\Generated_Source\PSoC4/USBFS_std.c ****                 descr[i + 3u] = 0u;
  89              		.loc 1 420 0 discriminator 3
  90 004e DA1C     		add	r2, r3, #3
  91 0050 A218     		add	r2, r4, r2
  92 0052 1670     		strb	r6, [r2]
ARM GAS  C:\Users\LAIR\AppData\Local\Temp\cciUanLt.s 			page 10


 421:.\Generated_Source\PSoC4/USBFS_std.c ****                 ++j;
  93              		.loc 1 421 0 discriminator 3
  94 0054 0130     		add	r0, r0, #1
  95              	.LVL5:
 415:.\Generated_Source\PSoC4/USBFS_std.c ****             {
  96              		.loc 1 415 0 discriminator 3
  97 0056 0433     		add	r3, r3, #4
  98              	.LVL6:
  99              	.L3:
 415:.\Generated_Source\PSoC4/USBFS_std.c ****             {
 100              		.loc 1 415 0 is_stmt 0 discriminator 1
 101 0058 212B     		cmp	r3, #33
 102 005a E9D9     		bls	.L4
 103              	.LVL7:
 104              	.L1:
 422:.\Generated_Source\PSoC4/USBFS_std.c ****             }
 423:.\Generated_Source\PSoC4/USBFS_std.c ****         }
 424:.\Generated_Source\PSoC4/USBFS_std.c ****     }
 105              		.loc 1 424 0 is_stmt 1
 106 005c 09B0     		add	sp, sp, #36
 107              		@ sp needed
 108 005e F0BD     		pop	{r4, r5, r6, r7, pc}
 109              	.L6:
 110              		.align	2
 111              	.L5:
 112 0060 00000000 		.word	.LC0
 113              		.cfi_endproc
 114              	.LFE66:
 115              		.size	USBFS_ReadDieID, .-USBFS_ReadDieID
 116              		.section	.text.USBFS_ConfigReg,"ax",%progbits
 117              		.align	2
 118              		.global	USBFS_ConfigReg
 119              		.code	16
 120              		.thumb_func
 121              		.type	USBFS_ConfigReg, %function
 122              	USBFS_ConfigReg:
 123              	.LFB67:
 425:.\Generated_Source\PSoC4/USBFS_std.c **** #endif /* (USBFS_ENABLE_IDSN_STRING) */
 426:.\Generated_Source\PSoC4/USBFS_std.c **** 
 427:.\Generated_Source\PSoC4/USBFS_std.c **** 
 428:.\Generated_Source\PSoC4/USBFS_std.c **** /*******************************************************************************
 429:.\Generated_Source\PSoC4/USBFS_std.c **** * Function Name: USBFS_ConfigReg
 430:.\Generated_Source\PSoC4/USBFS_std.c **** ****************************************************************************//**
 431:.\Generated_Source\PSoC4/USBFS_std.c **** *
 432:.\Generated_Source\PSoC4/USBFS_std.c **** *  This routine configures hardware registers from the variables.
 433:.\Generated_Source\PSoC4/USBFS_std.c **** *  It is called from USBFS_Config() function and from RestoreConfig
 434:.\Generated_Source\PSoC4/USBFS_std.c **** *  after Wakeup.
 435:.\Generated_Source\PSoC4/USBFS_std.c **** *
 436:.\Generated_Source\PSoC4/USBFS_std.c **** *******************************************************************************/
 437:.\Generated_Source\PSoC4/USBFS_std.c **** void USBFS_ConfigReg(void) 
 438:.\Generated_Source\PSoC4/USBFS_std.c **** {
 124              		.loc 1 438 0
 125              		.cfi_startproc
 126 0000 10B5     		push	{r4, lr}
 127              		.cfi_def_cfa_offset 8
 128              		.cfi_offset 4, -8
 129              		.cfi_offset 14, -4
ARM GAS  C:\Users\LAIR\AppData\Local\Temp\cciUanLt.s 			page 11


 130              	.LVL8:
 439:.\Generated_Source\PSoC4/USBFS_std.c ****     uint32 ep;
 440:.\Generated_Source\PSoC4/USBFS_std.c **** 
 441:.\Generated_Source\PSoC4/USBFS_std.c **** #if (USBFS_EP_MANAGEMENT_DMA_AUTO)
 442:.\Generated_Source\PSoC4/USBFS_std.c ****     uint8 epType = 0u;
 443:.\Generated_Source\PSoC4/USBFS_std.c **** #endif /* (USBFS_EP_MANAGEMENT_DMA_AUTO) */
 444:.\Generated_Source\PSoC4/USBFS_std.c **** 
 445:.\Generated_Source\PSoC4/USBFS_std.c ****     /* Go thought all endpoints and set hardware configuration */
 446:.\Generated_Source\PSoC4/USBFS_std.c ****     for (ep = USBFS_EP1; ep < USBFS_MAX_EP; ++ep)
 131              		.loc 1 446 0
 132 0002 0123     		mov	r3, #1
 133 0004 3BE0     		b	.L8
 134              	.LVL9:
 135              	.L12:
 447:.\Generated_Source\PSoC4/USBFS_std.c ****     {
 448:.\Generated_Source\PSoC4/USBFS_std.c ****         USBFS_ARB_EP_BASE.arbEp[ep].epCfg = USBFS_ARB_EPX_CFG_DEFAULT;
 136              		.loc 1 448 0
 137 0006 9A01     		lsl	r2, r3, #6
 138 0008 0C20     		mov	r0, #12
 139 000a 2049     		ldr	r1, .L13
 140 000c 5050     		str	r0, [r2, r1]
 449:.\Generated_Source\PSoC4/USBFS_std.c ****         
 450:.\Generated_Source\PSoC4/USBFS_std.c ****     #if (USBFS_EP_MANAGEMENT_DMA)
 451:.\Generated_Source\PSoC4/USBFS_std.c ****         /* Enable arbiter endpoint interrupt sources */
 452:.\Generated_Source\PSoC4/USBFS_std.c ****         USBFS_ARB_EP_BASE.arbEp[ep].epIntEn = USBFS_ARB_EPX_INT_MASK;
 141              		.loc 1 452 0
 142 000e 8C46     		mov	ip, r1
 143 0010 6244     		add	r2, r2, ip
 144 0012 1F21     		mov	r1, #31
 145 0014 5160     		str	r1, [r2, #4]
 453:.\Generated_Source\PSoC4/USBFS_std.c ****     #endif /* (USBFS_EP_MANAGEMENT_DMA) */
 454:.\Generated_Source\PSoC4/USBFS_std.c ****     
 455:.\Generated_Source\PSoC4/USBFS_std.c ****         if (USBFS_EP[ep].epMode != USBFS_MODE_DISABLE)
 146              		.loc 1 455 0
 147 0016 5A00     		lsl	r2, r3, #1
 148 0018 D218     		add	r2, r2, r3
 149 001a 9200     		lsl	r2, r2, #2
 150 001c 1C49     		ldr	r1, .L13+4
 151 001e 8A18     		add	r2, r1, r2
 152 0020 5279     		ldrb	r2, [r2, #5]
 153 0022 002A     		cmp	r2, #0
 154 0024 15D0     		beq	.L9
 456:.\Generated_Source\PSoC4/USBFS_std.c ****         {
 457:.\Generated_Source\PSoC4/USBFS_std.c ****             if (0u != (USBFS_EP[ep].addr & USBFS_DIR_IN))
 155              		.loc 1 457 0
 156 0026 5A00     		lsl	r2, r3, #1
 157 0028 D218     		add	r2, r2, r3
 158 002a 9200     		lsl	r2, r2, #2
 159 002c 8A18     		add	r2, r1, r2
 160 002e 1279     		ldrb	r2, [r2, #4]
 161 0030 52B2     		sxtb	r2, r2
 162 0032 002A     		cmp	r2, #0
 163 0034 06DA     		bge	.L10
 458:.\Generated_Source\PSoC4/USBFS_std.c ****             {
 459:.\Generated_Source\PSoC4/USBFS_std.c ****                 USBFS_SIE_EP_BASE.sieEp[ep].epCr0 = USBFS_MODE_NAK_IN;
 164              		.loc 1 459 0
 165 0036 9A01     		lsl	r2, r3, #6
ARM GAS  C:\Users\LAIR\AppData\Local\Temp\cciUanLt.s 			page 12


 166 0038 1649     		ldr	r1, .L13+8
 167 003a 8C46     		mov	ip, r1
 168 003c 6244     		add	r2, r2, ip
 169 003e 0C21     		mov	r1, #12
 170 0040 9160     		str	r1, [r2, #8]
 171 0042 0CE0     		b	.L11
 172              	.L10:
 460:.\Generated_Source\PSoC4/USBFS_std.c ****                 
 461:.\Generated_Source\PSoC4/USBFS_std.c ****             #if (USBFS_EP_MANAGEMENT_DMA_AUTO && CY_PSOC4)
 462:.\Generated_Source\PSoC4/USBFS_std.c ****                 /* Clear DMA_TERMIN for IN endpoint. */
 463:.\Generated_Source\PSoC4/USBFS_std.c ****                 USBFS_ARB_EP_BASE.arbEp[ep].epIntEn &= (uint32) ~USBFS_ARB_EPX_INT_DMA_TERMIN;
 464:.\Generated_Source\PSoC4/USBFS_std.c ****             #endif /* (USBFS_EP_MANAGEMENT_DMA_AUTO && CY_PSOC4) */
 465:.\Generated_Source\PSoC4/USBFS_std.c ****             }
 466:.\Generated_Source\PSoC4/USBFS_std.c ****             else
 467:.\Generated_Source\PSoC4/USBFS_std.c ****             {
 468:.\Generated_Source\PSoC4/USBFS_std.c ****                 USBFS_SIE_EP_BASE.sieEp[ep].epCr0 = USBFS_MODE_NAK_OUT;
 173              		.loc 1 468 0
 174 0044 9A01     		lsl	r2, r3, #6
 175 0046 1349     		ldr	r1, .L13+8
 176 0048 8C46     		mov	ip, r1
 177 004a 6244     		add	r2, r2, ip
 178 004c 0821     		mov	r1, #8
 179 004e 9160     		str	r1, [r2, #8]
 180 0050 05E0     		b	.L11
 181              	.L9:
 469:.\Generated_Source\PSoC4/USBFS_std.c **** 
 470:.\Generated_Source\PSoC4/USBFS_std.c ****             #if (USBFS_EP_MANAGEMENT_DMA_AUTO)
 471:.\Generated_Source\PSoC4/USBFS_std.c ****                 /* (CY_PSOC4): DMA_TERMIN for OUT endpoint is set above. */
 472:.\Generated_Source\PSoC4/USBFS_std.c ****                 
 473:.\Generated_Source\PSoC4/USBFS_std.c ****                 /* Prepare endpoint type mask. */
 474:.\Generated_Source\PSoC4/USBFS_std.c ****                 epType |= (uint8) (0x01u << (ep - USBFS_EP1));
 475:.\Generated_Source\PSoC4/USBFS_std.c ****             #endif /* (USBFS_EP_MANAGEMENT_DMA_AUTO) */
 476:.\Generated_Source\PSoC4/USBFS_std.c ****             }
 477:.\Generated_Source\PSoC4/USBFS_std.c ****         }
 478:.\Generated_Source\PSoC4/USBFS_std.c ****         else
 479:.\Generated_Source\PSoC4/USBFS_std.c ****         {
 480:.\Generated_Source\PSoC4/USBFS_std.c ****             USBFS_SIE_EP_BASE.sieEp[ep].epCr0 = USBFS_MODE_STALL_DATA_EP;
 182              		.loc 1 480 0
 183 0052 9A01     		lsl	r2, r3, #6
 184 0054 0F49     		ldr	r1, .L13+8
 185 0056 8C46     		mov	ip, r1
 186 0058 6244     		add	r2, r2, ip
 187 005a 8021     		mov	r1, #128
 188 005c 9160     		str	r1, [r2, #8]
 189              	.L11:
 481:.\Generated_Source\PSoC4/USBFS_std.c ****         }
 482:.\Generated_Source\PSoC4/USBFS_std.c ****         
 483:.\Generated_Source\PSoC4/USBFS_std.c ****     #if (!USBFS_EP_MANAGEMENT_DMA_AUTO)
 484:.\Generated_Source\PSoC4/USBFS_std.c ****         #if (CY_PSOC4)
 485:.\Generated_Source\PSoC4/USBFS_std.c ****             USBFS_ARB_EP16_BASE.arbEp[ep].rwRa16  = (uint32) USBFS_EP[ep].buffOffset;
 190              		.loc 1 485 0 discriminator 2
 191 005e 5A00     		lsl	r2, r3, #1
 192 0060 D218     		add	r2, r2, r3
 193 0062 9200     		lsl	r2, r2, #2
 194 0064 0A49     		ldr	r1, .L13+4
 195 0066 8A18     		add	r2, r1, r2
 196 0068 D188     		ldrh	r1, [r2, #6]
ARM GAS  C:\Users\LAIR\AppData\Local\Temp\cciUanLt.s 			page 13


 197 006a 89B2     		uxth	r1, r1
 198 006c 9801     		lsl	r0, r3, #6
 199 006e 0A4C     		ldr	r4, .L13+12
 200 0070 0419     		add	r4, r0, r4
 201 0072 A160     		str	r1, [r4, #8]
 486:.\Generated_Source\PSoC4/USBFS_std.c ****             USBFS_ARB_EP16_BASE.arbEp[ep].rwWa16  = (uint32) USBFS_EP[ep].buffOffset;
 202              		.loc 1 486 0 discriminator 2
 203 0074 D288     		ldrh	r2, [r2, #6]
 204 0076 92B2     		uxth	r2, r2
 205 0078 0749     		ldr	r1, .L13+12
 206 007a 4250     		str	r2, [r0, r1]
 446:.\Generated_Source\PSoC4/USBFS_std.c ****     {
 207              		.loc 1 446 0 discriminator 2
 208 007c 0133     		add	r3, r3, #1
 209              	.LVL10:
 210              	.L8:
 446:.\Generated_Source\PSoC4/USBFS_std.c ****     {
 211              		.loc 1 446 0 is_stmt 0 discriminator 1
 212 007e 082B     		cmp	r3, #8
 213 0080 C1D9     		bls	.L12
 487:.\Generated_Source\PSoC4/USBFS_std.c ****         #else
 488:.\Generated_Source\PSoC4/USBFS_std.c ****             USBFS_ARB_EP_BASE.arbEp[ep].rwRa    = LO8(USBFS_EP[ep].buffOffset);
 489:.\Generated_Source\PSoC4/USBFS_std.c ****             USBFS_ARB_EP_BASE.arbEp[ep].rwRaMsb = HI8(USBFS_EP[ep].buffOffset);
 490:.\Generated_Source\PSoC4/USBFS_std.c ****             USBFS_ARB_EP_BASE.arbEp[ep].rwWa    = LO8(USBFS_EP[ep].buffOffset);
 491:.\Generated_Source\PSoC4/USBFS_std.c ****             USBFS_ARB_EP_BASE.arbEp[ep].rwWaMsb = HI8(USBFS_EP[ep].buffOffset);
 492:.\Generated_Source\PSoC4/USBFS_std.c ****         #endif /* (CY_PSOC4) */
 493:.\Generated_Source\PSoC4/USBFS_std.c ****     #endif /* (!USBFS_EP_MANAGEMENT_DMA_AUTO) */
 494:.\Generated_Source\PSoC4/USBFS_std.c ****     }
 495:.\Generated_Source\PSoC4/USBFS_std.c **** 
 496:.\Generated_Source\PSoC4/USBFS_std.c **** #if (USBFS_EP_MANAGEMENT_DMA_AUTO)
 497:.\Generated_Source\PSoC4/USBFS_std.c ****      /* BUF_SIZE depend on DMA_THRESS value:0x55-32 bytes  0x44-16 bytes 0x33-8 bytes 0x22-4 bytes 
 498:.\Generated_Source\PSoC4/USBFS_std.c ****     USBFS_BUF_SIZE_REG = USBFS_DMA_BUF_SIZE;
 499:.\Generated_Source\PSoC4/USBFS_std.c **** 
 500:.\Generated_Source\PSoC4/USBFS_std.c ****     /* Configure DMA burst threshold */
 501:.\Generated_Source\PSoC4/USBFS_std.c **** #if (CY_PSOC4)
 502:.\Generated_Source\PSoC4/USBFS_std.c ****     USBFS_DMA_THRES16_REG   = USBFS_DMA_BYTES_PER_BURST;
 503:.\Generated_Source\PSoC4/USBFS_std.c **** #else
 504:.\Generated_Source\PSoC4/USBFS_std.c ****     USBFS_DMA_THRES_REG     = USBFS_DMA_BYTES_PER_BURST;
 505:.\Generated_Source\PSoC4/USBFS_std.c ****     USBFS_DMA_THRES_MSB_REG = 0u;
 506:.\Generated_Source\PSoC4/USBFS_std.c **** #endif /* (CY_PSOC4) */
 507:.\Generated_Source\PSoC4/USBFS_std.c ****     USBFS_EP_ACTIVE_REG = USBFS_DEFAULT_ARB_INT_EN;
 508:.\Generated_Source\PSoC4/USBFS_std.c ****     USBFS_EP_TYPE_REG   = epType;
 509:.\Generated_Source\PSoC4/USBFS_std.c ****     
 510:.\Generated_Source\PSoC4/USBFS_std.c ****     /* Cfg_cmp bit set to 1 once configuration is complete. */
 511:.\Generated_Source\PSoC4/USBFS_std.c ****     /* Lock arbiter configtuation */
 512:.\Generated_Source\PSoC4/USBFS_std.c ****     USBFS_ARB_CFG_REG |= (uint32)  USBFS_ARB_CFG_CFG_CMP;
 513:.\Generated_Source\PSoC4/USBFS_std.c ****     /* Cfg_cmp bit set to 0 during configuration of PFSUSB Registers. */
 514:.\Generated_Source\PSoC4/USBFS_std.c ****     USBFS_ARB_CFG_REG &= (uint32) ~USBFS_ARB_CFG_CFG_CMP;
 515:.\Generated_Source\PSoC4/USBFS_std.c **** 
 516:.\Generated_Source\PSoC4/USBFS_std.c **** #endif /* (USBFS_EP_MANAGEMENT_DMA_AUTO) */
 517:.\Generated_Source\PSoC4/USBFS_std.c **** 
 518:.\Generated_Source\PSoC4/USBFS_std.c ****     /* Enable interrupt SIE interurpt source from EP0-EP1 */
 519:.\Generated_Source\PSoC4/USBFS_std.c ****     USBFS_SIE_EP_INT_EN_REG = (uint32) USBFS_DEFAULT_SIE_EP_INT_EN;
 214              		.loc 1 519 0 is_stmt 1
 215 0082 FF22     		mov	r2, #255
 216 0084 054B     		ldr	r3, .L13+16
 217              	.LVL11:
ARM GAS  C:\Users\LAIR\AppData\Local\Temp\cciUanLt.s 			page 14


 218 0086 1A60     		str	r2, [r3]
 520:.\Generated_Source\PSoC4/USBFS_std.c **** }
 219              		.loc 1 520 0
 220              		@ sp needed
 221 0088 10BD     		pop	{r4, pc}
 222              	.L14:
 223 008a C046     		.align	2
 224              	.L13:
 225 008c C0012C40 		.word	1076625856
 226 0090 00000000 		.word	USBFS_EP
 227 0094 F0FF2B40 		.word	1076625392
 228 0098 D0112C40 		.word	1076629968
 229 009c 28002C40 		.word	1076625448
 230              		.cfi_endproc
 231              	.LFE67:
 232              		.size	USBFS_ConfigReg, .-USBFS_ConfigReg
 233              		.section	.text.USBFS_EpStateInit,"ax",%progbits
 234              		.align	2
 235              		.global	USBFS_EpStateInit
 236              		.code	16
 237              		.thumb_func
 238              		.type	USBFS_EpStateInit, %function
 239              	USBFS_EpStateInit:
 240              	.LFB68:
 521:.\Generated_Source\PSoC4/USBFS_std.c **** 
 522:.\Generated_Source\PSoC4/USBFS_std.c **** 
 523:.\Generated_Source\PSoC4/USBFS_std.c **** /*******************************************************************************
 524:.\Generated_Source\PSoC4/USBFS_std.c **** * Function Name: USBFS_EpStateInit
 525:.\Generated_Source\PSoC4/USBFS_std.c **** ****************************************************************************//**
 526:.\Generated_Source\PSoC4/USBFS_std.c **** *
 527:.\Generated_Source\PSoC4/USBFS_std.c **** *  This routine initialize state of Data end points based of its type: 
 528:.\Generated_Source\PSoC4/USBFS_std.c **** *   IN  - USBFS_IN_BUFFER_EMPTY (USBFS_EVENT_PENDING)
 529:.\Generated_Source\PSoC4/USBFS_std.c **** *   OUT - USBFS_OUT_BUFFER_EMPTY (USBFS_NO_EVENT_PENDING)
 530:.\Generated_Source\PSoC4/USBFS_std.c **** *
 531:.\Generated_Source\PSoC4/USBFS_std.c **** *******************************************************************************/
 532:.\Generated_Source\PSoC4/USBFS_std.c **** void USBFS_EpStateInit(void) 
 533:.\Generated_Source\PSoC4/USBFS_std.c **** {
 241              		.loc 1 533 0
 242              		.cfi_startproc
 243              	.LVL12:
 534:.\Generated_Source\PSoC4/USBFS_std.c ****     uint8 i;
 535:.\Generated_Source\PSoC4/USBFS_std.c **** 
 536:.\Generated_Source\PSoC4/USBFS_std.c ****     for (i = USBFS_EP1; i < USBFS_MAX_EP; i++)
 244              		.loc 1 536 0
 245 0000 0123     		mov	r3, #1
 246 0002 18E0     		b	.L16
 247              	.LVL13:
 248              	.L19:
 537:.\Generated_Source\PSoC4/USBFS_std.c ****     { 
 538:.\Generated_Source\PSoC4/USBFS_std.c ****         if (0u != (USBFS_EP[i].addr & USBFS_DIR_IN))
 249              		.loc 1 538 0
 250 0004 5A00     		lsl	r2, r3, #1
 251 0006 D218     		add	r2, r2, r3
 252 0008 9200     		lsl	r2, r2, #2
 253 000a 0C49     		ldr	r1, .L20
 254 000c 8A18     		add	r2, r1, r2
 255 000e 1279     		ldrb	r2, [r2, #4]
ARM GAS  C:\Users\LAIR\AppData\Local\Temp\cciUanLt.s 			page 15


 256 0010 52B2     		sxtb	r2, r2
 257 0012 002A     		cmp	r2, #0
 258 0014 06DA     		bge	.L17
 539:.\Generated_Source\PSoC4/USBFS_std.c ****         {
 540:.\Generated_Source\PSoC4/USBFS_std.c ****             /* IN Endpoint */
 541:.\Generated_Source\PSoC4/USBFS_std.c ****             USBFS_EP[i].apiEpState = USBFS_EVENT_PENDING;
 259              		.loc 1 541 0
 260 0016 5A00     		lsl	r2, r3, #1
 261 0018 D218     		add	r2, r2, r3
 262 001a 9200     		lsl	r2, r2, #2
 263 001c 8A18     		add	r2, r1, r2
 264 001e 0121     		mov	r1, #1
 265 0020 5170     		strb	r1, [r2, #1]
 266 0022 06E0     		b	.L18
 267              	.L17:
 542:.\Generated_Source\PSoC4/USBFS_std.c ****         }
 543:.\Generated_Source\PSoC4/USBFS_std.c ****         else
 544:.\Generated_Source\PSoC4/USBFS_std.c ****         {
 545:.\Generated_Source\PSoC4/USBFS_std.c ****             /* OUT Endpoint */
 546:.\Generated_Source\PSoC4/USBFS_std.c ****             USBFS_EP[i].apiEpState = USBFS_NO_EVENT_PENDING;
 268              		.loc 1 546 0
 269 0024 5A00     		lsl	r2, r3, #1
 270 0026 D218     		add	r2, r2, r3
 271 0028 9200     		lsl	r2, r2, #2
 272 002a 0449     		ldr	r1, .L20
 273 002c 8A18     		add	r2, r1, r2
 274 002e 0021     		mov	r1, #0
 275 0030 5170     		strb	r1, [r2, #1]
 276              	.L18:
 536:.\Generated_Source\PSoC4/USBFS_std.c ****     { 
 277              		.loc 1 536 0 discriminator 2
 278 0032 0133     		add	r3, r3, #1
 279              	.LVL14:
 280 0034 DBB2     		uxtb	r3, r3
 281              	.LVL15:
 282              	.L16:
 536:.\Generated_Source\PSoC4/USBFS_std.c ****     { 
 283              		.loc 1 536 0 is_stmt 0 discriminator 1
 284 0036 082B     		cmp	r3, #8
 285 0038 E4D9     		bls	.L19
 547:.\Generated_Source\PSoC4/USBFS_std.c ****         }
 548:.\Generated_Source\PSoC4/USBFS_std.c ****     }
 549:.\Generated_Source\PSoC4/USBFS_std.c ****                     
 550:.\Generated_Source\PSoC4/USBFS_std.c **** }
 286              		.loc 1 550 0 is_stmt 1
 287              		@ sp needed
 288 003a 7047     		bx	lr
 289              	.L21:
 290              		.align	2
 291              	.L20:
 292 003c 00000000 		.word	USBFS_EP
 293              		.cfi_endproc
 294              	.LFE68:
 295              		.size	USBFS_EpStateInit, .-USBFS_EpStateInit
 296              		.section	.text.USBFS_GetConfigTablePtr,"ax",%progbits
 297              		.align	2
 298              		.global	USBFS_GetConfigTablePtr
ARM GAS  C:\Users\LAIR\AppData\Local\Temp\cciUanLt.s 			page 16


 299              		.code	16
 300              		.thumb_func
 301              		.type	USBFS_GetConfigTablePtr, %function
 302              	USBFS_GetConfigTablePtr:
 303              	.LFB71:
 551:.\Generated_Source\PSoC4/USBFS_std.c **** 
 552:.\Generated_Source\PSoC4/USBFS_std.c **** 
 553:.\Generated_Source\PSoC4/USBFS_std.c **** /*******************************************************************************
 554:.\Generated_Source\PSoC4/USBFS_std.c **** * Function Name: USBFS_Config
 555:.\Generated_Source\PSoC4/USBFS_std.c **** ****************************************************************************//**
 556:.\Generated_Source\PSoC4/USBFS_std.c **** *
 557:.\Generated_Source\PSoC4/USBFS_std.c **** *  This routine configures endpoints for the entire configuration by scanning
 558:.\Generated_Source\PSoC4/USBFS_std.c **** *  the configuration descriptor.
 559:.\Generated_Source\PSoC4/USBFS_std.c **** *
 560:.\Generated_Source\PSoC4/USBFS_std.c **** *  \param clearAltSetting: It configures the bAlternateSetting 0 for each interface.
 561:.\Generated_Source\PSoC4/USBFS_std.c **** *
 562:.\Generated_Source\PSoC4/USBFS_std.c **** * USBFS_interfaceClass - Initialized class array for each interface.
 563:.\Generated_Source\PSoC4/USBFS_std.c **** *   It is used for handling Class specific requests depend on interface class.
 564:.\Generated_Source\PSoC4/USBFS_std.c **** *   Different classes in multiple Alternate settings does not supported.
 565:.\Generated_Source\PSoC4/USBFS_std.c **** *
 566:.\Generated_Source\PSoC4/USBFS_std.c **** * \reentrant
 567:.\Generated_Source\PSoC4/USBFS_std.c **** *  No.
 568:.\Generated_Source\PSoC4/USBFS_std.c **** *
 569:.\Generated_Source\PSoC4/USBFS_std.c **** *******************************************************************************/
 570:.\Generated_Source\PSoC4/USBFS_std.c **** void USBFS_Config(uint8 clearAltSetting) 
 571:.\Generated_Source\PSoC4/USBFS_std.c **** {
 572:.\Generated_Source\PSoC4/USBFS_std.c ****     uint8 ep;
 573:.\Generated_Source\PSoC4/USBFS_std.c ****     uint8 curEp;
 574:.\Generated_Source\PSoC4/USBFS_std.c ****     uint8 i;
 575:.\Generated_Source\PSoC4/USBFS_std.c ****     uint8 epType;
 576:.\Generated_Source\PSoC4/USBFS_std.c ****     const uint8 *pDescr;
 577:.\Generated_Source\PSoC4/USBFS_std.c ****     
 578:.\Generated_Source\PSoC4/USBFS_std.c ****     #if (!USBFS_EP_MANAGEMENT_DMA_AUTO)
 579:.\Generated_Source\PSoC4/USBFS_std.c ****         uint16 buffCount = 0u;
 580:.\Generated_Source\PSoC4/USBFS_std.c ****     #endif /* (!USBFS_EP_MANAGEMENT_DMA_AUTO) */
 581:.\Generated_Source\PSoC4/USBFS_std.c **** 
 582:.\Generated_Source\PSoC4/USBFS_std.c ****     const T_USBFS_LUT CYCODE *pTmp;
 583:.\Generated_Source\PSoC4/USBFS_std.c ****     const T_USBFS_EP_SETTINGS_BLOCK CYCODE *pEP;
 584:.\Generated_Source\PSoC4/USBFS_std.c **** 
 585:.\Generated_Source\PSoC4/USBFS_std.c ****     /* Clear endpoints settings */
 586:.\Generated_Source\PSoC4/USBFS_std.c ****     for (ep = 0u; ep < USBFS_MAX_EP; ++ep)
 587:.\Generated_Source\PSoC4/USBFS_std.c ****     {
 588:.\Generated_Source\PSoC4/USBFS_std.c ****         USBFS_EP[ep].attrib     = 0u;
 589:.\Generated_Source\PSoC4/USBFS_std.c ****         USBFS_EP[ep].hwEpState  = 0u;
 590:.\Generated_Source\PSoC4/USBFS_std.c ****         USBFS_EP[ep].epToggle   = 0u;
 591:.\Generated_Source\PSoC4/USBFS_std.c ****         USBFS_EP[ep].bufferSize = 0u;
 592:.\Generated_Source\PSoC4/USBFS_std.c ****         USBFS_EP[ep].interface  = 0u;
 593:.\Generated_Source\PSoC4/USBFS_std.c ****         USBFS_EP[ep].apiEpState = USBFS_NO_EVENT_PENDING;
 594:.\Generated_Source\PSoC4/USBFS_std.c ****         USBFS_EP[ep].epMode     = USBFS_MODE_DISABLE;   
 595:.\Generated_Source\PSoC4/USBFS_std.c ****     }
 596:.\Generated_Source\PSoC4/USBFS_std.c **** 
 597:.\Generated_Source\PSoC4/USBFS_std.c ****     /* Clear Alternate settings for all interfaces. */
 598:.\Generated_Source\PSoC4/USBFS_std.c ****     if (0u != clearAltSetting)
 599:.\Generated_Source\PSoC4/USBFS_std.c ****     {
 600:.\Generated_Source\PSoC4/USBFS_std.c ****         for (i = 0u; i < USBFS_MAX_INTERFACES_NUMBER; ++i)
 601:.\Generated_Source\PSoC4/USBFS_std.c ****         {
 602:.\Generated_Source\PSoC4/USBFS_std.c ****             USBFS_interfaceSetting[i]     = 0u;
ARM GAS  C:\Users\LAIR\AppData\Local\Temp\cciUanLt.s 			page 17


 603:.\Generated_Source\PSoC4/USBFS_std.c ****             USBFS_interfaceSettingLast[i] = 0u;
 604:.\Generated_Source\PSoC4/USBFS_std.c ****         }
 605:.\Generated_Source\PSoC4/USBFS_std.c ****     }
 606:.\Generated_Source\PSoC4/USBFS_std.c **** 
 607:.\Generated_Source\PSoC4/USBFS_std.c ****     /* Init Endpoints and Device Status if configured */
 608:.\Generated_Source\PSoC4/USBFS_std.c ****     if (USBFS_configuration > 0u)
 609:.\Generated_Source\PSoC4/USBFS_std.c ****     {
 610:.\Generated_Source\PSoC4/USBFS_std.c ****         #if defined(USBFS_ENABLE_CDC_CLASS)
 611:.\Generated_Source\PSoC4/USBFS_std.c ****             uint8 cdcComNums = 0u;
 612:.\Generated_Source\PSoC4/USBFS_std.c ****         #endif  /* (USBFS_ENABLE_CDC_CLASS) */  
 613:.\Generated_Source\PSoC4/USBFS_std.c **** 
 614:.\Generated_Source\PSoC4/USBFS_std.c ****         pTmp = USBFS_GetConfigTablePtr(USBFS_configuration - 1u);
 615:.\Generated_Source\PSoC4/USBFS_std.c ****         
 616:.\Generated_Source\PSoC4/USBFS_std.c ****         /* Set Power status for current configuration */
 617:.\Generated_Source\PSoC4/USBFS_std.c ****         pDescr = (const uint8 *)pTmp->p_list;
 618:.\Generated_Source\PSoC4/USBFS_std.c ****         if ((pDescr[USBFS_CONFIG_DESCR_ATTRIB] & USBFS_CONFIG_DESCR_ATTRIB_SELF_POWERED) != 0u)
 619:.\Generated_Source\PSoC4/USBFS_std.c ****         {
 620:.\Generated_Source\PSoC4/USBFS_std.c ****             USBFS_deviceStatus |= (uint8)  USBFS_DEVICE_STATUS_SELF_POWERED;
 621:.\Generated_Source\PSoC4/USBFS_std.c ****         }
 622:.\Generated_Source\PSoC4/USBFS_std.c ****         else
 623:.\Generated_Source\PSoC4/USBFS_std.c ****         {
 624:.\Generated_Source\PSoC4/USBFS_std.c ****             USBFS_deviceStatus &= (uint8) ~USBFS_DEVICE_STATUS_SELF_POWERED;
 625:.\Generated_Source\PSoC4/USBFS_std.c ****         }
 626:.\Generated_Source\PSoC4/USBFS_std.c ****         
 627:.\Generated_Source\PSoC4/USBFS_std.c ****         /* Move to next element */
 628:.\Generated_Source\PSoC4/USBFS_std.c ****         pTmp = &pTmp[1u];
 629:.\Generated_Source\PSoC4/USBFS_std.c ****         ep = pTmp->c;  /* For this table, c is the number of endpoints configurations  */
 630:.\Generated_Source\PSoC4/USBFS_std.c **** 
 631:.\Generated_Source\PSoC4/USBFS_std.c ****         #if (USBFS_EP_MANAGEMENT_MANUAL && USBFS_EP_ALLOC_DYNAMIC)
 632:.\Generated_Source\PSoC4/USBFS_std.c ****             /* Configure for dynamic EP memory allocation */
 633:.\Generated_Source\PSoC4/USBFS_std.c ****             /* p_list points the endpoint setting table. */
 634:.\Generated_Source\PSoC4/USBFS_std.c ****             pEP = (T_USBFS_EP_SETTINGS_BLOCK *) pTmp->p_list;
 635:.\Generated_Source\PSoC4/USBFS_std.c ****             
 636:.\Generated_Source\PSoC4/USBFS_std.c ****             for (i = 0u; i < ep; i++)
 637:.\Generated_Source\PSoC4/USBFS_std.c ****             {     
 638:.\Generated_Source\PSoC4/USBFS_std.c ****                 /* Compare current Alternate setting with EP Alt */
 639:.\Generated_Source\PSoC4/USBFS_std.c ****                 if (USBFS_interfaceSetting[pEP->interface] == pEP->altSetting)
 640:.\Generated_Source\PSoC4/USBFS_std.c ****                 {                                                          
 641:.\Generated_Source\PSoC4/USBFS_std.c ****                     curEp  = pEP->addr & USBFS_DIR_UNUSED;
 642:.\Generated_Source\PSoC4/USBFS_std.c ****                     epType = pEP->attributes & USBFS_EP_TYPE_MASK;
 643:.\Generated_Source\PSoC4/USBFS_std.c ****                     
 644:.\Generated_Source\PSoC4/USBFS_std.c ****                     USBFS_EP[curEp].addr       = pEP->addr;
 645:.\Generated_Source\PSoC4/USBFS_std.c ****                     USBFS_EP[curEp].attrib     = pEP->attributes;
 646:.\Generated_Source\PSoC4/USBFS_std.c ****                     USBFS_EP[curEp].bufferSize = pEP->bufferSize;
 647:.\Generated_Source\PSoC4/USBFS_std.c **** 
 648:.\Generated_Source\PSoC4/USBFS_std.c ****                     if (0u != (pEP->addr & USBFS_DIR_IN))
 649:.\Generated_Source\PSoC4/USBFS_std.c ****                     {
 650:.\Generated_Source\PSoC4/USBFS_std.c ****                         /* IN Endpoint */
 651:.\Generated_Source\PSoC4/USBFS_std.c ****                         USBFS_EP[curEp].epMode     = USBFS_GET_ACTIVE_IN_EP_CR0_MODE(epType);
 652:.\Generated_Source\PSoC4/USBFS_std.c ****                         USBFS_EP[curEp].apiEpState = USBFS_EVENT_PENDING;
 653:.\Generated_Source\PSoC4/USBFS_std.c ****                     
 654:.\Generated_Source\PSoC4/USBFS_std.c ****                     #if (defined(USBFS_ENABLE_MIDI_STREAMING) && (USBFS_MIDI_IN_BUFF_SIZE > 0))
 655:.\Generated_Source\PSoC4/USBFS_std.c ****                         if ((pEP->bMisc == USBFS_CLASS_AUDIO) && (epType == USBFS_EP_TYPE_BULK))
 656:.\Generated_Source\PSoC4/USBFS_std.c ****                         {
 657:.\Generated_Source\PSoC4/USBFS_std.c ****                             USBFS_midi_in_ep = curEp;
 658:.\Generated_Source\PSoC4/USBFS_std.c ****                         }
 659:.\Generated_Source\PSoC4/USBFS_std.c ****                     #endif  /* (USBFS_ENABLE_MIDI_STREAMING) */
ARM GAS  C:\Users\LAIR\AppData\Local\Temp\cciUanLt.s 			page 18


 660:.\Generated_Source\PSoC4/USBFS_std.c ****                     }
 661:.\Generated_Source\PSoC4/USBFS_std.c ****                     else
 662:.\Generated_Source\PSoC4/USBFS_std.c ****                     {
 663:.\Generated_Source\PSoC4/USBFS_std.c ****                         /* OUT Endpoint */
 664:.\Generated_Source\PSoC4/USBFS_std.c ****                         USBFS_EP[curEp].epMode     = USBFS_GET_ACTIVE_OUT_EP_CR0_MODE(epType);
 665:.\Generated_Source\PSoC4/USBFS_std.c ****                         USBFS_EP[curEp].apiEpState = USBFS_NO_EVENT_PENDING;
 666:.\Generated_Source\PSoC4/USBFS_std.c ****                         
 667:.\Generated_Source\PSoC4/USBFS_std.c ****                     #if (defined(USBFS_ENABLE_MIDI_STREAMING) && (USBFS_MIDI_OUT_BUFF_SIZE > 0))
 668:.\Generated_Source\PSoC4/USBFS_std.c ****                         if ((pEP->bMisc == USBFS_CLASS_AUDIO) && (epType == USBFS_EP_TYPE_BULK))
 669:.\Generated_Source\PSoC4/USBFS_std.c ****                         {
 670:.\Generated_Source\PSoC4/USBFS_std.c ****                             USBFS_midi_out_ep = curEp;
 671:.\Generated_Source\PSoC4/USBFS_std.c ****                         }
 672:.\Generated_Source\PSoC4/USBFS_std.c ****                     #endif  /* (USBFS_ENABLE_MIDI_STREAMING) */
 673:.\Generated_Source\PSoC4/USBFS_std.c ****                     }
 674:.\Generated_Source\PSoC4/USBFS_std.c **** 
 675:.\Generated_Source\PSoC4/USBFS_std.c ****                 #if(defined (USBFS_ENABLE_CDC_CLASS))
 676:.\Generated_Source\PSoC4/USBFS_std.c ****                     if((pEP->bMisc == USBFS_CLASS_CDC_DATA) ||(pEP->bMisc == USBFS_CLASS_CDC))
 677:.\Generated_Source\PSoC4/USBFS_std.c ****                     {
 678:.\Generated_Source\PSoC4/USBFS_std.c ****                         cdcComNums = USBFS_Cdc_EpInit(pEP, curEp, cdcComNums);
 679:.\Generated_Source\PSoC4/USBFS_std.c ****                     }
 680:.\Generated_Source\PSoC4/USBFS_std.c ****                 #endif  /* (USBFS_ENABLE_CDC_CLASS) */
 681:.\Generated_Source\PSoC4/USBFS_std.c ****                 }
 682:.\Generated_Source\PSoC4/USBFS_std.c ****                 
 683:.\Generated_Source\PSoC4/USBFS_std.c ****                 pEP = &pEP[1u];
 684:.\Generated_Source\PSoC4/USBFS_std.c ****             }
 685:.\Generated_Source\PSoC4/USBFS_std.c ****             
 686:.\Generated_Source\PSoC4/USBFS_std.c ****         #else
 687:.\Generated_Source\PSoC4/USBFS_std.c ****             for (i = USBFS_EP1; i < USBFS_MAX_EP; ++i)
 688:.\Generated_Source\PSoC4/USBFS_std.c ****             {
 689:.\Generated_Source\PSoC4/USBFS_std.c ****                 /* p_list points the endpoint setting table. */
 690:.\Generated_Source\PSoC4/USBFS_std.c ****                 pEP = (const T_USBFS_EP_SETTINGS_BLOCK CYCODE *) pTmp->p_list;
 691:.\Generated_Source\PSoC4/USBFS_std.c ****                 /* Find max length for each EP and select it (length could be different in differen
 692:.\Generated_Source\PSoC4/USBFS_std.c ****                 /* but other settings should be correct with regards to Interface alt Setting */
 693:.\Generated_Source\PSoC4/USBFS_std.c ****                 
 694:.\Generated_Source\PSoC4/USBFS_std.c ****                 for (curEp = 0u; curEp < ep; ++curEp)
 695:.\Generated_Source\PSoC4/USBFS_std.c ****                 {
 696:.\Generated_Source\PSoC4/USBFS_std.c ****                     if (i == (pEP->addr & USBFS_DIR_UNUSED))
 697:.\Generated_Source\PSoC4/USBFS_std.c ****                     {
 698:.\Generated_Source\PSoC4/USBFS_std.c ****                         /* Compare endpoint buffers size with current size to find greater. */
 699:.\Generated_Source\PSoC4/USBFS_std.c ****                         if (USBFS_EP[i].bufferSize < pEP->bufferSize)
 700:.\Generated_Source\PSoC4/USBFS_std.c ****                         {
 701:.\Generated_Source\PSoC4/USBFS_std.c ****                             USBFS_EP[i].bufferSize = pEP->bufferSize;
 702:.\Generated_Source\PSoC4/USBFS_std.c ****                         }
 703:.\Generated_Source\PSoC4/USBFS_std.c ****                         
 704:.\Generated_Source\PSoC4/USBFS_std.c ****                         /* Compare current Alternate setting with EP Alt */
 705:.\Generated_Source\PSoC4/USBFS_std.c ****                         if (USBFS_interfaceSetting[pEP->interface] == pEP->altSetting)
 706:.\Generated_Source\PSoC4/USBFS_std.c ****                         {                            
 707:.\Generated_Source\PSoC4/USBFS_std.c ****                             USBFS_EP[i].addr = pEP->addr;
 708:.\Generated_Source\PSoC4/USBFS_std.c ****                             USBFS_EP[i].attrib = pEP->attributes;
 709:.\Generated_Source\PSoC4/USBFS_std.c ****                             
 710:.\Generated_Source\PSoC4/USBFS_std.c ****                             epType = pEP->attributes & USBFS_EP_TYPE_MASK;
 711:.\Generated_Source\PSoC4/USBFS_std.c ****                             
 712:.\Generated_Source\PSoC4/USBFS_std.c ****                             if (0u != (pEP->addr & USBFS_DIR_IN))
 713:.\Generated_Source\PSoC4/USBFS_std.c ****                             {
 714:.\Generated_Source\PSoC4/USBFS_std.c ****                                 /* IN Endpoint */
 715:.\Generated_Source\PSoC4/USBFS_std.c ****                                 USBFS_EP[i].epMode     = USBFS_GET_ACTIVE_IN_EP_CR0_MODE(epType);
 716:.\Generated_Source\PSoC4/USBFS_std.c ****                                 USBFS_EP[i].apiEpState = USBFS_EVENT_PENDING;
ARM GAS  C:\Users\LAIR\AppData\Local\Temp\cciUanLt.s 			page 19


 717:.\Generated_Source\PSoC4/USBFS_std.c ****                                 
 718:.\Generated_Source\PSoC4/USBFS_std.c ****                             #if (defined(USBFS_ENABLE_MIDI_STREAMING) && (USBFS_MIDI_IN_BUFF_SIZE >
 719:.\Generated_Source\PSoC4/USBFS_std.c ****                                 if ((pEP->bMisc == USBFS_CLASS_AUDIO) && (epType == USBFS_EP_TYPE_B
 720:.\Generated_Source\PSoC4/USBFS_std.c ****                                 {
 721:.\Generated_Source\PSoC4/USBFS_std.c ****                                     USBFS_midi_in_ep = i;
 722:.\Generated_Source\PSoC4/USBFS_std.c ****                                 }
 723:.\Generated_Source\PSoC4/USBFS_std.c ****                             #endif  /* (USBFS_ENABLE_MIDI_STREAMING) */
 724:.\Generated_Source\PSoC4/USBFS_std.c ****                             }
 725:.\Generated_Source\PSoC4/USBFS_std.c ****                             else
 726:.\Generated_Source\PSoC4/USBFS_std.c ****                             {
 727:.\Generated_Source\PSoC4/USBFS_std.c ****                                 /* OUT Endpoint */
 728:.\Generated_Source\PSoC4/USBFS_std.c ****                                 USBFS_EP[i].epMode     = USBFS_GET_ACTIVE_OUT_EP_CR0_MODE(epType);
 729:.\Generated_Source\PSoC4/USBFS_std.c ****                                 USBFS_EP[i].apiEpState = USBFS_NO_EVENT_PENDING;
 730:.\Generated_Source\PSoC4/USBFS_std.c ****                                 
 731:.\Generated_Source\PSoC4/USBFS_std.c ****                             #if (defined(USBFS_ENABLE_MIDI_STREAMING) && (USBFS_MIDI_OUT_BUFF_SIZE 
 732:.\Generated_Source\PSoC4/USBFS_std.c ****                                 if ((pEP->bMisc == USBFS_CLASS_AUDIO) && (epType == USBFS_EP_TYPE_B
 733:.\Generated_Source\PSoC4/USBFS_std.c ****                                 {
 734:.\Generated_Source\PSoC4/USBFS_std.c ****                                     USBFS_midi_out_ep = i;
 735:.\Generated_Source\PSoC4/USBFS_std.c ****                                 }
 736:.\Generated_Source\PSoC4/USBFS_std.c ****                             #endif  /* (USBFS_ENABLE_MIDI_STREAMING) */
 737:.\Generated_Source\PSoC4/USBFS_std.c ****                             }
 738:.\Generated_Source\PSoC4/USBFS_std.c **** 
 739:.\Generated_Source\PSoC4/USBFS_std.c ****                         #if (defined(USBFS_ENABLE_CDC_CLASS))
 740:.\Generated_Source\PSoC4/USBFS_std.c ****                             if((pEP->bMisc == USBFS_CLASS_CDC_DATA) ||(pEP->bMisc == USBFS_CLASS_CD
 741:.\Generated_Source\PSoC4/USBFS_std.c ****                             {
 742:.\Generated_Source\PSoC4/USBFS_std.c ****                                 cdcComNums = USBFS_Cdc_EpInit(pEP, i, cdcComNums);
 743:.\Generated_Source\PSoC4/USBFS_std.c ****                             }
 744:.\Generated_Source\PSoC4/USBFS_std.c ****                         #endif  /* (USBFS_ENABLE_CDC_CLASS) */
 745:.\Generated_Source\PSoC4/USBFS_std.c **** 
 746:.\Generated_Source\PSoC4/USBFS_std.c ****                             #if (USBFS_EP_MANAGEMENT_DMA_AUTO)
 747:.\Generated_Source\PSoC4/USBFS_std.c ****                                 break;  /* Use first EP setting in Auto memory management */
 748:.\Generated_Source\PSoC4/USBFS_std.c ****                             #endif /* (USBFS_EP_MANAGEMENT_DMA_AUTO) */
 749:.\Generated_Source\PSoC4/USBFS_std.c ****                         }
 750:.\Generated_Source\PSoC4/USBFS_std.c ****                     }
 751:.\Generated_Source\PSoC4/USBFS_std.c ****                     
 752:.\Generated_Source\PSoC4/USBFS_std.c ****                     pEP = &pEP[1u];
 753:.\Generated_Source\PSoC4/USBFS_std.c ****                 }
 754:.\Generated_Source\PSoC4/USBFS_std.c ****             }
 755:.\Generated_Source\PSoC4/USBFS_std.c ****         #endif /*  (USBFS_EP_MANAGEMENT_MANUAL && USBFS_EP_ALLOC_DYNAMIC) */
 756:.\Generated_Source\PSoC4/USBFS_std.c **** 
 757:.\Generated_Source\PSoC4/USBFS_std.c ****         /* Init class array for each interface and interface number for each EP.
 758:.\Generated_Source\PSoC4/USBFS_std.c ****         *  It is used for handling Class specific requests directed to either an
 759:.\Generated_Source\PSoC4/USBFS_std.c ****         *  interface or the endpoint.
 760:.\Generated_Source\PSoC4/USBFS_std.c ****         */
 761:.\Generated_Source\PSoC4/USBFS_std.c ****         /* p_list points the endpoint setting table. */
 762:.\Generated_Source\PSoC4/USBFS_std.c ****         pEP = (const T_USBFS_EP_SETTINGS_BLOCK CYCODE *) pTmp->p_list;
 763:.\Generated_Source\PSoC4/USBFS_std.c ****         for (i = 0u; i < ep; i++)
 764:.\Generated_Source\PSoC4/USBFS_std.c ****         {
 765:.\Generated_Source\PSoC4/USBFS_std.c ****             /* Configure interface number for each EP */
 766:.\Generated_Source\PSoC4/USBFS_std.c ****             USBFS_EP[pEP->addr & USBFS_DIR_UNUSED].interface = pEP->interface;
 767:.\Generated_Source\PSoC4/USBFS_std.c ****             pEP = &pEP[1u];
 768:.\Generated_Source\PSoC4/USBFS_std.c ****         }
 769:.\Generated_Source\PSoC4/USBFS_std.c ****         
 770:.\Generated_Source\PSoC4/USBFS_std.c ****         /* Init pointer on interface class table */
 771:.\Generated_Source\PSoC4/USBFS_std.c ****         USBFS_interfaceClass = USBFS_GetInterfaceClassTablePtr();
 772:.\Generated_Source\PSoC4/USBFS_std.c ****         
 773:.\Generated_Source\PSoC4/USBFS_std.c ****     /* Set the endpoint buffer addresses */
ARM GAS  C:\Users\LAIR\AppData\Local\Temp\cciUanLt.s 			page 20


 774:.\Generated_Source\PSoC4/USBFS_std.c ****     #if (!USBFS_EP_MANAGEMENT_DMA_AUTO)
 775:.\Generated_Source\PSoC4/USBFS_std.c ****         buffCount = 0u;
 776:.\Generated_Source\PSoC4/USBFS_std.c ****         for (ep = USBFS_EP1; ep < USBFS_MAX_EP; ++ep)
 777:.\Generated_Source\PSoC4/USBFS_std.c ****         {
 778:.\Generated_Source\PSoC4/USBFS_std.c ****             USBFS_EP[ep].buffOffset = buffCount;        
 779:.\Generated_Source\PSoC4/USBFS_std.c ****             buffCount += USBFS_EP[ep].bufferSize;
 780:.\Generated_Source\PSoC4/USBFS_std.c ****             
 781:.\Generated_Source\PSoC4/USBFS_std.c ****         #if (USBFS_GEN_16BITS_EP_ACCESS)
 782:.\Generated_Source\PSoC4/USBFS_std.c ****             /* Align EP buffers to be event size to access 16-bits DR register. */
 783:.\Generated_Source\PSoC4/USBFS_std.c ****             buffCount += (0u != (buffCount & 0x01u)) ? 1u : 0u;
 784:.\Generated_Source\PSoC4/USBFS_std.c ****         #endif /* (USBFS_GEN_16BITS_EP_ACCESS) */            
 785:.\Generated_Source\PSoC4/USBFS_std.c ****         }
 786:.\Generated_Source\PSoC4/USBFS_std.c ****     #endif /* (!USBFS_EP_MANAGEMENT_DMA_AUTO) */
 787:.\Generated_Source\PSoC4/USBFS_std.c **** 
 788:.\Generated_Source\PSoC4/USBFS_std.c ****         /* Configure hardware registers */
 789:.\Generated_Source\PSoC4/USBFS_std.c ****         USBFS_ConfigReg();
 790:.\Generated_Source\PSoC4/USBFS_std.c ****     }
 791:.\Generated_Source\PSoC4/USBFS_std.c **** }
 792:.\Generated_Source\PSoC4/USBFS_std.c **** 
 793:.\Generated_Source\PSoC4/USBFS_std.c **** 
 794:.\Generated_Source\PSoC4/USBFS_std.c **** /*******************************************************************************
 795:.\Generated_Source\PSoC4/USBFS_std.c **** * Function Name: USBFS_ConfigAltChanged
 796:.\Generated_Source\PSoC4/USBFS_std.c **** ****************************************************************************//**
 797:.\Generated_Source\PSoC4/USBFS_std.c **** *
 798:.\Generated_Source\PSoC4/USBFS_std.c **** *  This routine update configuration for the required endpoints only.
 799:.\Generated_Source\PSoC4/USBFS_std.c **** *  It is called after SET_INTERFACE request when Static memory allocation used.
 800:.\Generated_Source\PSoC4/USBFS_std.c **** *
 801:.\Generated_Source\PSoC4/USBFS_std.c **** * \reentrant
 802:.\Generated_Source\PSoC4/USBFS_std.c **** *  No.
 803:.\Generated_Source\PSoC4/USBFS_std.c **** *
 804:.\Generated_Source\PSoC4/USBFS_std.c **** *******************************************************************************/
 805:.\Generated_Source\PSoC4/USBFS_std.c **** void USBFS_ConfigAltChanged(void) 
 806:.\Generated_Source\PSoC4/USBFS_std.c **** {
 807:.\Generated_Source\PSoC4/USBFS_std.c ****     uint32 ep;
 808:.\Generated_Source\PSoC4/USBFS_std.c ****     uint32 curEp;
 809:.\Generated_Source\PSoC4/USBFS_std.c ****     uint32 epType;
 810:.\Generated_Source\PSoC4/USBFS_std.c ****     uint32 i;
 811:.\Generated_Source\PSoC4/USBFS_std.c ****     uint8 interfaceNum;
 812:.\Generated_Source\PSoC4/USBFS_std.c **** 
 813:.\Generated_Source\PSoC4/USBFS_std.c ****     const T_USBFS_LUT CYCODE *pTmp;
 814:.\Generated_Source\PSoC4/USBFS_std.c ****     const T_USBFS_EP_SETTINGS_BLOCK CYCODE *pEP;
 815:.\Generated_Source\PSoC4/USBFS_std.c **** 
 816:.\Generated_Source\PSoC4/USBFS_std.c ****     /* Init Endpoints and Device Status if configured */
 817:.\Generated_Source\PSoC4/USBFS_std.c ****     if (USBFS_configuration > 0u)
 818:.\Generated_Source\PSoC4/USBFS_std.c ****     {
 819:.\Generated_Source\PSoC4/USBFS_std.c ****         /* Get number of endpoints configurations (ep). */
 820:.\Generated_Source\PSoC4/USBFS_std.c ****         pTmp = USBFS_GetConfigTablePtr(USBFS_configuration - 1u);
 821:.\Generated_Source\PSoC4/USBFS_std.c ****         pTmp = &pTmp[1u];
 822:.\Generated_Source\PSoC4/USBFS_std.c ****         ep = pTmp->c;
 823:.\Generated_Source\PSoC4/USBFS_std.c **** 
 824:.\Generated_Source\PSoC4/USBFS_std.c ****         /* Get pointer to endpoints setting table (pEP). */
 825:.\Generated_Source\PSoC4/USBFS_std.c ****         pEP = (const T_USBFS_EP_SETTINGS_BLOCK CYCODE *) pTmp->p_list;
 826:.\Generated_Source\PSoC4/USBFS_std.c ****         
 827:.\Generated_Source\PSoC4/USBFS_std.c ****         /* Look through all possible endpoint configurations. Find endpoints 
 828:.\Generated_Source\PSoC4/USBFS_std.c ****         * which belong to current interface and alternate settings for 
 829:.\Generated_Source\PSoC4/USBFS_std.c ****         * re-configuration.
 830:.\Generated_Source\PSoC4/USBFS_std.c ****         */
ARM GAS  C:\Users\LAIR\AppData\Local\Temp\cciUanLt.s 			page 21


 831:.\Generated_Source\PSoC4/USBFS_std.c ****         interfaceNum = USBFS_interfaceNumber;
 832:.\Generated_Source\PSoC4/USBFS_std.c ****         for (i = 0u; i < ep; i++)
 833:.\Generated_Source\PSoC4/USBFS_std.c ****         {
 834:.\Generated_Source\PSoC4/USBFS_std.c ****             /* Find endpoints which belong to current interface and alternate settings. */
 835:.\Generated_Source\PSoC4/USBFS_std.c ****             if ((interfaceNum == pEP->interface) && 
 836:.\Generated_Source\PSoC4/USBFS_std.c ****                 (USBFS_interfaceSetting[interfaceNum] == pEP->altSetting))
 837:.\Generated_Source\PSoC4/USBFS_std.c ****             {
 838:.\Generated_Source\PSoC4/USBFS_std.c ****                 curEp  = ((uint32) pEP->addr & USBFS_DIR_UNUSED);
 839:.\Generated_Source\PSoC4/USBFS_std.c ****                 epType = ((uint32) pEP->attributes & USBFS_EP_TYPE_MASK);
 840:.\Generated_Source\PSoC4/USBFS_std.c ****                 
 841:.\Generated_Source\PSoC4/USBFS_std.c ****                 /* Change the SIE mode for the selected EP to NAK ALL */
 842:.\Generated_Source\PSoC4/USBFS_std.c ****                 USBFS_EP[curEp].epToggle   = 0u;
 843:.\Generated_Source\PSoC4/USBFS_std.c ****                 USBFS_EP[curEp].addr       = pEP->addr;
 844:.\Generated_Source\PSoC4/USBFS_std.c ****                 USBFS_EP[curEp].attrib     = pEP->attributes;
 845:.\Generated_Source\PSoC4/USBFS_std.c ****                 USBFS_EP[curEp].bufferSize = pEP->bufferSize;
 846:.\Generated_Source\PSoC4/USBFS_std.c **** 
 847:.\Generated_Source\PSoC4/USBFS_std.c ****                 if (0u != (pEP->addr & USBFS_DIR_IN))
 848:.\Generated_Source\PSoC4/USBFS_std.c ****                 {
 849:.\Generated_Source\PSoC4/USBFS_std.c ****                     /* IN Endpoint */
 850:.\Generated_Source\PSoC4/USBFS_std.c ****                     USBFS_EP[curEp].epMode     = USBFS_GET_ACTIVE_IN_EP_CR0_MODE(epType);
 851:.\Generated_Source\PSoC4/USBFS_std.c ****                     USBFS_EP[curEp].apiEpState = USBFS_EVENT_PENDING;
 852:.\Generated_Source\PSoC4/USBFS_std.c ****                 }
 853:.\Generated_Source\PSoC4/USBFS_std.c ****                 else
 854:.\Generated_Source\PSoC4/USBFS_std.c ****                 {
 855:.\Generated_Source\PSoC4/USBFS_std.c ****                     /* OUT Endpoint */
 856:.\Generated_Source\PSoC4/USBFS_std.c ****                     USBFS_EP[curEp].epMode     = USBFS_GET_ACTIVE_OUT_EP_CR0_MODE(epType);
 857:.\Generated_Source\PSoC4/USBFS_std.c ****                     USBFS_EP[curEp].apiEpState = USBFS_NO_EVENT_PENDING;
 858:.\Generated_Source\PSoC4/USBFS_std.c ****                 }
 859:.\Generated_Source\PSoC4/USBFS_std.c ****                 
 860:.\Generated_Source\PSoC4/USBFS_std.c ****                 /* Make SIE to NAK any endpoint requests */
 861:.\Generated_Source\PSoC4/USBFS_std.c ****                 USBFS_SIE_EP_BASE.sieEp[curEp].epCr0 = USBFS_MODE_NAK_IN_OUT;
 862:.\Generated_Source\PSoC4/USBFS_std.c **** 
 863:.\Generated_Source\PSoC4/USBFS_std.c ****             #if (USBFS_EP_MANAGEMENT_DMA_AUTO)
 864:.\Generated_Source\PSoC4/USBFS_std.c ****                 /* Clear IN data ready. */
 865:.\Generated_Source\PSoC4/USBFS_std.c ****                 USBFS_ARB_EP_BASE.arbEp[curEp].epCfg &= (uint32) ~USBFS_ARB_EPX_CFG_IN_DATA_RDY;
 866:.\Generated_Source\PSoC4/USBFS_std.c **** 
 867:.\Generated_Source\PSoC4/USBFS_std.c ****                 /* Select endpoint number of reconfiguration */
 868:.\Generated_Source\PSoC4/USBFS_std.c ****                 USBFS_DYN_RECONFIG_REG = (uint32) ((curEp - 1u) << USBFS_DYN_RECONFIG_EP_SHIFT);
 869:.\Generated_Source\PSoC4/USBFS_std.c ****                 
 870:.\Generated_Source\PSoC4/USBFS_std.c ****                 /* Request for dynamic re-configuration of endpoint. */
 871:.\Generated_Source\PSoC4/USBFS_std.c ****                 USBFS_DYN_RECONFIG_REG |= USBFS_DYN_RECONFIG_ENABLE;
 872:.\Generated_Source\PSoC4/USBFS_std.c ****                 
 873:.\Generated_Source\PSoC4/USBFS_std.c ****                 /* Wait until block is ready for re-configuration */
 874:.\Generated_Source\PSoC4/USBFS_std.c ****                 while (0u == (USBFS_DYN_RECONFIG_REG & USBFS_DYN_RECONFIG_RDY_STS))
 875:.\Generated_Source\PSoC4/USBFS_std.c ****                 {
 876:.\Generated_Source\PSoC4/USBFS_std.c ****                 }
 877:.\Generated_Source\PSoC4/USBFS_std.c ****                 
 878:.\Generated_Source\PSoC4/USBFS_std.c ****                 /* Once DYN_RECONFIG_RDY_STS bit is set, FW can change the EP configuration. */
 879:.\Generated_Source\PSoC4/USBFS_std.c ****                 /* Change EP Type with new direction */
 880:.\Generated_Source\PSoC4/USBFS_std.c ****                 if (0u != (pEP->addr & USBFS_DIR_IN))
 881:.\Generated_Source\PSoC4/USBFS_std.c ****                 {
 882:.\Generated_Source\PSoC4/USBFS_std.c ****                     /* Set endpoint type: 0 - IN and 1 - OUT. */
 883:.\Generated_Source\PSoC4/USBFS_std.c ****                     USBFS_EP_TYPE_REG &= (uint32) ~(uint32)((uint32) 0x01u << (curEp - 1u));
 884:.\Generated_Source\PSoC4/USBFS_std.c ****                     
 885:.\Generated_Source\PSoC4/USBFS_std.c ****                 #if (CY_PSOC4)
 886:.\Generated_Source\PSoC4/USBFS_std.c ****                     /* Clear DMA_TERMIN for IN endpoint */
 887:.\Generated_Source\PSoC4/USBFS_std.c ****                     USBFS_ARB_EP_BASE.arbEp[curEp].epIntEn &= (uint32) ~USBFS_ARB_EPX_INT_DMA_TERMI
ARM GAS  C:\Users\LAIR\AppData\Local\Temp\cciUanLt.s 			page 22


 888:.\Generated_Source\PSoC4/USBFS_std.c ****                 #endif /* (CY_PSOC4) */
 889:.\Generated_Source\PSoC4/USBFS_std.c ****                 }
 890:.\Generated_Source\PSoC4/USBFS_std.c ****                 else
 891:.\Generated_Source\PSoC4/USBFS_std.c ****                 {
 892:.\Generated_Source\PSoC4/USBFS_std.c ****                     /* Set endpoint type: 0 - IN and 1- OUT. */
 893:.\Generated_Source\PSoC4/USBFS_std.c ****                     USBFS_EP_TYPE_REG |= (uint32) ((uint32) 0x01u << (curEp - 1u));
 894:.\Generated_Source\PSoC4/USBFS_std.c ****                     
 895:.\Generated_Source\PSoC4/USBFS_std.c ****                 #if (CY_PSOC4)
 896:.\Generated_Source\PSoC4/USBFS_std.c ****                     /* Set DMA_TERMIN for OUT endpoint */
 897:.\Generated_Source\PSoC4/USBFS_std.c ****                     USBFS_ARB_EP_BASE.arbEp[curEp].epIntEn |= (uint32) USBFS_ARB_EPX_INT_DMA_TERMIN
 898:.\Generated_Source\PSoC4/USBFS_std.c ****                 #endif /* (CY_PSOC4) */
 899:.\Generated_Source\PSoC4/USBFS_std.c ****                 }
 900:.\Generated_Source\PSoC4/USBFS_std.c ****                 
 901:.\Generated_Source\PSoC4/USBFS_std.c ****                 /* Complete dynamic re-configuration: all endpoint related status and signals 
 902:.\Generated_Source\PSoC4/USBFS_std.c ****                 * are set into the default state.
 903:.\Generated_Source\PSoC4/USBFS_std.c ****                 */
 904:.\Generated_Source\PSoC4/USBFS_std.c ****                 USBFS_DYN_RECONFIG_REG &= (uint32) ~USBFS_DYN_RECONFIG_ENABLE;
 905:.\Generated_Source\PSoC4/USBFS_std.c **** 
 906:.\Generated_Source\PSoC4/USBFS_std.c ****             #else
 907:.\Generated_Source\PSoC4/USBFS_std.c ****                 USBFS_SIE_EP_BASE.sieEp[curEp].epCnt0 = HI8(USBFS_EP[curEp].bufferSize);
 908:.\Generated_Source\PSoC4/USBFS_std.c ****                 USBFS_SIE_EP_BASE.sieEp[curEp].epCnt1 = LO8(USBFS_EP[curEp].bufferSize);
 909:.\Generated_Source\PSoC4/USBFS_std.c ****                 
 910:.\Generated_Source\PSoC4/USBFS_std.c ****                 #if (CY_PSOC4)
 911:.\Generated_Source\PSoC4/USBFS_std.c ****                     USBFS_ARB_EP16_BASE.arbEp[curEp].rwRa16  = (uint32) USBFS_EP[curEp].buffOffset;
 912:.\Generated_Source\PSoC4/USBFS_std.c ****                     USBFS_ARB_EP16_BASE.arbEp[curEp].rwWa16  = (uint32) USBFS_EP[curEp].buffOffset;
 913:.\Generated_Source\PSoC4/USBFS_std.c ****                 #else
 914:.\Generated_Source\PSoC4/USBFS_std.c ****                     USBFS_ARB_EP_BASE.arbEp[curEp].rwRa    = LO8(USBFS_EP[curEp].buffOffset);
 915:.\Generated_Source\PSoC4/USBFS_std.c ****                     USBFS_ARB_EP_BASE.arbEp[curEp].rwRaMsb = HI8(USBFS_EP[curEp].buffOffset);
 916:.\Generated_Source\PSoC4/USBFS_std.c ****                     USBFS_ARB_EP_BASE.arbEp[curEp].rwWa    = LO8(USBFS_EP[curEp].buffOffset);
 917:.\Generated_Source\PSoC4/USBFS_std.c ****                     USBFS_ARB_EP_BASE.arbEp[curEp].rwWaMsb = HI8(USBFS_EP[curEp].buffOffset);
 918:.\Generated_Source\PSoC4/USBFS_std.c ****                 #endif /* (CY_PSOC4) */                
 919:.\Generated_Source\PSoC4/USBFS_std.c ****             #endif /* (USBFS_EP_MANAGEMENT_DMA_AUTO) */
 920:.\Generated_Source\PSoC4/USBFS_std.c ****             }
 921:.\Generated_Source\PSoC4/USBFS_std.c ****             
 922:.\Generated_Source\PSoC4/USBFS_std.c ****             pEP = &pEP[1u]; /* Get next EP element */
 923:.\Generated_Source\PSoC4/USBFS_std.c ****         }
 924:.\Generated_Source\PSoC4/USBFS_std.c ****         
 925:.\Generated_Source\PSoC4/USBFS_std.c ****         /* The main loop has to re-enable DMA and OUT endpoint */
 926:.\Generated_Source\PSoC4/USBFS_std.c ****     }
 927:.\Generated_Source\PSoC4/USBFS_std.c **** }
 928:.\Generated_Source\PSoC4/USBFS_std.c **** 
 929:.\Generated_Source\PSoC4/USBFS_std.c **** 
 930:.\Generated_Source\PSoC4/USBFS_std.c **** /*******************************************************************************
 931:.\Generated_Source\PSoC4/USBFS_std.c **** * Function Name: USBFS_GetConfigTablePtr
 932:.\Generated_Source\PSoC4/USBFS_std.c **** ****************************************************************************//**
 933:.\Generated_Source\PSoC4/USBFS_std.c **** *
 934:.\Generated_Source\PSoC4/USBFS_std.c **** *  This routine returns a pointer a configuration table entry
 935:.\Generated_Source\PSoC4/USBFS_std.c **** *
 936:.\Generated_Source\PSoC4/USBFS_std.c **** *  \param confIndex:  Configuration Index
 937:.\Generated_Source\PSoC4/USBFS_std.c **** *
 938:.\Generated_Source\PSoC4/USBFS_std.c **** * \return
 939:.\Generated_Source\PSoC4/USBFS_std.c **** *  Device Descriptor pointer or NULL when descriptor does not exist.
 940:.\Generated_Source\PSoC4/USBFS_std.c **** *
 941:.\Generated_Source\PSoC4/USBFS_std.c **** *******************************************************************************/
 942:.\Generated_Source\PSoC4/USBFS_std.c **** const T_USBFS_LUT CYCODE *USBFS_GetConfigTablePtr(uint8 confIndex)
 943:.\Generated_Source\PSoC4/USBFS_std.c ****                                                         
 944:.\Generated_Source\PSoC4/USBFS_std.c **** {
ARM GAS  C:\Users\LAIR\AppData\Local\Temp\cciUanLt.s 			page 23


 304              		.loc 1 944 0
 305              		.cfi_startproc
 306              	.LVL16:
 945:.\Generated_Source\PSoC4/USBFS_std.c ****     /* Device Table */
 946:.\Generated_Source\PSoC4/USBFS_std.c ****     const T_USBFS_LUT CYCODE *pTmp;
 947:.\Generated_Source\PSoC4/USBFS_std.c **** 
 948:.\Generated_Source\PSoC4/USBFS_std.c ****     pTmp = (const T_USBFS_LUT CYCODE *) USBFS_TABLE[USBFS_device].p_list;
 307              		.loc 1 948 0
 308 0000 074B     		ldr	r3, .L25
 309 0002 1B78     		ldrb	r3, [r3]
 310 0004 DB00     		lsl	r3, r3, #3
 311 0006 074A     		ldr	r2, .L25+4
 312 0008 D318     		add	r3, r2, r3
 313 000a 5B68     		ldr	r3, [r3, #4]
 314              	.LVL17:
 949:.\Generated_Source\PSoC4/USBFS_std.c **** 
 950:.\Generated_Source\PSoC4/USBFS_std.c ****     /* The first entry points to the Device Descriptor,
 951:.\Generated_Source\PSoC4/USBFS_std.c ****     *  the second entry point to the BOS Descriptor
 952:.\Generated_Source\PSoC4/USBFS_std.c ****     *  the rest configuration entries.
 953:.\Generated_Source\PSoC4/USBFS_std.c ****     *  Set pointer to the first Configuration Descriptor
 954:.\Generated_Source\PSoC4/USBFS_std.c ****     */
 955:.\Generated_Source\PSoC4/USBFS_std.c ****     pTmp = &pTmp[2u];
 956:.\Generated_Source\PSoC4/USBFS_std.c ****     /* For this table, c is the number of configuration descriptors  */
 957:.\Generated_Source\PSoC4/USBFS_std.c ****     if(confIndex >= pTmp->c)   /* Verify that required configuration descriptor exists */
 315              		.loc 1 957 0
 316 000c 1A7C     		ldrb	r2, [r3, #16]
 317 000e 8242     		cmp	r2, r0
 318 0010 03D9     		bls	.L24
 958:.\Generated_Source\PSoC4/USBFS_std.c ****     {
 959:.\Generated_Source\PSoC4/USBFS_std.c ****         pTmp = (const T_USBFS_LUT CYCODE *) NULL;
 960:.\Generated_Source\PSoC4/USBFS_std.c ****     }
 961:.\Generated_Source\PSoC4/USBFS_std.c ****     else
 962:.\Generated_Source\PSoC4/USBFS_std.c ****     {
 963:.\Generated_Source\PSoC4/USBFS_std.c ****         pTmp = (const T_USBFS_LUT CYCODE *) pTmp[confIndex].p_list;
 319              		.loc 1 963 0
 320 0012 C000     		lsl	r0, r0, #3
 321              	.LVL18:
 322 0014 1818     		add	r0, r3, r0
 323 0016 4069     		ldr	r0, [r0, #20]
 324              	.LVL19:
 325 0018 00E0     		b	.L23
 326              	.LVL20:
 327              	.L24:
 959:.\Generated_Source\PSoC4/USBFS_std.c ****     }
 328              		.loc 1 959 0
 329 001a 0020     		mov	r0, #0
 330              	.LVL21:
 331              	.L23:
 964:.\Generated_Source\PSoC4/USBFS_std.c ****     }
 965:.\Generated_Source\PSoC4/USBFS_std.c **** 
 966:.\Generated_Source\PSoC4/USBFS_std.c ****     return (pTmp);
 967:.\Generated_Source\PSoC4/USBFS_std.c **** }
 332              		.loc 1 967 0
 333              		@ sp needed
 334 001c 7047     		bx	lr
 335              	.L26:
 336 001e C046     		.align	2
ARM GAS  C:\Users\LAIR\AppData\Local\Temp\cciUanLt.s 			page 24


 337              	.L25:
 338 0020 00000000 		.word	USBFS_device
 339 0024 00000000 		.word	USBFS_TABLE
 340              		.cfi_endproc
 341              	.LFE71:
 342              		.size	USBFS_GetConfigTablePtr, .-USBFS_GetConfigTablePtr
 343              		.section	.text.USBFS_ConfigAltChanged,"ax",%progbits
 344              		.align	2
 345              		.global	USBFS_ConfigAltChanged
 346              		.code	16
 347              		.thumb_func
 348              		.type	USBFS_ConfigAltChanged, %function
 349              	USBFS_ConfigAltChanged:
 350              	.LFB70:
 806:.\Generated_Source\PSoC4/USBFS_std.c ****     uint32 ep;
 351              		.loc 1 806 0
 352              		.cfi_startproc
 353 0000 F0B5     		push	{r4, r5, r6, r7, lr}
 354              		.cfi_def_cfa_offset 20
 355              		.cfi_offset 4, -20
 356              		.cfi_offset 5, -16
 357              		.cfi_offset 6, -12
 358              		.cfi_offset 7, -8
 359              		.cfi_offset 14, -4
 360 0002 5746     		mov	r7, r10
 361 0004 4E46     		mov	r6, r9
 362 0006 4546     		mov	r5, r8
 363 0008 E0B4     		push	{r5, r6, r7}
 364              		.cfi_def_cfa_offset 32
 365              		.cfi_offset 8, -32
 366              		.cfi_offset 9, -28
 367              		.cfi_offset 10, -24
 817:.\Generated_Source\PSoC4/USBFS_std.c ****     {
 368              		.loc 1 817 0
 369 000a 3F4B     		ldr	r3, .L38
 370 000c 1B78     		ldrb	r3, [r3]
 371 000e 002B     		cmp	r3, #0
 372 0010 75D0     		beq	.L27
 820:.\Generated_Source\PSoC4/USBFS_std.c ****         pTmp = &pTmp[1u];
 373              		.loc 1 820 0
 374 0012 3D4B     		ldr	r3, .L38
 375 0014 1878     		ldrb	r0, [r3]
 376 0016 0138     		sub	r0, r0, #1
 377 0018 C0B2     		uxtb	r0, r0
 378 001a FFF7FEFF 		bl	USBFS_GetConfigTablePtr
 379              	.LVL22:
 822:.\Generated_Source\PSoC4/USBFS_std.c **** 
 380              		.loc 1 822 0
 381 001e 047A     		ldrb	r4, [r0, #8]
 382              	.LVL23:
 825:.\Generated_Source\PSoC4/USBFS_std.c ****         
 383              		.loc 1 825 0
 384 0020 C368     		ldr	r3, [r0, #12]
 385              	.LVL24:
 831:.\Generated_Source\PSoC4/USBFS_std.c ****         for (i = 0u; i < ep; i++)
 386              		.loc 1 831 0
 387 0022 3A4A     		ldr	r2, .L38+4
ARM GAS  C:\Users\LAIR\AppData\Local\Temp\cciUanLt.s 			page 25


 388 0024 1078     		ldrb	r0, [r2]
 389              	.LVL25:
 390 0026 C0B2     		uxtb	r0, r0
 391              	.LVL26:
 832:.\Generated_Source\PSoC4/USBFS_std.c ****         {
 392              		.loc 1 832 0
 393 0028 0022     		mov	r2, #0
 394 002a 66E0     		b	.L29
 395              	.LVL27:
 396              	.L35:
 835:.\Generated_Source\PSoC4/USBFS_std.c ****                 (USBFS_interfaceSetting[interfaceNum] == pEP->altSetting))
 397              		.loc 1 835 0
 398 002c 1978     		ldrb	r1, [r3]
 399 002e 8142     		cmp	r1, r0
 400 0030 61D1     		bne	.L30
 836:.\Generated_Source\PSoC4/USBFS_std.c ****             {
 401              		.loc 1 836 0 discriminator 1
 402 0032 3749     		ldr	r1, .L38+8
 403 0034 095C     		ldrb	r1, [r1, r0]
 404 0036 C9B2     		uxtb	r1, r1
 405 0038 5D78     		ldrb	r5, [r3, #1]
 835:.\Generated_Source\PSoC4/USBFS_std.c ****                 (USBFS_interfaceSetting[interfaceNum] == pEP->altSetting))
 406              		.loc 1 835 0 discriminator 1
 407 003a A942     		cmp	r1, r5
 408 003c 5BD1     		bne	.L30
 838:.\Generated_Source\PSoC4/USBFS_std.c ****                 epType = ((uint32) pEP->attributes & USBFS_EP_TYPE_MASK);
 409              		.loc 1 838 0
 410 003e 9978     		ldrb	r1, [r3, #2]
 411 0040 7F25     		mov	r5, #127
 412 0042 2940     		and	r1, r5
 413              	.LVL28:
 839:.\Generated_Source\PSoC4/USBFS_std.c ****                 
 414              		.loc 1 839 0
 415 0044 DD78     		ldrb	r5, [r3, #3]
 416 0046 0327     		mov	r7, #3
 417 0048 2F40     		and	r7, r5
 418 004a BA46     		mov	r10, r7
 419              	.LVL29:
 842:.\Generated_Source\PSoC4/USBFS_std.c ****                 USBFS_EP[curEp].addr       = pEP->addr;
 420              		.loc 1 842 0
 421 004c 314D     		ldr	r5, .L38+12
 422 004e AC46     		mov	ip, r5
 423 0050 4E00     		lsl	r6, r1, #1
 424 0052 7518     		add	r5, r6, r1
 425 0054 AD00     		lsl	r5, r5, #2
 426 0056 6544     		add	r5, r5, ip
 427 0058 A946     		mov	r9, r5
 428 005a 0027     		mov	r7, #0
 429              	.LVL30:
 430 005c EF70     		strb	r7, [r5, #3]
 843:.\Generated_Source\PSoC4/USBFS_std.c ****                 USBFS_EP[curEp].attrib     = pEP->attributes;
 431              		.loc 1 843 0
 432 005e 9F78     		ldrb	r7, [r3, #2]
 433 0060 2F71     		strb	r7, [r5, #4]
 844:.\Generated_Source\PSoC4/USBFS_std.c ****                 USBFS_EP[curEp].bufferSize = pEP->bufferSize;
 434              		.loc 1 844 0
 435 0062 DF78     		ldrb	r7, [r3, #3]
ARM GAS  C:\Users\LAIR\AppData\Local\Temp\cciUanLt.s 			page 26


 436 0064 B846     		mov	r8, r7
 437 0066 7618     		add	r6, r6, r1
 438 0068 B600     		lsl	r6, r6, #2
 439 006a 6746     		mov	r7, ip
 440 006c 4546     		mov	r5, r8
 441 006e F555     		strb	r5, [r6, r7]
 845:.\Generated_Source\PSoC4/USBFS_std.c **** 
 442              		.loc 1 845 0
 443 0070 9E88     		ldrh	r6, [r3, #4]
 444 0072 4D46     		mov	r5, r9
 445 0074 2E81     		strh	r6, [r5, #8]
 847:.\Generated_Source\PSoC4/USBFS_std.c ****                 {
 446              		.loc 1 847 0
 447 0076 0225     		mov	r5, #2
 448 0078 5D57     		ldrsb	r5, [r3, r5]
 449 007a 002D     		cmp	r5, #0
 450 007c 0EDA     		bge	.L31
 850:.\Generated_Source\PSoC4/USBFS_std.c ****                     USBFS_EP[curEp].apiEpState = USBFS_EVENT_PENDING;
 451              		.loc 1 850 0
 452 007e 5546     		mov	r5, r10
 453 0080 012D     		cmp	r5, #1
 454 0082 01D1     		bne	.L36
 455 0084 0727     		mov	r7, #7
 456 0086 00E0     		b	.L32
 457              	.L36:
 458 0088 0D27     		mov	r7, #13
 459              	.L32:
 850:.\Generated_Source\PSoC4/USBFS_std.c ****                     USBFS_EP[curEp].apiEpState = USBFS_EVENT_PENDING;
 460              		.loc 1 850 0 is_stmt 0 discriminator 4
 461 008a 4D00     		lsl	r5, r1, #1
 462 008c 6D18     		add	r5, r5, r1
 463 008e AD00     		lsl	r5, r5, #2
 464 0090 204E     		ldr	r6, .L38+12
 465 0092 7519     		add	r5, r6, r5
 466 0094 6F71     		strb	r7, [r5, #5]
 851:.\Generated_Source\PSoC4/USBFS_std.c ****                 }
 467              		.loc 1 851 0 is_stmt 1 discriminator 4
 468 0096 0126     		mov	r6, #1
 469 0098 6E70     		strb	r6, [r5, #1]
 470 009a 0DE0     		b	.L33
 471              	.L31:
 856:.\Generated_Source\PSoC4/USBFS_std.c ****                     USBFS_EP[curEp].apiEpState = USBFS_NO_EVENT_PENDING;
 472              		.loc 1 856 0
 473 009c 5546     		mov	r5, r10
 474 009e 012D     		cmp	r5, #1
 475 00a0 01D1     		bne	.L37
 476              	.LVL31:
 477 00a2 0527     		mov	r7, #5
 478 00a4 00E0     		b	.L34
 479              	.L37:
 480 00a6 0927     		mov	r7, #9
 481              	.L34:
 856:.\Generated_Source\PSoC4/USBFS_std.c ****                     USBFS_EP[curEp].apiEpState = USBFS_NO_EVENT_PENDING;
 482              		.loc 1 856 0 is_stmt 0 discriminator 4
 483 00a8 4D00     		lsl	r5, r1, #1
 484              	.LVL32:
 485 00aa 6D18     		add	r5, r5, r1
ARM GAS  C:\Users\LAIR\AppData\Local\Temp\cciUanLt.s 			page 27


 486 00ac AD00     		lsl	r5, r5, #2
 487 00ae 194E     		ldr	r6, .L38+12
 488 00b0 7519     		add	r5, r6, r5
 489 00b2 6F71     		strb	r7, [r5, #5]
 857:.\Generated_Source\PSoC4/USBFS_std.c ****                 }
 490              		.loc 1 857 0 is_stmt 1 discriminator 4
 491 00b4 0026     		mov	r6, #0
 492 00b6 6E70     		strb	r6, [r5, #1]
 493              	.L33:
 861:.\Generated_Source\PSoC4/USBFS_std.c **** 
 494              		.loc 1 861 0
 495 00b8 8D01     		lsl	r5, r1, #6
 496 00ba 174E     		ldr	r6, .L38+16
 497 00bc B146     		mov	r9, r6
 498 00be A944     		add	r9, r9, r5
 499 00c0 0126     		mov	r6, #1
 500 00c2 4F46     		mov	r7, r9
 501 00c4 BE60     		str	r6, [r7, #8]
 907:.\Generated_Source\PSoC4/USBFS_std.c ****                 USBFS_SIE_EP_BASE.sieEp[curEp].epCnt1 = LO8(USBFS_EP[curEp].bufferSize);
 502              		.loc 1 907 0
 503 00c6 4E00     		lsl	r6, r1, #1
 504 00c8 7118     		add	r1, r6, r1
 505              	.LVL33:
 506 00ca 8900     		lsl	r1, r1, #2
 507 00cc 114E     		ldr	r6, .L38+12
 508 00ce 7118     		add	r1, r6, r1
 509 00d0 0E89     		ldrh	r6, [r1, #8]
 510 00d2 360A     		lsr	r6, r6, #8
 511 00d4 B046     		mov	r8, r6
 512 00d6 104E     		ldr	r6, .L38+16
 513 00d8 4746     		mov	r7, r8
 514 00da AF51     		str	r7, [r5, r6]
 908:.\Generated_Source\PSoC4/USBFS_std.c ****                 
 515              		.loc 1 908 0
 516 00dc 0E89     		ldrh	r6, [r1, #8]
 517 00de F6B2     		uxtb	r6, r6
 518 00e0 4F46     		mov	r7, r9
 519 00e2 7E60     		str	r6, [r7, #4]
 911:.\Generated_Source\PSoC4/USBFS_std.c ****                     USBFS_ARB_EP16_BASE.arbEp[curEp].rwWa16  = (uint32) USBFS_EP[curEp].buffOffset;
 520              		.loc 1 911 0
 521 00e4 CE88     		ldrh	r6, [r1, #6]
 522 00e6 B6B2     		uxth	r6, r6
 523 00e8 0C4F     		ldr	r7, .L38+20
 524 00ea EF19     		add	r7, r5, r7
 525 00ec BE60     		str	r6, [r7, #8]
 912:.\Generated_Source\PSoC4/USBFS_std.c ****                 #else
 526              		.loc 1 912 0
 527 00ee C988     		ldrh	r1, [r1, #6]
 528 00f0 89B2     		uxth	r1, r1
 529 00f2 0A4E     		ldr	r6, .L38+20
 530 00f4 A951     		str	r1, [r5, r6]
 531              	.LVL34:
 532              	.L30:
 922:.\Generated_Source\PSoC4/USBFS_std.c ****         }
 533              		.loc 1 922 0 discriminator 2
 534 00f6 0833     		add	r3, r3, #8
 535              	.LVL35:
ARM GAS  C:\Users\LAIR\AppData\Local\Temp\cciUanLt.s 			page 28


 832:.\Generated_Source\PSoC4/USBFS_std.c ****         {
 536              		.loc 1 832 0 discriminator 2
 537 00f8 0132     		add	r2, r2, #1
 538              	.LVL36:
 539              	.L29:
 832:.\Generated_Source\PSoC4/USBFS_std.c ****         {
 540              		.loc 1 832 0 is_stmt 0 discriminator 1
 541 00fa A242     		cmp	r2, r4
 542 00fc 96D3     		bcc	.L35
 543              	.LVL37:
 544              	.L27:
 927:.\Generated_Source\PSoC4/USBFS_std.c **** 
 545              		.loc 1 927 0 is_stmt 1
 546              		@ sp needed
 547 00fe 1CBC     		pop	{r2, r3, r4}
 548 0100 9046     		mov	r8, r2
 549 0102 9946     		mov	r9, r3
 550 0104 A246     		mov	r10, r4
 551 0106 F0BD     		pop	{r4, r5, r6, r7, pc}
 552              	.L39:
 553              		.align	2
 554              	.L38:
 555 0108 00000000 		.word	USBFS_configuration
 556 010c 00000000 		.word	USBFS_interfaceNumber
 557 0110 00000000 		.word	USBFS_interfaceSetting
 558 0114 00000000 		.word	USBFS_EP
 559 0118 F0FF2B40 		.word	1076625392
 560 011c D0112C40 		.word	1076629968
 561              		.cfi_endproc
 562              	.LFE70:
 563              		.size	USBFS_ConfigAltChanged, .-USBFS_ConfigAltChanged
 564              		.section	.text.USBFS_GetDeviceTablePtr,"ax",%progbits
 565              		.align	2
 566              		.global	USBFS_GetDeviceTablePtr
 567              		.code	16
 568              		.thumb_func
 569              		.type	USBFS_GetDeviceTablePtr, %function
 570              	USBFS_GetDeviceTablePtr:
 571              	.LFB72:
 968:.\Generated_Source\PSoC4/USBFS_std.c **** 
 969:.\Generated_Source\PSoC4/USBFS_std.c **** 
 970:.\Generated_Source\PSoC4/USBFS_std.c **** #if (USBFS_BOS_ENABLE)
 971:.\Generated_Source\PSoC4/USBFS_std.c ****     /*******************************************************************************
 972:.\Generated_Source\PSoC4/USBFS_std.c ****     * Function Name: USBFS_GetBOSPtr
 973:.\Generated_Source\PSoC4/USBFS_std.c ****     ****************************************************************************//**
 974:.\Generated_Source\PSoC4/USBFS_std.c ****     *
 975:.\Generated_Source\PSoC4/USBFS_std.c ****     *  This routine returns a pointer a BOS table entry
 976:.\Generated_Source\PSoC4/USBFS_std.c ****     *
 977:.\Generated_Source\PSoC4/USBFS_std.c ****     *  
 978:.\Generated_Source\PSoC4/USBFS_std.c ****     *
 979:.\Generated_Source\PSoC4/USBFS_std.c ****     * \return
 980:.\Generated_Source\PSoC4/USBFS_std.c ****     *  BOS Descriptor pointer or NULL when descriptor does not exist.
 981:.\Generated_Source\PSoC4/USBFS_std.c ****     *
 982:.\Generated_Source\PSoC4/USBFS_std.c ****     *******************************************************************************/
 983:.\Generated_Source\PSoC4/USBFS_std.c ****     const T_USBFS_LUT CYCODE *USBFS_GetBOSPtr(void)
 984:.\Generated_Source\PSoC4/USBFS_std.c ****                                                             
 985:.\Generated_Source\PSoC4/USBFS_std.c ****     {
ARM GAS  C:\Users\LAIR\AppData\Local\Temp\cciUanLt.s 			page 29


 986:.\Generated_Source\PSoC4/USBFS_std.c ****         /* Device Table */
 987:.\Generated_Source\PSoC4/USBFS_std.c ****         const T_USBFS_LUT CYCODE *pTmp;
 988:.\Generated_Source\PSoC4/USBFS_std.c **** 
 989:.\Generated_Source\PSoC4/USBFS_std.c ****         pTmp = (const T_USBFS_LUT CYCODE *) USBFS_TABLE[USBFS_device].p_list;
 990:.\Generated_Source\PSoC4/USBFS_std.c **** 
 991:.\Generated_Source\PSoC4/USBFS_std.c ****         /* The first entry points to the Device Descriptor,
 992:.\Generated_Source\PSoC4/USBFS_std.c ****         *  the second entry points to the BOS Descriptor
 993:.\Generated_Source\PSoC4/USBFS_std.c ****         */
 994:.\Generated_Source\PSoC4/USBFS_std.c ****         pTmp = &pTmp[1u];
 995:.\Generated_Source\PSoC4/USBFS_std.c ****         pTmp = (const T_USBFS_LUT CYCODE *) pTmp->p_list;
 996:.\Generated_Source\PSoC4/USBFS_std.c ****         return (pTmp);
 997:.\Generated_Source\PSoC4/USBFS_std.c ****     }
 998:.\Generated_Source\PSoC4/USBFS_std.c **** #endif /* (USBFS_BOS_ENABLE) */
 999:.\Generated_Source\PSoC4/USBFS_std.c **** 
1000:.\Generated_Source\PSoC4/USBFS_std.c **** 
1001:.\Generated_Source\PSoC4/USBFS_std.c **** /*******************************************************************************
1002:.\Generated_Source\PSoC4/USBFS_std.c **** * Function Name: USBFS_GetDeviceTablePtr
1003:.\Generated_Source\PSoC4/USBFS_std.c **** ****************************************************************************//**
1004:.\Generated_Source\PSoC4/USBFS_std.c **** *
1005:.\Generated_Source\PSoC4/USBFS_std.c **** *  This routine returns a pointer to the Device table
1006:.\Generated_Source\PSoC4/USBFS_std.c **** *
1007:.\Generated_Source\PSoC4/USBFS_std.c **** * \return
1008:.\Generated_Source\PSoC4/USBFS_std.c **** *  Device Table pointer
1009:.\Generated_Source\PSoC4/USBFS_std.c **** *
1010:.\Generated_Source\PSoC4/USBFS_std.c **** *******************************************************************************/
1011:.\Generated_Source\PSoC4/USBFS_std.c **** const T_USBFS_LUT CYCODE *USBFS_GetDeviceTablePtr(void)
1012:.\Generated_Source\PSoC4/USBFS_std.c ****                                                             
1013:.\Generated_Source\PSoC4/USBFS_std.c **** {
 572              		.loc 1 1013 0
 573              		.cfi_startproc
1014:.\Generated_Source\PSoC4/USBFS_std.c ****     /* Device Table */
1015:.\Generated_Source\PSoC4/USBFS_std.c ****     return( (const T_USBFS_LUT CYCODE *) USBFS_TABLE[USBFS_device].p_list );
 574              		.loc 1 1015 0
 575 0000 034B     		ldr	r3, .L41
 576 0002 1B78     		ldrb	r3, [r3]
 577 0004 DB00     		lsl	r3, r3, #3
 578 0006 034A     		ldr	r2, .L41+4
 579 0008 D318     		add	r3, r2, r3
 580 000a 5868     		ldr	r0, [r3, #4]
1016:.\Generated_Source\PSoC4/USBFS_std.c **** }
 581              		.loc 1 1016 0
 582              		@ sp needed
 583 000c 7047     		bx	lr
 584              	.L42:
 585 000e C046     		.align	2
 586              	.L41:
 587 0010 00000000 		.word	USBFS_device
 588 0014 00000000 		.word	USBFS_TABLE
 589              		.cfi_endproc
 590              	.LFE72:
 591              		.size	USBFS_GetDeviceTablePtr, .-USBFS_GetDeviceTablePtr
 592              		.section	.text.USBFS_GetInterfaceClassTablePtr,"ax",%progbits
 593              		.align	2
 594              		.global	USBFS_GetInterfaceClassTablePtr
 595              		.code	16
 596              		.thumb_func
 597              		.type	USBFS_GetInterfaceClassTablePtr, %function
ARM GAS  C:\Users\LAIR\AppData\Local\Temp\cciUanLt.s 			page 30


 598              	USBFS_GetInterfaceClassTablePtr:
 599              	.LFB73:
1017:.\Generated_Source\PSoC4/USBFS_std.c **** 
1018:.\Generated_Source\PSoC4/USBFS_std.c **** 
1019:.\Generated_Source\PSoC4/USBFS_std.c **** /*******************************************************************************
1020:.\Generated_Source\PSoC4/USBFS_std.c **** * Function Name: USB_GetInterfaceClassTablePtr
1021:.\Generated_Source\PSoC4/USBFS_std.c **** ****************************************************************************//**
1022:.\Generated_Source\PSoC4/USBFS_std.c **** *
1023:.\Generated_Source\PSoC4/USBFS_std.c **** *  This routine returns Interface Class table pointer, which contains
1024:.\Generated_Source\PSoC4/USBFS_std.c **** *  the relation between interface number and interface class.
1025:.\Generated_Source\PSoC4/USBFS_std.c **** *
1026:.\Generated_Source\PSoC4/USBFS_std.c **** * \return
1027:.\Generated_Source\PSoC4/USBFS_std.c **** *  Interface Class table pointer.
1028:.\Generated_Source\PSoC4/USBFS_std.c **** *
1029:.\Generated_Source\PSoC4/USBFS_std.c **** *******************************************************************************/
1030:.\Generated_Source\PSoC4/USBFS_std.c **** const uint8 CYCODE *USBFS_GetInterfaceClassTablePtr(void)
1031:.\Generated_Source\PSoC4/USBFS_std.c ****                                                         
1032:.\Generated_Source\PSoC4/USBFS_std.c **** {
 600              		.loc 1 1032 0
 601              		.cfi_startproc
 602 0000 08B5     		push	{r3, lr}
 603              		.cfi_def_cfa_offset 8
 604              		.cfi_offset 3, -8
 605              		.cfi_offset 14, -4
1033:.\Generated_Source\PSoC4/USBFS_std.c ****     const T_USBFS_LUT CYCODE *pTmp;
1034:.\Generated_Source\PSoC4/USBFS_std.c ****     const uint8 CYCODE *pInterfaceClass;
1035:.\Generated_Source\PSoC4/USBFS_std.c ****     uint8 currentInterfacesNum;
1036:.\Generated_Source\PSoC4/USBFS_std.c **** 
1037:.\Generated_Source\PSoC4/USBFS_std.c ****     pTmp = USBFS_GetConfigTablePtr(USBFS_configuration - 1u);
 606              		.loc 1 1037 0
 607 0002 084B     		ldr	r3, .L46
 608 0004 1878     		ldrb	r0, [r3]
 609 0006 0138     		sub	r0, r0, #1
 610 0008 C0B2     		uxtb	r0, r0
 611 000a FFF7FEFF 		bl	USBFS_GetConfigTablePtr
 612              	.LVL38:
1038:.\Generated_Source\PSoC4/USBFS_std.c ****     if (pTmp != NULL)
 613              		.loc 1 1038 0
 614 000e 0028     		cmp	r0, #0
 615 0010 06D0     		beq	.L45
1039:.\Generated_Source\PSoC4/USBFS_std.c ****     {
1040:.\Generated_Source\PSoC4/USBFS_std.c ****         currentInterfacesNum  = ((const uint8 *) pTmp->p_list)[USBFS_CONFIG_DESCR_NUM_INTERFACES];
 616              		.loc 1 1040 0
 617 0012 4368     		ldr	r3, [r0, #4]
 618 0014 1B79     		ldrb	r3, [r3, #4]
 619              	.LVL39:
1041:.\Generated_Source\PSoC4/USBFS_std.c ****         /* Third entry in the LUT starts the Interface Table pointers */
1042:.\Generated_Source\PSoC4/USBFS_std.c ****         /* The INTERFACE_CLASS table is located after all interfaces */
1043:.\Generated_Source\PSoC4/USBFS_std.c ****         pTmp = &pTmp[currentInterfacesNum + 2u];
 620              		.loc 1 1043 0
 621 0016 0233     		add	r3, r3, #2
 622              	.LVL40:
 623 0018 DB00     		lsl	r3, r3, #3
 624              	.LVL41:
 625 001a C018     		add	r0, r0, r3
 626              	.LVL42:
1044:.\Generated_Source\PSoC4/USBFS_std.c ****         pInterfaceClass = (const uint8 CYCODE *) pTmp->p_list;
ARM GAS  C:\Users\LAIR\AppData\Local\Temp\cciUanLt.s 			page 31


 627              		.loc 1 1044 0
 628 001c 4068     		ldr	r0, [r0, #4]
 629              	.LVL43:
 630 001e 00E0     		b	.L44
 631              	.LVL44:
 632              	.L45:
1045:.\Generated_Source\PSoC4/USBFS_std.c ****     }
1046:.\Generated_Source\PSoC4/USBFS_std.c ****     else
1047:.\Generated_Source\PSoC4/USBFS_std.c ****     {
1048:.\Generated_Source\PSoC4/USBFS_std.c ****         pInterfaceClass = (const uint8 CYCODE *) NULL;
 633              		.loc 1 1048 0
 634 0020 0020     		mov	r0, #0
 635              	.LVL45:
 636              	.L44:
1049:.\Generated_Source\PSoC4/USBFS_std.c ****     }
1050:.\Generated_Source\PSoC4/USBFS_std.c **** 
1051:.\Generated_Source\PSoC4/USBFS_std.c ****     return (pInterfaceClass);
1052:.\Generated_Source\PSoC4/USBFS_std.c **** }
 637              		.loc 1 1052 0
 638              		@ sp needed
 639 0022 08BD     		pop	{r3, pc}
 640              	.L47:
 641              		.align	2
 642              	.L46:
 643 0024 00000000 		.word	USBFS_configuration
 644              		.cfi_endproc
 645              	.LFE73:
 646              		.size	USBFS_GetInterfaceClassTablePtr, .-USBFS_GetInterfaceClassTablePtr
 647              		.section	.text.USBFS_Config,"ax",%progbits
 648              		.align	2
 649              		.global	USBFS_Config
 650              		.code	16
 651              		.thumb_func
 652              		.type	USBFS_Config, %function
 653              	USBFS_Config:
 654              	.LFB69:
 571:.\Generated_Source\PSoC4/USBFS_std.c ****     uint8 ep;
 655              		.loc 1 571 0
 656              		.cfi_startproc
 657              	.LVL46:
 658 0000 F8B5     		push	{r3, r4, r5, r6, r7, lr}
 659              		.cfi_def_cfa_offset 24
 660              		.cfi_offset 3, -24
 661              		.cfi_offset 4, -20
 662              		.cfi_offset 5, -16
 663              		.cfi_offset 6, -12
 664              		.cfi_offset 7, -8
 665              		.cfi_offset 14, -4
 666 0002 4F46     		mov	r7, r9
 667 0004 4646     		mov	r6, r8
 668 0006 C0B4     		push	{r6, r7}
 669              		.cfi_def_cfa_offset 32
 670              		.cfi_offset 8, -32
 671              		.cfi_offset 9, -28
 672              	.LVL47:
 586:.\Generated_Source\PSoC4/USBFS_std.c ****     {
 673              		.loc 1 586 0
ARM GAS  C:\Users\LAIR\AppData\Local\Temp\cciUanLt.s 			page 32


 674 0008 0021     		mov	r1, #0
 675 000a 11E0     		b	.L49
 676              	.LVL48:
 677              	.L50:
 588:.\Generated_Source\PSoC4/USBFS_std.c ****         USBFS_EP[ep].hwEpState  = 0u;
 678              		.loc 1 588 0 discriminator 3
 679 000c 6A4E     		ldr	r6, .L73
 680 000e 4B00     		lsl	r3, r1, #1
 681 0010 5A18     		add	r2, r3, r1
 682 0012 9200     		lsl	r2, r2, #2
 683 0014 0024     		mov	r4, #0
 684 0016 9455     		strb	r4, [r2, r6]
 589:.\Generated_Source\PSoC4/USBFS_std.c ****         USBFS_EP[ep].epToggle   = 0u;
 685              		.loc 1 589 0 discriminator 3
 686 0018 5A18     		add	r2, r3, r1
 687 001a 9200     		lsl	r2, r2, #2
 688 001c B218     		add	r2, r6, r2
 689 001e 9470     		strb	r4, [r2, #2]
 590:.\Generated_Source\PSoC4/USBFS_std.c ****         USBFS_EP[ep].bufferSize = 0u;
 690              		.loc 1 590 0 discriminator 3
 691 0020 D470     		strb	r4, [r2, #3]
 591:.\Generated_Source\PSoC4/USBFS_std.c ****         USBFS_EP[ep].interface  = 0u;
 692              		.loc 1 591 0 discriminator 3
 693 0022 0025     		mov	r5, #0
 694 0024 1481     		strh	r4, [r2, #8]
 592:.\Generated_Source\PSoC4/USBFS_std.c ****         USBFS_EP[ep].apiEpState = USBFS_NO_EVENT_PENDING;
 695              		.loc 1 592 0 discriminator 3
 696 0026 9572     		strb	r5, [r2, #10]
 593:.\Generated_Source\PSoC4/USBFS_std.c ****         USBFS_EP[ep].epMode     = USBFS_MODE_DISABLE;   
 697              		.loc 1 593 0 discriminator 3
 698 0028 5570     		strb	r5, [r2, #1]
 594:.\Generated_Source\PSoC4/USBFS_std.c ****     }
 699              		.loc 1 594 0 discriminator 3
 700 002a 5571     		strb	r5, [r2, #5]
 586:.\Generated_Source\PSoC4/USBFS_std.c ****     {
 701              		.loc 1 586 0 discriminator 3
 702 002c 0131     		add	r1, r1, #1
 703              	.LVL49:
 704 002e C9B2     		uxtb	r1, r1
 705              	.LVL50:
 706              	.L49:
 586:.\Generated_Source\PSoC4/USBFS_std.c ****     {
 707              		.loc 1 586 0 is_stmt 0 discriminator 1
 708 0030 0829     		cmp	r1, #8
 709 0032 EBD9     		bls	.L50
 598:.\Generated_Source\PSoC4/USBFS_std.c ****     {
 710              		.loc 1 598 0 is_stmt 1
 711 0034 0028     		cmp	r0, #0
 712 0036 08D1     		bne	.L70
 713 0038 0AE0     		b	.L52
 714              	.LVL51:
 715              	.L53:
 602:.\Generated_Source\PSoC4/USBFS_std.c ****             USBFS_interfaceSettingLast[i] = 0u;
 716              		.loc 1 602 0 discriminator 3
 717 003a 0022     		mov	r2, #0
 718 003c 5F49     		ldr	r1, .L73+4
 719 003e CA54     		strb	r2, [r1, r3]
ARM GAS  C:\Users\LAIR\AppData\Local\Temp\cciUanLt.s 			page 33


 603:.\Generated_Source\PSoC4/USBFS_std.c ****         }
 720              		.loc 1 603 0 discriminator 3
 721 0040 5F49     		ldr	r1, .L73+8
 722 0042 CA54     		strb	r2, [r1, r3]
 600:.\Generated_Source\PSoC4/USBFS_std.c ****         {
 723              		.loc 1 600 0 discriminator 3
 724 0044 0133     		add	r3, r3, #1
 725              	.LVL52:
 726 0046 DBB2     		uxtb	r3, r3
 727              	.LVL53:
 728 0048 00E0     		b	.L51
 729              	.LVL54:
 730              	.L70:
 731 004a 0023     		mov	r3, #0
 732              	.LVL55:
 733              	.L51:
 600:.\Generated_Source\PSoC4/USBFS_std.c ****         {
 734              		.loc 1 600 0 is_stmt 0 discriminator 1
 735 004c 002B     		cmp	r3, #0
 736 004e F4D0     		beq	.L53
 737              	.LVL56:
 738              	.L52:
 608:.\Generated_Source\PSoC4/USBFS_std.c ****     {
 739              		.loc 1 608 0 is_stmt 1
 740 0050 5C4B     		ldr	r3, .L73+12
 741 0052 1B78     		ldrb	r3, [r3]
 742 0054 002B     		cmp	r3, #0
 743 0056 00D1     		bne	.LCB761
 744 0058 AAE0     		b	.L48	@long jump
 745              	.LCB761:
 614:.\Generated_Source\PSoC4/USBFS_std.c ****         
 746              		.loc 1 614 0
 747 005a 5A4B     		ldr	r3, .L73+12
 748 005c 1878     		ldrb	r0, [r3]
 749              	.LVL57:
 750 005e 0138     		sub	r0, r0, #1
 751 0060 C0B2     		uxtb	r0, r0
 752 0062 FFF7FEFF 		bl	USBFS_GetConfigTablePtr
 753              	.LVL58:
 754 0066 8146     		mov	r9, r0
 755              	.LVL59:
 618:.\Generated_Source\PSoC4/USBFS_std.c ****         {
 756              		.loc 1 618 0
 757 0068 4368     		ldr	r3, [r0, #4]
 758 006a DB79     		ldrb	r3, [r3, #7]
 759 006c 5B06     		lsl	r3, r3, #25
 760 006e 05D5     		bpl	.L55
 620:.\Generated_Source\PSoC4/USBFS_std.c ****         }
 761              		.loc 1 620 0
 762 0070 554A     		ldr	r2, .L73+16
 763 0072 1178     		ldrb	r1, [r2]
 764 0074 0123     		mov	r3, #1
 765 0076 0B43     		orr	r3, r1
 766 0078 1370     		strb	r3, [r2]
 767 007a 04E0     		b	.L56
 768              	.L55:
 624:.\Generated_Source\PSoC4/USBFS_std.c ****         }
ARM GAS  C:\Users\LAIR\AppData\Local\Temp\cciUanLt.s 			page 34


 769              		.loc 1 624 0
 770 007c 524A     		ldr	r2, .L73+16
 771 007e 1378     		ldrb	r3, [r2]
 772 0080 0121     		mov	r1, #1
 773 0082 8B43     		bic	r3, r1
 774 0084 1370     		strb	r3, [r2]
 775              	.L56:
 776              	.LVL60:
 629:.\Generated_Source\PSoC4/USBFS_std.c **** 
 777              		.loc 1 629 0
 778 0086 4B46     		mov	r3, r9
 779 0088 1E7A     		ldrb	r6, [r3, #8]
 780              	.LVL61:
 687:.\Generated_Source\PSoC4/USBFS_std.c ****             {
 781              		.loc 1 687 0
 782 008a 0124     		mov	r4, #1
 783 008c 61E0     		b	.L57
 784              	.LVL62:
 785              	.L65:
 690:.\Generated_Source\PSoC4/USBFS_std.c ****                 /* Find max length for each EP and select it (length could be different in differen
 786              		.loc 1 690 0
 787 008e 4B46     		mov	r3, r9
 788 0090 D968     		ldr	r1, [r3, #12]
 789              	.LVL63:
 694:.\Generated_Source\PSoC4/USBFS_std.c ****                 {
 790              		.loc 1 694 0
 791 0092 0023     		mov	r3, #0
 792 0094 59E0     		b	.L58
 793              	.LVL64:
 794              	.L64:
 696:.\Generated_Source\PSoC4/USBFS_std.c ****                     {
 795              		.loc 1 696 0
 796 0096 8A78     		ldrb	r2, [r1, #2]
 797 0098 7F25     		mov	r5, #127
 798 009a 2A40     		and	r2, r5
 799 009c 9442     		cmp	r4, r2
 800 009e 51D1     		bne	.L59
 699:.\Generated_Source\PSoC4/USBFS_std.c ****                         {
 801              		.loc 1 699 0
 802 00a0 251C     		mov	r5, r4
 803 00a2 6200     		lsl	r2, r4, #1
 804 00a4 1219     		add	r2, r2, r4
 805 00a6 9200     		lsl	r2, r2, #2
 806 00a8 434F     		ldr	r7, .L73
 807 00aa BA18     		add	r2, r7, r2
 808 00ac 1289     		ldrh	r2, [r2, #8]
 809 00ae 92B2     		uxth	r2, r2
 810 00b0 8F88     		ldrh	r7, [r1, #4]
 811 00b2 BA42     		cmp	r2, r7
 812 00b4 06D2     		bcs	.L60
 701:.\Generated_Source\PSoC4/USBFS_std.c ****                         }
 813              		.loc 1 701 0
 814 00b6 6200     		lsl	r2, r4, #1
 815 00b8 1219     		add	r2, r2, r4
 816 00ba 9200     		lsl	r2, r2, #2
 817 00bc 3E48     		ldr	r0, .L73
 818 00be 8446     		mov	ip, r0
ARM GAS  C:\Users\LAIR\AppData\Local\Temp\cciUanLt.s 			page 35


 819 00c0 6244     		add	r2, r2, ip
 820 00c2 1781     		strh	r7, [r2, #8]
 821              	.L60:
 705:.\Generated_Source\PSoC4/USBFS_std.c ****                         {                            
 822              		.loc 1 705 0
 823 00c4 0A78     		ldrb	r2, [r1]
 824 00c6 3D4F     		ldr	r7, .L73+4
 825 00c8 BA5C     		ldrb	r2, [r7, r2]
 826 00ca D2B2     		uxtb	r2, r2
 827 00cc 4F78     		ldrb	r7, [r1, #1]
 828 00ce BA42     		cmp	r2, r7
 829 00d0 38D1     		bne	.L59
 707:.\Generated_Source\PSoC4/USBFS_std.c ****                             USBFS_EP[i].attrib = pEP->attributes;
 830              		.loc 1 707 0
 831 00d2 8A78     		ldrb	r2, [r1, #2]
 832 00d4 9046     		mov	r8, r2
 833 00d6 384A     		ldr	r2, .L73
 834 00d8 9446     		mov	ip, r2
 835 00da 6A00     		lsl	r2, r5, #1
 836 00dc 5719     		add	r7, r2, r5
 837 00de BF00     		lsl	r7, r7, #2
 838 00e0 6744     		add	r7, r7, ip
 839 00e2 4046     		mov	r0, r8
 840 00e4 3871     		strb	r0, [r7, #4]
 708:.\Generated_Source\PSoC4/USBFS_std.c ****                             
 841              		.loc 1 708 0
 842 00e6 CF78     		ldrb	r7, [r1, #3]
 843 00e8 5219     		add	r2, r2, r5
 844 00ea 9200     		lsl	r2, r2, #2
 845 00ec 6046     		mov	r0, ip
 846 00ee 1754     		strb	r7, [r2, r0]
 710:.\Generated_Source\PSoC4/USBFS_std.c ****                             
 847              		.loc 1 710 0
 848 00f0 CA78     		ldrb	r2, [r1, #3]
 849 00f2 0327     		mov	r7, #3
 850 00f4 3A40     		and	r2, r7
 851              	.LVL65:
 712:.\Generated_Source\PSoC4/USBFS_std.c ****                             {
 852              		.loc 1 712 0
 853 00f6 0227     		mov	r7, #2
 854 00f8 CF57     		ldrsb	r7, [r1, r7]
 855 00fa 002F     		cmp	r7, #0
 856 00fc 11DA     		bge	.L61
 715:.\Generated_Source\PSoC4/USBFS_std.c ****                                 USBFS_EP[i].apiEpState = USBFS_EVENT_PENDING;
 857              		.loc 1 715 0
 858 00fe 012A     		cmp	r2, #1
 859 0100 02D1     		bne	.L71
 860 0102 0632     		add	r2, r2, #6
 861              	.LVL66:
 862 0104 9046     		mov	r8, r2
 863 0106 01E0     		b	.L62
 864              	.LVL67:
 865              	.L71:
 866 0108 0D22     		mov	r2, #13
 867              	.LVL68:
 868 010a 9046     		mov	r8, r2
 869              	.L62:
ARM GAS  C:\Users\LAIR\AppData\Local\Temp\cciUanLt.s 			page 36


 715:.\Generated_Source\PSoC4/USBFS_std.c ****                                 USBFS_EP[i].apiEpState = USBFS_EVENT_PENDING;
 870              		.loc 1 715 0 is_stmt 0 discriminator 4
 871 010c 2A4A     		ldr	r2, .L73
 872 010e 9446     		mov	ip, r2
 873 0110 6A00     		lsl	r2, r5, #1
 874 0112 5719     		add	r7, r2, r5
 875 0114 BF00     		lsl	r7, r7, #2
 876 0116 6744     		add	r7, r7, ip
 877 0118 4046     		mov	r0, r8
 878 011a 7871     		strb	r0, [r7, #5]
 879              	.LVL69:
 716:.\Generated_Source\PSoC4/USBFS_std.c ****                                 
 880              		.loc 1 716 0 is_stmt 1 discriminator 4
 881 011c 0122     		mov	r2, #1
 882 011e 7A70     		strb	r2, [r7, #1]
 883 0120 10E0     		b	.L59
 884              	.LVL70:
 885              	.L61:
 728:.\Generated_Source\PSoC4/USBFS_std.c ****                                 USBFS_EP[i].apiEpState = USBFS_NO_EVENT_PENDING;
 886              		.loc 1 728 0
 887 0122 012A     		cmp	r2, #1
 888 0124 02D1     		bne	.L72
 889 0126 0432     		add	r2, r2, #4
 890              	.LVL71:
 891 0128 9046     		mov	r8, r2
 892 012a 01E0     		b	.L63
 893              	.LVL72:
 894              	.L72:
 895 012c 0922     		mov	r2, #9
 896              	.LVL73:
 897 012e 9046     		mov	r8, r2
 898              	.L63:
 728:.\Generated_Source\PSoC4/USBFS_std.c ****                                 USBFS_EP[i].apiEpState = USBFS_NO_EVENT_PENDING;
 899              		.loc 1 728 0 is_stmt 0 discriminator 4
 900 0130 214F     		ldr	r7, .L73
 901 0132 6A00     		lsl	r2, r5, #1
 902 0134 5219     		add	r2, r2, r5
 903 0136 9200     		lsl	r2, r2, #2
 904 0138 BA18     		add	r2, r7, r2
 905 013a 4046     		mov	r0, r8
 906 013c 5071     		strb	r0, [r2, #5]
 907              	.LVL74:
 729:.\Generated_Source\PSoC4/USBFS_std.c ****                                 
 908              		.loc 1 729 0 is_stmt 1 discriminator 4
 909 013e 151C     		mov	r5, r2
 910 0140 0022     		mov	r2, #0
 911 0142 6A70     		strb	r2, [r5, #1]
 912              	.L59:
 752:.\Generated_Source\PSoC4/USBFS_std.c ****                 }
 913              		.loc 1 752 0 discriminator 2
 914 0144 0831     		add	r1, r1, #8
 915              	.LVL75:
 694:.\Generated_Source\PSoC4/USBFS_std.c ****                 {
 916              		.loc 1 694 0 discriminator 2
 917 0146 0133     		add	r3, r3, #1
 918              	.LVL76:
 919 0148 DBB2     		uxtb	r3, r3
ARM GAS  C:\Users\LAIR\AppData\Local\Temp\cciUanLt.s 			page 37


 920              	.LVL77:
 921              	.L58:
 694:.\Generated_Source\PSoC4/USBFS_std.c ****                 {
 922              		.loc 1 694 0 is_stmt 0 discriminator 1
 923 014a B342     		cmp	r3, r6
 924 014c A3D3     		bcc	.L64
 687:.\Generated_Source\PSoC4/USBFS_std.c ****             {
 925              		.loc 1 687 0 is_stmt 1 discriminator 2
 926 014e 0134     		add	r4, r4, #1
 927              	.LVL78:
 928 0150 E4B2     		uxtb	r4, r4
 929              	.LVL79:
 930              	.L57:
 687:.\Generated_Source\PSoC4/USBFS_std.c ****             {
 931              		.loc 1 687 0 is_stmt 0 discriminator 1
 932 0152 082C     		cmp	r4, #8
 933 0154 9BD9     		bls	.L65
 762:.\Generated_Source\PSoC4/USBFS_std.c ****         for (i = 0u; i < ep; i++)
 934              		.loc 1 762 0 is_stmt 1
 935 0156 4B46     		mov	r3, r9
 936 0158 D968     		ldr	r1, [r3, #12]
 937              	.LVL80:
 763:.\Generated_Source\PSoC4/USBFS_std.c ****         {
 938              		.loc 1 763 0
 939 015a 0022     		mov	r2, #0
 940 015c 0CE0     		b	.L66
 941              	.LVL81:
 942              	.L67:
 766:.\Generated_Source\PSoC4/USBFS_std.c ****             pEP = &pEP[1u];
 943              		.loc 1 766 0 discriminator 3
 944 015e 8B78     		ldrb	r3, [r1, #2]
 945 0160 7F20     		mov	r0, #127
 946 0162 0340     		and	r3, r0
 947 0164 0878     		ldrb	r0, [r1]
 948 0166 5C00     		lsl	r4, r3, #1
 949 0168 E318     		add	r3, r4, r3
 950 016a 9B00     		lsl	r3, r3, #2
 951 016c 124C     		ldr	r4, .L73
 952 016e E318     		add	r3, r4, r3
 953 0170 9872     		strb	r0, [r3, #10]
 767:.\Generated_Source\PSoC4/USBFS_std.c ****         }
 954              		.loc 1 767 0 discriminator 3
 955 0172 0831     		add	r1, r1, #8
 956              	.LVL82:
 763:.\Generated_Source\PSoC4/USBFS_std.c ****         {
 957              		.loc 1 763 0 discriminator 3
 958 0174 0132     		add	r2, r2, #1
 959              	.LVL83:
 960 0176 D2B2     		uxtb	r2, r2
 961              	.LVL84:
 962              	.L66:
 763:.\Generated_Source\PSoC4/USBFS_std.c ****         {
 963              		.loc 1 763 0 is_stmt 0 discriminator 1
 964 0178 B242     		cmp	r2, r6
 965 017a F0D3     		bcc	.L67
 771:.\Generated_Source\PSoC4/USBFS_std.c ****         
 966              		.loc 1 771 0 is_stmt 1
ARM GAS  C:\Users\LAIR\AppData\Local\Temp\cciUanLt.s 			page 38


 967 017c FFF7FEFF 		bl	USBFS_GetInterfaceClassTablePtr
 968              	.LVL85:
 969 0180 124B     		ldr	r3, .L73+20
 970 0182 1860     		str	r0, [r3]
 971              	.LVL86:
 775:.\Generated_Source\PSoC4/USBFS_std.c ****         for (ep = USBFS_EP1; ep < USBFS_MAX_EP; ++ep)
 972              		.loc 1 775 0
 973 0184 0023     		mov	r3, #0
 776:.\Generated_Source\PSoC4/USBFS_std.c ****         {
 974              		.loc 1 776 0
 975 0186 0121     		mov	r1, #1
 976 0188 0EE0     		b	.L68
 977              	.LVL87:
 978              	.L69:
 778:.\Generated_Source\PSoC4/USBFS_std.c ****             buffCount += USBFS_EP[ep].bufferSize;
 979              		.loc 1 778 0 discriminator 3
 980 018a 0B4C     		ldr	r4, .L73
 981 018c 4A00     		lsl	r2, r1, #1
 982 018e 5018     		add	r0, r2, r1
 983 0190 8000     		lsl	r0, r0, #2
 984 0192 2018     		add	r0, r4, r0
 985 0194 C380     		strh	r3, [r0, #6]
 779:.\Generated_Source\PSoC4/USBFS_std.c ****             
 986              		.loc 1 779 0 discriminator 3
 987 0196 0289     		ldrh	r2, [r0, #8]
 988 0198 D318     		add	r3, r2, r3
 989              	.LVL88:
 990 019a 9AB2     		uxth	r2, r3
 991              	.LVL89:
 783:.\Generated_Source\PSoC4/USBFS_std.c ****         #endif /* (USBFS_GEN_16BITS_EP_ACCESS) */            
 992              		.loc 1 783 0 discriminator 3
 993 019c 0123     		mov	r3, #1
 994 019e 1340     		and	r3, r2
 995 01a0 9B18     		add	r3, r3, r2
 996 01a2 9BB2     		uxth	r3, r3
 997              	.LVL90:
 776:.\Generated_Source\PSoC4/USBFS_std.c ****         {
 998              		.loc 1 776 0 discriminator 3
 999 01a4 0131     		add	r1, r1, #1
 1000              	.LVL91:
 1001 01a6 C9B2     		uxtb	r1, r1
 1002              	.LVL92:
 1003              	.L68:
 776:.\Generated_Source\PSoC4/USBFS_std.c ****         {
 1004              		.loc 1 776 0 is_stmt 0 discriminator 1
 1005 01a8 0829     		cmp	r1, #8
 1006 01aa EED9     		bls	.L69
 789:.\Generated_Source\PSoC4/USBFS_std.c ****     }
 1007              		.loc 1 789 0 is_stmt 1
 1008 01ac FFF7FEFF 		bl	USBFS_ConfigReg
 1009              	.LVL93:
 1010              	.L48:
 791:.\Generated_Source\PSoC4/USBFS_std.c **** 
 1011              		.loc 1 791 0
 1012              		@ sp needed
 1013 01b0 0CBC     		pop	{r2, r3}
 1014 01b2 9046     		mov	r8, r2
ARM GAS  C:\Users\LAIR\AppData\Local\Temp\cciUanLt.s 			page 39


 1015 01b4 9946     		mov	r9, r3
 1016 01b6 F8BD     		pop	{r3, r4, r5, r6, r7, pc}
 1017              	.L74:
 1018              		.align	2
 1019              	.L73:
 1020 01b8 00000000 		.word	USBFS_EP
 1021 01bc 00000000 		.word	USBFS_interfaceSetting
 1022 01c0 00000000 		.word	USBFS_interfaceSettingLast
 1023 01c4 00000000 		.word	USBFS_configuration
 1024 01c8 00000000 		.word	USBFS_deviceStatus
 1025 01cc 00000000 		.word	USBFS_interfaceClass
 1026              		.cfi_endproc
 1027              	.LFE69:
 1028              		.size	USBFS_Config, .-USBFS_Config
 1029              		.section	.text.USBFS_TerminateEP,"ax",%progbits
 1030              		.align	2
 1031              		.global	USBFS_TerminateEP
 1032              		.code	16
 1033              		.thumb_func
 1034              		.type	USBFS_TerminateEP, %function
 1035              	USBFS_TerminateEP:
 1036              	.LFB74:
1053:.\Generated_Source\PSoC4/USBFS_std.c **** 
1054:.\Generated_Source\PSoC4/USBFS_std.c **** 
1055:.\Generated_Source\PSoC4/USBFS_std.c **** /*******************************************************************************
1056:.\Generated_Source\PSoC4/USBFS_std.c **** * Function Name: USBFS_TerminateEP
1057:.\Generated_Source\PSoC4/USBFS_std.c **** ****************************************************************************//**
1058:.\Generated_Source\PSoC4/USBFS_std.c **** *
1059:.\Generated_Source\PSoC4/USBFS_std.c **** *  This function terminates the specified USBFS endpoint.
1060:.\Generated_Source\PSoC4/USBFS_std.c **** *  This function should be used before endpoint reconfiguration.
1061:.\Generated_Source\PSoC4/USBFS_std.c **** *
1062:.\Generated_Source\PSoC4/USBFS_std.c **** *  \param ep Contains the data endpoint number.
1063:.\Generated_Source\PSoC4/USBFS_std.c **** *
1064:.\Generated_Source\PSoC4/USBFS_std.c **** *  \reentrant
1065:.\Generated_Source\PSoC4/USBFS_std.c **** *  No.
1066:.\Generated_Source\PSoC4/USBFS_std.c **** *
1067:.\Generated_Source\PSoC4/USBFS_std.c **** * \sideeffect
1068:.\Generated_Source\PSoC4/USBFS_std.c **** * 
1069:.\Generated_Source\PSoC4/USBFS_std.c **** * The device responds with a NAK for any transactions on the selected endpoint.
1070:.\Generated_Source\PSoC4/USBFS_std.c **** *   
1071:.\Generated_Source\PSoC4/USBFS_std.c **** *******************************************************************************/
1072:.\Generated_Source\PSoC4/USBFS_std.c **** void USBFS_TerminateEP(uint8 epNumber) 
1073:.\Generated_Source\PSoC4/USBFS_std.c **** {
 1037              		.loc 1 1073 0
 1038              		.cfi_startproc
 1039              	.LVL94:
1074:.\Generated_Source\PSoC4/USBFS_std.c ****     /* Get endpoint number */
1075:.\Generated_Source\PSoC4/USBFS_std.c ****     epNumber &= USBFS_DIR_UNUSED;
 1040              		.loc 1 1075 0
 1041 0000 7F23     		mov	r3, #127
 1042 0002 1840     		and	r0, r3
 1043              	.LVL95:
1076:.\Generated_Source\PSoC4/USBFS_std.c **** 
1077:.\Generated_Source\PSoC4/USBFS_std.c ****     if ((epNumber > USBFS_EP0) && (epNumber < USBFS_MAX_EP))
 1044              		.loc 1 1077 0
 1045 0004 431E     		sub	r3, r0, #1
 1046 0006 072B     		cmp	r3, #7
ARM GAS  C:\Users\LAIR\AppData\Local\Temp\cciUanLt.s 			page 40


 1047 0008 1DD8     		bhi	.L75
1078:.\Generated_Source\PSoC4/USBFS_std.c ****     {
1079:.\Generated_Source\PSoC4/USBFS_std.c ****         /* Set the endpoint Halt */
1080:.\Generated_Source\PSoC4/USBFS_std.c ****         USBFS_EP[epNumber].hwEpState |= USBFS_ENDPOINT_STATUS_HALT;
 1048              		.loc 1 1080 0
 1049 000a 4300     		lsl	r3, r0, #1
 1050 000c 1B18     		add	r3, r3, r0
 1051 000e 9B00     		lsl	r3, r3, #2
 1052 0010 0D4A     		ldr	r2, .L78
 1053 0012 D318     		add	r3, r2, r3
 1054 0014 9978     		ldrb	r1, [r3, #2]
 1055 0016 0122     		mov	r2, #1
 1056 0018 0A43     		orr	r2, r1
 1057 001a 9A70     		strb	r2, [r3, #2]
1081:.\Generated_Source\PSoC4/USBFS_std.c **** 
1082:.\Generated_Source\PSoC4/USBFS_std.c ****         /* Clear the data toggle */
1083:.\Generated_Source\PSoC4/USBFS_std.c ****         USBFS_EP[epNumber].epToggle = 0u;
 1058              		.loc 1 1083 0
 1059 001c 0022     		mov	r2, #0
 1060 001e DA70     		strb	r2, [r3, #3]
1084:.\Generated_Source\PSoC4/USBFS_std.c ****         USBFS_EP[epNumber].apiEpState = USBFS_NO_EVENT_ALLOWED;
 1061              		.loc 1 1084 0
 1062 0020 0232     		add	r2, r2, #2
 1063 0022 5A70     		strb	r2, [r3, #1]
1085:.\Generated_Source\PSoC4/USBFS_std.c **** 
1086:.\Generated_Source\PSoC4/USBFS_std.c ****         if ((USBFS_EP[epNumber].addr & USBFS_DIR_IN) != 0u)
 1064              		.loc 1 1086 0
 1065 0024 1B79     		ldrb	r3, [r3, #4]
 1066 0026 5BB2     		sxtb	r3, r3
 1067 0028 002B     		cmp	r3, #0
 1068 002a 06DA     		bge	.L77
1087:.\Generated_Source\PSoC4/USBFS_std.c ****         {   
1088:.\Generated_Source\PSoC4/USBFS_std.c ****             /* IN Endpoint */
1089:.\Generated_Source\PSoC4/USBFS_std.c ****             USBFS_SIE_EP_BASE.sieEp[epNumber].epCr0 = USBFS_MODE_NAK_IN;
 1069              		.loc 1 1089 0
 1070 002c 8001     		lsl	r0, r0, #6
 1071              	.LVL96:
 1072 002e 074B     		ldr	r3, .L78+4
 1073 0030 9C46     		mov	ip, r3
 1074 0032 6044     		add	r0, r0, ip
 1075 0034 0C23     		mov	r3, #12
 1076 0036 8360     		str	r3, [r0, #8]
 1077 0038 05E0     		b	.L75
 1078              	.LVL97:
 1079              	.L77:
1090:.\Generated_Source\PSoC4/USBFS_std.c ****         }
1091:.\Generated_Source\PSoC4/USBFS_std.c ****         else
1092:.\Generated_Source\PSoC4/USBFS_std.c ****         {
1093:.\Generated_Source\PSoC4/USBFS_std.c ****             /* OUT Endpoint */
1094:.\Generated_Source\PSoC4/USBFS_std.c ****             USBFS_SIE_EP_BASE.sieEp[epNumber].epCr0 = USBFS_MODE_NAK_OUT;
 1080              		.loc 1 1094 0
 1081 003a 8001     		lsl	r0, r0, #6
 1082              	.LVL98:
 1083 003c 034B     		ldr	r3, .L78+4
 1084 003e 9C46     		mov	ip, r3
 1085 0040 6044     		add	r0, r0, ip
 1086 0042 0823     		mov	r3, #8
ARM GAS  C:\Users\LAIR\AppData\Local\Temp\cciUanLt.s 			page 41


 1087 0044 8360     		str	r3, [r0, #8]
 1088              	.L75:
1095:.\Generated_Source\PSoC4/USBFS_std.c ****         }
1096:.\Generated_Source\PSoC4/USBFS_std.c ****     }
1097:.\Generated_Source\PSoC4/USBFS_std.c **** }
 1089              		.loc 1 1097 0
 1090              		@ sp needed
 1091 0046 7047     		bx	lr
 1092              	.L79:
 1093              		.align	2
 1094              	.L78:
 1095 0048 00000000 		.word	USBFS_EP
 1096 004c F0FF2B40 		.word	1076625392
 1097              		.cfi_endproc
 1098              	.LFE74:
 1099              		.size	USBFS_TerminateEP, .-USBFS_TerminateEP
 1100              		.section	.text.USBFS_SetEndpointHalt,"ax",%progbits
 1101              		.align	2
 1102              		.global	USBFS_SetEndpointHalt
 1103              		.code	16
 1104              		.thumb_func
 1105              		.type	USBFS_SetEndpointHalt, %function
 1106              	USBFS_SetEndpointHalt:
 1107              	.LFB75:
1098:.\Generated_Source\PSoC4/USBFS_std.c **** 
1099:.\Generated_Source\PSoC4/USBFS_std.c **** 
1100:.\Generated_Source\PSoC4/USBFS_std.c **** /*******************************************************************************
1101:.\Generated_Source\PSoC4/USBFS_std.c **** * Function Name: USBFS_SetEndpointHalt
1102:.\Generated_Source\PSoC4/USBFS_std.c **** ****************************************************************************//**
1103:.\Generated_Source\PSoC4/USBFS_std.c **** *
1104:.\Generated_Source\PSoC4/USBFS_std.c **** *  This routine handles set endpoint halt.
1105:.\Generated_Source\PSoC4/USBFS_std.c **** *
1106:.\Generated_Source\PSoC4/USBFS_std.c **** * \return
1107:.\Generated_Source\PSoC4/USBFS_std.c **** *  requestHandled.
1108:.\Generated_Source\PSoC4/USBFS_std.c **** *
1109:.\Generated_Source\PSoC4/USBFS_std.c **** * \reentrant
1110:.\Generated_Source\PSoC4/USBFS_std.c **** *  No.
1111:.\Generated_Source\PSoC4/USBFS_std.c **** *
1112:.\Generated_Source\PSoC4/USBFS_std.c **** *******************************************************************************/
1113:.\Generated_Source\PSoC4/USBFS_std.c **** uint8 USBFS_SetEndpointHalt(void) 
1114:.\Generated_Source\PSoC4/USBFS_std.c **** {
 1108              		.loc 1 1114 0
 1109              		.cfi_startproc
 1110 0000 08B5     		push	{r3, lr}
 1111              		.cfi_def_cfa_offset 8
 1112              		.cfi_offset 3, -8
 1113              		.cfi_offset 14, -4
 1114              	.LVL99:
1115:.\Generated_Source\PSoC4/USBFS_std.c ****     uint8 requestHandled = USBFS_FALSE;
1116:.\Generated_Source\PSoC4/USBFS_std.c ****     uint32 ep;
1117:.\Generated_Source\PSoC4/USBFS_std.c ****     
1118:.\Generated_Source\PSoC4/USBFS_std.c ****     /* Set endpoint halt */
1119:.\Generated_Source\PSoC4/USBFS_std.c ****     ep = USBFS_wIndexLoReg & USBFS_DIR_UNUSED;
 1115              		.loc 1 1119 0
 1116 0002 164B     		ldr	r3, .L85
 1117 0004 1B69     		ldr	r3, [r3, #16]
 1118 0006 7F22     		mov	r2, #127
ARM GAS  C:\Users\LAIR\AppData\Local\Temp\cciUanLt.s 			page 42


 1119 0008 1340     		and	r3, r2
 1120              	.LVL100:
1120:.\Generated_Source\PSoC4/USBFS_std.c **** 
1121:.\Generated_Source\PSoC4/USBFS_std.c ****     if ((ep > USBFS_EP0) && (ep < USBFS_MAX_EP))
 1121              		.loc 1 1121 0
 1122 000a 5A1E     		sub	r2, r3, #1
 1123 000c 072A     		cmp	r2, #7
 1124 000e 22D8     		bhi	.L84
1122:.\Generated_Source\PSoC4/USBFS_std.c ****     {
1123:.\Generated_Source\PSoC4/USBFS_std.c ****         /* Set the endpoint Halt */
1124:.\Generated_Source\PSoC4/USBFS_std.c ****         USBFS_EP[ep].hwEpState |= (USBFS_ENDPOINT_STATUS_HALT);
 1125              		.loc 1 1124 0
 1126 0010 5A00     		lsl	r2, r3, #1
 1127 0012 D218     		add	r2, r2, r3
 1128 0014 9200     		lsl	r2, r2, #2
 1129 0016 1249     		ldr	r1, .L85+4
 1130 0018 8A18     		add	r2, r1, r2
 1131 001a 9078     		ldrb	r0, [r2, #2]
 1132 001c 0121     		mov	r1, #1
 1133 001e 0143     		orr	r1, r0
 1134 0020 9170     		strb	r1, [r2, #2]
1125:.\Generated_Source\PSoC4/USBFS_std.c **** 
1126:.\Generated_Source\PSoC4/USBFS_std.c ****         /* Clear the data toggle */
1127:.\Generated_Source\PSoC4/USBFS_std.c ****         USBFS_EP[ep].epToggle = 0u;
 1135              		.loc 1 1127 0
 1136 0022 0021     		mov	r1, #0
 1137 0024 D170     		strb	r1, [r2, #3]
1128:.\Generated_Source\PSoC4/USBFS_std.c ****         USBFS_EP[ep].apiEpState |= USBFS_NO_EVENT_ALLOWED;
 1138              		.loc 1 1128 0
 1139 0026 5078     		ldrb	r0, [r2, #1]
 1140 0028 0231     		add	r1, r1, #2
 1141 002a 0143     		orr	r1, r0
 1142 002c 5170     		strb	r1, [r2, #1]
1129:.\Generated_Source\PSoC4/USBFS_std.c **** 
1130:.\Generated_Source\PSoC4/USBFS_std.c ****         if ((USBFS_EP[ep].addr & USBFS_DIR_IN) != 0u)
 1143              		.loc 1 1130 0
 1144 002e 1279     		ldrb	r2, [r2, #4]
 1145 0030 52B2     		sxtb	r2, r2
 1146 0032 002A     		cmp	r2, #0
 1147 0034 06DA     		bge	.L82
1131:.\Generated_Source\PSoC4/USBFS_std.c ****         {
1132:.\Generated_Source\PSoC4/USBFS_std.c ****             /* IN Endpoint */
1133:.\Generated_Source\PSoC4/USBFS_std.c ****             USBFS_SIE_EP_BASE.sieEp[ep].epCr0 = (USBFS_MODE_STALL_DATA_EP | 
 1148              		.loc 1 1133 0
 1149 0036 9B01     		lsl	r3, r3, #6
 1150              	.LVL101:
 1151 0038 0A4A     		ldr	r2, .L85+8
 1152 003a 9446     		mov	ip, r2
 1153 003c 6344     		add	r3, r3, ip
 1154 003e 8D22     		mov	r2, #141
 1155 0040 9A60     		str	r2, [r3, #8]
 1156 0042 05E0     		b	.L83
 1157              	.LVL102:
 1158              	.L82:
1134:.\Generated_Source\PSoC4/USBFS_std.c ****                                                             USBFS_MODE_ACK_IN);
1135:.\Generated_Source\PSoC4/USBFS_std.c ****         }
1136:.\Generated_Source\PSoC4/USBFS_std.c ****         else
ARM GAS  C:\Users\LAIR\AppData\Local\Temp\cciUanLt.s 			page 43


1137:.\Generated_Source\PSoC4/USBFS_std.c ****         {
1138:.\Generated_Source\PSoC4/USBFS_std.c ****             /* OUT Endpoint */
1139:.\Generated_Source\PSoC4/USBFS_std.c ****             USBFS_SIE_EP_BASE.sieEp[ep].epCr0 = (USBFS_MODE_STALL_DATA_EP | 
 1159              		.loc 1 1139 0
 1160 0044 9B01     		lsl	r3, r3, #6
 1161              	.LVL103:
 1162 0046 074A     		ldr	r2, .L85+8
 1163 0048 9446     		mov	ip, r2
 1164 004a 6344     		add	r3, r3, ip
 1165 004c 8922     		mov	r2, #137
 1166 004e 9A60     		str	r2, [r3, #8]
 1167              	.L83:
1140:.\Generated_Source\PSoC4/USBFS_std.c ****                                                             USBFS_MODE_ACK_OUT);
1141:.\Generated_Source\PSoC4/USBFS_std.c ****         }
1142:.\Generated_Source\PSoC4/USBFS_std.c ****         requestHandled = USBFS_InitNoDataControlTransfer();
 1168              		.loc 1 1142 0
 1169 0050 FFF7FEFF 		bl	USBFS_InitNoDataControlTransfer
 1170              	.LVL104:
 1171 0054 00E0     		b	.L81
 1172              	.LVL105:
 1173              	.L84:
1115:.\Generated_Source\PSoC4/USBFS_std.c ****     uint32 ep;
 1174              		.loc 1 1115 0
 1175 0056 0020     		mov	r0, #0
 1176              	.LVL106:
 1177              	.L81:
1143:.\Generated_Source\PSoC4/USBFS_std.c ****     }
1144:.\Generated_Source\PSoC4/USBFS_std.c **** 
1145:.\Generated_Source\PSoC4/USBFS_std.c ****     return (requestHandled);
1146:.\Generated_Source\PSoC4/USBFS_std.c **** }
 1178              		.loc 1 1146 0
 1179              		@ sp needed
 1180 0058 08BD     		pop	{r3, pc}
 1181              	.L86:
 1182 005a C046     		.align	2
 1183              	.L85:
 1184 005c 00002C40 		.word	1076625408
 1185 0060 00000000 		.word	USBFS_EP
 1186 0064 F0FF2B40 		.word	1076625392
 1187              		.cfi_endproc
 1188              	.LFE75:
 1189              		.size	USBFS_SetEndpointHalt, .-USBFS_SetEndpointHalt
 1190              		.section	.text.USBFS_ClearEndpointHalt,"ax",%progbits
 1191              		.align	2
 1192              		.global	USBFS_ClearEndpointHalt
 1193              		.code	16
 1194              		.thumb_func
 1195              		.type	USBFS_ClearEndpointHalt, %function
 1196              	USBFS_ClearEndpointHalt:
 1197              	.LFB76:
1147:.\Generated_Source\PSoC4/USBFS_std.c **** 
1148:.\Generated_Source\PSoC4/USBFS_std.c **** 
1149:.\Generated_Source\PSoC4/USBFS_std.c **** /*******************************************************************************
1150:.\Generated_Source\PSoC4/USBFS_std.c **** * Function Name: USBFS_ClearEndpointHalt
1151:.\Generated_Source\PSoC4/USBFS_std.c **** ****************************************************************************//**
1152:.\Generated_Source\PSoC4/USBFS_std.c **** *
1153:.\Generated_Source\PSoC4/USBFS_std.c **** *  This routine handles clear endpoint halt.
ARM GAS  C:\Users\LAIR\AppData\Local\Temp\cciUanLt.s 			page 44


1154:.\Generated_Source\PSoC4/USBFS_std.c **** *
1155:.\Generated_Source\PSoC4/USBFS_std.c **** * \return
1156:.\Generated_Source\PSoC4/USBFS_std.c **** *  requestHandled.
1157:.\Generated_Source\PSoC4/USBFS_std.c **** *
1158:.\Generated_Source\PSoC4/USBFS_std.c **** * \reentrant
1159:.\Generated_Source\PSoC4/USBFS_std.c **** *  No.
1160:.\Generated_Source\PSoC4/USBFS_std.c **** *
1161:.\Generated_Source\PSoC4/USBFS_std.c **** *******************************************************************************/
1162:.\Generated_Source\PSoC4/USBFS_std.c **** uint8 USBFS_ClearEndpointHalt(void) 
1163:.\Generated_Source\PSoC4/USBFS_std.c **** {
 1198              		.loc 1 1163 0
 1199              		.cfi_startproc
 1200 0000 10B5     		push	{r4, lr}
 1201              		.cfi_def_cfa_offset 8
 1202              		.cfi_offset 4, -8
 1203              		.cfi_offset 14, -4
 1204              	.LVL107:
1164:.\Generated_Source\PSoC4/USBFS_std.c ****     uint8 requestHandled = USBFS_FALSE;
1165:.\Generated_Source\PSoC4/USBFS_std.c ****     uint32 ep;
1166:.\Generated_Source\PSoC4/USBFS_std.c **** 
1167:.\Generated_Source\PSoC4/USBFS_std.c ****     /* Clear endpoint halt */
1168:.\Generated_Source\PSoC4/USBFS_std.c ****     ep = USBFS_wIndexLoReg & USBFS_DIR_UNUSED;
 1205              		.loc 1 1168 0
 1206 0002 274B     		ldr	r3, .L94
 1207 0004 1B69     		ldr	r3, [r3, #16]
 1208 0006 7F22     		mov	r2, #127
 1209 0008 1340     		and	r3, r2
 1210              	.LVL108:
1169:.\Generated_Source\PSoC4/USBFS_std.c **** 
1170:.\Generated_Source\PSoC4/USBFS_std.c ****     if ((ep > USBFS_EP0) && (ep < USBFS_MAX_EP))
 1211              		.loc 1 1170 0
 1212 000a 5A1E     		sub	r2, r3, #1
 1213 000c 072A     		cmp	r2, #7
 1214 000e 45D8     		bhi	.L93
1171:.\Generated_Source\PSoC4/USBFS_std.c ****     {
1172:.\Generated_Source\PSoC4/USBFS_std.c ****         /* Clear the endpoint Halt */
1173:.\Generated_Source\PSoC4/USBFS_std.c ****         USBFS_EP[ep].hwEpState &= (uint8) ~USBFS_ENDPOINT_STATUS_HALT;
 1215              		.loc 1 1173 0
 1216 0010 5A00     		lsl	r2, r3, #1
 1217 0012 D218     		add	r2, r2, r3
 1218 0014 9200     		lsl	r2, r2, #2
 1219 0016 2349     		ldr	r1, .L94+4
 1220 0018 8A18     		add	r2, r1, r2
 1221 001a 9178     		ldrb	r1, [r2, #2]
 1222 001c 0120     		mov	r0, #1
 1223 001e 8143     		bic	r1, r0
 1224 0020 9170     		strb	r1, [r2, #2]
1174:.\Generated_Source\PSoC4/USBFS_std.c **** 
1175:.\Generated_Source\PSoC4/USBFS_std.c ****         /* Clear the data toggle */
1176:.\Generated_Source\PSoC4/USBFS_std.c ****         USBFS_EP[ep].epToggle = 0u;
 1225              		.loc 1 1176 0
 1226 0022 0021     		mov	r1, #0
 1227 0024 D170     		strb	r1, [r2, #3]
1177:.\Generated_Source\PSoC4/USBFS_std.c ****         
1178:.\Generated_Source\PSoC4/USBFS_std.c ****         /* Clear toggle bit for already armed packet */
1179:.\Generated_Source\PSoC4/USBFS_std.c ****         USBFS_SIE_EP_BASE.sieEp[ep].epCnt0 = (uint32) ~(uint32)USBFS_EPX_CNT_DATA_TOGGLE;
 1228              		.loc 1 1179 0
ARM GAS  C:\Users\LAIR\AppData\Local\Temp\cciUanLt.s 			page 45


 1229 0026 9901     		lsl	r1, r3, #6
 1230 0028 8124     		mov	r4, #129
 1231 002a 6442     		neg	r4, r4
 1232 002c 1E48     		ldr	r0, .L94+8
 1233 002e 0C50     		str	r4, [r1, r0]
1180:.\Generated_Source\PSoC4/USBFS_std.c ****         
1181:.\Generated_Source\PSoC4/USBFS_std.c ****         /* Return API State as it was defined before */
1182:.\Generated_Source\PSoC4/USBFS_std.c ****         USBFS_EP[ep].apiEpState &= (uint8) ~USBFS_NO_EVENT_ALLOWED;
 1234              		.loc 1 1182 0
 1235 0030 5178     		ldrb	r1, [r2, #1]
 1236 0032 0220     		mov	r0, #2
 1237 0034 8143     		bic	r1, r0
 1238 0036 5170     		strb	r1, [r2, #1]
1183:.\Generated_Source\PSoC4/USBFS_std.c **** 
1184:.\Generated_Source\PSoC4/USBFS_std.c ****         if ((USBFS_EP[ep].addr & USBFS_DIR_IN) != 0u)
 1239              		.loc 1 1184 0
 1240 0038 1279     		ldrb	r2, [r2, #4]
 1241 003a 52B2     		sxtb	r2, r2
 1242 003c 002A     		cmp	r2, #0
 1243 003e 15DA     		bge	.L89
1185:.\Generated_Source\PSoC4/USBFS_std.c ****         {
1186:.\Generated_Source\PSoC4/USBFS_std.c ****             /* IN Endpoint */
1187:.\Generated_Source\PSoC4/USBFS_std.c ****             if(USBFS_EP[ep].apiEpState == USBFS_IN_BUFFER_EMPTY)
 1244              		.loc 1 1187 0
 1245 0040 5A00     		lsl	r2, r3, #1
 1246 0042 D218     		add	r2, r2, r3
 1247 0044 9200     		lsl	r2, r2, #2
 1248 0046 1749     		ldr	r1, .L94+4
 1249 0048 8A18     		add	r2, r1, r2
 1250 004a 5278     		ldrb	r2, [r2, #1]
 1251 004c 012A     		cmp	r2, #1
 1252 004e 06D1     		bne	.L90
1188:.\Generated_Source\PSoC4/USBFS_std.c ****             {       
1189:.\Generated_Source\PSoC4/USBFS_std.c ****                 /* Wait for next packet from application */
1190:.\Generated_Source\PSoC4/USBFS_std.c ****                 USBFS_SIE_EP_BASE.sieEp[ep].epCr0 = USBFS_MODE_NAK_IN;
 1253              		.loc 1 1190 0
 1254 0050 9B01     		lsl	r3, r3, #6
 1255              	.LVL109:
 1256 0052 154A     		ldr	r2, .L94+8
 1257 0054 9446     		mov	ip, r2
 1258 0056 6344     		add	r3, r3, ip
 1259 0058 0C22     		mov	r2, #12
 1260 005a 9A60     		str	r2, [r3, #8]
 1261 005c 1BE0     		b	.L91
 1262              	.LVL110:
 1263              	.L90:
1191:.\Generated_Source\PSoC4/USBFS_std.c ****             }
1192:.\Generated_Source\PSoC4/USBFS_std.c ****             else    /* Continue armed transfer */
1193:.\Generated_Source\PSoC4/USBFS_std.c ****             {
1194:.\Generated_Source\PSoC4/USBFS_std.c ****                 USBFS_SIE_EP_BASE.sieEp[ep].epCr0 = USBFS_MODE_ACK_IN;
 1264              		.loc 1 1194 0
 1265 005e 9B01     		lsl	r3, r3, #6
 1266              	.LVL111:
 1267 0060 114A     		ldr	r2, .L94+8
 1268 0062 9446     		mov	ip, r2
 1269 0064 6344     		add	r3, r3, ip
 1270 0066 0D22     		mov	r2, #13
ARM GAS  C:\Users\LAIR\AppData\Local\Temp\cciUanLt.s 			page 46


 1271 0068 9A60     		str	r2, [r3, #8]
 1272 006a 14E0     		b	.L91
 1273              	.LVL112:
 1274              	.L89:
1195:.\Generated_Source\PSoC4/USBFS_std.c ****             }
1196:.\Generated_Source\PSoC4/USBFS_std.c ****         }
1197:.\Generated_Source\PSoC4/USBFS_std.c ****         else
1198:.\Generated_Source\PSoC4/USBFS_std.c ****         {
1199:.\Generated_Source\PSoC4/USBFS_std.c ****             /* OUT Endpoint */
1200:.\Generated_Source\PSoC4/USBFS_std.c ****             if (USBFS_EP[ep].apiEpState == USBFS_OUT_BUFFER_FULL)
 1275              		.loc 1 1200 0
 1276 006c 5A00     		lsl	r2, r3, #1
 1277 006e D218     		add	r2, r2, r3
 1278 0070 9200     		lsl	r2, r2, #2
 1279 0072 0C49     		ldr	r1, .L94+4
 1280 0074 8A18     		add	r2, r1, r2
 1281 0076 5278     		ldrb	r2, [r2, #1]
 1282 0078 012A     		cmp	r2, #1
 1283 007a 06D1     		bne	.L92
1201:.\Generated_Source\PSoC4/USBFS_std.c ****             {       
1202:.\Generated_Source\PSoC4/USBFS_std.c ****                 /* Allow application to read full buffer */
1203:.\Generated_Source\PSoC4/USBFS_std.c ****                 USBFS_SIE_EP_BASE.sieEp[ep].epCr0 = USBFS_MODE_NAK_OUT;
 1284              		.loc 1 1203 0
 1285 007c 9B01     		lsl	r3, r3, #6
 1286              	.LVL113:
 1287 007e 0A4A     		ldr	r2, .L94+8
 1288 0080 9446     		mov	ip, r2
 1289 0082 6344     		add	r3, r3, ip
 1290 0084 0822     		mov	r2, #8
 1291 0086 9A60     		str	r2, [r3, #8]
 1292 0088 05E0     		b	.L91
 1293              	.LVL114:
 1294              	.L92:
1204:.\Generated_Source\PSoC4/USBFS_std.c ****             }
1205:.\Generated_Source\PSoC4/USBFS_std.c ****             else    /* Mark endpoint as empty, so it will be reloaded */
1206:.\Generated_Source\PSoC4/USBFS_std.c ****             {
1207:.\Generated_Source\PSoC4/USBFS_std.c ****                 USBFS_SIE_EP_BASE.sieEp[ep].epCr0 = USBFS_MODE_ACK_OUT;
 1295              		.loc 1 1207 0
 1296 008a 9B01     		lsl	r3, r3, #6
 1297              	.LVL115:
 1298 008c 064A     		ldr	r2, .L94+8
 1299 008e 9446     		mov	ip, r2
 1300 0090 6344     		add	r3, r3, ip
 1301 0092 0922     		mov	r2, #9
 1302 0094 9A60     		str	r2, [r3, #8]
 1303              	.L91:
1208:.\Generated_Source\PSoC4/USBFS_std.c ****             }
1209:.\Generated_Source\PSoC4/USBFS_std.c ****         }
1210:.\Generated_Source\PSoC4/USBFS_std.c ****         
1211:.\Generated_Source\PSoC4/USBFS_std.c ****         requestHandled = USBFS_InitNoDataControlTransfer();
 1304              		.loc 1 1211 0
 1305 0096 FFF7FEFF 		bl	USBFS_InitNoDataControlTransfer
 1306              	.LVL116:
 1307 009a 00E0     		b	.L88
 1308              	.LVL117:
 1309              	.L93:
1164:.\Generated_Source\PSoC4/USBFS_std.c ****     uint32 ep;
ARM GAS  C:\Users\LAIR\AppData\Local\Temp\cciUanLt.s 			page 47


 1310              		.loc 1 1164 0
 1311 009c 0020     		mov	r0, #0
 1312              	.LVL118:
 1313              	.L88:
1212:.\Generated_Source\PSoC4/USBFS_std.c ****     }
1213:.\Generated_Source\PSoC4/USBFS_std.c **** 
1214:.\Generated_Source\PSoC4/USBFS_std.c ****     return(requestHandled);
1215:.\Generated_Source\PSoC4/USBFS_std.c **** }
 1314              		.loc 1 1215 0
 1315              		@ sp needed
 1316 009e 10BD     		pop	{r4, pc}
 1317              	.L95:
 1318              		.align	2
 1319              	.L94:
 1320 00a0 00002C40 		.word	1076625408
 1321 00a4 00000000 		.word	USBFS_EP
 1322 00a8 F0FF2B40 		.word	1076625392
 1323              		.cfi_endproc
 1324              	.LFE76:
 1325              		.size	USBFS_ClearEndpointHalt, .-USBFS_ClearEndpointHalt
 1326              		.section	.text.USBFS_ValidateAlternateSetting,"ax",%progbits
 1327              		.align	2
 1328              		.global	USBFS_ValidateAlternateSetting
 1329              		.code	16
 1330              		.thumb_func
 1331              		.type	USBFS_ValidateAlternateSetting, %function
 1332              	USBFS_ValidateAlternateSetting:
 1333              	.LFB77:
1216:.\Generated_Source\PSoC4/USBFS_std.c **** 
1217:.\Generated_Source\PSoC4/USBFS_std.c **** 
1218:.\Generated_Source\PSoC4/USBFS_std.c **** /*******************************************************************************
1219:.\Generated_Source\PSoC4/USBFS_std.c **** * Function Name: USBFS_ValidateAlternateSetting
1220:.\Generated_Source\PSoC4/USBFS_std.c **** ****************************************************************************//**
1221:.\Generated_Source\PSoC4/USBFS_std.c **** *
1222:.\Generated_Source\PSoC4/USBFS_std.c **** *  Validates (and records) a SET INTERFACE request.
1223:.\Generated_Source\PSoC4/USBFS_std.c **** *
1224:.\Generated_Source\PSoC4/USBFS_std.c **** * \return
1225:.\Generated_Source\PSoC4/USBFS_std.c **** *  requestHandled.
1226:.\Generated_Source\PSoC4/USBFS_std.c **** *
1227:.\Generated_Source\PSoC4/USBFS_std.c **** * \reentrant
1228:.\Generated_Source\PSoC4/USBFS_std.c **** *  No.
1229:.\Generated_Source\PSoC4/USBFS_std.c **** *
1230:.\Generated_Source\PSoC4/USBFS_std.c **** *******************************************************************************/
1231:.\Generated_Source\PSoC4/USBFS_std.c **** uint8 USBFS_ValidateAlternateSetting(void) 
1232:.\Generated_Source\PSoC4/USBFS_std.c **** {
 1334              		.loc 1 1232 0
 1335              		.cfi_startproc
 1336 0000 38B5     		push	{r3, r4, r5, lr}
 1337              		.cfi_def_cfa_offset 16
 1338              		.cfi_offset 3, -16
 1339              		.cfi_offset 4, -12
 1340              		.cfi_offset 5, -8
 1341              		.cfi_offset 14, -4
 1342              	.LVL119:
1233:.\Generated_Source\PSoC4/USBFS_std.c ****     uint8 requestHandled = USBFS_FALSE;
1234:.\Generated_Source\PSoC4/USBFS_std.c ****     
1235:.\Generated_Source\PSoC4/USBFS_std.c ****     uint8 interfaceNum;
ARM GAS  C:\Users\LAIR\AppData\Local\Temp\cciUanLt.s 			page 48


1236:.\Generated_Source\PSoC4/USBFS_std.c ****     uint8 curInterfacesNum;
1237:.\Generated_Source\PSoC4/USBFS_std.c ****     const T_USBFS_LUT CYCODE *pTmp;
1238:.\Generated_Source\PSoC4/USBFS_std.c ****     
1239:.\Generated_Source\PSoC4/USBFS_std.c ****     /* Get interface number from the request. */
1240:.\Generated_Source\PSoC4/USBFS_std.c ****     interfaceNum = (uint8) USBFS_wIndexLoReg;
 1343              		.loc 1 1240 0
 1344 0002 0F4B     		ldr	r3, .L100
 1345 0004 1C69     		ldr	r4, [r3, #16]
 1346 0006 E5B2     		uxtb	r5, r4
 1347              	.LVL120:
1241:.\Generated_Source\PSoC4/USBFS_std.c ****     
1242:.\Generated_Source\PSoC4/USBFS_std.c ****     /* Get number of interfaces for current configuration. */
1243:.\Generated_Source\PSoC4/USBFS_std.c ****     pTmp = USBFS_GetConfigTablePtr(USBFS_configuration - 1u);
 1348              		.loc 1 1243 0
 1349 0008 0E4B     		ldr	r3, .L100+4
 1350 000a 1878     		ldrb	r0, [r3]
 1351 000c 0138     		sub	r0, r0, #1
 1352 000e C0B2     		uxtb	r0, r0
 1353 0010 FFF7FEFF 		bl	USBFS_GetConfigTablePtr
 1354              	.LVL121:
1244:.\Generated_Source\PSoC4/USBFS_std.c ****     curInterfacesNum  = ((const uint8 *) pTmp->p_list)[USBFS_CONFIG_DESCR_NUM_INTERFACES];
 1355              		.loc 1 1244 0
 1356 0014 4368     		ldr	r3, [r0, #4]
 1357 0016 1B79     		ldrb	r3, [r3, #4]
 1358              	.LVL122:
1245:.\Generated_Source\PSoC4/USBFS_std.c **** 
1246:.\Generated_Source\PSoC4/USBFS_std.c ****     /* Validate that interface number is within range. */
1247:.\Generated_Source\PSoC4/USBFS_std.c ****     if ((interfaceNum <= curInterfacesNum) || (interfaceNum <= USBFS_MAX_INTERFACES_NUMBER))
 1359              		.loc 1 1247 0
 1360 0018 9D42     		cmp	r5, r3
 1361 001a 01D9     		bls	.L97
 1362              		.loc 1 1247 0 is_stmt 0 discriminator 1
 1363 001c 012D     		cmp	r5, #1
 1364 001e 0CD8     		bhi	.L99
 1365              	.L97:
 1366 0020 FF23     		mov	r3, #255
 1367              	.LVL123:
 1368 0022 2340     		and	r3, r4
1248:.\Generated_Source\PSoC4/USBFS_std.c ****     {
1249:.\Generated_Source\PSoC4/USBFS_std.c ****         /* Save current and new alternate settings (come with request) to make 
1250:.\Generated_Source\PSoC4/USBFS_std.c ****         * desicion about following endpoint re-configuration.
1251:.\Generated_Source\PSoC4/USBFS_std.c ****         */
1252:.\Generated_Source\PSoC4/USBFS_std.c ****         USBFS_interfaceSettingLast[interfaceNum] = USBFS_interfaceSetting[interfaceNum];
 1369              		.loc 1 1252 0 is_stmt 1
 1370 0024 0849     		ldr	r1, .L100+8
 1371 0026 CA5C     		ldrb	r2, [r1, r3]
 1372 0028 D2B2     		uxtb	r2, r2
 1373 002a 0848     		ldr	r0, .L100+12
 1374              	.LVL124:
 1375 002c C254     		strb	r2, [r0, r3]
1253:.\Generated_Source\PSoC4/USBFS_std.c ****         USBFS_interfaceSetting[interfaceNum]     = (uint8) USBFS_wValueLoReg;
 1376              		.loc 1 1253 0
 1377 002e 044A     		ldr	r2, .L100
 1378 0030 9268     		ldr	r2, [r2, #8]
 1379 0032 D2B2     		uxtb	r2, r2
 1380 0034 CA54     		strb	r2, [r1, r3]
 1381              	.LVL125:
ARM GAS  C:\Users\LAIR\AppData\Local\Temp\cciUanLt.s 			page 49


1254:.\Generated_Source\PSoC4/USBFS_std.c ****         
1255:.\Generated_Source\PSoC4/USBFS_std.c ****         requestHandled = USBFS_TRUE;
 1382              		.loc 1 1255 0
 1383 0036 0120     		mov	r0, #1
 1384 0038 00E0     		b	.L98
 1385              	.LVL126:
 1386              	.L99:
1233:.\Generated_Source\PSoC4/USBFS_std.c ****     
 1387              		.loc 1 1233 0
 1388 003a 0020     		mov	r0, #0
 1389              	.LVL127:
 1390              	.L98:
1256:.\Generated_Source\PSoC4/USBFS_std.c ****     }
1257:.\Generated_Source\PSoC4/USBFS_std.c **** 
1258:.\Generated_Source\PSoC4/USBFS_std.c ****     return (requestHandled);
1259:.\Generated_Source\PSoC4/USBFS_std.c **** }
 1391              		.loc 1 1259 0
 1392              		@ sp needed
 1393              	.LVL128:
 1394 003c 38BD     		pop	{r3, r4, r5, pc}
 1395              	.L101:
 1396 003e C046     		.align	2
 1397              	.L100:
 1398 0040 00002C40 		.word	1076625408
 1399 0044 00000000 		.word	USBFS_configuration
 1400 0048 00000000 		.word	USBFS_interfaceSetting
 1401 004c 00000000 		.word	USBFS_interfaceSettingLast
 1402              		.cfi_endproc
 1403              	.LFE77:
 1404              		.size	USBFS_ValidateAlternateSetting, .-USBFS_ValidateAlternateSetting
 1405              		.section	.text.USBFS_HandleStandardRqst,"ax",%progbits
 1406              		.align	2
 1407              		.global	USBFS_HandleStandardRqst
 1408              		.code	16
 1409              		.thumb_func
 1410              		.type	USBFS_HandleStandardRqst, %function
 1411              	USBFS_HandleStandardRqst:
 1412              	.LFB65:
  85:.\Generated_Source\PSoC4/USBFS_std.c ****     uint8 requestHandled = USBFS_FALSE;
 1413              		.loc 1 85 0
 1414              		.cfi_startproc
 1415 0000 10B5     		push	{r4, lr}
 1416              		.cfi_def_cfa_offset 8
 1417              		.cfi_offset 4, -8
 1418              		.cfi_offset 14, -4
 1419              	.LVL129:
  89:.\Generated_Source\PSoC4/USBFS_std.c **** 
 1420              		.loc 1 89 0
 1421 0002 B44B     		ldr	r3, .L158
 1422 0004 1B68     		ldr	r3, [r3]
 1423              	.LVL130:
 102:.\Generated_Source\PSoC4/USBFS_std.c **** 
 1424              		.loc 1 102 0
 1425 0006 0021     		mov	r1, #0
 1426 0008 B34A     		ldr	r2, .L158+4
 1427 000a 1180     		strh	r1, [r2]
 104:.\Generated_Source\PSoC4/USBFS_std.c ****     {
ARM GAS  C:\Users\LAIR\AppData\Local\Temp\cciUanLt.s 			page 50


 1428              		.loc 1 104 0
 1429 000c 1A06     		lsl	r2, r3, #24
 1430 000e 00D4     		bmi	.LCB1527
 1431 0010 A6E0     		b	.L103	@long jump
 1432              	.LCB1527:
 107:.\Generated_Source\PSoC4/USBFS_std.c ****         {
 1433              		.loc 1 107 0
 1434 0012 B04A     		ldr	r2, .L158
 1435 0014 5268     		ldr	r2, [r2, #4]
 1436 0016 062A     		cmp	r2, #6
 1437 0018 0AD0     		beq	.L105
 1438 001a 02D8     		bhi	.L106
 1439 001c 002A     		cmp	r2, #0
 1440 001e 63D0     		beq	.L107
 1441 0020 3AE1     		b	.L137
 1442              	.L106:
 1443 0022 082A     		cmp	r2, #8
 1444 0024 00D1     		bne	.LCB1541
 1445 0026 88E0     		b	.L108	@long jump
 1446              	.LCB1541:
 1447 0028 0A2A     		cmp	r2, #10
 1448 002a 00D1     		bne	.LCB1543
 1449 002c 8DE0     		b	.L109	@long jump
 1450              	.LCB1543:
 1451 002e 33E1     		b	.L137
 1452              	.L105:
 110:.\Generated_Source\PSoC4/USBFS_std.c ****                 {
 1453              		.loc 1 110 0
 1454 0030 A84B     		ldr	r3, .L158
 1455              	.LVL131:
 1456 0032 DB68     		ldr	r3, [r3, #12]
 1457 0034 012B     		cmp	r3, #1
 1458 0036 09D1     		bne	.L110
 112:.\Generated_Source\PSoC4/USBFS_std.c ****                     USBFS_currentTD.pData = (volatile uint8 *)pTmp->p_list;
 1459              		.loc 1 112 0
 1460 0038 FFF7FEFF 		bl	USBFS_GetDeviceTablePtr
 1461              	.LVL132:
 113:.\Generated_Source\PSoC4/USBFS_std.c ****                     USBFS_currentTD.count = USBFS_DEVICE_DESCR_LENGTH;
 1462              		.loc 1 113 0
 1463 003c 4268     		ldr	r2, [r0, #4]
 1464 003e A64B     		ldr	r3, .L158+4
 1465 0040 5A60     		str	r2, [r3, #4]
 114:.\Generated_Source\PSoC4/USBFS_std.c ****                     
 1466              		.loc 1 114 0
 1467 0042 1222     		mov	r2, #18
 1468 0044 1A80     		strh	r2, [r3]
 116:.\Generated_Source\PSoC4/USBFS_std.c ****                 }
 1469              		.loc 1 116 0
 1470 0046 FFF7FEFF 		bl	USBFS_InitControlRead
 1471              	.LVL133:
 1472 004a 42E1     		b	.L104
 1473              	.LVL134:
 1474              	.L110:
 118:.\Generated_Source\PSoC4/USBFS_std.c ****                 {
 1475              		.loc 1 118 0
 1476 004c A14B     		ldr	r3, .L158
 1477 004e DB68     		ldr	r3, [r3, #12]
ARM GAS  C:\Users\LAIR\AppData\Local\Temp\cciUanLt.s 			page 51


 1478 0050 022B     		cmp	r3, #2
 1479 0052 14D1     		bne	.L111
 120:.\Generated_Source\PSoC4/USBFS_std.c ****                     
 1480              		.loc 1 120 0
 1481 0054 9F4B     		ldr	r3, .L158
 1482 0056 9868     		ldr	r0, [r3, #8]
 1483 0058 C0B2     		uxtb	r0, r0
 1484 005a FFF7FEFF 		bl	USBFS_GetConfigTablePtr
 1485              	.LVL135:
 123:.\Generated_Source\PSoC4/USBFS_std.c ****                     {
 1486              		.loc 1 123 0
 1487 005e 0028     		cmp	r0, #0
 1488 0060 00D1     		bne	.LCB1582
 1489 0062 1BE1     		b	.L138	@long jump
 1490              	.LCB1582:
 125:.\Generated_Source\PSoC4/USBFS_std.c ****                         USBFS_currentTD.count = (uint16)((uint16)(USBFS_currentTD.pData)[USBFS_CONF
 1491              		.loc 1 125 0
 1492 0064 4368     		ldr	r3, [r0, #4]
 1493 0066 9C4A     		ldr	r2, .L158+4
 1494 0068 5360     		str	r3, [r2, #4]
 126:.\Generated_Source\PSoC4/USBFS_std.c ****                                                                             (USBFS_currentTD.pData)
 1495              		.loc 1 126 0
 1496 006a 5368     		ldr	r3, [r2, #4]
 1497 006c DB78     		ldrb	r3, [r3, #3]
 1498 006e 1B02     		lsl	r3, r3, #8
 127:.\Generated_Source\PSoC4/USBFS_std.c ****                         requestHandled  = USBFS_InitControlRead();
 1499              		.loc 1 127 0
 1500 0070 5168     		ldr	r1, [r2, #4]
 1501 0072 8978     		ldrb	r1, [r1, #2]
 126:.\Generated_Source\PSoC4/USBFS_std.c ****                                                                             (USBFS_currentTD.pData)
 1502              		.loc 1 126 0
 1503 0074 0B43     		orr	r3, r1
 1504 0076 1380     		strh	r3, [r2]
 128:.\Generated_Source\PSoC4/USBFS_std.c ****                     }
 1505              		.loc 1 128 0
 1506 0078 FFF7FEFF 		bl	USBFS_InitControlRead
 1507              	.LVL136:
 1508 007c 29E1     		b	.L104
 1509              	.LVL137:
 1510              	.L111:
 149:.\Generated_Source\PSoC4/USBFS_std.c ****                 {
 1511              		.loc 1 149 0
 1512 007e 954B     		ldr	r3, .L158
 1513 0080 DB68     		ldr	r3, [r3, #12]
 1514 0082 032B     		cmp	r3, #3
 1515 0084 05D0     		beq	.L139
 1516 0086 2CE0     		b	.L154
 1517              	.LVL138:
 1518              	.L115:
 159:.\Generated_Source\PSoC4/USBFS_std.c ****                         /* Move to next string descriptor */
 1519              		.loc 1 159 0
 1520 0088 1178     		ldrb	r1, [r2]
 1521              	.LVL139:
 161:.\Generated_Source\PSoC4/USBFS_std.c ****                         nStr++;
 1522              		.loc 1 161 0
 1523 008a 5218     		add	r2, r2, r1
 1524              	.LVL140:
ARM GAS  C:\Users\LAIR\AppData\Local\Temp\cciUanLt.s 			page 52


 162:.\Generated_Source\PSoC4/USBFS_std.c ****                     }
 1525              		.loc 1 162 0
 1526 008c 0133     		add	r3, r3, #1
 1527              	.LVL141:
 1528 008e DBB2     		uxtb	r3, r3
 1529              	.LVL142:
 1530 0090 01E0     		b	.L112
 1531              	.LVL143:
 1532              	.L139:
 1533 0092 0023     		mov	r3, #0
 1534 0094 914A     		ldr	r2, .L158+8
 1535              	.LVL144:
 1536              	.L112:
 156:.\Generated_Source\PSoC4/USBFS_std.c ****                     {
 1537              		.loc 1 156 0
 1538 0096 8F49     		ldr	r1, .L158
 1539 0098 8968     		ldr	r1, [r1, #8]
 1540 009a 9942     		cmp	r1, r3
 1541 009c 02D9     		bls	.L114
 156:.\Generated_Source\PSoC4/USBFS_std.c ****                     {
 1542              		.loc 1 156 0 is_stmt 0 discriminator 1
 1543 009e 1178     		ldrb	r1, [r2]
 1544 00a0 0029     		cmp	r1, #0
 1545 00a2 F1D1     		bne	.L115
 1546              	.L114:
 168:.\Generated_Source\PSoC4/USBFS_std.c ****                     {
 1547              		.loc 1 168 0 is_stmt 1
 1548 00a4 8B4B     		ldr	r3, .L158
 1549              	.LVL145:
 1550 00a6 9B68     		ldr	r3, [r3, #8]
 1551 00a8 EE2B     		cmp	r3, #238
 1552 00aa 00D1     		bne	.L116
 170:.\Generated_Source\PSoC4/USBFS_std.c ****                     }
 1553              		.loc 1 170 0
 1554 00ac 8C4A     		ldr	r2, .L158+12
 1555              	.LVL146:
 1556              	.L116:
 176:.\Generated_Source\PSoC4/USBFS_std.c ****                         (USBFS_wValueLoReg == USBFS_DEVICE0_DESCR[USBFS_DEVICE_DESCR_SN_SHIFT]))
 1557              		.loc 1 176 0
 1558 00ae 894B     		ldr	r3, .L158
 1559 00b0 9B68     		ldr	r3, [r3, #8]
 1560 00b2 002B     		cmp	r3, #0
 1561 00b4 0AD0     		beq	.L117
 177:.\Generated_Source\PSoC4/USBFS_std.c ****                     {
 1562              		.loc 1 177 0 discriminator 1
 1563 00b6 874B     		ldr	r3, .L158
 1564 00b8 9968     		ldr	r1, [r3, #8]
 1565 00ba 8A4B     		ldr	r3, .L158+16
 1566 00bc 1B7C     		ldrb	r3, [r3, #16]
 176:.\Generated_Source\PSoC4/USBFS_std.c ****                         (USBFS_wValueLoReg == USBFS_DEVICE0_DESCR[USBFS_DEVICE_DESCR_SN_SHIFT]))
 1567              		.loc 1 176 0 discriminator 1
 1568 00be 9942     		cmp	r1, r3
 1569 00c0 04D1     		bne	.L117
 181:.\Generated_Source\PSoC4/USBFS_std.c ****                         pStr = USBFS_idSerialNumberStringDescriptor;
 1570              		.loc 1 181 0
 1571 00c2 894C     		ldr	r4, .L158+20
 1572 00c4 201C     		mov	r0, r4
ARM GAS  C:\Users\LAIR\AppData\Local\Temp\cciUanLt.s 			page 53


 1573 00c6 FFF7FEFF 		bl	USBFS_ReadDieID
 1574              	.LVL147:
 182:.\Generated_Source\PSoC4/USBFS_std.c ****                     #elif defined(USBFS_ENABLE_FWSN_STRING)
 1575              		.loc 1 182 0
 1576 00ca 221C     		mov	r2, r4
 1577              	.LVL148:
 1578              	.L117:
 199:.\Generated_Source\PSoC4/USBFS_std.c ****                     {
 1579              		.loc 1 199 0
 1580 00cc 1378     		ldrb	r3, [r2]
 1581 00ce 002B     		cmp	r3, #0
 1582 00d0 00D1     		bne	.LCB1684
 1583 00d2 E5E0     		b	.L141	@long jump
 1584              	.LCB1684:
 201:.\Generated_Source\PSoC4/USBFS_std.c ****                         USBFS_currentTD.pData = pStr;
 1585              		.loc 1 201 0
 1586 00d4 1378     		ldrb	r3, [r2]
 1587 00d6 8049     		ldr	r1, .L158+4
 1588 00d8 0B80     		strh	r3, [r1]
 202:.\Generated_Source\PSoC4/USBFS_std.c ****                         requestHandled  = USBFS_InitControlRead();
 1589              		.loc 1 202 0
 1590 00da 4A60     		str	r2, [r1, #4]
 203:.\Generated_Source\PSoC4/USBFS_std.c ****                     }
 1591              		.loc 1 203 0
 1592 00dc FFF7FEFF 		bl	USBFS_InitControlRead
 1593              	.LVL149:
 1594 00e0 F7E0     		b	.L104
 1595              	.LVL150:
 1596              	.L154:
 209:.\Generated_Source\PSoC4/USBFS_std.c ****                 }
 1597              		.loc 1 209 0
 1598 00e2 FFF7FEFF 		bl	USBFS_DispatchClassRqst
 1599              	.LVL151:
 1600 00e6 F4E0     		b	.L104
 1601              	.LVL152:
 1602              	.L107:
 214:.\Generated_Source\PSoC4/USBFS_std.c ****                 {
 1603              		.loc 1 214 0
 1604 00e8 0322     		mov	r2, #3
 1605 00ea 1340     		and	r3, r2
 1606              	.LVL153:
 1607 00ec 17D0     		beq	.L118
 1608 00ee 022B     		cmp	r3, #2
 1609 00f0 00D0     		beq	.LCB1716
 1610 00f2 D7E0     		b	.L155	@long jump
 1611              	.LCB1716:
 217:.\Generated_Source\PSoC4/USBFS_std.c ****                         USBFS_tBuffer[0u]     = USBFS_EP[USBFS_wIndexLoReg & USBFS_DIR_UNUSED].hwEp
 1612              		.loc 1 217 0
 1613 00f4 7849     		ldr	r1, .L158+4
 1614 00f6 0B80     		strh	r3, [r1]
 218:.\Generated_Source\PSoC4/USBFS_std.c ****                         USBFS_tBuffer[1u]     = 0u;
 1615              		.loc 1 218 0
 1616 00f8 764B     		ldr	r3, .L158
 1617 00fa 1B69     		ldr	r3, [r3, #16]
 1618 00fc 7C32     		add	r2, r2, #124
 1619 00fe 1340     		and	r3, r2
 1620 0100 5A00     		lsl	r2, r3, #1
ARM GAS  C:\Users\LAIR\AppData\Local\Temp\cciUanLt.s 			page 54


 1621 0102 D318     		add	r3, r2, r3
 1622 0104 9B00     		lsl	r3, r3, #2
 1623 0106 794A     		ldr	r2, .L158+24
 1624 0108 D318     		add	r3, r2, r3
 1625 010a 9A78     		ldrb	r2, [r3, #2]
 1626 010c D2B2     		uxtb	r2, r2
 1627 010e 784B     		ldr	r3, .L158+28
 1628 0110 1A70     		strb	r2, [r3]
 219:.\Generated_Source\PSoC4/USBFS_std.c ****                         USBFS_currentTD.pData = &USBFS_tBuffer[0u];
 1629              		.loc 1 219 0
 1630 0112 0022     		mov	r2, #0
 1631 0114 5A70     		strb	r2, [r3, #1]
 220:.\Generated_Source\PSoC4/USBFS_std.c ****                         
 1632              		.loc 1 220 0
 1633 0116 4B60     		str	r3, [r1, #4]
 222:.\Generated_Source\PSoC4/USBFS_std.c ****                         break;
 1634              		.loc 1 222 0
 1635 0118 FFF7FEFF 		bl	USBFS_InitControlRead
 1636              	.LVL154:
 223:.\Generated_Source\PSoC4/USBFS_std.c ****                     case USBFS_RQST_RCPT_DEV:
 1637              		.loc 1 223 0
 1638 011c D9E0     		b	.L104
 1639              	.LVL155:
 1640              	.L118:
 225:.\Generated_Source\PSoC4/USBFS_std.c ****                         USBFS_tBuffer[0u]     = USBFS_deviceStatus;
 1641              		.loc 1 225 0
 1642 011e 6E49     		ldr	r1, .L158+4
 1643 0120 0223     		mov	r3, #2
 1644 0122 0B80     		strh	r3, [r1]
 226:.\Generated_Source\PSoC4/USBFS_std.c ****                         USBFS_tBuffer[1u]     = 0u;
 1645              		.loc 1 226 0
 1646 0124 734B     		ldr	r3, .L158+32
 1647 0126 1A78     		ldrb	r2, [r3]
 1648 0128 D2B2     		uxtb	r2, r2
 1649 012a 714B     		ldr	r3, .L158+28
 1650 012c 1A70     		strb	r2, [r3]
 227:.\Generated_Source\PSoC4/USBFS_std.c ****                         USBFS_currentTD.pData = &USBFS_tBuffer[0u];
 1651              		.loc 1 227 0
 1652 012e 0022     		mov	r2, #0
 1653 0130 5A70     		strb	r2, [r3, #1]
 228:.\Generated_Source\PSoC4/USBFS_std.c ****                         
 1654              		.loc 1 228 0
 1655 0132 4B60     		str	r3, [r1, #4]
 230:.\Generated_Source\PSoC4/USBFS_std.c ****                         break;
 1656              		.loc 1 230 0
 1657 0134 FFF7FEFF 		bl	USBFS_InitControlRead
 1658              	.LVL156:
 231:.\Generated_Source\PSoC4/USBFS_std.c ****                     default:    /* requestHandled is initialized as FALSE by default */
 1659              		.loc 1 231 0
 1660 0138 CBE0     		b	.L104
 1661              	.LVL157:
 1662              	.L108:
 238:.\Generated_Source\PSoC4/USBFS_std.c ****                 USBFS_currentTD.pData = (volatile uint8 *) &USBFS_configuration;
 1663              		.loc 1 238 0
 1664 013a 674B     		ldr	r3, .L158+4
 1665              	.LVL158:
 1666 013c 0122     		mov	r2, #1
ARM GAS  C:\Users\LAIR\AppData\Local\Temp\cciUanLt.s 			page 55


 1667 013e 1A80     		strh	r2, [r3]
 239:.\Generated_Source\PSoC4/USBFS_std.c ****                 requestHandled  = USBFS_InitControlRead();
 1668              		.loc 1 239 0
 1669 0140 6D4A     		ldr	r2, .L158+36
 1670 0142 5A60     		str	r2, [r3, #4]
 240:.\Generated_Source\PSoC4/USBFS_std.c ****                 break;
 1671              		.loc 1 240 0
 1672 0144 FFF7FEFF 		bl	USBFS_InitControlRead
 1673              	.LVL159:
 241:.\Generated_Source\PSoC4/USBFS_std.c ****                 
 1674              		.loc 1 241 0
 1675 0148 C3E0     		b	.L104
 1676              	.LVL160:
 1677              	.L109:
 244:.\Generated_Source\PSoC4/USBFS_std.c ****                 USBFS_currentTD.pData = (volatile uint8 *) &USBFS_interfaceSetting[USBFS_wIndexLoRe
 1678              		.loc 1 244 0
 1679 014a 634A     		ldr	r2, .L158+4
 1680 014c 0123     		mov	r3, #1
 1681              	.LVL161:
 1682 014e 1380     		strh	r3, [r2]
 245:.\Generated_Source\PSoC4/USBFS_std.c ****                 requestHandled  = USBFS_InitControlRead();
 1683              		.loc 1 245 0
 1684 0150 604B     		ldr	r3, .L158
 1685 0152 1969     		ldr	r1, [r3, #16]
 1686 0154 694B     		ldr	r3, .L158+40
 1687 0156 CB18     		add	r3, r1, r3
 1688 0158 5360     		str	r3, [r2, #4]
 246:.\Generated_Source\PSoC4/USBFS_std.c ****                 break;
 1689              		.loc 1 246 0
 1690 015a FFF7FEFF 		bl	USBFS_InitControlRead
 1691              	.LVL162:
 247:.\Generated_Source\PSoC4/USBFS_std.c ****                 
 1692              		.loc 1 247 0
 1693 015e B8E0     		b	.L104
 1694              	.LVL163:
 1695              	.L103:
 256:.\Generated_Source\PSoC4/USBFS_std.c ****         {
 1696              		.loc 1 256 0
 1697 0160 5C4A     		ldr	r2, .L158
 1698 0162 5268     		ldr	r2, [r2, #4]
 1699 0164 0B2A     		cmp	r2, #11
 1700 0166 00D9     		bls	.LCB1800
 1701 0168 9EE0     		b	.L143	@long jump
 1702              	.LCB1800:
 1703 016a 9200     		lsl	r2, r2, #2
 1704 016c 6449     		ldr	r1, .L158+44
 1705 016e 8A58     		ldr	r2, [r1, r2]
 1706 0170 9746     		mov	pc, r2
 1707              		.section	.rodata
 1708              		.align	2
 1709              	.L121:
 1710 0000 A8020000 		.word	.L143
 1711 0004 F4010000 		.word	.L120
 1712 0008 A8020000 		.word	.L143
 1713 000c 46020000 		.word	.L122
 1714 0010 A8020000 		.word	.L143
 1715 0014 72010000 		.word	.L123
ARM GAS  C:\Users\LAIR\AppData\Local\Temp\cciUanLt.s 			page 56


 1716 0018 A8020000 		.word	.L143
 1717 001c A8020000 		.word	.L143
 1718 0020 A8020000 		.word	.L143
 1719 0024 82010000 		.word	.L124
 1720 0028 A8020000 		.word	.L143
 1721 002c C2010000 		.word	.L125
 1722              		.section	.text.USBFS_HandleStandardRqst
 1723              	.L123:
 260:.\Generated_Source\PSoC4/USBFS_std.c ****                 requestHandled = USBFS_InitNoDataControlTransfer();
 1724              		.loc 1 260 0
 1725 0172 584B     		ldr	r3, .L158
 1726              	.LVL164:
 1727 0174 9B68     		ldr	r3, [r3, #8]
 1728 0176 DBB2     		uxtb	r3, r3
 1729 0178 624A     		ldr	r2, .L158+48
 1730 017a 1370     		strb	r3, [r2]
 261:.\Generated_Source\PSoC4/USBFS_std.c ****                 break;
 1731              		.loc 1 261 0
 1732 017c FFF7FEFF 		bl	USBFS_InitNoDataControlTransfer
 1733              	.LVL165:
 262:.\Generated_Source\PSoC4/USBFS_std.c ****                 
 1734              		.loc 1 262 0
 1735 0180 A7E0     		b	.L104
 1736              	.LVL166:
 1737              	.L124:
 265:.\Generated_Source\PSoC4/USBFS_std.c ****                 
 1738              		.loc 1 265 0
 1739 0182 544B     		ldr	r3, .L158
 1740              	.LVL167:
 1741 0184 9C68     		ldr	r4, [r3, #8]
 1742              	.LVL168:
 268:.\Generated_Source\PSoC4/USBFS_std.c ****                 {
 1743              		.loc 1 268 0
 1744 0186 002C     		cmp	r4, #0
 1745 0188 03D0     		beq	.L126
 270:.\Generated_Source\PSoC4/USBFS_std.c ****                 }
 1746              		.loc 1 270 0
 1747 018a 601E     		sub	r0, r4, #1
 1748 018c C0B2     		uxtb	r0, r0
 1749 018e FFF7FEFF 		bl	USBFS_GetConfigTablePtr
 1750              	.LVL169:
 1751              	.L126:
 274:.\Generated_Source\PSoC4/USBFS_std.c ****                 {
 1752              		.loc 1 274 0
 1753 0192 002C     		cmp	r4, #0
 1754 0194 01D0     		beq	.L127
 274:.\Generated_Source\PSoC4/USBFS_std.c ****                 {
 1755              		.loc 1 274 0 is_stmt 0 discriminator 1
 1756 0196 0028     		cmp	r0, #0
 1757 0198 02D1     		bne	.L128
 1758              	.L127:
 274:.\Generated_Source\PSoC4/USBFS_std.c ****                 {
 1759              		.loc 1 274 0 discriminator 3
 1760 019a 002C     		cmp	r4, #0
 1761 019c 00D0     		beq	.LCB1849
 1762 019e 85E0     		b	.L144	@long jump
 1763              	.LCB1849:
ARM GAS  C:\Users\LAIR\AppData\Local\Temp\cciUanLt.s 			page 57


 1764              	.L128:
 277:.\Generated_Source\PSoC4/USBFS_std.c ****                     {
 1765              		.loc 1 277 0 is_stmt 1
 1766 01a0 554B     		ldr	r3, .L158+36
 1767 01a2 1B78     		ldrb	r3, [r3]
 1768 01a4 DBB2     		uxtb	r3, r3
 1769 01a6 A342     		cmp	r3, r4
 1770 01a8 08D0     		beq	.L129
 279:.\Generated_Source\PSoC4/USBFS_std.c ****                         USBFS_configurationChanged = USBFS_TRUE;
 1771              		.loc 1 279 0
 1772 01aa E4B2     		uxtb	r4, r4
 1773              	.LVL170:
 1774 01ac 524B     		ldr	r3, .L158+36
 1775 01ae 1C70     		strb	r4, [r3]
 280:.\Generated_Source\PSoC4/USBFS_std.c ****                         USBFS_Config(USBFS_TRUE);
 1776              		.loc 1 280 0
 1777 01b0 0122     		mov	r2, #1
 1778 01b2 554B     		ldr	r3, .L158+52
 1779 01b4 1A70     		strb	r2, [r3]
 281:.\Generated_Source\PSoC4/USBFS_std.c ****                     }
 1780              		.loc 1 281 0
 1781 01b6 0120     		mov	r0, #1
 1782              	.LVL171:
 1783 01b8 FFF7FEFF 		bl	USBFS_Config
 1784              	.LVL172:
 1785              	.L129:
 283:.\Generated_Source\PSoC4/USBFS_std.c ****                 }
 1786              		.loc 1 283 0
 1787 01bc FFF7FEFF 		bl	USBFS_InitNoDataControlTransfer
 1788              	.LVL173:
 1789 01c0 87E0     		b	.L104
 1790              	.LVL174:
 1791              	.L125:
 288:.\Generated_Source\PSoC4/USBFS_std.c ****                 {
 1792              		.loc 1 288 0
 1793 01c2 FFF7FEFF 		bl	USBFS_ValidateAlternateSetting
 1794              	.LVL175:
 1795 01c6 0028     		cmp	r0, #0
 1796 01c8 72D0     		beq	.L145
 291:.\Generated_Source\PSoC4/USBFS_std.c ****                     USBFS_interfaceNumber = (uint8) USBFS_wIndexLoReg;
 1797              		.loc 1 291 0
 1798 01ca 424B     		ldr	r3, .L158
 1799 01cc 1A69     		ldr	r2, [r3, #16]
 1800              	.LVL176:
 292:.\Generated_Source\PSoC4/USBFS_std.c ****                      
 1801              		.loc 1 292 0
 1802 01ce 1B69     		ldr	r3, [r3, #16]
 1803 01d0 DBB2     		uxtb	r3, r3
 1804 01d2 4E49     		ldr	r1, .L158+56
 1805 01d4 0B70     		strb	r3, [r1]
 295:.\Generated_Source\PSoC4/USBFS_std.c ****                     {
 1806              		.loc 1 295 0
 1807 01d6 4E4B     		ldr	r3, .L158+60
 1808 01d8 9B5C     		ldrb	r3, [r3, r2]
 1809 01da 4849     		ldr	r1, .L158+40
 1810 01dc 8A5C     		ldrb	r2, [r1, r2]
 1811              	.LVL177:
ARM GAS  C:\Users\LAIR\AppData\Local\Temp\cciUanLt.s 			page 58


 1812 01de DBB2     		uxtb	r3, r3
 1813 01e0 9342     		cmp	r3, r2
 1814 01e2 04D0     		beq	.L130
 297:.\Generated_Source\PSoC4/USBFS_std.c ****                     
 1815              		.loc 1 297 0
 1816 01e4 0122     		mov	r2, #1
 1817 01e6 484B     		ldr	r3, .L158+52
 1818 01e8 1A70     		strb	r2, [r3]
 303:.\Generated_Source\PSoC4/USBFS_std.c ****                     #endif /* (USBFS_EP_MANAGEMENT_MANUAL && USBFS_EP_ALLOC_DYNAMIC) */
 1819              		.loc 1 303 0
 1820 01ea FFF7FEFF 		bl	USBFS_ConfigAltChanged
 1821              	.LVL178:
 1822              	.L130:
 307:.\Generated_Source\PSoC4/USBFS_std.c ****                 }
 1823              		.loc 1 307 0
 1824 01ee FFF7FEFF 		bl	USBFS_InitNoDataControlTransfer
 1825              	.LVL179:
 1826 01f2 6EE0     		b	.L104
 1827              	.LVL180:
 1828              	.L120:
 312:.\Generated_Source\PSoC4/USBFS_std.c ****                 {
 1829              		.loc 1 312 0
 1830 01f4 0322     		mov	r2, #3
 1831 01f6 1340     		and	r3, r2
 1832              	.LVL181:
 1833 01f8 012B     		cmp	r3, #1
 1834 01fa 16D0     		beq	.L131
 1835 01fc 002B     		cmp	r3, #0
 1836 01fe 08D0     		beq	.L132
 1837 0200 022B     		cmp	r3, #2
 1838 0202 57D1     		bne	.L156
 315:.\Generated_Source\PSoC4/USBFS_std.c ****                         {
 1839              		.loc 1 315 0
 1840 0204 334B     		ldr	r3, .L158
 1841 0206 9B68     		ldr	r3, [r3, #8]
 1842 0208 002B     		cmp	r3, #0
 1843 020a 55D1     		bne	.L147
 317:.\Generated_Source\PSoC4/USBFS_std.c ****                         }
 1844              		.loc 1 317 0
 1845 020c FFF7FEFF 		bl	USBFS_ClearEndpointHalt
 1846              	.LVL182:
 1847 0210 5FE0     		b	.L104
 1848              	.LVL183:
 1849              	.L132:
 322:.\Generated_Source\PSoC4/USBFS_std.c ****                         {
 1850              		.loc 1 322 0
 1851 0212 304B     		ldr	r3, .L158
 1852 0214 9B68     		ldr	r3, [r3, #8]
 1853 0216 012B     		cmp	r3, #1
 1854 0218 50D1     		bne	.L148
 324:.\Generated_Source\PSoC4/USBFS_std.c ****                             requestHandled = USBFS_InitNoDataControlTransfer();
 1855              		.loc 1 324 0
 1856 021a 364A     		ldr	r2, .L158+32
 1857 021c 1378     		ldrb	r3, [r2]
 1858 021e 0221     		mov	r1, #2
 1859 0220 8B43     		bic	r3, r1
 1860 0222 1370     		strb	r3, [r2]
ARM GAS  C:\Users\LAIR\AppData\Local\Temp\cciUanLt.s 			page 59


 325:.\Generated_Source\PSoC4/USBFS_std.c ****                         }
 1861              		.loc 1 325 0
 1862 0224 FFF7FEFF 		bl	USBFS_InitNoDataControlTransfer
 1863              	.LVL184:
 1864 0228 53E0     		b	.L104
 1865              	.LVL185:
 1866              	.L131:
 330:.\Generated_Source\PSoC4/USBFS_std.c ****                         {
 1867              		.loc 1 330 0
 1868 022a 2A4B     		ldr	r3, .L158
 1869 022c 1B69     		ldr	r3, [r3, #16]
 1870 022e 002B     		cmp	r3, #0
 1871 0230 46D1     		bne	.L149
 332:.\Generated_Source\PSoC4/USBFS_std.c ****                             requestHandled = USBFS_InitNoDataControlTransfer();
 1872              		.loc 1 332 0
 1873 0232 284B     		ldr	r3, .L158
 1874 0234 9868     		ldr	r0, [r3, #8]
 1875 0236 1A69     		ldr	r2, [r3, #16]
 1876 0238 3649     		ldr	r1, .L158+64
 1877 023a 8B5C     		ldrb	r3, [r1, r2]
 1878 023c 8343     		bic	r3, r0
 1879 023e 8B54     		strb	r3, [r1, r2]
 333:.\Generated_Source\PSoC4/USBFS_std.c ****                         }
 1880              		.loc 1 333 0
 1881 0240 FFF7FEFF 		bl	USBFS_InitNoDataControlTransfer
 1882              	.LVL186:
 1883 0244 45E0     		b	.L104
 1884              	.LVL187:
 1885              	.L122:
 342:.\Generated_Source\PSoC4/USBFS_std.c ****                 {
 1886              		.loc 1 342 0
 1887 0246 0322     		mov	r2, #3
 1888 0248 1340     		and	r3, r2
 1889              	.LVL188:
 1890 024a 012B     		cmp	r3, #1
 1891 024c 16D0     		beq	.L134
 1892 024e 002B     		cmp	r3, #0
 1893 0250 08D0     		beq	.L135
 1894 0252 022B     		cmp	r3, #2
 1895 0254 36D1     		bne	.L157
 345:.\Generated_Source\PSoC4/USBFS_std.c ****                         {
 1896              		.loc 1 345 0
 1897 0256 1F4B     		ldr	r3, .L158
 1898 0258 9B68     		ldr	r3, [r3, #8]
 1899 025a 002B     		cmp	r3, #0
 1900 025c 34D1     		bne	.L151
 347:.\Generated_Source\PSoC4/USBFS_std.c ****                         }
 1901              		.loc 1 347 0
 1902 025e FFF7FEFF 		bl	USBFS_SetEndpointHalt
 1903              	.LVL189:
 1904 0262 36E0     		b	.L104
 1905              	.LVL190:
 1906              	.L135:
 353:.\Generated_Source\PSoC4/USBFS_std.c ****                         {
 1907              		.loc 1 353 0
 1908 0264 1B4B     		ldr	r3, .L158
 1909 0266 9B68     		ldr	r3, [r3, #8]
ARM GAS  C:\Users\LAIR\AppData\Local\Temp\cciUanLt.s 			page 60


 1910 0268 012B     		cmp	r3, #1
 1911 026a 2FD1     		bne	.L152
 355:.\Generated_Source\PSoC4/USBFS_std.c ****                             requestHandled = USBFS_InitNoDataControlTransfer();
 1912              		.loc 1 355 0
 1913 026c 214A     		ldr	r2, .L158+32
 1914 026e 1178     		ldrb	r1, [r2]
 1915 0270 0133     		add	r3, r3, #1
 1916 0272 0B43     		orr	r3, r1
 1917 0274 1370     		strb	r3, [r2]
 356:.\Generated_Source\PSoC4/USBFS_std.c ****                         }
 1918              		.loc 1 356 0
 1919 0276 FFF7FEFF 		bl	USBFS_InitNoDataControlTransfer
 1920              	.LVL191:
 1921 027a 2AE0     		b	.L104
 1922              	.LVL192:
 1923              	.L134:
 362:.\Generated_Source\PSoC4/USBFS_std.c ****                         {
 1924              		.loc 1 362 0
 1925 027c 154B     		ldr	r3, .L158
 1926 027e 1B69     		ldr	r3, [r3, #16]
 1927 0280 002B     		cmp	r3, #0
 1928 0282 25D1     		bne	.L153
 364:.\Generated_Source\PSoC4/USBFS_std.c ****                             requestHandled = USBFS_InitNoDataControlTransfer();
 1929              		.loc 1 364 0
 1930 0284 134B     		ldr	r3, .L158
 1931 0286 9868     		ldr	r0, [r3, #8]
 1932 0288 1A69     		ldr	r2, [r3, #16]
 1933 028a 2249     		ldr	r1, .L158+64
 1934 028c 8B5C     		ldrb	r3, [r1, r2]
 1935 028e 8343     		bic	r3, r0
 1936 0290 8B54     		strb	r3, [r1, r2]
 365:.\Generated_Source\PSoC4/USBFS_std.c ****                         }
 1937              		.loc 1 365 0
 1938 0292 FFF7FEFF 		bl	USBFS_InitNoDataControlTransfer
 1939              	.LVL193:
 1940 0296 1CE0     		b	.L104
 1941              	.LVL194:
 1942              	.L137:
  86:.\Generated_Source\PSoC4/USBFS_std.c ****     uint32 interfaceNumber;
 1943              		.loc 1 86 0
 1944 0298 0020     		mov	r0, #0
 1945 029a 1AE0     		b	.L104
 1946              	.LVL195:
 1947              	.L138:
 1948 029c 0020     		mov	r0, #0
 1949              	.LVL196:
 1950 029e 18E0     		b	.L104
 1951              	.LVL197:
 1952              	.L141:
 1953 02a0 0020     		mov	r0, #0
 1954 02a2 16E0     		b	.L104
 1955              	.LVL198:
 1956              	.L155:
 1957 02a4 0020     		mov	r0, #0
 1958 02a6 14E0     		b	.L104
 1959              	.LVL199:
 1960              	.L143:
ARM GAS  C:\Users\LAIR\AppData\Local\Temp\cciUanLt.s 			page 61


 1961 02a8 0020     		mov	r0, #0
 1962 02aa 12E0     		b	.L104
 1963              	.LVL200:
 1964              	.L144:
 1965 02ac 0020     		mov	r0, #0
 1966              	.LVL201:
 1967 02ae 10E0     		b	.L104
 1968              	.LVL202:
 1969              	.L145:
 1970 02b0 0020     		mov	r0, #0
 1971 02b2 0EE0     		b	.L104
 1972              	.L156:
 1973 02b4 0020     		mov	r0, #0
 1974 02b6 0CE0     		b	.L104
 1975              	.L147:
 1976 02b8 0020     		mov	r0, #0
 1977 02ba 0AE0     		b	.L104
 1978              	.L148:
 1979 02bc 0020     		mov	r0, #0
 1980 02be 08E0     		b	.L104
 1981              	.L149:
 1982 02c0 0020     		mov	r0, #0
 1983 02c2 06E0     		b	.L104
 1984              	.L157:
 1985 02c4 0020     		mov	r0, #0
 1986 02c6 04E0     		b	.L104
 1987              	.L151:
 1988 02c8 0020     		mov	r0, #0
 1989 02ca 02E0     		b	.L104
 1990              	.L152:
 1991 02cc 0020     		mov	r0, #0
 1992 02ce 00E0     		b	.L104
 1993              	.L153:
 1994 02d0 0020     		mov	r0, #0
 1995              	.LVL203:
 1996              	.L104:
 380:.\Generated_Source\PSoC4/USBFS_std.c **** 
 1997              		.loc 1 380 0
 1998              		@ sp needed
 1999 02d2 10BD     		pop	{r4, pc}
 2000              	.L159:
 2001              		.align	2
 2002              	.L158:
 2003 02d4 00002C40 		.word	1076625408
 2004 02d8 00000000 		.word	USBFS_currentTD
 2005 02dc 00000000 		.word	USBFS_STRING_DESCRIPTORS
 2006 02e0 00000000 		.word	USBFS_MSOS_DESCRIPTOR
 2007 02e4 00000000 		.word	USBFS_DEVICE0_DESCR
 2008 02e8 00000000 		.word	USBFS_idSerialNumberStringDescriptor
 2009 02ec 00000000 		.word	USBFS_EP
 2010 02f0 00000000 		.word	.LANCHOR0
 2011 02f4 00000000 		.word	USBFS_deviceStatus
 2012 02f8 00000000 		.word	USBFS_configuration
 2013 02fc 00000000 		.word	USBFS_interfaceSetting
 2014 0300 00000000 		.word	.L121
 2015 0304 00000000 		.word	USBFS_deviceAddress
 2016 0308 00000000 		.word	USBFS_configurationChanged
ARM GAS  C:\Users\LAIR\AppData\Local\Temp\cciUanLt.s 			page 62


 2017 030c 00000000 		.word	USBFS_interfaceNumber
 2018 0310 00000000 		.word	USBFS_interfaceSettingLast
 2019 0314 00000000 		.word	USBFS_interfaceStatus
 2020              		.cfi_endproc
 2021              	.LFE65:
 2022              		.size	USBFS_HandleStandardRqst, .-USBFS_HandleStandardRqst
 2023              		.section	.rodata.str1.4,"aMS",%progbits,1
 2024              		.align	2
 2025              	.LC0:
 2026 0000 30313233 		.ascii	"0123456789ABCDEF\000"
 2026      34353637 
 2026      38394142 
 2026      43444546 
 2026      00
 2027 0011 000000   		.bss
 2028              		.align	2
 2029              		.set	.LANCHOR0,. + 0
 2030              		.type	USBFS_tBuffer.5583, %object
 2031              		.size	USBFS_tBuffer.5583, 2
 2032              	USBFS_tBuffer.5583:
 2033 0000 0000     		.space	2
 2034 0002 0000     		.text
 2035              	.Letext0:
 2036              		.file 2 ".\\Generated_Source\\PSoC4\\cytypes.h"
 2037              		.file 3 ".\\Generated_Source\\PSoC4\\USBFS.h"
 2038              		.file 4 ".\\Generated_Source\\PSoC4\\USBFS_pvt.h"
 2039              		.file 5 ".\\Generated_Source\\PSoC4\\CyLib.h"