ARM GAS  C:\Users\LAIR\AppData\Local\Temp\ccdy23dh.s 			page 1


   1              		.cpu cortex-m0
   2              		.fpu softvfp
   3              		.eabi_attribute 20, 1
   4              		.eabi_attribute 21, 1
   5              		.eabi_attribute 23, 3
   6              		.eabi_attribute 24, 1
   7              		.eabi_attribute 25, 1
   8              		.eabi_attribute 26, 1
   9              		.eabi_attribute 30, 1
  10              		.eabi_attribute 34, 0
  11              		.eabi_attribute 18, 4
  12              		.code	16
  13              		.file	"USBFS.c"
  14              		.text
  15              	.Ltext0:
  16              		.cfi_sections	.debug_frame
  17              		.section	.text.USBFS_InitEpDma,"ax",%progbits
  18              		.align	2
  19              		.code	16
  20              		.thumb_func
  21              		.type	USBFS_InitEpDma, %function
  22              	USBFS_InitEpDma:
  23              	.LFB76:
  24              		.file 1 ".\\Generated_Source\\PSoC4\\USBFS.c"
   1:.\Generated_Source\PSoC4/USBFS.c **** /***************************************************************************//**
   2:.\Generated_Source\PSoC4/USBFS.c **** * \file USBFS.c
   3:.\Generated_Source\PSoC4/USBFS.c **** * \version 3.0
   4:.\Generated_Source\PSoC4/USBFS.c **** *
   5:.\Generated_Source\PSoC4/USBFS.c **** * \brief
   6:.\Generated_Source\PSoC4/USBFS.c **** *  This file contains the global USBFS API functions.
   7:.\Generated_Source\PSoC4/USBFS.c **** *
   8:.\Generated_Source\PSoC4/USBFS.c **** * Note:
   9:.\Generated_Source\PSoC4/USBFS.c **** *  Many of the functions use an endpoint number. SRAM arrays are sized with 9
  10:.\Generated_Source\PSoC4/USBFS.c **** *  elements, so they are indexed directly by epNumber.  The SIE and ARB
  11:.\Generated_Source\PSoC4/USBFS.c **** *  registers are indexed by variations of epNumber - 1.
  12:.\Generated_Source\PSoC4/USBFS.c **** *
  13:.\Generated_Source\PSoC4/USBFS.c **** ********************************************************************************
  14:.\Generated_Source\PSoC4/USBFS.c **** * \copyright
  15:.\Generated_Source\PSoC4/USBFS.c **** * Copyright 2008-2015, Cypress Semiconductor Corporation.  All rights reserved.
  16:.\Generated_Source\PSoC4/USBFS.c **** * You may use this file only in accordance with the license, terms, conditions,
  17:.\Generated_Source\PSoC4/USBFS.c **** * disclaimers, and limitations in the end user license agreement accompanying
  18:.\Generated_Source\PSoC4/USBFS.c **** * the software package with which this file was provided.
  19:.\Generated_Source\PSoC4/USBFS.c **** *******************************************************************************/
  20:.\Generated_Source\PSoC4/USBFS.c **** 
  21:.\Generated_Source\PSoC4/USBFS.c **** #include "USBFS_pvt.h"
  22:.\Generated_Source\PSoC4/USBFS.c **** #include "USBFS_cydmac.h"
  23:.\Generated_Source\PSoC4/USBFS.c **** #include "USBFS_hid.h"
  24:.\Generated_Source\PSoC4/USBFS.c **** 
  25:.\Generated_Source\PSoC4/USBFS.c **** 
  26:.\Generated_Source\PSoC4/USBFS.c **** /***************************************
  27:.\Generated_Source\PSoC4/USBFS.c **** * Global data allocation
  28:.\Generated_Source\PSoC4/USBFS.c **** ***************************************/
  29:.\Generated_Source\PSoC4/USBFS.c **** 
  30:.\Generated_Source\PSoC4/USBFS.c **** /** Indicates whether the USBFS has been initialized. The variable is
  31:.\Generated_Source\PSoC4/USBFS.c **** * initialized to 0 after device reset and set to 1 the first time USBFS_Start()
  32:.\Generated_Source\PSoC4/USBFS.c **** * is called. This allows the Component to restart without reinitialization after
  33:.\Generated_Source\PSoC4/USBFS.c **** * the first call to the USBFS_Start() routine.
ARM GAS  C:\Users\LAIR\AppData\Local\Temp\ccdy23dh.s 			page 2


  34:.\Generated_Source\PSoC4/USBFS.c **** * If re-initialization of the Component is required, the variable should be set
  35:.\Generated_Source\PSoC4/USBFS.c **** * to 0 before the USBFS_Start() routine is called. Alternatively, the USBFS can
  36:.\Generated_Source\PSoC4/USBFS.c **** * be reinitialized by calling both USBFS_Init() and USBFS_InitComponent()
  37:.\Generated_Source\PSoC4/USBFS.c **** * functions.
  38:.\Generated_Source\PSoC4/USBFS.c **** */
  39:.\Generated_Source\PSoC4/USBFS.c **** uint8 USBFS_initVar = 0u;
  40:.\Generated_Source\PSoC4/USBFS.c **** 
  41:.\Generated_Source\PSoC4/USBFS.c **** #if (USBFS_EP_MANAGEMENT_DMA)
  42:.\Generated_Source\PSoC4/USBFS.c ****     #if (CY_PSOC4)
  43:.\Generated_Source\PSoC4/USBFS.c ****         static void USBFS_InitEpDma(void);
  44:.\Generated_Source\PSoC4/USBFS.c **** 
  45:.\Generated_Source\PSoC4/USBFS.c ****         /* DMA chanels assigend for endpoints. */
  46:.\Generated_Source\PSoC4/USBFS.c ****         const uint8 USBFS_DmaChan[USBFS_MAX_EP] =
  47:.\Generated_Source\PSoC4/USBFS.c ****         {
  48:.\Generated_Source\PSoC4/USBFS.c ****             0u,
  49:.\Generated_Source\PSoC4/USBFS.c ****             (uint8) USBFS_ep1_dma_CHANNEL,
  50:.\Generated_Source\PSoC4/USBFS.c ****             (uint8) USBFS_ep2_dma_CHANNEL,
  51:.\Generated_Source\PSoC4/USBFS.c ****             0u,
  52:.\Generated_Source\PSoC4/USBFS.c ****             0u,
  53:.\Generated_Source\PSoC4/USBFS.c ****             0u,
  54:.\Generated_Source\PSoC4/USBFS.c ****             0u,
  55:.\Generated_Source\PSoC4/USBFS.c ****             0u,
  56:.\Generated_Source\PSoC4/USBFS.c ****             0u,
  57:.\Generated_Source\PSoC4/USBFS.c ****         };        
  58:.\Generated_Source\PSoC4/USBFS.c ****     #else
  59:.\Generated_Source\PSoC4/USBFS.c ****         /* DMA chanels assigend for endpoints. */
  60:.\Generated_Source\PSoC4/USBFS.c ****         uint8 USBFS_DmaChan[USBFS_MAX_EP];
  61:.\Generated_Source\PSoC4/USBFS.c ****         
  62:.\Generated_Source\PSoC4/USBFS.c ****         /* DMA TDs require for PSoC 3/5LP operation. */
  63:.\Generated_Source\PSoC4/USBFS.c ****         uint8 USBFS_DmaTd[USBFS_MAX_EP];
  64:.\Generated_Source\PSoC4/USBFS.c ****     #endif /* (CY_PSOC4) */
  65:.\Generated_Source\PSoC4/USBFS.c **** #endif /* (USBFS_EP_MANAGEMENT_DMA) */
  66:.\Generated_Source\PSoC4/USBFS.c **** 
  67:.\Generated_Source\PSoC4/USBFS.c **** #if (USBFS_EP_MANAGEMENT_DMA_AUTO)
  68:.\Generated_Source\PSoC4/USBFS.c **** #if (CY_PSOC4)
  69:.\Generated_Source\PSoC4/USBFS.c ****     /* Number of DMA bursts. */
  70:.\Generated_Source\PSoC4/USBFS.c ****     uint8  USBFS_DmaEpBurstCnt   [USBFS_MAX_EP];
  71:.\Generated_Source\PSoC4/USBFS.c ****     
  72:.\Generated_Source\PSoC4/USBFS.c ****     /* Number of bytes to transfer in last DMA burst. */
  73:.\Generated_Source\PSoC4/USBFS.c ****     uint8  USBFS_DmaEpLastBurstEl[USBFS_MAX_EP];
  74:.\Generated_Source\PSoC4/USBFS.c **** 
  75:.\Generated_Source\PSoC4/USBFS.c ****     /* Storage for arrays above. */
  76:.\Generated_Source\PSoC4/USBFS.c ****     uint8  USBFS_DmaEpBurstCntBackup  [USBFS_MAX_EP];
  77:.\Generated_Source\PSoC4/USBFS.c ****     uint32 USBFS_DmaEpBufferAddrBackup[USBFS_MAX_EP];
  78:.\Generated_Source\PSoC4/USBFS.c ****      
  79:.\Generated_Source\PSoC4/USBFS.c ****     /* DMA trigger mux output for usb.dma_req[0-7]. */
  80:.\Generated_Source\PSoC4/USBFS.c ****     const uint8 USBFS_DmaReqOut[USBFS_MAX_EP] =
  81:.\Generated_Source\PSoC4/USBFS.c ****     {
  82:.\Generated_Source\PSoC4/USBFS.c ****         0u,
  83:.\Generated_Source\PSoC4/USBFS.c ****         USBFS_ep1_dma__TR_OUTPUT,
  84:.\Generated_Source\PSoC4/USBFS.c ****         USBFS_ep2_dma__TR_OUTPUT,
  85:.\Generated_Source\PSoC4/USBFS.c ****         0u,
  86:.\Generated_Source\PSoC4/USBFS.c ****         0u,
  87:.\Generated_Source\PSoC4/USBFS.c ****         0u,
  88:.\Generated_Source\PSoC4/USBFS.c ****         0u,
  89:.\Generated_Source\PSoC4/USBFS.c ****         0u,
  90:.\Generated_Source\PSoC4/USBFS.c ****         0u,
ARM GAS  C:\Users\LAIR\AppData\Local\Temp\ccdy23dh.s 			page 3


  91:.\Generated_Source\PSoC4/USBFS.c ****     };
  92:.\Generated_Source\PSoC4/USBFS.c **** 
  93:.\Generated_Source\PSoC4/USBFS.c ****     /* DMA trigger mux output for usb.dma_burstend[0-7]. */
  94:.\Generated_Source\PSoC4/USBFS.c ****     const uint8 USBFS_DmaBurstEndOut[USBFS_MAX_EP] =
  95:.\Generated_Source\PSoC4/USBFS.c ****     {
  96:.\Generated_Source\PSoC4/USBFS.c ****         0u,
  97:.\Generated_Source\PSoC4/USBFS.c ****         USBFS_BURSTEND_0_TR_OUTPUT,
  98:.\Generated_Source\PSoC4/USBFS.c ****         USBFS_BURSTEND_1_TR_OUTPUT,
  99:.\Generated_Source\PSoC4/USBFS.c ****         USBFS_BURSTEND_2_TR_OUTPUT,
 100:.\Generated_Source\PSoC4/USBFS.c ****         USBFS_BURSTEND_3_TR_OUTPUT,
 101:.\Generated_Source\PSoC4/USBFS.c ****         USBFS_BURSTEND_4_TR_OUTPUT,
 102:.\Generated_Source\PSoC4/USBFS.c ****         USBFS_BURSTEND_5_TR_OUTPUT,
 103:.\Generated_Source\PSoC4/USBFS.c ****         USBFS_BURSTEND_6_TR_OUTPUT,
 104:.\Generated_Source\PSoC4/USBFS.c ****         USBFS_BURSTEND_7_TR_OUTPUT
 105:.\Generated_Source\PSoC4/USBFS.c ****     };
 106:.\Generated_Source\PSoC4/USBFS.c ****     
 107:.\Generated_Source\PSoC4/USBFS.c **** #else
 108:.\Generated_Source\PSoC4/USBFS.c ****     #if (USBFS_EP_DMA_AUTO_OPT == 0u)
 109:.\Generated_Source\PSoC4/USBFS.c ****         static uint8 clearInDataRdyStatus = USBFS_ARB_EPX_CFG_DEFAULT;
 110:.\Generated_Source\PSoC4/USBFS.c ****         uint8 USBFS_DmaNextTd[USBFS_MAX_EP];
 111:.\Generated_Source\PSoC4/USBFS.c ****         const uint8 USBFS_epX_TD_TERMOUT_EN[USBFS_MAX_EP] =
 112:.\Generated_Source\PSoC4/USBFS.c ****         {
 113:.\Generated_Source\PSoC4/USBFS.c ****             0u,
 114:.\Generated_Source\PSoC4/USBFS.c ****             USBFS_ep1__TD_TERMOUT_EN,
 115:.\Generated_Source\PSoC4/USBFS.c ****             USBFS_ep2__TD_TERMOUT_EN,
 116:.\Generated_Source\PSoC4/USBFS.c ****             0u,
 117:.\Generated_Source\PSoC4/USBFS.c ****             0u,
 118:.\Generated_Source\PSoC4/USBFS.c ****             0u,
 119:.\Generated_Source\PSoC4/USBFS.c ****             0u,
 120:.\Generated_Source\PSoC4/USBFS.c ****             0u,
 121:.\Generated_Source\PSoC4/USBFS.c ****             0u,
 122:.\Generated_Source\PSoC4/USBFS.c ****         };
 123:.\Generated_Source\PSoC4/USBFS.c **** 
 124:.\Generated_Source\PSoC4/USBFS.c ****         volatile uint16 USBFS_inLength[USBFS_MAX_EP];
 125:.\Generated_Source\PSoC4/USBFS.c ****         const uint8 *USBFS_inDataPointer[USBFS_MAX_EP];
 126:.\Generated_Source\PSoC4/USBFS.c ****         volatile uint8 USBFS_inBufFull[USBFS_MAX_EP];
 127:.\Generated_Source\PSoC4/USBFS.c ****     #endif /* (USBFS_EP_DMA_AUTO_OPT == 0u) */
 128:.\Generated_Source\PSoC4/USBFS.c **** #endif /* (CY_PSOC4) */
 129:.\Generated_Source\PSoC4/USBFS.c **** #endif /* (USBFS_EP_MANAGEMENT_DMA_AUTO) */
 130:.\Generated_Source\PSoC4/USBFS.c **** 
 131:.\Generated_Source\PSoC4/USBFS.c **** 
 132:.\Generated_Source\PSoC4/USBFS.c **** /*******************************************************************************
 133:.\Generated_Source\PSoC4/USBFS.c **** * Function Name: USBFS_Start
 134:.\Generated_Source\PSoC4/USBFS.c **** ****************************************************************************//**
 135:.\Generated_Source\PSoC4/USBFS.c **** *
 136:.\Generated_Source\PSoC4/USBFS.c **** *   This function performs all required initialization for the USBFS component.
 137:.\Generated_Source\PSoC4/USBFS.c **** *   After this function call, the USB device initiates communication with the
 138:.\Generated_Source\PSoC4/USBFS.c **** *   host by pull-up D+ line. This is the preferred method to begin component
 139:.\Generated_Source\PSoC4/USBFS.c **** *   operation.
 140:.\Generated_Source\PSoC4/USBFS.c **** *
 141:.\Generated_Source\PSoC4/USBFS.c **** *   Note that global interrupts have to be enabled because interrupts are
 142:.\Generated_Source\PSoC4/USBFS.c **** *   required for USBFS component operation.
 143:.\Generated_Source\PSoC4/USBFS.c **** *
 144:.\Generated_Source\PSoC4/USBFS.c **** *   PSoC 4200L devices: when USBFS component configured to DMA with Automatic
 145:.\Generated_Source\PSoC4/USBFS.c **** *   Buffer Management, the DMA interrupt priority is changed to the highest
 146:.\Generated_Source\PSoC4/USBFS.c **** *   (priority 0) inside this function.
 147:.\Generated_Source\PSoC4/USBFS.c **** *
ARM GAS  C:\Users\LAIR\AppData\Local\Temp\ccdy23dh.s 			page 4


 148:.\Generated_Source\PSoC4/USBFS.c **** *   PSoC 3/PSoC 5LP devices: when USBFS component configured to DMA with
 149:.\Generated_Source\PSoC4/USBFS.c **** *   Automatic Buffer Management, the Arbiter interrupt priority is changed to
 150:.\Generated_Source\PSoC4/USBFS.c **** *   the highest (priority 0) inside this function.
 151:.\Generated_Source\PSoC4/USBFS.c **** *
 152:.\Generated_Source\PSoC4/USBFS.c **** *  \param device
 153:.\Generated_Source\PSoC4/USBFS.c **** *          Contains the device number of the desired device descriptor.
 154:.\Generated_Source\PSoC4/USBFS.c **** *          The device number can be found in the Device Descriptor Tab of
 155:.\Generated_Source\PSoC4/USBFS.c **** *          "Configure" dialog, under the settings of desired Device Descriptor,
 156:.\Generated_Source\PSoC4/USBFS.c **** *          in the "Device Number" field.
 157:.\Generated_Source\PSoC4/USBFS.c **** *  \param mode:
 158:.\Generated_Source\PSoC4/USBFS.c **** *   The operating voltage. This determines whether the voltage regulator
 159:.\Generated_Source\PSoC4/USBFS.c **** *   is enabled for 5V operation or if pass through mode is used for 3.3V
 160:.\Generated_Source\PSoC4/USBFS.c **** *   operation. Symbolic names and their associated values are given in the
 161:.\Generated_Source\PSoC4/USBFS.c **** *   following list.
 162:.\Generated_Source\PSoC4/USBFS.c **** *
 163:.\Generated_Source\PSoC4/USBFS.c **** *       *USBFS_3V_OPERATION* - Disable voltage regulator and pass-
 164:.\Generated_Source\PSoC4/USBFS.c **** *                                      through Vcc for pull-up
 165:.\Generated_Source\PSoC4/USBFS.c **** *
 166:.\Generated_Source\PSoC4/USBFS.c **** *       *USBFS_5V_OPERATION* - Enable voltage regulator and use
 167:.\Generated_Source\PSoC4/USBFS.c **** *                                      regulator for pull-up
 168:.\Generated_Source\PSoC4/USBFS.c **** *
 169:.\Generated_Source\PSoC4/USBFS.c **** *       *USBFS_DWR_POWER_OPERATION* - Enable or disable the voltage
 170:.\Generated_Source\PSoC4/USBFS.c **** *                                      regulator depending on the power supply
 171:.\Generated_Source\PSoC4/USBFS.c **** *                                      voltage configuration in the DWR tab.
 172:.\Generated_Source\PSoC4/USBFS.c **** *                                      For PSoC 3/5LP devices, the VDDD supply
 173:.\Generated_Source\PSoC4/USBFS.c **** *                                      voltage is considered and for PSoC 4A-L,
 174:.\Generated_Source\PSoC4/USBFS.c **** *                                      the VBUS supply voltage is considered.*
 175:.\Generated_Source\PSoC4/USBFS.c **** * \globalvars
 176:.\Generated_Source\PSoC4/USBFS.c **** *  \ref USBFS_initVar
 177:.\Generated_Source\PSoC4/USBFS.c **** *
 178:.\Generated_Source\PSoC4/USBFS.c **** * \sideeffect
 179:.\Generated_Source\PSoC4/USBFS.c **** *   This function will reset all communication states to default.
 180:.\Generated_Source\PSoC4/USBFS.c **** *
 181:.\Generated_Source\PSoC4/USBFS.c **** * \reentrant
 182:.\Generated_Source\PSoC4/USBFS.c **** *  No.
 183:.\Generated_Source\PSoC4/USBFS.c **** *
 184:.\Generated_Source\PSoC4/USBFS.c **** *******************************************************************************/
 185:.\Generated_Source\PSoC4/USBFS.c **** void USBFS_Start(uint8 device, uint8 mode) 
 186:.\Generated_Source\PSoC4/USBFS.c **** {
 187:.\Generated_Source\PSoC4/USBFS.c ****     if (0u == USBFS_initVar)
 188:.\Generated_Source\PSoC4/USBFS.c ****     {
 189:.\Generated_Source\PSoC4/USBFS.c ****         USBFS_Init();
 190:.\Generated_Source\PSoC4/USBFS.c ****         USBFS_initVar = 1u;
 191:.\Generated_Source\PSoC4/USBFS.c ****     }
 192:.\Generated_Source\PSoC4/USBFS.c **** 
 193:.\Generated_Source\PSoC4/USBFS.c ****     USBFS_InitComponent(device, mode);
 194:.\Generated_Source\PSoC4/USBFS.c **** }
 195:.\Generated_Source\PSoC4/USBFS.c **** 
 196:.\Generated_Source\PSoC4/USBFS.c **** 
 197:.\Generated_Source\PSoC4/USBFS.c **** /*******************************************************************************
 198:.\Generated_Source\PSoC4/USBFS.c **** * Function Name: USBFS_Init
 199:.\Generated_Source\PSoC4/USBFS.c **** ****************************************************************************//**
 200:.\Generated_Source\PSoC4/USBFS.c **** *
 201:.\Generated_Source\PSoC4/USBFS.c **** * This function initializes or restores the component according to the
 202:.\Generated_Source\PSoC4/USBFS.c **** * customizer Configure dialog settings. It is not necessary to call
 203:.\Generated_Source\PSoC4/USBFS.c **** * USBFS_Init() because the USBFS_Start() routine calls
 204:.\Generated_Source\PSoC4/USBFS.c **** * this function and is the preferred method to begin component operation.
ARM GAS  C:\Users\LAIR\AppData\Local\Temp\ccdy23dh.s 			page 5


 205:.\Generated_Source\PSoC4/USBFS.c **** *
 206:.\Generated_Source\PSoC4/USBFS.c **** * \reentrant
 207:.\Generated_Source\PSoC4/USBFS.c **** *  No.
 208:.\Generated_Source\PSoC4/USBFS.c **** *
 209:.\Generated_Source\PSoC4/USBFS.c **** *******************************************************************************/
 210:.\Generated_Source\PSoC4/USBFS.c **** void USBFS_Init(void) 
 211:.\Generated_Source\PSoC4/USBFS.c **** {
 212:.\Generated_Source\PSoC4/USBFS.c **** #if (CY_PSOC4)
 213:.\Generated_Source\PSoC4/USBFS.c ****     /* Enable clock to USB IP. */
 214:.\Generated_Source\PSoC4/USBFS.c ****     USBFS_USB_CLK_EN_REG = USBFS_USB_CLK_CSR_CLK_EN;
 215:.\Generated_Source\PSoC4/USBFS.c **** 
 216:.\Generated_Source\PSoC4/USBFS.c ****     /* The internal regulator (CR1.REG_ENABLE) is enabled in
 217:.\Generated_Source\PSoC4/USBFS.c ****     * USBFS_InitComponent() if it is required.
 218:.\Generated_Source\PSoC4/USBFS.c ****     */
 219:.\Generated_Source\PSoC4/USBFS.c **** 
 220:.\Generated_Source\PSoC4/USBFS.c ****     /* Enable USBIO control on drive mode of D+ and D- pins. */
 221:.\Generated_Source\PSoC4/USBFS.c ****     USBFS_USBIO_CR1_REG &= ~ (uint32) USBFS_USBIO_CR1_IOMODE;
 222:.\Generated_Source\PSoC4/USBFS.c **** 
 223:.\Generated_Source\PSoC4/USBFS.c ****     /* Set number of LF CLK to detect UBS bus reset. */
 224:.\Generated_Source\PSoC4/USBFS.c ****     USBFS_BUS_RST_CNT_REG = USBFS_DEFUALT_BUS_RST_CNT;
 225:.\Generated_Source\PSoC4/USBFS.c **** 
 226:.\Generated_Source\PSoC4/USBFS.c ****     /* Select VBUS detection source and clear PHY isolate. The application level
 227:.\Generated_Source\PSoC4/USBFS.c ****     * must ensure that VBUS is valid. There is no need to wait 2us before VBUS is valid.
 228:.\Generated_Source\PSoC4/USBFS.c ****     */
 229:.\Generated_Source\PSoC4/USBFS.c ****     USBFS_POWER_CTRL_REG = USBFS_DEFAULT_POWER_CTRL_VBUS;
 230:.\Generated_Source\PSoC4/USBFS.c **** 
 231:.\Generated_Source\PSoC4/USBFS.c ****     /* Enable PHY detector and single-ended and differential receivers. */
 232:.\Generated_Source\PSoC4/USBFS.c ****     USBFS_POWER_CTRL_REG |= USBFS_DEFAULT_POWER_CTRL_PHY;
 233:.\Generated_Source\PSoC4/USBFS.c **** 
 234:.\Generated_Source\PSoC4/USBFS.c ****     /* Suspend clear sequence. */
 235:.\Generated_Source\PSoC4/USBFS.c ****     USBFS_POWER_CTRL_REG &= (uint32) ~USBFS_POWER_CTRL_SUSPEND;
 236:.\Generated_Source\PSoC4/USBFS.c ****     CyDelayUs(USBFS_WAIT_SUSPEND_DEL_DISABLE);
 237:.\Generated_Source\PSoC4/USBFS.c ****     USBFS_POWER_CTRL_REG &= (uint32) ~USBFS_POWER_CTRL_SUSPEND_DEL;
 238:.\Generated_Source\PSoC4/USBFS.c **** 
 239:.\Generated_Source\PSoC4/USBFS.c ****     /* Sets IMO lock options and clear all other bits. */
 240:.\Generated_Source\PSoC4/USBFS.c ****     USBFS_CR1_REG = USBFS_DEFUALT_CR1;
 241:.\Generated_Source\PSoC4/USBFS.c **** 
 242:.\Generated_Source\PSoC4/USBFS.c ****     /* Configure level (hi, lo, med) for each interrupt source. */
 243:.\Generated_Source\PSoC4/USBFS.c ****     USBFS_INTR_LVL_SEL_REG = USBFS_DEFAULT_INTR_LVL_SEL;
 244:.\Generated_Source\PSoC4/USBFS.c **** 
 245:.\Generated_Source\PSoC4/USBFS.c ****     /* Configure interrupt sources from: SOF, Bus Reset and EP0. */
 246:.\Generated_Source\PSoC4/USBFS.c ****     USBFS_INTR_SIE_MASK_REG = USBFS_DEFAULT_INTR_SIE_MASK;
 247:.\Generated_Source\PSoC4/USBFS.c **** 
 248:.\Generated_Source\PSoC4/USBFS.c **** #else
 249:.\Generated_Source\PSoC4/USBFS.c ****     uint8 enableInterrupts = CyEnterCriticalSection();
 250:.\Generated_Source\PSoC4/USBFS.c **** 
 251:.\Generated_Source\PSoC4/USBFS.c **** #if (USBFS_EP_MANAGEMENT_DMA)
 252:.\Generated_Source\PSoC4/USBFS.c ****     uint16 i;
 253:.\Generated_Source\PSoC4/USBFS.c **** #endif /* (USBFS_EP_MANAGEMENT_DMA) */
 254:.\Generated_Source\PSoC4/USBFS.c **** 
 255:.\Generated_Source\PSoC4/USBFS.c ****     /* Enable USB block. */
 256:.\Generated_Source\PSoC4/USBFS.c ****     USBFS_PM_ACT_CFG_REG |= USBFS_PM_ACT_EN_FSUSB;
 257:.\Generated_Source\PSoC4/USBFS.c ****     /* Enable USB block for Standby Power Mode. */
 258:.\Generated_Source\PSoC4/USBFS.c ****     USBFS_PM_STBY_CFG_REG |= USBFS_PM_STBY_EN_FSUSB;
 259:.\Generated_Source\PSoC4/USBFS.c **** 
 260:.\Generated_Source\PSoC4/USBFS.c ****     /* Enable core clock. */
 261:.\Generated_Source\PSoC4/USBFS.c ****     USBFS_USB_CLK_EN_REG = USBFS_USB_CLK_ENABLE;
ARM GAS  C:\Users\LAIR\AppData\Local\Temp\ccdy23dh.s 			page 6


 262:.\Generated_Source\PSoC4/USBFS.c **** 
 263:.\Generated_Source\PSoC4/USBFS.c ****     USBFS_CR1_REG = USBFS_CR1_ENABLE_LOCK;
 264:.\Generated_Source\PSoC4/USBFS.c **** 
 265:.\Generated_Source\PSoC4/USBFS.c ****     /* ENABLING USBIO PADS IN USB MODE FROM I/O MODE. */
 266:.\Generated_Source\PSoC4/USBFS.c ****     /* Ensure USB transmit enable is low (USB_USBIO_CR0.ten). - Manual Transmission - Disabled. */
 267:.\Generated_Source\PSoC4/USBFS.c ****     USBFS_USBIO_CR0_REG &= (uint8) ~USBFS_USBIO_CR0_TEN;
 268:.\Generated_Source\PSoC4/USBFS.c ****     CyDelayUs(USBFS_WAIT_REG_STABILITY_50NS);  /* ~50ns delay. */
 269:.\Generated_Source\PSoC4/USBFS.c ****     /* Disable USBIO by asserting PM.USB_CR0.fsusbio_pd_n(Inverted.
 270:.\Generated_Source\PSoC4/USBFS.c ****     *  high. These bits will be set low by the power manager out-of-reset.
 271:.\Generated_Source\PSoC4/USBFS.c ****     *  Also confirm USBIO pull-up is disabled.
 272:.\Generated_Source\PSoC4/USBFS.c ****     */
 273:.\Generated_Source\PSoC4/USBFS.c ****     USBFS_PM_USB_CR0_REG &= (uint8) ~(USBFS_PM_USB_CR0_PD_N |
 274:.\Generated_Source\PSoC4/USBFS.c ****                                                  USBFS_PM_USB_CR0_PD_PULLUP_N);
 275:.\Generated_Source\PSoC4/USBFS.c **** 
 276:.\Generated_Source\PSoC4/USBFS.c ****     /* Select IOMODE to USB mode. */
 277:.\Generated_Source\PSoC4/USBFS.c ****     USBFS_USBIO_CR1_REG &= (uint8) ~USBFS_USBIO_CR1_IOMODE;
 278:.\Generated_Source\PSoC4/USBFS.c **** 
 279:.\Generated_Source\PSoC4/USBFS.c ****     /* Enable USBIO reference by setting PM.USB_CR0.fsusbio_ref_en. */
 280:.\Generated_Source\PSoC4/USBFS.c ****     USBFS_PM_USB_CR0_REG |= USBFS_PM_USB_CR0_REF_EN;
 281:.\Generated_Source\PSoC4/USBFS.c ****     /* Reference is available for 1us after regulator is enabled. */
 282:.\Generated_Source\PSoC4/USBFS.c ****     CyDelayUs(USBFS_WAIT_REG_STABILITY_1US);
 283:.\Generated_Source\PSoC4/USBFS.c ****     /* OR 40us after power is restored. */
 284:.\Generated_Source\PSoC4/USBFS.c ****     CyDelayUs(USBFS_WAIT_VREF_RESTORE);
 285:.\Generated_Source\PSoC4/USBFS.c ****     /* Ensure single-ended disable bits are low (PRT15.INP_DIS[7:6])(input receiver enabled). */
 286:.\Generated_Source\PSoC4/USBFS.c ****     USBFS_DM_INP_DIS_REG &= (uint8) ~USBFS_DM_MASK;
 287:.\Generated_Source\PSoC4/USBFS.c ****     USBFS_DP_INP_DIS_REG &= (uint8) ~USBFS_DP_MASK;
 288:.\Generated_Source\PSoC4/USBFS.c **** 
 289:.\Generated_Source\PSoC4/USBFS.c ****     /* Enable USBIO. */
 290:.\Generated_Source\PSoC4/USBFS.c ****     USBFS_PM_USB_CR0_REG |= USBFS_PM_USB_CR0_PD_N;
 291:.\Generated_Source\PSoC4/USBFS.c ****     CyDelayUs(USBFS_WAIT_PD_PULLUP_N_ENABLE);
 292:.\Generated_Source\PSoC4/USBFS.c ****     /* Set USBIO pull-up enable. */
 293:.\Generated_Source\PSoC4/USBFS.c ****     USBFS_PM_USB_CR0_REG |= USBFS_PM_USB_CR0_PD_PULLUP_N;
 294:.\Generated_Source\PSoC4/USBFS.c **** 
 295:.\Generated_Source\PSoC4/USBFS.c ****     /* Reset Arbiter Write Address register for endpoint 1. */
 296:.\Generated_Source\PSoC4/USBFS.c ****     CY_SET_REG8(USBFS_ARB_RW1_WA_PTR,     0u);
 297:.\Generated_Source\PSoC4/USBFS.c ****     CY_SET_REG8(USBFS_ARB_RW1_WA_MSB_PTR, 0u);
 298:.\Generated_Source\PSoC4/USBFS.c **** 
 299:.\Generated_Source\PSoC4/USBFS.c **** #if (USBFS_EP_MANAGEMENT_DMA)
 300:.\Generated_Source\PSoC4/USBFS.c ****     /* Initialize transfer descriptor. This will be used to detect DMA state - initialized or not. 
 301:.\Generated_Source\PSoC4/USBFS.c ****     for (i = 0u; i < USBFS_MAX_EP; ++i)
 302:.\Generated_Source\PSoC4/USBFS.c ****     {
 303:.\Generated_Source\PSoC4/USBFS.c ****         USBFS_DmaTd[i] = DMA_INVALID_TD;
 304:.\Generated_Source\PSoC4/USBFS.c **** 
 305:.\Generated_Source\PSoC4/USBFS.c ****     #if (USBFS_EP_MANAGEMENT_DMA_AUTO && (USBFS_EP_DMA_AUTO_OPT == 0u))
 306:.\Generated_Source\PSoC4/USBFS.c ****         USBFS_DmaNextTd[i] = DMA_INVALID_TD;
 307:.\Generated_Source\PSoC4/USBFS.c ****     #endif /* (USBFS_EP_MANAGEMENT_DMA_AUTO && (USBFS_EP_DMA_AUTO_OPT == 0u)) */
 308:.\Generated_Source\PSoC4/USBFS.c ****     }
 309:.\Generated_Source\PSoC4/USBFS.c **** #endif /* (USBFS_EP_MANAGEMENT_DMA) */
 310:.\Generated_Source\PSoC4/USBFS.c **** 
 311:.\Generated_Source\PSoC4/USBFS.c ****     CyExitCriticalSection(enableInterrupts);
 312:.\Generated_Source\PSoC4/USBFS.c **** #endif /* (CY_PSOC4) */
 313:.\Generated_Source\PSoC4/USBFS.c **** 
 314:.\Generated_Source\PSoC4/USBFS.c ****     /* Configure interrupts from USB block. */
 315:.\Generated_Source\PSoC4/USBFS.c **** #if (CY_PSOC4)
 316:.\Generated_Source\PSoC4/USBFS.c ****     /* Configure hi_int: set handler and priority. */
 317:.\Generated_Source\PSoC4/USBFS.c ****     CyIntSetPriority     (USBFS_INTR_HI_VECT_NUM,  USBFS_INTR_HI_PRIORITY);
 318:.\Generated_Source\PSoC4/USBFS.c ****     (void) CyIntSetVector(USBFS_INTR_HI_VECT_NUM, &USBFS_INTR_HI_ISR);
ARM GAS  C:\Users\LAIR\AppData\Local\Temp\ccdy23dh.s 			page 7


 319:.\Generated_Source\PSoC4/USBFS.c **** 
 320:.\Generated_Source\PSoC4/USBFS.c ****     /* Configure lo_int: set handler and priority. */
 321:.\Generated_Source\PSoC4/USBFS.c ****     CyIntSetPriority     (USBFS_INTR_LO_VECT_NUM,  USBFS_INTR_LO_PRIORITY);
 322:.\Generated_Source\PSoC4/USBFS.c ****     (void) CyIntSetVector(USBFS_INTR_LO_VECT_NUM, &USBFS_INTR_LO_ISR);
 323:.\Generated_Source\PSoC4/USBFS.c **** 
 324:.\Generated_Source\PSoC4/USBFS.c ****     /* Configure med_int: set handler and priority (routed through DSI). */
 325:.\Generated_Source\PSoC4/USBFS.c ****     CyIntSetPriority     (USBFS_INTR_MED_VECT_NUM,  USBFS_INTR_MED_PRIORITY);
 326:.\Generated_Source\PSoC4/USBFS.c ****     (void) CyIntSetVector(USBFS_INTR_MED_VECT_NUM, &USBFS_INTR_MED_ISR);
 327:.\Generated_Source\PSoC4/USBFS.c **** 
 328:.\Generated_Source\PSoC4/USBFS.c **** #else
 329:.\Generated_Source\PSoC4/USBFS.c ****     /* Set bus reset interrupt. */
 330:.\Generated_Source\PSoC4/USBFS.c ****     CyIntSetPriority(USBFS_BUS_RESET_VECT_NUM, USBFS_BUS_RESET_PRIOR);
 331:.\Generated_Source\PSoC4/USBFS.c ****     (void) CyIntSetVector(USBFS_BUS_RESET_VECT_NUM,   &USBFS_BUS_RESET_ISR);
 332:.\Generated_Source\PSoC4/USBFS.c **** 
 333:.\Generated_Source\PSoC4/USBFS.c ****     /* Set Control Endpoint Interrupt. */
 334:.\Generated_Source\PSoC4/USBFS.c ****     CyIntSetPriority(USBFS_EP_0_VECT_NUM, USBFS_EP_0_PRIOR);
 335:.\Generated_Source\PSoC4/USBFS.c ****     (void) CyIntSetVector(USBFS_EP_0_VECT_NUM,   &USBFS_EP_0_ISR);
 336:.\Generated_Source\PSoC4/USBFS.c **** 
 337:.\Generated_Source\PSoC4/USBFS.c ****     /* Set SOF interrupt. */
 338:.\Generated_Source\PSoC4/USBFS.c ****     #if (USBFS_SOF_ISR_ACTIVE)
 339:.\Generated_Source\PSoC4/USBFS.c ****         CyIntSetPriority     (USBFS_SOF_VECT_NUM,  USBFS_SOF_PRIOR);
 340:.\Generated_Source\PSoC4/USBFS.c ****         (void) CyIntSetVector(USBFS_SOF_VECT_NUM, &USBFS_SOF_ISR);
 341:.\Generated_Source\PSoC4/USBFS.c ****     #endif /* (USBFS_SOF_ISR_ACTIVE) */
 342:.\Generated_Source\PSoC4/USBFS.c **** 
 343:.\Generated_Source\PSoC4/USBFS.c ****     /* Set Data Endpoint 1 Interrupt. */
 344:.\Generated_Source\PSoC4/USBFS.c ****     #if (USBFS_EP1_ISR_ACTIVE)
 345:.\Generated_Source\PSoC4/USBFS.c ****         CyIntSetPriority     (USBFS_EP_1_VECT_NUM,  USBFS_EP_1_PRIOR);
 346:.\Generated_Source\PSoC4/USBFS.c ****         (void) CyIntSetVector(USBFS_EP_1_VECT_NUM,  &USBFS_EP_1_ISR);
 347:.\Generated_Source\PSoC4/USBFS.c ****     #endif /* (USBFS_EP1_ISR_ACTIVE) */
 348:.\Generated_Source\PSoC4/USBFS.c **** 
 349:.\Generated_Source\PSoC4/USBFS.c ****     /* Set Data Endpoint 2 Interrupt. */
 350:.\Generated_Source\PSoC4/USBFS.c ****     #if (USBFS_EP2_ISR_ACTIVE)
 351:.\Generated_Source\PSoC4/USBFS.c ****         CyIntSetPriority     (USBFS_EP_2_VECT_NUM,  USBFS_EP_2_PRIOR);
 352:.\Generated_Source\PSoC4/USBFS.c ****         (void) CyIntSetVector(USBFS_EP_2_VECT_NUM, &USBFS_EP_2_ISR);
 353:.\Generated_Source\PSoC4/USBFS.c ****     #endif /* (USBFS_EP2_ISR_ACTIVE) */
 354:.\Generated_Source\PSoC4/USBFS.c **** 
 355:.\Generated_Source\PSoC4/USBFS.c ****     /* Set Data Endpoint 3 Interrupt. */
 356:.\Generated_Source\PSoC4/USBFS.c ****     #if (USBFS_EP3_ISR_ACTIVE)
 357:.\Generated_Source\PSoC4/USBFS.c ****         CyIntSetPriority     (USBFS_EP_3_VECT_NUM,  USBFS_EP_3_PRIOR);
 358:.\Generated_Source\PSoC4/USBFS.c ****         (void) CyIntSetVector(USBFS_EP_3_VECT_NUM, &USBFS_EP_3_ISR);
 359:.\Generated_Source\PSoC4/USBFS.c ****     #endif /* (USBFS_EP3_ISR_ACTIVE) */
 360:.\Generated_Source\PSoC4/USBFS.c **** 
 361:.\Generated_Source\PSoC4/USBFS.c ****     /* Set Data Endpoint 4 Interrupt. */
 362:.\Generated_Source\PSoC4/USBFS.c ****     #if (USBFS_EP4_ISR_ACTIVE)
 363:.\Generated_Source\PSoC4/USBFS.c ****         CyIntSetPriority     (USBFS_EP_4_VECT_NUM,  USBFS_EP_4_PRIOR);
 364:.\Generated_Source\PSoC4/USBFS.c ****         (void) CyIntSetVector(USBFS_EP_4_VECT_NUM, &USBFS_EP_4_ISR);
 365:.\Generated_Source\PSoC4/USBFS.c ****     #endif /* (USBFS_EP4_ISR_ACTIVE) */
 366:.\Generated_Source\PSoC4/USBFS.c **** 
 367:.\Generated_Source\PSoC4/USBFS.c ****     /* Set Data Endpoint 5 Interrupt. */
 368:.\Generated_Source\PSoC4/USBFS.c ****     #if (USBFS_EP5_ISR_ACTIVE)
 369:.\Generated_Source\PSoC4/USBFS.c ****         CyIntSetPriority     (USBFS_EP_5_VECT_NUM,  USBFS_EP_5_PRIOR);
 370:.\Generated_Source\PSoC4/USBFS.c ****         (void) CyIntSetVector(USBFS_EP_5_VECT_NUM, &USBFS_EP_5_ISR);
 371:.\Generated_Source\PSoC4/USBFS.c ****     #endif /* (USBFS_EP5_ISR_ACTIVE) */
 372:.\Generated_Source\PSoC4/USBFS.c **** 
 373:.\Generated_Source\PSoC4/USBFS.c ****     /* Set Data Endpoint 6 Interrupt. */
 374:.\Generated_Source\PSoC4/USBFS.c ****     #if (USBFS_EP6_ISR_ACTIVE)
 375:.\Generated_Source\PSoC4/USBFS.c ****         CyIntSetPriority     (USBFS_EP_6_VECT_NUM,  USBFS_EP_6_PRIOR);
ARM GAS  C:\Users\LAIR\AppData\Local\Temp\ccdy23dh.s 			page 8


 376:.\Generated_Source\PSoC4/USBFS.c ****         (void) CyIntSetVector(USBFS_EP_6_VECT_NUM, &USBFS_EP_6_ISR);
 377:.\Generated_Source\PSoC4/USBFS.c ****     #endif /* (USBFS_EP6_ISR_ACTIVE) */
 378:.\Generated_Source\PSoC4/USBFS.c **** 
 379:.\Generated_Source\PSoC4/USBFS.c ****      /* Set Data Endpoint 7 Interrupt. */
 380:.\Generated_Source\PSoC4/USBFS.c ****     #if (USBFS_EP7_ISR_ACTIVE)
 381:.\Generated_Source\PSoC4/USBFS.c ****         CyIntSetPriority     (USBFS_EP_7_VECT_NUM,  USBFS_EP_7_PRIOR);
 382:.\Generated_Source\PSoC4/USBFS.c ****         (void) CyIntSetVector(USBFS_EP_7_VECT_NUM, &USBFS_EP_7_ISR);
 383:.\Generated_Source\PSoC4/USBFS.c ****     #endif /* (USBFS_EP7_ISR_ACTIVE) */
 384:.\Generated_Source\PSoC4/USBFS.c **** 
 385:.\Generated_Source\PSoC4/USBFS.c ****     /* Set Data Endpoint 8 Interrupt. */
 386:.\Generated_Source\PSoC4/USBFS.c ****     #if (USBFS_EP8_ISR_ACTIVE)
 387:.\Generated_Source\PSoC4/USBFS.c ****         CyIntSetPriority     (USBFS_EP_8_VECT_NUM,  USBFS_EP_8_PRIOR);
 388:.\Generated_Source\PSoC4/USBFS.c ****         (void) CyIntSetVector(USBFS_EP_8_VECT_NUM, &USBFS_EP_8_ISR);
 389:.\Generated_Source\PSoC4/USBFS.c ****     #endif /* (USBFS_EP8_ISR_ACTIVE) */
 390:.\Generated_Source\PSoC4/USBFS.c **** 
 391:.\Generated_Source\PSoC4/USBFS.c ****     /* Set ARB Interrupt. */
 392:.\Generated_Source\PSoC4/USBFS.c ****     #if (USBFS_EP_MANAGEMENT_DMA && USBFS_ARB_ISR_ACTIVE)
 393:.\Generated_Source\PSoC4/USBFS.c ****         CyIntSetPriority     (USBFS_ARB_VECT_NUM,  USBFS_ARB_PRIOR);
 394:.\Generated_Source\PSoC4/USBFS.c ****         (void) CyIntSetVector(USBFS_ARB_VECT_NUM, &USBFS_ARB_ISR);
 395:.\Generated_Source\PSoC4/USBFS.c ****     #endif /* (USBFS_EP_MANAGEMENT_DMA && USBFS_ARB_ISR_ACTIVE) */
 396:.\Generated_Source\PSoC4/USBFS.c **** #endif /* (CY_PSOC4) */
 397:.\Generated_Source\PSoC4/USBFS.c **** 
 398:.\Generated_Source\PSoC4/USBFS.c ****     /* Common: Configure GPIO interrupt for wakeup. */
 399:.\Generated_Source\PSoC4/USBFS.c **** #if (USBFS_DP_ISR_ACTIVE)
 400:.\Generated_Source\PSoC4/USBFS.c ****     CyIntSetPriority     (USBFS_DP_INTC_VECT_NUM,  USBFS_DP_INTC_PRIORITY);
 401:.\Generated_Source\PSoC4/USBFS.c ****     (void) CyIntSetVector(USBFS_DP_INTC_VECT_NUM, &USBFS_DP_ISR);
 402:.\Generated_Source\PSoC4/USBFS.c **** #endif /* (USBFS_DP_ISR_ACTIVE) */
 403:.\Generated_Source\PSoC4/USBFS.c **** 
 404:.\Generated_Source\PSoC4/USBFS.c **** #if (USBFS_EP_MANAGEMENT_DMA && CY_PSOC4)
 405:.\Generated_Source\PSoC4/USBFS.c ****     /* Initialize DMA channels. */
 406:.\Generated_Source\PSoC4/USBFS.c ****     USBFS_InitEpDma();
 407:.\Generated_Source\PSoC4/USBFS.c **** #endif /* (USBFS_EP_MANAGEMENT_DMA && CY_PSOC4) */
 408:.\Generated_Source\PSoC4/USBFS.c **** }
 409:.\Generated_Source\PSoC4/USBFS.c **** 
 410:.\Generated_Source\PSoC4/USBFS.c **** 
 411:.\Generated_Source\PSoC4/USBFS.c **** /*******************************************************************************
 412:.\Generated_Source\PSoC4/USBFS.c **** * Function Name: USBFS_InitComponent
 413:.\Generated_Source\PSoC4/USBFS.c **** ****************************************************************************//**
 414:.\Generated_Source\PSoC4/USBFS.c **** *
 415:.\Generated_Source\PSoC4/USBFS.c **** *   This function initializes the component’s global variables and initiates
 416:.\Generated_Source\PSoC4/USBFS.c **** *   communication with the host by pull-up D+ line.
 417:.\Generated_Source\PSoC4/USBFS.c **** *
 418:.\Generated_Source\PSoC4/USBFS.c **** * \param device:
 419:.\Generated_Source\PSoC4/USBFS.c **** *   Contains the device number of the desired device descriptor. The device
 420:.\Generated_Source\PSoC4/USBFS.c **** *   number can be found in the Device Descriptor Tab of "Configure" dialog,
 421:.\Generated_Source\PSoC4/USBFS.c **** *   under the settings of desired Device Descriptor, in the *Device Number*
 422:.\Generated_Source\PSoC4/USBFS.c **** *   field.
 423:.\Generated_Source\PSoC4/USBFS.c **** *  \param mode:
 424:.\Generated_Source\PSoC4/USBFS.c **** *   The operating voltage. This determines whether the voltage regulator
 425:.\Generated_Source\PSoC4/USBFS.c **** *   is enabled for 5V operation or if pass through mode is used for 3.3V
 426:.\Generated_Source\PSoC4/USBFS.c **** *   operation. Symbolic names and their associated values are given in the
 427:.\Generated_Source\PSoC4/USBFS.c **** *   following list.
 428:.\Generated_Source\PSoC4/USBFS.c **** *
 429:.\Generated_Source\PSoC4/USBFS.c **** *       *USBFS_3V_OPERATION* - Disable voltage regulator and pass-
 430:.\Generated_Source\PSoC4/USBFS.c **** *                                      through Vcc for pull-up
 431:.\Generated_Source\PSoC4/USBFS.c **** *
 432:.\Generated_Source\PSoC4/USBFS.c **** *       *USBFS_5V_OPERATION* - Enable voltage regulator and use
ARM GAS  C:\Users\LAIR\AppData\Local\Temp\ccdy23dh.s 			page 9


 433:.\Generated_Source\PSoC4/USBFS.c **** *                                      regulator for pull-up
 434:.\Generated_Source\PSoC4/USBFS.c **** *
 435:.\Generated_Source\PSoC4/USBFS.c **** *       *USBFS_DWR_POWER_OPERATION* - Enable or disable the voltage
 436:.\Generated_Source\PSoC4/USBFS.c **** *                                      regulator depending on the power supply
 437:.\Generated_Source\PSoC4/USBFS.c **** *                                      voltage configuration in the DWR tab.
 438:.\Generated_Source\PSoC4/USBFS.c **** *                                      For PSoC 3/5LP devices, the VDDD supply
 439:.\Generated_Source\PSoC4/USBFS.c **** *                                      voltage is considered and for PSoC 4A-L,
 440:.\Generated_Source\PSoC4/USBFS.c **** *                                      the VBUS supply voltage is considered.
 441:.\Generated_Source\PSoC4/USBFS.c **** *
 442:.\Generated_Source\PSoC4/USBFS.c **** * \globalvars
 443:.\Generated_Source\PSoC4/USBFS.c **** *   \ref USBFS_device
 444:.\Generated_Source\PSoC4/USBFS.c **** *   \ref USBFS_transferState
 445:.\Generated_Source\PSoC4/USBFS.c **** *   \ref USBFS_configuration
 446:.\Generated_Source\PSoC4/USBFS.c **** *   \ref USBFS_deviceStatus
 447:.\Generated_Source\PSoC4/USBFS.c **** *
 448:.\Generated_Source\PSoC4/USBFS.c **** *   \ref USBFS_deviceAddress - Contains the current device address. This
 449:.\Generated_Source\PSoC4/USBFS.c **** *       variable is initialized to zero in this API. The Host starts to communicate
 450:.\Generated_Source\PSoC4/USBFS.c **** *      to the device with address 0 and then sets it to a whatever value using a
 451:.\Generated_Source\PSoC4/USBFS.c **** *      SET_ADDRESS request.
 452:.\Generated_Source\PSoC4/USBFS.c **** *
 453:.\Generated_Source\PSoC4/USBFS.c **** *   \ref USBFS_lastPacketSize - Initialized to 0;
 454:.\Generated_Source\PSoC4/USBFS.c **** *
 455:.\Generated_Source\PSoC4/USBFS.c **** * \reentrant
 456:.\Generated_Source\PSoC4/USBFS.c **** *  No.
 457:.\Generated_Source\PSoC4/USBFS.c **** *
 458:.\Generated_Source\PSoC4/USBFS.c **** *******************************************************************************/
 459:.\Generated_Source\PSoC4/USBFS.c **** void USBFS_InitComponent(uint8 device, uint8 mode) 
 460:.\Generated_Source\PSoC4/USBFS.c **** {
 461:.\Generated_Source\PSoC4/USBFS.c ****     /* Initialize _hidProtocol variable to comply with
 462:.\Generated_Source\PSoC4/USBFS.c ****     *  HID 7.2.6 Set_Protocol Request:
 463:.\Generated_Source\PSoC4/USBFS.c ****     *  "When initialized, all devices default to report protocol."
 464:.\Generated_Source\PSoC4/USBFS.c ****     */
 465:.\Generated_Source\PSoC4/USBFS.c **** #if defined(USBFS_ENABLE_HID_CLASS)
 466:.\Generated_Source\PSoC4/USBFS.c ****     uint8 i;
 467:.\Generated_Source\PSoC4/USBFS.c **** 
 468:.\Generated_Source\PSoC4/USBFS.c ****     for (i = 0u; i < USBFS_MAX_INTERFACES_NUMBER; i++)
 469:.\Generated_Source\PSoC4/USBFS.c ****     {
 470:.\Generated_Source\PSoC4/USBFS.c ****         USBFS_hidProtocol[i] = USBFS_PROTOCOL_REPORT;
 471:.\Generated_Source\PSoC4/USBFS.c ****     }
 472:.\Generated_Source\PSoC4/USBFS.c **** #endif /* USBFS_ENABLE_HID_CLASS */
 473:.\Generated_Source\PSoC4/USBFS.c **** 
 474:.\Generated_Source\PSoC4/USBFS.c ****     /* Store device number to access descriptor. */
 475:.\Generated_Source\PSoC4/USBFS.c ****     USBFS_device = device;
 476:.\Generated_Source\PSoC4/USBFS.c **** 
 477:.\Generated_Source\PSoC4/USBFS.c ****     /* Reset component internal variables. */
 478:.\Generated_Source\PSoC4/USBFS.c ****     USBFS_transferState   = USBFS_TRANS_STATE_IDLE;
 479:.\Generated_Source\PSoC4/USBFS.c ****     USBFS_configurationChanged = 0u;
 480:.\Generated_Source\PSoC4/USBFS.c ****     USBFS_configuration   = 0u;
 481:.\Generated_Source\PSoC4/USBFS.c ****     USBFS_interfaceNumber = 0u;
 482:.\Generated_Source\PSoC4/USBFS.c ****     USBFS_deviceAddress   = 0u;
 483:.\Generated_Source\PSoC4/USBFS.c ****     USBFS_deviceStatus    = 0u;
 484:.\Generated_Source\PSoC4/USBFS.c ****     USBFS_lastPacketSize  = 0u;
 485:.\Generated_Source\PSoC4/USBFS.c **** 
 486:.\Generated_Source\PSoC4/USBFS.c ****     /* Enable component interrupts. */
 487:.\Generated_Source\PSoC4/USBFS.c **** #if (CY_PSOC4)
 488:.\Generated_Source\PSoC4/USBFS.c ****     CyIntEnable(USBFS_INTR_HI_VECT_NUM);
 489:.\Generated_Source\PSoC4/USBFS.c ****     CyIntEnable(USBFS_INTR_MED_VECT_NUM);
ARM GAS  C:\Users\LAIR\AppData\Local\Temp\ccdy23dh.s 			page 10


 490:.\Generated_Source\PSoC4/USBFS.c ****     CyIntEnable(USBFS_INTR_LO_VECT_NUM);
 491:.\Generated_Source\PSoC4/USBFS.c **** #else
 492:.\Generated_Source\PSoC4/USBFS.c ****     CyIntEnable(USBFS_BUS_RESET_VECT_NUM);
 493:.\Generated_Source\PSoC4/USBFS.c ****     CyIntEnable(USBFS_EP_0_VECT_NUM);
 494:.\Generated_Source\PSoC4/USBFS.c **** 
 495:.\Generated_Source\PSoC4/USBFS.c ****     #if (USBFS_SOF_ISR_ACTIVE)
 496:.\Generated_Source\PSoC4/USBFS.c ****         CyIntEnable(USBFS_SOF_VECT_NUM);
 497:.\Generated_Source\PSoC4/USBFS.c ****     #endif /* (USBFS_SOF_ISR_ACTIVE) */
 498:.\Generated_Source\PSoC4/USBFS.c **** 
 499:.\Generated_Source\PSoC4/USBFS.c ****     #if (USBFS_EP1_ISR_ACTIVE)
 500:.\Generated_Source\PSoC4/USBFS.c ****         CyIntEnable(USBFS_EP_1_VECT_NUM);
 501:.\Generated_Source\PSoC4/USBFS.c ****     #endif /* (USBFS_EP1_ISR_ACTIVE) */
 502:.\Generated_Source\PSoC4/USBFS.c **** 
 503:.\Generated_Source\PSoC4/USBFS.c ****     #if (USBFS_EP2_ISR_ACTIVE)
 504:.\Generated_Source\PSoC4/USBFS.c ****         CyIntEnable(USBFS_EP_2_VECT_NUM);
 505:.\Generated_Source\PSoC4/USBFS.c ****     #endif /* (USBFS_EP5_ISR_ACTIVE) */
 506:.\Generated_Source\PSoC4/USBFS.c **** 
 507:.\Generated_Source\PSoC4/USBFS.c ****     #if (USBFS_EP3_ISR_ACTIVE)
 508:.\Generated_Source\PSoC4/USBFS.c ****         CyIntEnable(USBFS_EP_3_VECT_NUM);
 509:.\Generated_Source\PSoC4/USBFS.c ****     #endif /* (USBFS_EP5_ISR_ACTIVE) */
 510:.\Generated_Source\PSoC4/USBFS.c **** 
 511:.\Generated_Source\PSoC4/USBFS.c ****     #if (USBFS_EP4_ISR_ACTIVE)
 512:.\Generated_Source\PSoC4/USBFS.c ****         CyIntEnable(USBFS_EP_4_VECT_NUM);
 513:.\Generated_Source\PSoC4/USBFS.c ****     #endif /* (USBFS_EP5_ISR_ACTIVE) */
 514:.\Generated_Source\PSoC4/USBFS.c **** 
 515:.\Generated_Source\PSoC4/USBFS.c ****     #if (USBFS_EP5_ISR_ACTIVE)
 516:.\Generated_Source\PSoC4/USBFS.c ****         CyIntEnable(USBFS_EP_5_VECT_NUM);
 517:.\Generated_Source\PSoC4/USBFS.c ****     #endif /* (USBFS_EP5_ISR_ACTIVE) */
 518:.\Generated_Source\PSoC4/USBFS.c **** 
 519:.\Generated_Source\PSoC4/USBFS.c ****     #if (USBFS_EP6_ISR_ACTIVE)
 520:.\Generated_Source\PSoC4/USBFS.c ****         CyIntEnable(USBFS_EP_6_VECT_NUM);
 521:.\Generated_Source\PSoC4/USBFS.c ****     #endif /* USBFS_EP6_ISR_REMOVE */
 522:.\Generated_Source\PSoC4/USBFS.c **** 
 523:.\Generated_Source\PSoC4/USBFS.c ****     #if (USBFS_EP7_ISR_ACTIVE)
 524:.\Generated_Source\PSoC4/USBFS.c ****         CyIntEnable(USBFS_EP_7_VECT_NUM);
 525:.\Generated_Source\PSoC4/USBFS.c ****     #endif /* (USBFS_EP7_ISR_ACTIVE) */
 526:.\Generated_Source\PSoC4/USBFS.c **** 
 527:.\Generated_Source\PSoC4/USBFS.c ****     #if (USBFS_EP8_ISR_ACTIVE)
 528:.\Generated_Source\PSoC4/USBFS.c ****         CyIntEnable(USBFS_EP_8_VECT_NUM);
 529:.\Generated_Source\PSoC4/USBFS.c ****     #endif /* (USBFS_EP8_ISR_ACTIVE) */
 530:.\Generated_Source\PSoC4/USBFS.c **** #endif /* (CY_PSOC4) */
 531:.\Generated_Source\PSoC4/USBFS.c **** 
 532:.\Generated_Source\PSoC4/USBFS.c **** #if (USBFS_EP_MANAGEMENT_DMA && USBFS_ARB_ISR_ACTIVE)
 533:.\Generated_Source\PSoC4/USBFS.c ****     /* Enable ARB EP interrupt sources. */
 534:.\Generated_Source\PSoC4/USBFS.c ****     USBFS_ARB_INT_EN_REG = USBFS_DEFAULT_ARB_INT_EN;
 535:.\Generated_Source\PSoC4/USBFS.c **** 
 536:.\Generated_Source\PSoC4/USBFS.c ****     #if (CY_PSOC3 || CY_PSOC5)
 537:.\Generated_Source\PSoC4/USBFS.c ****         CyIntEnable(USBFS_ARB_VECT_NUM);
 538:.\Generated_Source\PSoC4/USBFS.c ****     #endif /* (CY_PSOC3 || CY_PSOC5) */
 539:.\Generated_Source\PSoC4/USBFS.c **** #endif   /* (USBFS_EP_MANAGEMENT_DMA && USBFS_ARB_ISR_ACTIVE) */
 540:.\Generated_Source\PSoC4/USBFS.c **** 
 541:.\Generated_Source\PSoC4/USBFS.c **** /* Arbiter configuration for DMA transfers. */
 542:.\Generated_Source\PSoC4/USBFS.c **** #if (USBFS_EP_MANAGEMENT_DMA)
 543:.\Generated_Source\PSoC4/USBFS.c ****     /* Configure Arbiter for Manual or Auto DMA operation and clear configuration completion. */
 544:.\Generated_Source\PSoC4/USBFS.c ****     USBFS_ARB_CFG_REG = USBFS_DEFAULT_ARB_CFG;
 545:.\Generated_Source\PSoC4/USBFS.c **** 
 546:.\Generated_Source\PSoC4/USBFS.c ****     #if (CY_PSOC4)
ARM GAS  C:\Users\LAIR\AppData\Local\Temp\ccdy23dh.s 			page 11


 547:.\Generated_Source\PSoC4/USBFS.c ****         /* Enable DMA operation. */
 548:.\Generated_Source\PSoC4/USBFS.c ****         CyDmaEnable();
 549:.\Generated_Source\PSoC4/USBFS.c **** 
 550:.\Generated_Source\PSoC4/USBFS.c ****         #if (USBFS_EP_MANAGEMENT_DMA_AUTO)
 551:.\Generated_Source\PSoC4/USBFS.c ****             /* Change DMA priority to be highest. */
 552:.\Generated_Source\PSoC4/USBFS.c ****              CyIntSetPriority(CYDMA_INTR_NUMBER, USBFS_DMA_AUTO_INTR_PRIO);
 553:.\Generated_Source\PSoC4/USBFS.c ****         #endif /* (USBFS_EP_MANAGEMENT_DMA_AUTO) */
 554:.\Generated_Source\PSoC4/USBFS.c ****     #endif /* (CY_PSOC4) */
 555:.\Generated_Source\PSoC4/USBFS.c **** 
 556:.\Generated_Source\PSoC4/USBFS.c ****     #if (USBFS_EP_MANAGEMENT_DMA_AUTO)
 557:.\Generated_Source\PSoC4/USBFS.c ****         #if (CY_PSOC4)
 558:.\Generated_Source\PSoC4/USBFS.c ****             /* Enable DMA interrupt to handle DMA management. */
 559:.\Generated_Source\PSoC4/USBFS.c ****             CyIntEnable(CYDMA_INTR_NUMBER);
 560:.\Generated_Source\PSoC4/USBFS.c ****         #else
 561:.\Generated_Source\PSoC4/USBFS.c ****             #if (USBFS_EP_DMA_AUTO_OPT == 0u)
 562:.\Generated_Source\PSoC4/USBFS.c ****                 /* Initialize interrupts which handle verification of successful DMA transaction. *
 563:.\Generated_Source\PSoC4/USBFS.c ****                 USBFS_EP_DMA_Done_isr_StartEx(&USBFS_EP_DMA_DONE_ISR);
 564:.\Generated_Source\PSoC4/USBFS.c ****                 USBFS_EP17_DMA_Done_SR_InterruptEnable();
 565:.\Generated_Source\PSoC4/USBFS.c ****                 USBFS_EP8_DMA_Done_SR_InterruptEnable();
 566:.\Generated_Source\PSoC4/USBFS.c ****             #endif /* (USBFS_EP_DMA_AUTO_OPT == 0u) */
 567:.\Generated_Source\PSoC4/USBFS.c ****         #endif /* (CY_PSOC4) */
 568:.\Generated_Source\PSoC4/USBFS.c ****     #endif /* (USBFS_EP_MANAGEMENT_DMA_AUTO) */
 569:.\Generated_Source\PSoC4/USBFS.c **** #endif /* (USBFS_EP_MANAGEMENT_DMA) */
 570:.\Generated_Source\PSoC4/USBFS.c **** 
 571:.\Generated_Source\PSoC4/USBFS.c ****     /* Enable USB regulator depends on operation voltage. IMO Locking is enabled in Init(). */
 572:.\Generated_Source\PSoC4/USBFS.c ****     switch(mode)
 573:.\Generated_Source\PSoC4/USBFS.c ****     {
 574:.\Generated_Source\PSoC4/USBFS.c ****     case USBFS_3V_OPERATION:
 575:.\Generated_Source\PSoC4/USBFS.c ****         /* Disable regulator for 3V operation. */
 576:.\Generated_Source\PSoC4/USBFS.c ****         USBFS_CR1_REG &= (uint32) ~USBFS_CR1_REG_ENABLE;
 577:.\Generated_Source\PSoC4/USBFS.c ****         break;
 578:.\Generated_Source\PSoC4/USBFS.c **** 
 579:.\Generated_Source\PSoC4/USBFS.c ****     case USBFS_5V_OPERATION:
 580:.\Generated_Source\PSoC4/USBFS.c ****         /* Enable regulator for 5V operation. */
 581:.\Generated_Source\PSoC4/USBFS.c ****         USBFS_CR1_REG |= (uint32)  USBFS_CR1_REG_ENABLE;
 582:.\Generated_Source\PSoC4/USBFS.c ****         break;
 583:.\Generated_Source\PSoC4/USBFS.c **** 
 584:.\Generated_Source\PSoC4/USBFS.c ****     default: /* Check DWR settings of USB power supply. */
 585:.\Generated_Source\PSoC4/USBFS.c ****     #if (USBFS_VDDD_MV < USBFS_3500MV)
 586:.\Generated_Source\PSoC4/USBFS.c ****         /* Disable regulator for 3V operation. */
 587:.\Generated_Source\PSoC4/USBFS.c ****         USBFS_CR1_REG &= (uint32) ~USBFS_CR1_REG_ENABLE;
 588:.\Generated_Source\PSoC4/USBFS.c ****     #else
 589:.\Generated_Source\PSoC4/USBFS.c ****         /* Enable regulator for 5V operation. */
 590:.\Generated_Source\PSoC4/USBFS.c ****         USBFS_CR1_REG |= (uint32)  USBFS_CR1_REG_ENABLE;
 591:.\Generated_Source\PSoC4/USBFS.c ****     #endif /* (USBFS_VDDD_MV < USBFS_3500MV) */
 592:.\Generated_Source\PSoC4/USBFS.c ****         break;
 593:.\Generated_Source\PSoC4/USBFS.c ****     }
 594:.\Generated_Source\PSoC4/USBFS.c **** 
 595:.\Generated_Source\PSoC4/USBFS.c **** #if (CY_PSOC4)
 596:.\Generated_Source\PSoC4/USBFS.c ****     /* Clear bus activity. */
 597:.\Generated_Source\PSoC4/USBFS.c ****     USBFS_CR1_REG &= (uint32) ~USBFS_CR1_BUS_ACTIVITY;
 598:.\Generated_Source\PSoC4/USBFS.c **** 
 599:.\Generated_Source\PSoC4/USBFS.c ****     /* Clear EP0 count register. */
 600:.\Generated_Source\PSoC4/USBFS.c ****     USBFS_EP0_CNT_REG = USBFS_CLEAR_REG;
 601:.\Generated_Source\PSoC4/USBFS.c **** 
 602:.\Generated_Source\PSoC4/USBFS.c ****     /* Set EP0.CR: ACK Setup, NAK IN/OUT. */
 603:.\Generated_Source\PSoC4/USBFS.c ****     USBFS_EP0_CR_REG = USBFS_MODE_NAK_IN_OUT;
ARM GAS  C:\Users\LAIR\AppData\Local\Temp\ccdy23dh.s 			page 12


 604:.\Generated_Source\PSoC4/USBFS.c **** 
 605:.\Generated_Source\PSoC4/USBFS.c ****     #if (USBFS_LPM_ACTIVE)
 606:.\Generated_Source\PSoC4/USBFS.c ****         if (NULL != USBFS_GetBOSPtr())
 607:.\Generated_Source\PSoC4/USBFS.c ****         {
 608:.\Generated_Source\PSoC4/USBFS.c ****             /* Enable LPM and acknowledge LPM packets for active device.
 609:.\Generated_Source\PSoC4/USBFS.c ****             * Reset NYET_EN and SUB_RESP bits in the LPM_CTRL register.
 610:.\Generated_Source\PSoC4/USBFS.c ****             */
 611:.\Generated_Source\PSoC4/USBFS.c ****             USBFS_LPM_CTRL_REG = (USBFS_LPM_CTRL_LPM_EN | \
 612:.\Generated_Source\PSoC4/USBFS.c ****                                              USBFS_LPM_CTRL_LPM_ACK_RESP);
 613:.\Generated_Source\PSoC4/USBFS.c ****         }
 614:.\Generated_Source\PSoC4/USBFS.c ****         else
 615:.\Generated_Source\PSoC4/USBFS.c ****         {
 616:.\Generated_Source\PSoC4/USBFS.c ****             /* Disable LPM for active device. */
 617:.\Generated_Source\PSoC4/USBFS.c ****             USBFS_LPM_CTRL_REG &= (uint32) ~USBFS_LPM_CTRL_LPM_EN;
 618:.\Generated_Source\PSoC4/USBFS.c ****         }
 619:.\Generated_Source\PSoC4/USBFS.c ****     #endif /* (USBFS_LPM_ACTIVE) */
 620:.\Generated_Source\PSoC4/USBFS.c **** 
 621:.\Generated_Source\PSoC4/USBFS.c ****     /* Enable device to responds to USB traffic with address 0. */
 622:.\Generated_Source\PSoC4/USBFS.c ****     USBFS_CR0_REG = USBFS_DEFUALT_CR0;
 623:.\Generated_Source\PSoC4/USBFS.c **** 
 624:.\Generated_Source\PSoC4/USBFS.c **** #else
 625:.\Generated_Source\PSoC4/USBFS.c ****     /* Set EP0.CR: ACK Setup, STALL IN/OUT. */
 626:.\Generated_Source\PSoC4/USBFS.c ****     USBFS_EP0_CR_REG = USBFS_MODE_STALL_IN_OUT;
 627:.\Generated_Source\PSoC4/USBFS.c **** 
 628:.\Generated_Source\PSoC4/USBFS.c ****     /* Enable device to respond to USB traffic with address 0. */
 629:.\Generated_Source\PSoC4/USBFS.c ****     USBFS_CR0_REG = USBFS_DEFUALT_CR0;
 630:.\Generated_Source\PSoC4/USBFS.c ****     CyDelayCycles(USBFS_WAIT_CR0_REG_STABILITY);
 631:.\Generated_Source\PSoC4/USBFS.c **** #endif /* (CY_PSOC4) */
 632:.\Generated_Source\PSoC4/USBFS.c **** 
 633:.\Generated_Source\PSoC4/USBFS.c ****     /* Enable D+ pull-up and keep USB control on IO. */
 634:.\Generated_Source\PSoC4/USBFS.c ****     USBFS_USBIO_CR1_REG = USBFS_USBIO_CR1_USBPUEN;
 635:.\Generated_Source\PSoC4/USBFS.c **** }
 636:.\Generated_Source\PSoC4/USBFS.c **** 
 637:.\Generated_Source\PSoC4/USBFS.c **** 
 638:.\Generated_Source\PSoC4/USBFS.c **** /*******************************************************************************
 639:.\Generated_Source\PSoC4/USBFS.c **** * Function Name: USBFS_ReInitComponent
 640:.\Generated_Source\PSoC4/USBFS.c **** ****************************************************************************//**
 641:.\Generated_Source\PSoC4/USBFS.c **** *
 642:.\Generated_Source\PSoC4/USBFS.c **** *  This function reinitialize the component configuration and is
 643:.\Generated_Source\PSoC4/USBFS.c **** *  intend to be called from the Reset interrupt.
 644:.\Generated_Source\PSoC4/USBFS.c **** *
 645:.\Generated_Source\PSoC4/USBFS.c **** * \globalvars
 646:.\Generated_Source\PSoC4/USBFS.c **** *   USBFS_device - Contains the device number of the desired Device
 647:.\Generated_Source\PSoC4/USBFS.c **** *        Descriptor. The device number can be found in the Device Descriptor tab
 648:.\Generated_Source\PSoC4/USBFS.c **** *       of the Configure dialog, under the settings of the desired Device Descriptor,
 649:.\Generated_Source\PSoC4/USBFS.c **** *       in the Device Number field.
 650:.\Generated_Source\PSoC4/USBFS.c **** *   USBFS_transferState - This variable is used by the communication
 651:.\Generated_Source\PSoC4/USBFS.c **** *       functions to handle the current transfer state. Initialized to
 652:.\Generated_Source\PSoC4/USBFS.c **** *       TRANS_STATE_IDLE in this API.
 653:.\Generated_Source\PSoC4/USBFS.c **** *   USBFS_configuration - Contains the current configuration number
 654:.\Generated_Source\PSoC4/USBFS.c **** *       set by the Host using a SET_CONFIGURATION request.
 655:.\Generated_Source\PSoC4/USBFS.c **** *       Initialized to zero in this API.
 656:.\Generated_Source\PSoC4/USBFS.c **** *   USBFS_deviceAddress - Contains the current device address. This
 657:.\Generated_Source\PSoC4/USBFS.c **** *       variable is initialized to zero in this API. The Host starts to communicate
 658:.\Generated_Source\PSoC4/USBFS.c **** *      to the device with address 0 and then sets it to a whatever value using
 659:.\Generated_Source\PSoC4/USBFS.c **** *      a SET_ADDRESS request.
 660:.\Generated_Source\PSoC4/USBFS.c **** *   USBFS_deviceStatus - Initialized to 0.
ARM GAS  C:\Users\LAIR\AppData\Local\Temp\ccdy23dh.s 			page 13


 661:.\Generated_Source\PSoC4/USBFS.c **** *       This is a two-bit variable which contains the power status in the first bit
 662:.\Generated_Source\PSoC4/USBFS.c **** *       (DEVICE_STATUS_BUS_POWERED or DEVICE_STATUS_SELF_POWERED) and the remote
 663:.\Generated_Source\PSoC4/USBFS.c **** *       wakeup status (DEVICE_STATUS_REMOTE_WAKEUP) in the second bit.
 664:.\Generated_Source\PSoC4/USBFS.c **** *   USBFS_lastPacketSize - Initialized to 0;
 665:.\Generated_Source\PSoC4/USBFS.c **** *
 666:.\Generated_Source\PSoC4/USBFS.c **** * \reentrant
 667:.\Generated_Source\PSoC4/USBFS.c **** *  No.
 668:.\Generated_Source\PSoC4/USBFS.c **** *
 669:.\Generated_Source\PSoC4/USBFS.c **** *******************************************************************************/
 670:.\Generated_Source\PSoC4/USBFS.c **** void USBFS_ReInitComponent(void) 
 671:.\Generated_Source\PSoC4/USBFS.c **** {
 672:.\Generated_Source\PSoC4/USBFS.c ****     /* Initialize _hidProtocol variable to comply with HID 7.2.6 Set_Protocol
 673:.\Generated_Source\PSoC4/USBFS.c ****     *  Request: "When initialized, all devices default to report protocol."
 674:.\Generated_Source\PSoC4/USBFS.c ****     */
 675:.\Generated_Source\PSoC4/USBFS.c **** #if defined(USBFS_ENABLE_HID_CLASS)
 676:.\Generated_Source\PSoC4/USBFS.c ****     uint8 i;
 677:.\Generated_Source\PSoC4/USBFS.c **** 
 678:.\Generated_Source\PSoC4/USBFS.c ****     for (i = 0u; i < USBFS_MAX_INTERFACES_NUMBER; i++)
 679:.\Generated_Source\PSoC4/USBFS.c ****     {
 680:.\Generated_Source\PSoC4/USBFS.c ****         USBFS_hidProtocol[i] = USBFS_PROTOCOL_REPORT;
 681:.\Generated_Source\PSoC4/USBFS.c ****     }
 682:.\Generated_Source\PSoC4/USBFS.c **** #endif /* USBFS_ENABLE_HID_CLASS */
 683:.\Generated_Source\PSoC4/USBFS.c **** 
 684:.\Generated_Source\PSoC4/USBFS.c ****     /* Reset component internal variables. */
 685:.\Generated_Source\PSoC4/USBFS.c ****     USBFS_transferState   = USBFS_TRANS_STATE_IDLE;
 686:.\Generated_Source\PSoC4/USBFS.c ****     USBFS_configurationChanged = 0u;
 687:.\Generated_Source\PSoC4/USBFS.c ****     USBFS_configuration   = 0u;
 688:.\Generated_Source\PSoC4/USBFS.c ****     USBFS_interfaceNumber = 0u;
 689:.\Generated_Source\PSoC4/USBFS.c ****     USBFS_deviceAddress   = 0u;
 690:.\Generated_Source\PSoC4/USBFS.c ****     USBFS_deviceStatus    = 0u;
 691:.\Generated_Source\PSoC4/USBFS.c ****     USBFS_lastPacketSize  = 0u;
 692:.\Generated_Source\PSoC4/USBFS.c **** 
 693:.\Generated_Source\PSoC4/USBFS.c **** #if (CY_PSOC4)
 694:.\Generated_Source\PSoC4/USBFS.c ****     /* Set EP0.CR: ACK Setup, NAK IN/OUT. */
 695:.\Generated_Source\PSoC4/USBFS.c ****     USBFS_EP0_CR_REG = USBFS_MODE_NAK_IN_OUT;
 696:.\Generated_Source\PSoC4/USBFS.c **** #else
 697:.\Generated_Source\PSoC4/USBFS.c ****     /* Set EP0.CR: ACK Setup, STALL IN/OUT. */
 698:.\Generated_Source\PSoC4/USBFS.c ****     USBFS_EP0_CR_REG = USBFS_MODE_STALL_IN_OUT;
 699:.\Generated_Source\PSoC4/USBFS.c **** #endif /* (CY_PSOC4) */
 700:.\Generated_Source\PSoC4/USBFS.c **** 
 701:.\Generated_Source\PSoC4/USBFS.c ****     /* Enable device to respond to USB traffic with address 0. */
 702:.\Generated_Source\PSoC4/USBFS.c ****     USBFS_CR0_REG = USBFS_DEFUALT_CR0;
 703:.\Generated_Source\PSoC4/USBFS.c **** }
 704:.\Generated_Source\PSoC4/USBFS.c **** 
 705:.\Generated_Source\PSoC4/USBFS.c **** 
 706:.\Generated_Source\PSoC4/USBFS.c **** /*******************************************************************************
 707:.\Generated_Source\PSoC4/USBFS.c **** * Function Name: USBFS_Stop
 708:.\Generated_Source\PSoC4/USBFS.c **** ****************************************************************************//**
 709:.\Generated_Source\PSoC4/USBFS.c **** *
 710:.\Generated_Source\PSoC4/USBFS.c **** *  This function shuts down the USB function including to release
 711:.\Generated_Source\PSoC4/USBFS.c **** *  the D+ pull-up and disabling the SIE.
 712:.\Generated_Source\PSoC4/USBFS.c **** *
 713:.\Generated_Source\PSoC4/USBFS.c **** * \globalvars
 714:.\Generated_Source\PSoC4/USBFS.c **** *   \ref USBFS_configuration
 715:.\Generated_Source\PSoC4/USBFS.c **** *
 716:.\Generated_Source\PSoC4/USBFS.c **** *   USBFS_deviceAddress - Contains the current device address. This
 717:.\Generated_Source\PSoC4/USBFS.c **** *       variable is initialized to zero in this API. The Host starts to communicate
ARM GAS  C:\Users\LAIR\AppData\Local\Temp\ccdy23dh.s 			page 14


 718:.\Generated_Source\PSoC4/USBFS.c **** *      to the device with address 0 and then sets it to a whatever value using
 719:.\Generated_Source\PSoC4/USBFS.c **** *      a SET_ADDRESS request.
 720:.\Generated_Source\PSoC4/USBFS.c **** *
 721:.\Generated_Source\PSoC4/USBFS.c **** *   \ref USBFS_deviceStatus
 722:.\Generated_Source\PSoC4/USBFS.c **** *
 723:.\Generated_Source\PSoC4/USBFS.c **** *   \ref USBFS_configurationChanged
 724:.\Generated_Source\PSoC4/USBFS.c **** *
 725:.\Generated_Source\PSoC4/USBFS.c **** *   USBFS_intiVar -  This variable is set to zero
 726:.\Generated_Source\PSoC4/USBFS.c **** *
 727:.\Generated_Source\PSoC4/USBFS.c **** *******************************************************************************/
 728:.\Generated_Source\PSoC4/USBFS.c **** void USBFS_Stop(void) 
 729:.\Generated_Source\PSoC4/USBFS.c **** {
 730:.\Generated_Source\PSoC4/USBFS.c ****     uint8 enableInterrupts;
 731:.\Generated_Source\PSoC4/USBFS.c **** 
 732:.\Generated_Source\PSoC4/USBFS.c **** #if (USBFS_EP_MANAGEMENT_DMA)
 733:.\Generated_Source\PSoC4/USBFS.c ****     /* Stop all DMA channels. */
 734:.\Generated_Source\PSoC4/USBFS.c ****     USBFS_Stop_DMA(USBFS_MAX_EP);
 735:.\Generated_Source\PSoC4/USBFS.c **** #endif /* (USBFS_EP_MANAGEMENT_DMA) */
 736:.\Generated_Source\PSoC4/USBFS.c **** 
 737:.\Generated_Source\PSoC4/USBFS.c ****     enableInterrupts = CyEnterCriticalSection();
 738:.\Generated_Source\PSoC4/USBFS.c **** 
 739:.\Generated_Source\PSoC4/USBFS.c ****     /* Disable USB IP to respond to USB traffic. */
 740:.\Generated_Source\PSoC4/USBFS.c ****     USBFS_CR0_REG &= (uint32) ~USBFS_CR0_ENABLE;
 741:.\Generated_Source\PSoC4/USBFS.c **** 
 742:.\Generated_Source\PSoC4/USBFS.c ****     /* Disable D+ pull-up. */
 743:.\Generated_Source\PSoC4/USBFS.c ****     USBFS_USBIO_CR1_REG &= (uint32) ~ USBFS_USBIO_CR1_USBPUEN;
 744:.\Generated_Source\PSoC4/USBFS.c **** 
 745:.\Generated_Source\PSoC4/USBFS.c **** #if (CY_PSOC4)
 746:.\Generated_Source\PSoC4/USBFS.c ****     /* Disable USBFS block. */
 747:.\Generated_Source\PSoC4/USBFS.c ****     USBFS_POWER_CTRL_REG &= (uint32) ~USBFS_POWER_CTRL_ENABLE;
 748:.\Generated_Source\PSoC4/USBFS.c **** #else
 749:.\Generated_Source\PSoC4/USBFS.c ****     /* Clear power active and standby mode templates. */
 750:.\Generated_Source\PSoC4/USBFS.c ****     USBFS_PM_ACT_CFG_REG  &= (uint8) ~USBFS_PM_ACT_EN_FSUSB;
 751:.\Generated_Source\PSoC4/USBFS.c ****     USBFS_PM_STBY_CFG_REG &= (uint8) ~USBFS_PM_STBY_EN_FSUSB;
 752:.\Generated_Source\PSoC4/USBFS.c **** #endif /* (CY_PSOC4) */
 753:.\Generated_Source\PSoC4/USBFS.c **** 
 754:.\Generated_Source\PSoC4/USBFS.c ****     CyExitCriticalSection(enableInterrupts);
 755:.\Generated_Source\PSoC4/USBFS.c **** 
 756:.\Generated_Source\PSoC4/USBFS.c ****     /* Disable component interrupts. */
 757:.\Generated_Source\PSoC4/USBFS.c **** #if (CY_PSOC4)
 758:.\Generated_Source\PSoC4/USBFS.c ****     CyIntDisable(USBFS_INTR_HI_VECT_NUM);
 759:.\Generated_Source\PSoC4/USBFS.c ****     CyIntDisable(USBFS_INTR_LO_VECT_NUM);
 760:.\Generated_Source\PSoC4/USBFS.c ****     CyIntDisable(USBFS_INTR_MED_VECT_NUM);
 761:.\Generated_Source\PSoC4/USBFS.c **** #else
 762:.\Generated_Source\PSoC4/USBFS.c **** 
 763:.\Generated_Source\PSoC4/USBFS.c ****     CyIntDisable(USBFS_BUS_RESET_VECT_NUM);
 764:.\Generated_Source\PSoC4/USBFS.c ****     CyIntDisable(USBFS_EP_0_VECT_NUM);
 765:.\Generated_Source\PSoC4/USBFS.c **** 
 766:.\Generated_Source\PSoC4/USBFS.c ****     #if (USBFS_SOF_ISR_ACTIVE)
 767:.\Generated_Source\PSoC4/USBFS.c ****         CyIntDisable(USBFS_SOF_VECT_NUM);
 768:.\Generated_Source\PSoC4/USBFS.c ****     #endif /* (USBFS_SOF_ISR_ACTIVE) */
 769:.\Generated_Source\PSoC4/USBFS.c **** 
 770:.\Generated_Source\PSoC4/USBFS.c ****     #if (USBFS_EP1_ISR_ACTIVE)
 771:.\Generated_Source\PSoC4/USBFS.c ****         CyIntDisable(USBFS_EP_1_VECT_NUM);
 772:.\Generated_Source\PSoC4/USBFS.c ****     #endif /* (USBFS_EP1_ISR_ACTIVE) */
 773:.\Generated_Source\PSoC4/USBFS.c **** 
 774:.\Generated_Source\PSoC4/USBFS.c ****     #if (USBFS_EP2_ISR_ACTIVE)
ARM GAS  C:\Users\LAIR\AppData\Local\Temp\ccdy23dh.s 			page 15


 775:.\Generated_Source\PSoC4/USBFS.c ****         CyIntDisable(USBFS_EP_2_VECT_NUM);
 776:.\Generated_Source\PSoC4/USBFS.c ****     #endif /* (USBFS_EP2_ISR_ACTIVE) */
 777:.\Generated_Source\PSoC4/USBFS.c **** 
 778:.\Generated_Source\PSoC4/USBFS.c ****     #if (USBFS_EP3_ISR_ACTIVE)
 779:.\Generated_Source\PSoC4/USBFS.c ****         CyIntDisable(USBFS_EP_3_VECT_NUM);
 780:.\Generated_Source\PSoC4/USBFS.c ****     #endif /* (USBFS_EP3_ISR_ACTIVE) */
 781:.\Generated_Source\PSoC4/USBFS.c **** 
 782:.\Generated_Source\PSoC4/USBFS.c ****     #if (USBFS_EP4_ISR_ACTIVE)
 783:.\Generated_Source\PSoC4/USBFS.c ****         CyIntDisable(USBFS_EP_4_VECT_NUM);
 784:.\Generated_Source\PSoC4/USBFS.c ****     #endif /* (USBFS_EP4_ISR_ACTIVE) */
 785:.\Generated_Source\PSoC4/USBFS.c **** 
 786:.\Generated_Source\PSoC4/USBFS.c ****     #if (USBFS_EP5_ISR_ACTIVE)
 787:.\Generated_Source\PSoC4/USBFS.c ****         CyIntDisable(USBFS_EP_5_VECT_NUM);
 788:.\Generated_Source\PSoC4/USBFS.c ****     #endif /* (USBFS_EP5_ISR_ACTIVE) */
 789:.\Generated_Source\PSoC4/USBFS.c **** 
 790:.\Generated_Source\PSoC4/USBFS.c ****     #if (USBFS_EP6_ISR_ACTIVE)
 791:.\Generated_Source\PSoC4/USBFS.c ****         CyIntDisable(USBFS_EP_6_VECT_NUM);
 792:.\Generated_Source\PSoC4/USBFS.c ****     #endif /* USBFS_EP6_ISR_REMOVE */
 793:.\Generated_Source\PSoC4/USBFS.c **** 
 794:.\Generated_Source\PSoC4/USBFS.c ****     #if (USBFS_EP7_ISR_ACTIVE)
 795:.\Generated_Source\PSoC4/USBFS.c ****         CyIntDisable(USBFS_EP_7_VECT_NUM);
 796:.\Generated_Source\PSoC4/USBFS.c ****     #endif /* (USBFS_EP7_ISR_ACTIVE) */
 797:.\Generated_Source\PSoC4/USBFS.c **** 
 798:.\Generated_Source\PSoC4/USBFS.c ****     #if (USBFS_EP8_ISR_ACTIVE)
 799:.\Generated_Source\PSoC4/USBFS.c ****         CyIntDisable(USBFS_EP_8_VECT_NUM);
 800:.\Generated_Source\PSoC4/USBFS.c ****     #endif /* (USBFS_EP8_ISR_ACTIVE) */
 801:.\Generated_Source\PSoC4/USBFS.c **** #endif /* (CY_PSOC4) */
 802:.\Generated_Source\PSoC4/USBFS.c **** 
 803:.\Generated_Source\PSoC4/USBFS.c ****     /* Reset component internal variables. */
 804:.\Generated_Source\PSoC4/USBFS.c ****     USBFS_configurationChanged = 0u;
 805:.\Generated_Source\PSoC4/USBFS.c ****     USBFS_configuration   = 0u;
 806:.\Generated_Source\PSoC4/USBFS.c ****     USBFS_interfaceNumber = 0u;
 807:.\Generated_Source\PSoC4/USBFS.c ****     USBFS_deviceAddress   = 0u;
 808:.\Generated_Source\PSoC4/USBFS.c ****     USBFS_deviceStatus    = 0u;
 809:.\Generated_Source\PSoC4/USBFS.c **** 
 810:.\Generated_Source\PSoC4/USBFS.c ****     /* It is mandatory for correct device startup. */
 811:.\Generated_Source\PSoC4/USBFS.c ****     USBFS_initVar = 0u;
 812:.\Generated_Source\PSoC4/USBFS.c **** }
 813:.\Generated_Source\PSoC4/USBFS.c **** 
 814:.\Generated_Source\PSoC4/USBFS.c **** 
 815:.\Generated_Source\PSoC4/USBFS.c **** /*******************************************************************************
 816:.\Generated_Source\PSoC4/USBFS.c **** * Function Name: USBFS_CheckActivity
 817:.\Generated_Source\PSoC4/USBFS.c **** ****************************************************************************//**
 818:.\Generated_Source\PSoC4/USBFS.c **** *
 819:.\Generated_Source\PSoC4/USBFS.c **** *  This function returns the activity status of the bus. It clears the hardware
 820:.\Generated_Source\PSoC4/USBFS.c **** *  status to provide updated status on the next call of this function. It
 821:.\Generated_Source\PSoC4/USBFS.c **** *  provides a way to determine whether any USB bus activity occurred. The
 822:.\Generated_Source\PSoC4/USBFS.c **** *  application should use this function to determine if the USB suspend
 823:.\Generated_Source\PSoC4/USBFS.c **** *  conditions are met.
 824:.\Generated_Source\PSoC4/USBFS.c **** *
 825:.\Generated_Source\PSoC4/USBFS.c **** *
 826:.\Generated_Source\PSoC4/USBFS.c **** * \return
 827:.\Generated_Source\PSoC4/USBFS.c **** *  cystatus: Status of the bus since the last call of the function.
 828:.\Generated_Source\PSoC4/USBFS.c **** *  Return Value |   Description
 829:.\Generated_Source\PSoC4/USBFS.c **** *  -------------|---------------------------------------------------------------
 830:.\Generated_Source\PSoC4/USBFS.c **** *  1            |Bus activity was detected since the last call to this function
 831:.\Generated_Source\PSoC4/USBFS.c **** *  0            |Bus activity was not detected since the last call to this function
ARM GAS  C:\Users\LAIR\AppData\Local\Temp\ccdy23dh.s 			page 16


 832:.\Generated_Source\PSoC4/USBFS.c **** *
 833:.\Generated_Source\PSoC4/USBFS.c **** *
 834:.\Generated_Source\PSoC4/USBFS.c **** *******************************************************************************/
 835:.\Generated_Source\PSoC4/USBFS.c **** uint8 USBFS_CheckActivity(void) 
 836:.\Generated_Source\PSoC4/USBFS.c **** {
 837:.\Generated_Source\PSoC4/USBFS.c ****     uint32 cr1Reg = USBFS_CR1_REG;
 838:.\Generated_Source\PSoC4/USBFS.c **** 
 839:.\Generated_Source\PSoC4/USBFS.c ****     /* Clear bus activity. */
 840:.\Generated_Source\PSoC4/USBFS.c ****     USBFS_CR1_REG = (cr1Reg & (uint32) ~USBFS_CR1_BUS_ACTIVITY);
 841:.\Generated_Source\PSoC4/USBFS.c **** 
 842:.\Generated_Source\PSoC4/USBFS.c ****     /* Get bus activity. */
 843:.\Generated_Source\PSoC4/USBFS.c ****     return ((0u != (cr1Reg & USBFS_CR1_BUS_ACTIVITY)) ? (1u) : (0u));
 844:.\Generated_Source\PSoC4/USBFS.c **** }
 845:.\Generated_Source\PSoC4/USBFS.c **** 
 846:.\Generated_Source\PSoC4/USBFS.c **** 
 847:.\Generated_Source\PSoC4/USBFS.c **** /*******************************************************************************
 848:.\Generated_Source\PSoC4/USBFS.c **** * Function Name: USBFS_GetConfiguration
 849:.\Generated_Source\PSoC4/USBFS.c **** ****************************************************************************//**
 850:.\Generated_Source\PSoC4/USBFS.c **** *
 851:.\Generated_Source\PSoC4/USBFS.c **** *  This function gets the current configuration of the USB device.
 852:.\Generated_Source\PSoC4/USBFS.c **** *
 853:.\Generated_Source\PSoC4/USBFS.c **** * \return
 854:.\Generated_Source\PSoC4/USBFS.c **** *  Returns the currently assigned configuration. Returns 0 if the device
 855:.\Generated_Source\PSoC4/USBFS.c **** *  is not configured
 856:.\Generated_Source\PSoC4/USBFS.c **** *
 857:.\Generated_Source\PSoC4/USBFS.c **** *******************************************************************************/
 858:.\Generated_Source\PSoC4/USBFS.c **** uint8 USBFS_GetConfiguration(void) 
 859:.\Generated_Source\PSoC4/USBFS.c **** {
 860:.\Generated_Source\PSoC4/USBFS.c ****     return (USBFS_configuration);
 861:.\Generated_Source\PSoC4/USBFS.c **** }
 862:.\Generated_Source\PSoC4/USBFS.c **** 
 863:.\Generated_Source\PSoC4/USBFS.c **** 
 864:.\Generated_Source\PSoC4/USBFS.c **** /*******************************************************************************
 865:.\Generated_Source\PSoC4/USBFS.c **** * Function Name: USBFS_IsConfigurationChanged
 866:.\Generated_Source\PSoC4/USBFS.c **** ****************************************************************************//**
 867:.\Generated_Source\PSoC4/USBFS.c **** *
 868:.\Generated_Source\PSoC4/USBFS.c **** *  This function returns the clear-on-read configuration state.  It is useful
 869:.\Generated_Source\PSoC4/USBFS.c **** *  when the host sends double SET_CONFIGURATION request with the same 
 870:.\Generated_Source\PSoC4/USBFS.c **** *  configuration number or changes alternate settings of the interface. 
 871:.\Generated_Source\PSoC4/USBFS.c **** *  After configuration has been changed the OUT endpoints must be enabled and IN 
 872:.\Generated_Source\PSoC4/USBFS.c **** *  endpoint must be loaded with data to start communication with the host.
 873:.\Generated_Source\PSoC4/USBFS.c **** *
 874:.\Generated_Source\PSoC4/USBFS.c **** * \return
 875:.\Generated_Source\PSoC4/USBFS.c **** *  None-zero value when new configuration has been changed, otherwise zero is
 876:.\Generated_Source\PSoC4/USBFS.c **** *  returned.
 877:.\Generated_Source\PSoC4/USBFS.c **** *
 878:.\Generated_Source\PSoC4/USBFS.c **** * \globalvars
 879:.\Generated_Source\PSoC4/USBFS.c **** *
 880:.\Generated_Source\PSoC4/USBFS.c **** *  \ref USBFS_configurationChanged - This variable is set to 1 after
 881:.\Generated_Source\PSoC4/USBFS.c **** *   a SET_CONFIGURATION request and cleared in this function.
 882:.\Generated_Source\PSoC4/USBFS.c **** *
 883:.\Generated_Source\PSoC4/USBFS.c **** *******************************************************************************/
 884:.\Generated_Source\PSoC4/USBFS.c **** uint8 USBFS_IsConfigurationChanged(void) 
 885:.\Generated_Source\PSoC4/USBFS.c **** {
 886:.\Generated_Source\PSoC4/USBFS.c ****     uint8 res = 0u;
 887:.\Generated_Source\PSoC4/USBFS.c **** 
 888:.\Generated_Source\PSoC4/USBFS.c ****     if (USBFS_configurationChanged != 0u)
ARM GAS  C:\Users\LAIR\AppData\Local\Temp\ccdy23dh.s 			page 17


 889:.\Generated_Source\PSoC4/USBFS.c ****     {
 890:.\Generated_Source\PSoC4/USBFS.c ****         res = USBFS_configurationChanged;
 891:.\Generated_Source\PSoC4/USBFS.c ****         USBFS_configurationChanged = 0u;
 892:.\Generated_Source\PSoC4/USBFS.c ****     }
 893:.\Generated_Source\PSoC4/USBFS.c **** 
 894:.\Generated_Source\PSoC4/USBFS.c ****     return (res);
 895:.\Generated_Source\PSoC4/USBFS.c **** }
 896:.\Generated_Source\PSoC4/USBFS.c **** 
 897:.\Generated_Source\PSoC4/USBFS.c **** 
 898:.\Generated_Source\PSoC4/USBFS.c **** /*******************************************************************************
 899:.\Generated_Source\PSoC4/USBFS.c **** * Function Name: USBFS_GetInterfaceSetting
 900:.\Generated_Source\PSoC4/USBFS.c **** ****************************************************************************//**
 901:.\Generated_Source\PSoC4/USBFS.c **** *
 902:.\Generated_Source\PSoC4/USBFS.c **** *  This function gets the current alternate setting for the specified interface.
 903:.\Generated_Source\PSoC4/USBFS.c **** *  It is useful to identify which alternate settings are active in the specified 
 904:.\Generated_Source\PSoC4/USBFS.c **** *  interface.
 905:.\Generated_Source\PSoC4/USBFS.c **** *
 906:.\Generated_Source\PSoC4/USBFS.c **** *  \param
 907:.\Generated_Source\PSoC4/USBFS.c **** *  interfaceNumber interface number
 908:.\Generated_Source\PSoC4/USBFS.c **** *
 909:.\Generated_Source\PSoC4/USBFS.c **** * \return
 910:.\Generated_Source\PSoC4/USBFS.c **** *  Returns the current alternate setting for the specified interface.
 911:.\Generated_Source\PSoC4/USBFS.c **** *
 912:.\Generated_Source\PSoC4/USBFS.c **** *******************************************************************************/
 913:.\Generated_Source\PSoC4/USBFS.c **** uint8  USBFS_GetInterfaceSetting(uint8 interfaceNumber)
 914:.\Generated_Source\PSoC4/USBFS.c ****                                                     
 915:.\Generated_Source\PSoC4/USBFS.c **** {
 916:.\Generated_Source\PSoC4/USBFS.c ****     return (USBFS_interfaceSetting[interfaceNumber]);
 917:.\Generated_Source\PSoC4/USBFS.c **** }
 918:.\Generated_Source\PSoC4/USBFS.c **** 
 919:.\Generated_Source\PSoC4/USBFS.c **** 
 920:.\Generated_Source\PSoC4/USBFS.c **** /*******************************************************************************
 921:.\Generated_Source\PSoC4/USBFS.c **** * Function Name: USBFS_GetEPState
 922:.\Generated_Source\PSoC4/USBFS.c **** ****************************************************************************//**
 923:.\Generated_Source\PSoC4/USBFS.c **** *
 924:.\Generated_Source\PSoC4/USBFS.c **** *  This function returns the state of the requested endpoint.
 925:.\Generated_Source\PSoC4/USBFS.c **** *
 926:.\Generated_Source\PSoC4/USBFS.c **** * \param epNumber Data endpoint number
 927:.\Generated_Source\PSoC4/USBFS.c **** *
 928:.\Generated_Source\PSoC4/USBFS.c **** * \return
 929:.\Generated_Source\PSoC4/USBFS.c **** *  Returns the current state of the specified USBFS endpoint. Symbolic names and
 930:.\Generated_Source\PSoC4/USBFS.c **** *  their associated values are given in the following table. Use these constants
 931:.\Generated_Source\PSoC4/USBFS.c **** *  whenever you write code to change the state of the endpoints, such as ISR
 932:.\Generated_Source\PSoC4/USBFS.c **** *  code, to handle data sent or received.
 933:.\Generated_Source\PSoC4/USBFS.c **** *
 934:.\Generated_Source\PSoC4/USBFS.c **** *  Return Value           | Description
 935:.\Generated_Source\PSoC4/USBFS.c **** *  -----------------------|-----------------------------------------------------
 936:.\Generated_Source\PSoC4/USBFS.c **** *  USBFS_NO_EVENT_PENDING |The endpoint is awaiting SIE action
 937:.\Generated_Source\PSoC4/USBFS.c **** *  USBFS_EVENT_PENDING    |The endpoint is awaiting CPU action
 938:.\Generated_Source\PSoC4/USBFS.c **** *  USBFS_NO_EVENT_ALLOWED |The endpoint is locked from access
 939:.\Generated_Source\PSoC4/USBFS.c **** *  USBFS_IN_BUFFER_FULL   |The IN endpoint is loaded and the mode is set to ACK IN
 940:.\Generated_Source\PSoC4/USBFS.c **** *  USBFS_IN_BUFFER_EMPTY  |An IN transaction occurred and more data can be loaded
 941:.\Generated_Source\PSoC4/USBFS.c **** *  USBFS_OUT_BUFFER_EMPTY |The OUT endpoint is set to ACK OUT and is waiting for data
 942:.\Generated_Source\PSoC4/USBFS.c **** *  USBFS_OUT_BUFFER_FULL  |An OUT transaction has occurred and data can be read
 943:.\Generated_Source\PSoC4/USBFS.c **** *
 944:.\Generated_Source\PSoC4/USBFS.c **** *******************************************************************************/
 945:.\Generated_Source\PSoC4/USBFS.c **** uint8 USBFS_GetEPState(uint8 epNumber) 
ARM GAS  C:\Users\LAIR\AppData\Local\Temp\ccdy23dh.s 			page 18


 946:.\Generated_Source\PSoC4/USBFS.c **** {
 947:.\Generated_Source\PSoC4/USBFS.c ****     return (USBFS_EP[epNumber].apiEpState);
 948:.\Generated_Source\PSoC4/USBFS.c **** }
 949:.\Generated_Source\PSoC4/USBFS.c **** 
 950:.\Generated_Source\PSoC4/USBFS.c **** 
 951:.\Generated_Source\PSoC4/USBFS.c **** /*******************************************************************************
 952:.\Generated_Source\PSoC4/USBFS.c **** * Function Name: USBFS_GetEPCount
 953:.\Generated_Source\PSoC4/USBFS.c **** ****************************************************************************//**
 954:.\Generated_Source\PSoC4/USBFS.c **** *
 955:.\Generated_Source\PSoC4/USBFS.c **** *  This function supports Data Endpoints only(EP1-EP8).
 956:.\Generated_Source\PSoC4/USBFS.c **** *  Returns the transfer count for the requested endpoint.  The value from
 957:.\Generated_Source\PSoC4/USBFS.c **** *  the count registers includes 2 counts for the two byte checksum of the
 958:.\Generated_Source\PSoC4/USBFS.c **** *  packet.  This function subtracts the two counts.
 959:.\Generated_Source\PSoC4/USBFS.c **** *
 960:.\Generated_Source\PSoC4/USBFS.c **** *  \param epNumber Data Endpoint Number.
 961:.\Generated_Source\PSoC4/USBFS.c **** *                   Valid values are between 1 and 8.
 962:.\Generated_Source\PSoC4/USBFS.c **** *
 963:.\Generated_Source\PSoC4/USBFS.c **** * \return
 964:.\Generated_Source\PSoC4/USBFS.c **** *  Returns the current byte count from the specified endpoint or 0 for an
 965:.\Generated_Source\PSoC4/USBFS.c **** *  invalid endpoint.
 966:.\Generated_Source\PSoC4/USBFS.c **** *
 967:.\Generated_Source\PSoC4/USBFS.c **** *******************************************************************************/
 968:.\Generated_Source\PSoC4/USBFS.c **** uint16 USBFS_GetEPCount(uint8 epNumber) 
 969:.\Generated_Source\PSoC4/USBFS.c **** {
 970:.\Generated_Source\PSoC4/USBFS.c ****     uint16 cntr = 0u;
 971:.\Generated_Source\PSoC4/USBFS.c **** 
 972:.\Generated_Source\PSoC4/USBFS.c ****     if ((epNumber > USBFS_EP0) && (epNumber < USBFS_MAX_EP))
 973:.\Generated_Source\PSoC4/USBFS.c ****     {
 974:.\Generated_Source\PSoC4/USBFS.c ****         /* Get 11-bits EP counter where epCnt0 - 3 bits MSB and epCnt1 - 8 bits LSB. */
 975:.\Generated_Source\PSoC4/USBFS.c ****         cntr  = ((uint16) USBFS_SIE_EP_BASE.sieEp[epNumber].epCnt0) & USBFS_EPX_CNT0_MASK;
 976:.\Generated_Source\PSoC4/USBFS.c ****         cntr  = ((uint16) (cntr << 8u)) | ((uint16) USBFS_SIE_EP_BASE.sieEp[epNumber].epCnt1);
 977:.\Generated_Source\PSoC4/USBFS.c ****         cntr -= USBFS_EPX_CNTX_CRC_COUNT;
 978:.\Generated_Source\PSoC4/USBFS.c ****     }
 979:.\Generated_Source\PSoC4/USBFS.c **** 
 980:.\Generated_Source\PSoC4/USBFS.c ****     return (cntr);
 981:.\Generated_Source\PSoC4/USBFS.c **** }
 982:.\Generated_Source\PSoC4/USBFS.c **** 
 983:.\Generated_Source\PSoC4/USBFS.c **** 
 984:.\Generated_Source\PSoC4/USBFS.c **** #if (USBFS_EP_MANAGEMENT_DMA)
 985:.\Generated_Source\PSoC4/USBFS.c **** #if (CY_PSOC4)
 986:.\Generated_Source\PSoC4/USBFS.c ****     /*******************************************************************************
 987:.\Generated_Source\PSoC4/USBFS.c ****     * Function Name: USBFS_InitEpDma
 988:.\Generated_Source\PSoC4/USBFS.c ****     ****************************************************************************//**
 989:.\Generated_Source\PSoC4/USBFS.c ****     *
 990:.\Generated_Source\PSoC4/USBFS.c ****     *  This function configures priority for all DMA channels utilized by the
 991:.\Generated_Source\PSoC4/USBFS.c ****     *  component. Also sets callbacks for DMA auto mode.
 992:.\Generated_Source\PSoC4/USBFS.c ****     *
 993:.\Generated_Source\PSoC4/USBFS.c ****     *******************************************************************************/
 994:.\Generated_Source\PSoC4/USBFS.c ****     static void USBFS_InitEpDma(void)
 995:.\Generated_Source\PSoC4/USBFS.c ****     {
  25              		.loc 1 995 0
  26              		.cfi_startproc
 996:.\Generated_Source\PSoC4/USBFS.c ****     #if (USBFS_DMA1_ACTIVE)
 997:.\Generated_Source\PSoC4/USBFS.c ****         CYDMA_CH_CTL_BASE.ctl[USBFS_ep1_dma_CHANNEL] = USBFS_ep1_dma_CHANNEL_CFG;
  27              		.loc 1 997 0
  28 0000 024B     		ldr	r3, .L2
  29 0002 C022     		mov	r2, #192
ARM GAS  C:\Users\LAIR\AppData\Local\Temp\ccdy23dh.s 			page 19


  30 0004 9205     		lsl	r2, r2, #22
  31 0006 1A62     		str	r2, [r3, #32]
 998:.\Generated_Source\PSoC4/USBFS.c ****     #endif /* (USBFS_DMA1_ACTIVE) */
 999:.\Generated_Source\PSoC4/USBFS.c **** 
1000:.\Generated_Source\PSoC4/USBFS.c ****     #if (USBFS_DMA2_ACTIVE)
1001:.\Generated_Source\PSoC4/USBFS.c ****         CYDMA_CH_CTL_BASE.ctl[USBFS_ep2_dma_CHANNEL] = USBFS_ep2_dma_CHANNEL_CFG;
  32              		.loc 1 1001 0
  33 0008 5A62     		str	r2, [r3, #36]
1002:.\Generated_Source\PSoC4/USBFS.c ****     #endif /* (USBFS_DMA2_ACTIVE) */
1003:.\Generated_Source\PSoC4/USBFS.c **** 
1004:.\Generated_Source\PSoC4/USBFS.c ****     #if (USBFS_DMA3_ACTIVE)
1005:.\Generated_Source\PSoC4/USBFS.c ****         CYDMA_CH_CTL_BASE.ctl[USBFS_ep3_dma_CHANNEL] = USBFS_ep3_dma_CHANNEL_CFG;
1006:.\Generated_Source\PSoC4/USBFS.c ****     #endif /* (USBFS_DMA3_ACTIVE) */
1007:.\Generated_Source\PSoC4/USBFS.c **** 
1008:.\Generated_Source\PSoC4/USBFS.c ****     #if (USBFS_DMA4_ACTIVE)
1009:.\Generated_Source\PSoC4/USBFS.c ****         CYDMA_CH_CTL_BASE.ctl[USBFS_ep4_dma_CHANNEL] = USBFS_ep4_dma_CHANNEL_CFG;
1010:.\Generated_Source\PSoC4/USBFS.c ****     #endif /* (USBFS_DMA4_ACTIVE) */
1011:.\Generated_Source\PSoC4/USBFS.c **** 
1012:.\Generated_Source\PSoC4/USBFS.c ****     #if (USBFS_DMA5_ACTIVE)
1013:.\Generated_Source\PSoC4/USBFS.c ****         CYDMA_CH_CTL_BASE.ctl[USBFS_ep5_dma_CHANNEL] = USBFS_ep5_dma_CHANNEL_CFG;
1014:.\Generated_Source\PSoC4/USBFS.c ****     #endif /* (USBFS_DMA5_ACTIVE) */
1015:.\Generated_Source\PSoC4/USBFS.c **** 
1016:.\Generated_Source\PSoC4/USBFS.c ****     #if (USBFS_DMA6_ACTIVE)
1017:.\Generated_Source\PSoC4/USBFS.c ****         CYDMA_CH_CTL_BASE.ctl[USBFS_ep6_dma_CHANNEL] = USBFS_ep6_dma_CHANNEL_CFG;
1018:.\Generated_Source\PSoC4/USBFS.c ****     #endif /* (USBFS_DMA6_ACTIVE) */
1019:.\Generated_Source\PSoC4/USBFS.c **** 
1020:.\Generated_Source\PSoC4/USBFS.c ****     #if (USBFS_DMA7_ACTIVE)
1021:.\Generated_Source\PSoC4/USBFS.c ****         CYDMA_CH_CTL_BASE.ctl[USBFS_ep7_dma_CHANNEL] = USBFS_ep7_dma_CHANNEL_CFG;
1022:.\Generated_Source\PSoC4/USBFS.c ****     #endif /* (USBFS_DMA7_ACTIVE) */
1023:.\Generated_Source\PSoC4/USBFS.c **** 
1024:.\Generated_Source\PSoC4/USBFS.c ****     #if (USBFS_DMA8_ACTIVE)
1025:.\Generated_Source\PSoC4/USBFS.c ****         CYDMA_CH_CTL_BASE.ctl[USBFS_ep8_dma_CHANNEL] = USBFS_ep8_dma_CHANNEL_CFG;
1026:.\Generated_Source\PSoC4/USBFS.c ****     #endif /* (USBFS_DMA8_ACTIVE) */
1027:.\Generated_Source\PSoC4/USBFS.c **** 
1028:.\Generated_Source\PSoC4/USBFS.c ****     #if (USBFS_EP_MANAGEMENT_DMA_AUTO)
1029:.\Generated_Source\PSoC4/USBFS.c ****         /* Initialize DMA channel callbacks. */
1030:.\Generated_Source\PSoC4/USBFS.c ****         #if (USBFS_DMA1_ACTIVE)
1031:.\Generated_Source\PSoC4/USBFS.c ****             (void) USBFS_ep1_dma_SetInterruptCallback(&USBFS_EP1_DMA_DONE_ISR);
1032:.\Generated_Source\PSoC4/USBFS.c ****         #endif /* (USBFS_DMA1_ACTIVE) */
1033:.\Generated_Source\PSoC4/USBFS.c **** 
1034:.\Generated_Source\PSoC4/USBFS.c ****         #if (USBFS_DMA2_ACTIVE)
1035:.\Generated_Source\PSoC4/USBFS.c ****             (void) USBFS_ep2_dma_SetInterruptCallback(&USBFS_EP2_DMA_DONE_ISR);
1036:.\Generated_Source\PSoC4/USBFS.c ****         #endif /* (USBFS_DMA2_ACTIVE) */
1037:.\Generated_Source\PSoC4/USBFS.c **** 
1038:.\Generated_Source\PSoC4/USBFS.c ****         #if (USBFS_DMA3_ACTIVE)
1039:.\Generated_Source\PSoC4/USBFS.c ****             (void) USBFS_ep3_dma_SetInterruptCallback(&USBFS_EP3_DMA_DONE_ISR);
1040:.\Generated_Source\PSoC4/USBFS.c ****         #endif /* (USBFS_DMA3_ACTIVE) */
1041:.\Generated_Source\PSoC4/USBFS.c **** 
1042:.\Generated_Source\PSoC4/USBFS.c ****         #if (USBFS_DMA4_ACTIVE)
1043:.\Generated_Source\PSoC4/USBFS.c ****             (void) USBFS_ep4_dma_SetInterruptCallback(&USBFS_EP4_DMA_DONE_ISR);
1044:.\Generated_Source\PSoC4/USBFS.c ****         #endif /* (USBFS_DMA4_ACTIVE) */
1045:.\Generated_Source\PSoC4/USBFS.c **** 
1046:.\Generated_Source\PSoC4/USBFS.c ****         #if (USBFS_DMA5_ACTIVE)
1047:.\Generated_Source\PSoC4/USBFS.c ****             (void) USBFS_ep5_dma_SetInterruptCallback(&USBFS_EP5_DMA_DONE_ISR);
1048:.\Generated_Source\PSoC4/USBFS.c ****         #endif /* (USBFS_DMA5_ACTIVE) */
1049:.\Generated_Source\PSoC4/USBFS.c **** 
1050:.\Generated_Source\PSoC4/USBFS.c ****         #if (USBFS_DMA6_ACTIVE)
ARM GAS  C:\Users\LAIR\AppData\Local\Temp\ccdy23dh.s 			page 20


1051:.\Generated_Source\PSoC4/USBFS.c ****             (void) USBFS_ep6_dma_SetInterruptCallback(&USBFS_EP6_DMA_DONE_ISR);
1052:.\Generated_Source\PSoC4/USBFS.c ****         #endif /* (USBFS_DMA6_ACTIVE) */
1053:.\Generated_Source\PSoC4/USBFS.c **** 
1054:.\Generated_Source\PSoC4/USBFS.c ****         #if (USBFS_DMA7_ACTIVE)
1055:.\Generated_Source\PSoC4/USBFS.c ****             (void) USBFS_ep7_dma_SetInterruptCallback(&USBFS_EP7_DMA_DONE_ISR);
1056:.\Generated_Source\PSoC4/USBFS.c ****         #endif /* (USBFS_DMA7_ACTIVE) */
1057:.\Generated_Source\PSoC4/USBFS.c **** 
1058:.\Generated_Source\PSoC4/USBFS.c ****         #if (USBFS_DMA8_ACTIVE)
1059:.\Generated_Source\PSoC4/USBFS.c ****             (void) USBFS_ep8_dma_SetInterruptCallback(&USBFS_EP8_DMA_DONE_ISR);
1060:.\Generated_Source\PSoC4/USBFS.c ****         #endif /* (USBFS_DMA8_ACTIVE) */
1061:.\Generated_Source\PSoC4/USBFS.c ****     #endif /* (USBFS_EP_MANAGEMENT_DMA_AUTO) */
1062:.\Generated_Source\PSoC4/USBFS.c ****     }
  34              		.loc 1 1062 0
  35              		@ sp needed
  36 000a 7047     		bx	lr
  37              	.L3:
  38              		.align	2
  39              	.L2:
  40 000c 80101040 		.word	1074794624
  41              		.cfi_endproc
  42              	.LFE76:
  43              		.size	USBFS_InitEpDma, .-USBFS_InitEpDma
  44              		.section	.text.USBFS_Init,"ax",%progbits
  45              		.align	2
  46              		.global	USBFS_Init
  47              		.code	16
  48              		.thumb_func
  49              		.type	USBFS_Init, %function
  50              	USBFS_Init:
  51              	.LFB66:
 211:.\Generated_Source\PSoC4/USBFS.c **** #if (CY_PSOC4)
  52              		.loc 1 211 0
  53              		.cfi_startproc
  54 0000 10B5     		push	{r4, lr}
  55              		.cfi_def_cfa_offset 8
  56              		.cfi_offset 4, -8
  57              		.cfi_offset 14, -4
 214:.\Generated_Source\PSoC4/USBFS.c **** 
  58              		.loc 1 214 0
  59 0002 0122     		mov	r2, #1
  60 0004 254B     		ldr	r3, .L6
  61 0006 1A60     		str	r2, [r3]
 221:.\Generated_Source\PSoC4/USBFS.c **** 
  62              		.loc 1 221 0
  63 0008 254A     		ldr	r2, .L6+4
  64 000a 1368     		ldr	r3, [r2]
  65 000c 2021     		mov	r1, #32
  66 000e 8B43     		bic	r3, r1
  67 0010 1360     		str	r3, [r2]
 224:.\Generated_Source\PSoC4/USBFS.c **** 
  68              		.loc 1 224 0
  69 0012 0A22     		mov	r2, #10
  70 0014 234B     		ldr	r3, .L6+8
  71 0016 1A60     		str	r2, [r3]
 229:.\Generated_Source\PSoC4/USBFS.c **** 
  72              		.loc 1 229 0
  73 0018 234C     		ldr	r4, .L6+12
ARM GAS  C:\Users\LAIR\AppData\Local\Temp\ccdy23dh.s 			page 21


  74 001a 244B     		ldr	r3, .L6+16
  75 001c 2360     		str	r3, [r4]
 232:.\Generated_Source\PSoC4/USBFS.c **** 
  76              		.loc 1 232 0
  77 001e 2368     		ldr	r3, [r4]
  78 0020 234A     		ldr	r2, .L6+20
  79 0022 1343     		orr	r3, r2
  80 0024 2360     		str	r3, [r4]
 235:.\Generated_Source\PSoC4/USBFS.c ****     CyDelayUs(USBFS_WAIT_SUSPEND_DEL_DISABLE);
  81              		.loc 1 235 0
  82 0026 2368     		ldr	r3, [r4]
  83 0028 0422     		mov	r2, #4
  84 002a 9343     		bic	r3, r2
  85 002c 2360     		str	r3, [r4]
 236:.\Generated_Source\PSoC4/USBFS.c ****     USBFS_POWER_CTRL_REG &= (uint32) ~USBFS_POWER_CTRL_SUSPEND_DEL;
  86              		.loc 1 236 0
  87 002e 0220     		mov	r0, #2
  88 0030 FFF7FEFF 		bl	CyDelayUs
  89              	.LVL0:
 237:.\Generated_Source\PSoC4/USBFS.c **** 
  90              		.loc 1 237 0
  91 0034 2368     		ldr	r3, [r4]
  92 0036 0822     		mov	r2, #8
  93 0038 9343     		bic	r3, r2
  94 003a 2360     		str	r3, [r4]
 240:.\Generated_Source\PSoC4/USBFS.c **** 
  95              		.loc 1 240 0
  96 003c FFF7FEFF 		bl	CySysClkImoGetUsbLock
  97              	.LVL1:
  98 0040 0028     		cmp	r0, #0
  99 0042 00D0     		beq	.L5
 100 0044 0220     		mov	r0, #2
 101              	.L5:
 240:.\Generated_Source\PSoC4/USBFS.c **** 
 102              		.loc 1 240 0 is_stmt 0 discriminator 4
 103 0046 1B4B     		ldr	r3, .L6+24
 104 0048 1860     		str	r0, [r3]
 243:.\Generated_Source\PSoC4/USBFS.c **** 
 105              		.loc 1 243 0 is_stmt 1 discriminator 4
 106 004a 1B4A     		ldr	r2, .L6+28
 107 004c 1B4B     		ldr	r3, .L6+32
 108 004e 1A60     		str	r2, [r3]
 246:.\Generated_Source\PSoC4/USBFS.c **** 
 109              		.loc 1 246 0 discriminator 4
 110 0050 0622     		mov	r2, #6
 111 0052 1B4B     		ldr	r3, .L6+36
 112 0054 1A60     		str	r2, [r3]
 317:.\Generated_Source\PSoC4/USBFS.c ****     (void) CyIntSetVector(USBFS_INTR_HI_VECT_NUM, &USBFS_INTR_HI_ISR);
 113              		.loc 1 317 0 discriminator 4
 114 0056 1E20     		mov	r0, #30
 115 0058 0321     		mov	r1, #3
 116 005a FFF7FEFF 		bl	CyIntSetPriority
 117              	.LVL2:
 318:.\Generated_Source\PSoC4/USBFS.c **** 
 118              		.loc 1 318 0 discriminator 4
 119 005e 1E20     		mov	r0, #30
 120 0060 1849     		ldr	r1, .L6+40
ARM GAS  C:\Users\LAIR\AppData\Local\Temp\ccdy23dh.s 			page 22


 121 0062 FFF7FEFF 		bl	CyIntSetVector
 122              	.LVL3:
 321:.\Generated_Source\PSoC4/USBFS.c ****     (void) CyIntSetVector(USBFS_INTR_LO_VECT_NUM, &USBFS_INTR_LO_ISR);
 123              		.loc 1 321 0 discriminator 4
 124 0066 1F20     		mov	r0, #31
 125 0068 0321     		mov	r1, #3
 126 006a FFF7FEFF 		bl	CyIntSetPriority
 127              	.LVL4:
 322:.\Generated_Source\PSoC4/USBFS.c **** 
 128              		.loc 1 322 0 discriminator 4
 129 006e 1F20     		mov	r0, #31
 130 0070 1549     		ldr	r1, .L6+44
 131 0072 FFF7FEFF 		bl	CyIntSetVector
 132              	.LVL5:
 325:.\Generated_Source\PSoC4/USBFS.c ****     (void) CyIntSetVector(USBFS_INTR_MED_VECT_NUM, &USBFS_INTR_MED_ISR);
 133              		.loc 1 325 0 discriminator 4
 134 0076 0020     		mov	r0, #0
 135 0078 0321     		mov	r1, #3
 136 007a FFF7FEFF 		bl	CyIntSetPriority
 137              	.LVL6:
 326:.\Generated_Source\PSoC4/USBFS.c **** 
 138              		.loc 1 326 0 discriminator 4
 139 007e 0020     		mov	r0, #0
 140 0080 1249     		ldr	r1, .L6+48
 141 0082 FFF7FEFF 		bl	CyIntSetVector
 142              	.LVL7:
 400:.\Generated_Source\PSoC4/USBFS.c ****     (void) CyIntSetVector(USBFS_DP_INTC_VECT_NUM, &USBFS_DP_ISR);
 143              		.loc 1 400 0 discriminator 4
 144 0086 0520     		mov	r0, #5
 145 0088 0321     		mov	r1, #3
 146 008a FFF7FEFF 		bl	CyIntSetPriority
 147              	.LVL8:
 401:.\Generated_Source\PSoC4/USBFS.c **** #endif /* (USBFS_DP_ISR_ACTIVE) */
 148              		.loc 1 401 0 discriminator 4
 149 008e 0520     		mov	r0, #5
 150 0090 0F49     		ldr	r1, .L6+52
 151 0092 FFF7FEFF 		bl	CyIntSetVector
 152              	.LVL9:
 406:.\Generated_Source\PSoC4/USBFS.c **** #endif /* (USBFS_EP_MANAGEMENT_DMA && CY_PSOC4) */
 153              		.loc 1 406 0 discriminator 4
 154 0096 FFF7FEFF 		bl	USBFS_InitEpDma
 155              	.LVL10:
 408:.\Generated_Source\PSoC4/USBFS.c **** 
 156              		.loc 1 408 0 discriminator 4
 157              		@ sp needed
 158 009a 10BD     		pop	{r4, pc}
 159              	.L7:
 160              		.align	2
 161              	.L6:
 162 009c 74022C40 		.word	1076626036
 163 00a0 48002C40 		.word	1076625480
 164 00a4 30032C40 		.word	1076626224
 165 00a8 00202C40 		.word	1076633600
 166 00ac 01000004 		.word	67108865
 167 00b0 0C0000B8 		.word	-1207959540
 168 00b4 24002C40 		.word	1076625444
 169 00b8 28800A00 		.word	688168
ARM GAS  C:\Users\LAIR\AppData\Local\Temp\ccdy23dh.s 			page 23


 170 00bc 30202C40 		.word	1076633648
 171 00c0 28202C40 		.word	1076633640
 172 00c4 00000000 		.word	USBFS_INTR_HI_ISR
 173 00c8 00000000 		.word	USBFS_INTR_LO_ISR
 174 00cc 00000000 		.word	USBFS_INTR_MED_ISR
 175 00d0 00000000 		.word	USBFS_DP_ISR
 176              		.cfi_endproc
 177              	.LFE66:
 178              		.size	USBFS_Init, .-USBFS_Init
 179              		.section	.text.USBFS_InitComponent,"ax",%progbits
 180              		.align	2
 181              		.global	USBFS_InitComponent
 182              		.code	16
 183              		.thumb_func
 184              		.type	USBFS_InitComponent, %function
 185              	USBFS_InitComponent:
 186              	.LFB67:
 460:.\Generated_Source\PSoC4/USBFS.c ****     /* Initialize _hidProtocol variable to comply with
 187              		.loc 1 460 0
 188              		.cfi_startproc
 189              	.LVL11:
 190 0000 10B5     		push	{r4, lr}
 191              		.cfi_def_cfa_offset 8
 192              		.cfi_offset 4, -8
 193              		.cfi_offset 14, -4
 194 0002 0C1C     		mov	r4, r1
 475:.\Generated_Source\PSoC4/USBFS.c **** 
 195              		.loc 1 475 0
 196 0004 244B     		ldr	r3, .L14
 197 0006 1870     		strb	r0, [r3]
 478:.\Generated_Source\PSoC4/USBFS.c ****     USBFS_configurationChanged = 0u;
 198              		.loc 1 478 0
 199 0008 0023     		mov	r3, #0
 200 000a 244A     		ldr	r2, .L14+4
 201 000c 1370     		strb	r3, [r2]
 479:.\Generated_Source\PSoC4/USBFS.c ****     USBFS_configuration   = 0u;
 202              		.loc 1 479 0
 203 000e 244A     		ldr	r2, .L14+8
 204 0010 1370     		strb	r3, [r2]
 480:.\Generated_Source\PSoC4/USBFS.c ****     USBFS_interfaceNumber = 0u;
 205              		.loc 1 480 0
 206 0012 244A     		ldr	r2, .L14+12
 207 0014 1370     		strb	r3, [r2]
 481:.\Generated_Source\PSoC4/USBFS.c ****     USBFS_deviceAddress   = 0u;
 208              		.loc 1 481 0
 209 0016 244A     		ldr	r2, .L14+16
 210 0018 1370     		strb	r3, [r2]
 482:.\Generated_Source\PSoC4/USBFS.c ****     USBFS_deviceStatus    = 0u;
 211              		.loc 1 482 0
 212 001a 244A     		ldr	r2, .L14+20
 213 001c 1370     		strb	r3, [r2]
 483:.\Generated_Source\PSoC4/USBFS.c ****     USBFS_lastPacketSize  = 0u;
 214              		.loc 1 483 0
 215 001e 244A     		ldr	r2, .L14+24
 216 0020 1370     		strb	r3, [r2]
 484:.\Generated_Source\PSoC4/USBFS.c **** 
 217              		.loc 1 484 0
ARM GAS  C:\Users\LAIR\AppData\Local\Temp\ccdy23dh.s 			page 24


 218 0022 244A     		ldr	r2, .L14+28
 219 0024 1370     		strb	r3, [r2]
 488:.\Generated_Source\PSoC4/USBFS.c ****     CyIntEnable(USBFS_INTR_MED_VECT_NUM);
 220              		.loc 1 488 0
 221 0026 1E20     		mov	r0, #30
 222              	.LVL12:
 223 0028 FFF7FEFF 		bl	CyIntEnable
 224              	.LVL13:
 489:.\Generated_Source\PSoC4/USBFS.c ****     CyIntEnable(USBFS_INTR_LO_VECT_NUM);
 225              		.loc 1 489 0
 226 002c 0020     		mov	r0, #0
 227 002e FFF7FEFF 		bl	CyIntEnable
 228              	.LVL14:
 490:.\Generated_Source\PSoC4/USBFS.c **** #else
 229              		.loc 1 490 0
 230 0032 1F20     		mov	r0, #31
 231 0034 FFF7FEFF 		bl	CyIntEnable
 232              	.LVL15:
 534:.\Generated_Source\PSoC4/USBFS.c **** 
 233              		.loc 1 534 0
 234 0038 0322     		mov	r2, #3
 235 003a 1F4B     		ldr	r3, .L14+32
 236 003c 1A60     		str	r2, [r3]
 544:.\Generated_Source\PSoC4/USBFS.c **** 
 237              		.loc 1 544 0
 238 003e 1D32     		add	r2, r2, #29
 239 0040 1E4B     		ldr	r3, .L14+36
 240 0042 1A60     		str	r2, [r3]
 548:.\Generated_Source\PSoC4/USBFS.c **** 
 241              		.loc 1 548 0
 242 0044 FFF7FEFF 		bl	CyDmaEnable
 243              	.LVL16:
 572:.\Generated_Source\PSoC4/USBFS.c ****     {
 244              		.loc 1 572 0
 245 0048 002C     		cmp	r4, #0
 246 004a 02D0     		beq	.L10
 247 004c 012C     		cmp	r4, #1
 248 004e 06D0     		beq	.L11
 249 0050 0BE0     		b	.L13
 250              	.L10:
 576:.\Generated_Source\PSoC4/USBFS.c ****         break;
 251              		.loc 1 576 0
 252 0052 1B4A     		ldr	r2, .L14+40
 253 0054 1368     		ldr	r3, [r2]
 254 0056 0121     		mov	r1, #1
 255 0058 8B43     		bic	r3, r1
 256 005a 1360     		str	r3, [r2]
 577:.\Generated_Source\PSoC4/USBFS.c **** 
 257              		.loc 1 577 0
 258 005c 0AE0     		b	.L12
 259              	.L11:
 581:.\Generated_Source\PSoC4/USBFS.c ****         break;
 260              		.loc 1 581 0
 261 005e 184A     		ldr	r2, .L14+40
 262 0060 1168     		ldr	r1, [r2]
 263 0062 0123     		mov	r3, #1
 264 0064 0B43     		orr	r3, r1
ARM GAS  C:\Users\LAIR\AppData\Local\Temp\ccdy23dh.s 			page 25


 265 0066 1360     		str	r3, [r2]
 582:.\Generated_Source\PSoC4/USBFS.c **** 
 266              		.loc 1 582 0
 267 0068 04E0     		b	.L12
 268              	.L13:
 590:.\Generated_Source\PSoC4/USBFS.c ****     #endif /* (USBFS_VDDD_MV < USBFS_3500MV) */
 269              		.loc 1 590 0
 270 006a 154A     		ldr	r2, .L14+40
 271 006c 1168     		ldr	r1, [r2]
 272 006e 0123     		mov	r3, #1
 273 0070 0B43     		orr	r3, r1
 274 0072 1360     		str	r3, [r2]
 275              	.L12:
 597:.\Generated_Source\PSoC4/USBFS.c **** 
 276              		.loc 1 597 0
 277 0074 1249     		ldr	r1, .L14+40
 278 0076 0B68     		ldr	r3, [r1]
 279 0078 0422     		mov	r2, #4
 280 007a 9343     		bic	r3, r2
 281 007c 0B60     		str	r3, [r1]
 600:.\Generated_Source\PSoC4/USBFS.c **** 
 282              		.loc 1 600 0
 283 007e 0021     		mov	r1, #0
 284 0080 104B     		ldr	r3, .L14+44
 285 0082 1960     		str	r1, [r3]
 603:.\Generated_Source\PSoC4/USBFS.c **** 
 286              		.loc 1 603 0
 287 0084 0131     		add	r1, r1, #1
 288 0086 104B     		ldr	r3, .L14+48
 289 0088 1960     		str	r1, [r3]
 622:.\Generated_Source\PSoC4/USBFS.c **** 
 290              		.loc 1 622 0
 291 008a 7F31     		add	r1, r1, #127
 292 008c 0F4B     		ldr	r3, .L14+52
 293 008e 1960     		str	r1, [r3]
 634:.\Generated_Source\PSoC4/USBFS.c **** }
 294              		.loc 1 634 0
 295 0090 0F4B     		ldr	r3, .L14+56
 296 0092 1A60     		str	r2, [r3]
 635:.\Generated_Source\PSoC4/USBFS.c **** 
 297              		.loc 1 635 0
 298              		@ sp needed
 299 0094 10BD     		pop	{r4, pc}
 300              	.L15:
 301 0096 C046     		.align	2
 302              	.L14:
 303 0098 00000000 		.word	USBFS_device
 304 009c 00000000 		.word	USBFS_transferState
 305 00a0 00000000 		.word	USBFS_configurationChanged
 306 00a4 00000000 		.word	USBFS_configuration
 307 00a8 00000000 		.word	USBFS_interfaceNumber
 308 00ac 00000000 		.word	USBFS_deviceAddress
 309 00b0 00000000 		.word	USBFS_deviceStatus
 310 00b4 00000000 		.word	USBFS_lastPacketSize
 311 00b8 78022C40 		.word	1076626040
 312 00bc 70022C40 		.word	1076626032
 313 00c0 24002C40 		.word	1076625444
ARM GAS  C:\Users\LAIR\AppData\Local\Temp\ccdy23dh.s 			page 26


 314 00c4 A4002C40 		.word	1076625572
 315 00c8 A0002C40 		.word	1076625568
 316 00cc 20002C40 		.word	1076625440
 317 00d0 48002C40 		.word	1076625480
 318              		.cfi_endproc
 319              	.LFE67:
 320              		.size	USBFS_InitComponent, .-USBFS_InitComponent
 321              		.section	.text.USBFS_Start,"ax",%progbits
 322              		.align	2
 323              		.global	USBFS_Start
 324              		.code	16
 325              		.thumb_func
 326              		.type	USBFS_Start, %function
 327              	USBFS_Start:
 328              	.LFB65:
 186:.\Generated_Source\PSoC4/USBFS.c ****     if (0u == USBFS_initVar)
 329              		.loc 1 186 0
 330              		.cfi_startproc
 331              	.LVL17:
 332 0000 38B5     		push	{r3, r4, r5, lr}
 333              		.cfi_def_cfa_offset 16
 334              		.cfi_offset 3, -16
 335              		.cfi_offset 4, -12
 336              		.cfi_offset 5, -8
 337              		.cfi_offset 14, -4
 338 0002 051C     		mov	r5, r0
 339 0004 0C1C     		mov	r4, r1
 187:.\Generated_Source\PSoC4/USBFS.c ****     {
 340              		.loc 1 187 0
 341 0006 074B     		ldr	r3, .L18
 342 0008 1B78     		ldrb	r3, [r3]
 343 000a 002B     		cmp	r3, #0
 344 000c 04D1     		bne	.L17
 189:.\Generated_Source\PSoC4/USBFS.c ****         USBFS_initVar = 1u;
 345              		.loc 1 189 0
 346 000e FFF7FEFF 		bl	USBFS_Init
 347              	.LVL18:
 190:.\Generated_Source\PSoC4/USBFS.c ****     }
 348              		.loc 1 190 0
 349 0012 0122     		mov	r2, #1
 350 0014 034B     		ldr	r3, .L18
 351 0016 1A70     		strb	r2, [r3]
 352              	.L17:
 193:.\Generated_Source\PSoC4/USBFS.c **** }
 353              		.loc 1 193 0
 354 0018 281C     		mov	r0, r5
 355 001a 211C     		mov	r1, r4
 356 001c FFF7FEFF 		bl	USBFS_InitComponent
 357              	.LVL19:
 194:.\Generated_Source\PSoC4/USBFS.c **** 
 358              		.loc 1 194 0
 359              		@ sp needed
 360 0020 38BD     		pop	{r3, r4, r5, pc}
 361              	.L19:
 362 0022 C046     		.align	2
 363              	.L18:
 364 0024 00000000 		.word	.LANCHOR0
ARM GAS  C:\Users\LAIR\AppData\Local\Temp\ccdy23dh.s 			page 27


 365              		.cfi_endproc
 366              	.LFE65:
 367              		.size	USBFS_Start, .-USBFS_Start
 368              		.section	.text.USBFS_ReInitComponent,"ax",%progbits
 369              		.align	2
 370              		.global	USBFS_ReInitComponent
 371              		.code	16
 372              		.thumb_func
 373              		.type	USBFS_ReInitComponent, %function
 374              	USBFS_ReInitComponent:
 375              	.LFB68:
 671:.\Generated_Source\PSoC4/USBFS.c ****     /* Initialize _hidProtocol variable to comply with HID 7.2.6 Set_Protocol
 376              		.loc 1 671 0
 377              		.cfi_startproc
 685:.\Generated_Source\PSoC4/USBFS.c ****     USBFS_configurationChanged = 0u;
 378              		.loc 1 685 0
 379 0000 0023     		mov	r3, #0
 380 0002 0A4A     		ldr	r2, .L21
 381 0004 1370     		strb	r3, [r2]
 686:.\Generated_Source\PSoC4/USBFS.c ****     USBFS_configuration   = 0u;
 382              		.loc 1 686 0
 383 0006 0A4A     		ldr	r2, .L21+4
 384 0008 1370     		strb	r3, [r2]
 687:.\Generated_Source\PSoC4/USBFS.c ****     USBFS_interfaceNumber = 0u;
 385              		.loc 1 687 0
 386 000a 0A4A     		ldr	r2, .L21+8
 387 000c 1370     		strb	r3, [r2]
 688:.\Generated_Source\PSoC4/USBFS.c ****     USBFS_deviceAddress   = 0u;
 388              		.loc 1 688 0
 389 000e 0A4A     		ldr	r2, .L21+12
 390 0010 1370     		strb	r3, [r2]
 689:.\Generated_Source\PSoC4/USBFS.c ****     USBFS_deviceStatus    = 0u;
 391              		.loc 1 689 0
 392 0012 0A4A     		ldr	r2, .L21+16
 393 0014 1370     		strb	r3, [r2]
 690:.\Generated_Source\PSoC4/USBFS.c ****     USBFS_lastPacketSize  = 0u;
 394              		.loc 1 690 0
 395 0016 0A4A     		ldr	r2, .L21+20
 396 0018 1370     		strb	r3, [r2]
 691:.\Generated_Source\PSoC4/USBFS.c **** 
 397              		.loc 1 691 0
 398 001a 0A4A     		ldr	r2, .L21+24
 399 001c 1370     		strb	r3, [r2]
 695:.\Generated_Source\PSoC4/USBFS.c **** #else
 400              		.loc 1 695 0
 401 001e 0122     		mov	r2, #1
 402 0020 094B     		ldr	r3, .L21+28
 403 0022 1A60     		str	r2, [r3]
 702:.\Generated_Source\PSoC4/USBFS.c **** }
 404              		.loc 1 702 0
 405 0024 7F32     		add	r2, r2, #127
 406 0026 094B     		ldr	r3, .L21+32
 407 0028 1A60     		str	r2, [r3]
 703:.\Generated_Source\PSoC4/USBFS.c **** 
 408              		.loc 1 703 0
 409              		@ sp needed
 410 002a 7047     		bx	lr
ARM GAS  C:\Users\LAIR\AppData\Local\Temp\ccdy23dh.s 			page 28


 411              	.L22:
 412              		.align	2
 413              	.L21:
 414 002c 00000000 		.word	USBFS_transferState
 415 0030 00000000 		.word	USBFS_configurationChanged
 416 0034 00000000 		.word	USBFS_configuration
 417 0038 00000000 		.word	USBFS_interfaceNumber
 418 003c 00000000 		.word	USBFS_deviceAddress
 419 0040 00000000 		.word	USBFS_deviceStatus
 420 0044 00000000 		.word	USBFS_lastPacketSize
 421 0048 A0002C40 		.word	1076625568
 422 004c 20002C40 		.word	1076625440
 423              		.cfi_endproc
 424              	.LFE68:
 425              		.size	USBFS_ReInitComponent, .-USBFS_ReInitComponent
 426              		.section	.text.USBFS_CheckActivity,"ax",%progbits
 427              		.align	2
 428              		.global	USBFS_CheckActivity
 429              		.code	16
 430              		.thumb_func
 431              		.type	USBFS_CheckActivity, %function
 432              	USBFS_CheckActivity:
 433              	.LFB70:
 836:.\Generated_Source\PSoC4/USBFS.c ****     uint32 cr1Reg = USBFS_CR1_REG;
 434              		.loc 1 836 0
 435              		.cfi_startproc
 837:.\Generated_Source\PSoC4/USBFS.c **** 
 436              		.loc 1 837 0
 437 0000 0549     		ldr	r1, .L26
 438 0002 0B68     		ldr	r3, [r1]
 439              	.LVL20:
 840:.\Generated_Source\PSoC4/USBFS.c **** 
 440              		.loc 1 840 0
 441 0004 0422     		mov	r2, #4
 442 0006 181C     		mov	r0, r3
 443 0008 9043     		bic	r0, r2
 444 000a 0860     		str	r0, [r1]
 843:.\Generated_Source\PSoC4/USBFS.c **** }
 445              		.loc 1 843 0
 446 000c 1A42     		tst	r2, r3
 447 000e 01D0     		beq	.L25
 448 0010 0120     		mov	r0, #1
 449 0012 00E0     		b	.L24
 450              	.L25:
 451 0014 0020     		mov	r0, #0
 452              	.L24:
 844:.\Generated_Source\PSoC4/USBFS.c **** 
 453              		.loc 1 844 0 discriminator 4
 454              		@ sp needed
 455 0016 7047     		bx	lr
 456              	.L27:
 457              		.align	2
 458              	.L26:
 459 0018 24002C40 		.word	1076625444
 460              		.cfi_endproc
 461              	.LFE70:
 462              		.size	USBFS_CheckActivity, .-USBFS_CheckActivity
ARM GAS  C:\Users\LAIR\AppData\Local\Temp\ccdy23dh.s 			page 29


 463              		.section	.text.USBFS_GetConfiguration,"ax",%progbits
 464              		.align	2
 465              		.global	USBFS_GetConfiguration
 466              		.code	16
 467              		.thumb_func
 468              		.type	USBFS_GetConfiguration, %function
 469              	USBFS_GetConfiguration:
 470              	.LFB71:
 859:.\Generated_Source\PSoC4/USBFS.c ****     return (USBFS_configuration);
 471              		.loc 1 859 0
 472              		.cfi_startproc
 860:.\Generated_Source\PSoC4/USBFS.c **** }
 473              		.loc 1 860 0
 474 0000 014B     		ldr	r3, .L29
 475 0002 1878     		ldrb	r0, [r3]
 476 0004 C0B2     		uxtb	r0, r0
 861:.\Generated_Source\PSoC4/USBFS.c **** 
 477              		.loc 1 861 0
 478              		@ sp needed
 479 0006 7047     		bx	lr
 480              	.L30:
 481              		.align	2
 482              	.L29:
 483 0008 00000000 		.word	USBFS_configuration
 484              		.cfi_endproc
 485              	.LFE71:
 486              		.size	USBFS_GetConfiguration, .-USBFS_GetConfiguration
 487              		.section	.text.USBFS_IsConfigurationChanged,"ax",%progbits
 488              		.align	2
 489              		.global	USBFS_IsConfigurationChanged
 490              		.code	16
 491              		.thumb_func
 492              		.type	USBFS_IsConfigurationChanged, %function
 493              	USBFS_IsConfigurationChanged:
 494              	.LFB72:
 885:.\Generated_Source\PSoC4/USBFS.c ****     uint8 res = 0u;
 495              		.loc 1 885 0
 496              		.cfi_startproc
 497              	.LVL21:
 888:.\Generated_Source\PSoC4/USBFS.c ****     {
 498              		.loc 1 888 0
 499 0000 054B     		ldr	r3, .L34
 500 0002 1B78     		ldrb	r3, [r3]
 501 0004 002B     		cmp	r3, #0
 502 0006 05D0     		beq	.L33
 890:.\Generated_Source\PSoC4/USBFS.c ****         USBFS_configurationChanged = 0u;
 503              		.loc 1 890 0
 504 0008 034B     		ldr	r3, .L34
 505 000a 1878     		ldrb	r0, [r3]
 506 000c C0B2     		uxtb	r0, r0
 507              	.LVL22:
 891:.\Generated_Source\PSoC4/USBFS.c ****     }
 508              		.loc 1 891 0
 509 000e 0022     		mov	r2, #0
 510 0010 1A70     		strb	r2, [r3]
 511 0012 00E0     		b	.L32
 512              	.LVL23:
ARM GAS  C:\Users\LAIR\AppData\Local\Temp\ccdy23dh.s 			page 30


 513              	.L33:
 886:.\Generated_Source\PSoC4/USBFS.c **** 
 514              		.loc 1 886 0
 515 0014 0020     		mov	r0, #0
 516              	.LVL24:
 517              	.L32:
 895:.\Generated_Source\PSoC4/USBFS.c **** 
 518              		.loc 1 895 0
 519              		@ sp needed
 520 0016 7047     		bx	lr
 521              	.L35:
 522              		.align	2
 523              	.L34:
 524 0018 00000000 		.word	USBFS_configurationChanged
 525              		.cfi_endproc
 526              	.LFE72:
 527              		.size	USBFS_IsConfigurationChanged, .-USBFS_IsConfigurationChanged
 528              		.section	.text.USBFS_GetInterfaceSetting,"ax",%progbits
 529              		.align	2
 530              		.global	USBFS_GetInterfaceSetting
 531              		.code	16
 532              		.thumb_func
 533              		.type	USBFS_GetInterfaceSetting, %function
 534              	USBFS_GetInterfaceSetting:
 535              	.LFB73:
 915:.\Generated_Source\PSoC4/USBFS.c ****     return (USBFS_interfaceSetting[interfaceNumber]);
 536              		.loc 1 915 0
 537              		.cfi_startproc
 538              	.LVL25:
 916:.\Generated_Source\PSoC4/USBFS.c **** }
 539              		.loc 1 916 0
 540 0000 014B     		ldr	r3, .L37
 541 0002 185C     		ldrb	r0, [r3, r0]
 542              	.LVL26:
 543 0004 C0B2     		uxtb	r0, r0
 917:.\Generated_Source\PSoC4/USBFS.c **** 
 544              		.loc 1 917 0
 545              		@ sp needed
 546 0006 7047     		bx	lr
 547              	.L38:
 548              		.align	2
 549              	.L37:
 550 0008 00000000 		.word	USBFS_interfaceSetting
 551              		.cfi_endproc
 552              	.LFE73:
 553              		.size	USBFS_GetInterfaceSetting, .-USBFS_GetInterfaceSetting
 554              		.section	.text.USBFS_GetEPState,"ax",%progbits
 555              		.align	2
 556              		.global	USBFS_GetEPState
 557              		.code	16
 558              		.thumb_func
 559              		.type	USBFS_GetEPState, %function
 560              	USBFS_GetEPState:
 561              	.LFB74:
 946:.\Generated_Source\PSoC4/USBFS.c ****     return (USBFS_EP[epNumber].apiEpState);
 562              		.loc 1 946 0
 563              		.cfi_startproc
ARM GAS  C:\Users\LAIR\AppData\Local\Temp\ccdy23dh.s 			page 31


 564              	.LVL27:
 947:.\Generated_Source\PSoC4/USBFS.c **** }
 565              		.loc 1 947 0
 566 0000 4300     		lsl	r3, r0, #1
 567 0002 1818     		add	r0, r3, r0
 568              	.LVL28:
 569 0004 8000     		lsl	r0, r0, #2
 570 0006 024B     		ldr	r3, .L40
 571 0008 1818     		add	r0, r3, r0
 572 000a 4078     		ldrb	r0, [r0, #1]
 573 000c C0B2     		uxtb	r0, r0
 948:.\Generated_Source\PSoC4/USBFS.c **** 
 574              		.loc 1 948 0
 575              		@ sp needed
 576 000e 7047     		bx	lr
 577              	.L41:
 578              		.align	2
 579              	.L40:
 580 0010 00000000 		.word	USBFS_EP
 581              		.cfi_endproc
 582              	.LFE74:
 583              		.size	USBFS_GetEPState, .-USBFS_GetEPState
 584              		.section	.text.USBFS_GetEPCount,"ax",%progbits
 585              		.align	2
 586              		.global	USBFS_GetEPCount
 587              		.code	16
 588              		.thumb_func
 589              		.type	USBFS_GetEPCount, %function
 590              	USBFS_GetEPCount:
 591              	.LFB75:
 969:.\Generated_Source\PSoC4/USBFS.c ****     uint16 cntr = 0u;
 592              		.loc 1 969 0
 593              		.cfi_startproc
 594              	.LVL29:
 972:.\Generated_Source\PSoC4/USBFS.c ****     {
 595              		.loc 1 972 0
 596 0000 431E     		sub	r3, r0, #1
 597 0002 072B     		cmp	r3, #7
 598 0004 0ED8     		bhi	.L44
 975:.\Generated_Source\PSoC4/USBFS.c ****         cntr  = ((uint16) (cntr << 8u)) | ((uint16) USBFS_SIE_EP_BASE.sieEp[epNumber].epCnt1);
 599              		.loc 1 975 0
 600 0006 8301     		lsl	r3, r0, #6
 601 0008 074A     		ldr	r2, .L45
 602 000a 9858     		ldr	r0, [r3, r2]
 603              	.LVL30:
 604 000c 0F22     		mov	r2, #15
 605 000e 1040     		and	r0, r2
 606              	.LVL31:
 976:.\Generated_Source\PSoC4/USBFS.c ****         cntr -= USBFS_EPX_CNTX_CRC_COUNT;
 607              		.loc 1 976 0
 608 0010 0002     		lsl	r0, r0, #8
 609              	.LVL32:
 610 0012 054A     		ldr	r2, .L45
 611 0014 9446     		mov	ip, r2
 612 0016 6344     		add	r3, r3, ip
 613 0018 5B68     		ldr	r3, [r3, #4]
 614 001a 9BB2     		uxth	r3, r3
ARM GAS  C:\Users\LAIR\AppData\Local\Temp\ccdy23dh.s 			page 32


 615 001c 1843     		orr	r0, r3
 616              	.LVL33:
 977:.\Generated_Source\PSoC4/USBFS.c ****     }
 617              		.loc 1 977 0
 618 001e 0238     		sub	r0, r0, #2
 619              	.LVL34:
 620 0020 80B2     		uxth	r0, r0
 621              	.LVL35:
 622 0022 00E0     		b	.L43
 623              	.LVL36:
 624              	.L44:
 970:.\Generated_Source\PSoC4/USBFS.c **** 
 625              		.loc 1 970 0
 626 0024 0020     		mov	r0, #0
 627              	.LVL37:
 628              	.L43:
 981:.\Generated_Source\PSoC4/USBFS.c **** 
 629              		.loc 1 981 0
 630              		@ sp needed
 631 0026 7047     		bx	lr
 632              	.L46:
 633              		.align	2
 634              	.L45:
 635 0028 F0FF2B40 		.word	1076625392
 636              		.cfi_endproc
 637              	.LFE75:
 638              		.size	USBFS_GetEPCount, .-USBFS_GetEPCount
 639              		.section	.text.USBFS_Stop_DMA,"ax",%progbits
 640              		.align	2
 641              		.global	USBFS_Stop_DMA
 642              		.code	16
 643              		.thumb_func
 644              		.type	USBFS_Stop_DMA, %function
 645              	USBFS_Stop_DMA:
 646              	.LFB77:
1063:.\Generated_Source\PSoC4/USBFS.c **** #else
1064:.\Generated_Source\PSoC4/USBFS.c **** 
1065:.\Generated_Source\PSoC4/USBFS.c **** 
1066:.\Generated_Source\PSoC4/USBFS.c ****     /***************************************************************************
1067:.\Generated_Source\PSoC4/USBFS.c ****     * Function Name: USBFS_InitEP_DMA
1068:.\Generated_Source\PSoC4/USBFS.c ****     ************************************************************************//**
1069:.\Generated_Source\PSoC4/USBFS.c ****     *
1070:.\Generated_Source\PSoC4/USBFS.c ****     *  This function allocates and initializes a DMA channel to be used by the
1071:.\Generated_Source\PSoC4/USBFS.c ****     *  USBFS_LoadInEP() or USBFS_ReadOutEP() APIs for data
1072:.\Generated_Source\PSoC4/USBFS.c ****     *  transfer. It is available when the Endpoint Memory Management parameter
1073:.\Generated_Source\PSoC4/USBFS.c ****     *  is set to DMA.
1074:.\Generated_Source\PSoC4/USBFS.c ****     *
1075:.\Generated_Source\PSoC4/USBFS.c ****     *  This function is automatically called from the USBFS_LoadInEP() and USBFS_ReadOutEP() APIs.
1076:.\Generated_Source\PSoC4/USBFS.c ****     *
1077:.\Generated_Source\PSoC4/USBFS.c ****     *  \param epNumber Contains the data endpoint number.
1078:.\Generated_Source\PSoC4/USBFS.c ****     *            Valid values are between 1 and 8.
1079:.\Generated_Source\PSoC4/USBFS.c ****     *  \param *pData Pointer to a data array that is related to the EP transfers.
1080:.\Generated_Source\PSoC4/USBFS.c ****     *
1081:.\Generated_Source\PSoC4/USBFS.c ****     * \reentrant No.
1082:.\Generated_Source\PSoC4/USBFS.c ****     *
1083:.\Generated_Source\PSoC4/USBFS.c ****     ***************************************************************************/
1084:.\Generated_Source\PSoC4/USBFS.c ****     void USBFS_InitEP_DMA(uint8 epNumber, const uint8 *pData)
ARM GAS  C:\Users\LAIR\AppData\Local\Temp\ccdy23dh.s 			page 33


1085:.\Generated_Source\PSoC4/USBFS.c ****                                                                     
1086:.\Generated_Source\PSoC4/USBFS.c ****     {
1087:.\Generated_Source\PSoC4/USBFS.c ****         uint16 src;
1088:.\Generated_Source\PSoC4/USBFS.c ****         uint16 dst;
1089:.\Generated_Source\PSoC4/USBFS.c **** 
1090:.\Generated_Source\PSoC4/USBFS.c ****     #if (CY_PSOC3)
1091:.\Generated_Source\PSoC4/USBFS.c ****         src = HI16(CYDEV_SRAM_BASE);
1092:.\Generated_Source\PSoC4/USBFS.c ****         dst = HI16(CYDEV_PERIPH_BASE);
1093:.\Generated_Source\PSoC4/USBFS.c ****         pData = pData;
1094:.\Generated_Source\PSoC4/USBFS.c ****     #else
1095:.\Generated_Source\PSoC4/USBFS.c ****         if ((USBFS_EP[epNumber].addr & USBFS_DIR_IN) != 0u)
1096:.\Generated_Source\PSoC4/USBFS.c ****         {
1097:.\Generated_Source\PSoC4/USBFS.c ****             /* IN endpoint: source is memory buffer. */
1098:.\Generated_Source\PSoC4/USBFS.c ****             src = HI16(pData);
1099:.\Generated_Source\PSoC4/USBFS.c ****             dst = HI16(CYDEV_PERIPH_BASE);
1100:.\Generated_Source\PSoC4/USBFS.c ****         }
1101:.\Generated_Source\PSoC4/USBFS.c ****         else
1102:.\Generated_Source\PSoC4/USBFS.c ****         {
1103:.\Generated_Source\PSoC4/USBFS.c ****             /* OUT endpoint: source is USB IP memory buffer. */
1104:.\Generated_Source\PSoC4/USBFS.c ****             src = HI16(CYDEV_PERIPH_BASE);
1105:.\Generated_Source\PSoC4/USBFS.c ****             dst = HI16(pData);
1106:.\Generated_Source\PSoC4/USBFS.c ****         }
1107:.\Generated_Source\PSoC4/USBFS.c ****     #endif  /* (CY_PSOC3) */
1108:.\Generated_Source\PSoC4/USBFS.c **** 
1109:.\Generated_Source\PSoC4/USBFS.c ****         switch(epNumber)
1110:.\Generated_Source\PSoC4/USBFS.c ****         {
1111:.\Generated_Source\PSoC4/USBFS.c ****     #if (USBFS_DMA1_ACTIVE)
1112:.\Generated_Source\PSoC4/USBFS.c ****         case USBFS_EP1:
1113:.\Generated_Source\PSoC4/USBFS.c ****             USBFS_DmaChan[epNumber] = USBFS_ep1_DmaInitialize(USBFS_DMA_BYTES_PER_BURST,
1114:.\Generated_Source\PSoC4/USBFS.c ****                                                                                     USBFS_DMA_REQUE
1115:.\Generated_Source\PSoC4/USBFS.c ****             break;
1116:.\Generated_Source\PSoC4/USBFS.c ****     #endif /* (USBFS_DMA1_ACTIVE) */
1117:.\Generated_Source\PSoC4/USBFS.c **** 
1118:.\Generated_Source\PSoC4/USBFS.c ****     #if (USBFS_DMA2_ACTIVE)
1119:.\Generated_Source\PSoC4/USBFS.c ****         case USBFS_EP2:
1120:.\Generated_Source\PSoC4/USBFS.c ****             USBFS_DmaChan[epNumber] = USBFS_ep2_DmaInitialize(USBFS_DMA_BYTES_PER_BURST,
1121:.\Generated_Source\PSoC4/USBFS.c ****                                                                                     USBFS_DMA_REQUE
1122:.\Generated_Source\PSoC4/USBFS.c ****             break;
1123:.\Generated_Source\PSoC4/USBFS.c ****     #endif /* (USBFS_DMA2_ACTIVE) */
1124:.\Generated_Source\PSoC4/USBFS.c **** 
1125:.\Generated_Source\PSoC4/USBFS.c ****     #if (USBFS_DMA3_ACTIVE)
1126:.\Generated_Source\PSoC4/USBFS.c ****             case USBFS_EP3:
1127:.\Generated_Source\PSoC4/USBFS.c ****                 USBFS_DmaChan[epNumber] = USBFS_ep3_DmaInitialize(USBFS_DMA_BYTES_PER_BURST,
1128:.\Generated_Source\PSoC4/USBFS.c ****                                                                                         USBFS_DMA_R
1129:.\Generated_Source\PSoC4/USBFS.c ****             break;
1130:.\Generated_Source\PSoC4/USBFS.c ****     #endif /* (USBFS_DMA3_ACTIVE) */
1131:.\Generated_Source\PSoC4/USBFS.c **** 
1132:.\Generated_Source\PSoC4/USBFS.c ****     #if (USBFS_DMA4_ACTIVE)
1133:.\Generated_Source\PSoC4/USBFS.c ****             case USBFS_EP4:
1134:.\Generated_Source\PSoC4/USBFS.c ****                 USBFS_DmaChan[epNumber] = USBFS_ep4_DmaInitialize(USBFS_DMA_BYTES_PER_BURST,
1135:.\Generated_Source\PSoC4/USBFS.c ****                                                                                         USBFS_DMA_R
1136:.\Generated_Source\PSoC4/USBFS.c ****             break;
1137:.\Generated_Source\PSoC4/USBFS.c ****     #endif /* (USBFS_DMA4_ACTIVE) */
1138:.\Generated_Source\PSoC4/USBFS.c **** 
1139:.\Generated_Source\PSoC4/USBFS.c ****     #if (USBFS_DMA5_ACTIVE)
1140:.\Generated_Source\PSoC4/USBFS.c ****             case USBFS_EP5:
1141:.\Generated_Source\PSoC4/USBFS.c ****                 USBFS_DmaChan[epNumber] = USBFS_ep5_DmaInitialize(USBFS_DMA_BYTES_PER_BURST,
ARM GAS  C:\Users\LAIR\AppData\Local\Temp\ccdy23dh.s 			page 34


1142:.\Generated_Source\PSoC4/USBFS.c ****                                                                                         USBFS_DMA_R
1143:.\Generated_Source\PSoC4/USBFS.c ****             break;
1144:.\Generated_Source\PSoC4/USBFS.c ****     #endif /* (USBFS_DMA5_ACTIVE) */
1145:.\Generated_Source\PSoC4/USBFS.c **** 
1146:.\Generated_Source\PSoC4/USBFS.c ****     #if (USBFS_DMA6_ACTIVE)
1147:.\Generated_Source\PSoC4/USBFS.c ****         case USBFS_EP6:
1148:.\Generated_Source\PSoC4/USBFS.c ****             USBFS_DmaChan[epNumber] = USBFS_ep6_DmaInitialize(USBFS_DMA_BYTES_PER_BURST,
1149:.\Generated_Source\PSoC4/USBFS.c ****                                                                                     USBFS_DMA_REQUE
1150:.\Generated_Source\PSoC4/USBFS.c ****             break;
1151:.\Generated_Source\PSoC4/USBFS.c ****     #endif /* (USBFS_DMA6_ACTIVE) */
1152:.\Generated_Source\PSoC4/USBFS.c **** 
1153:.\Generated_Source\PSoC4/USBFS.c ****     #if (USBFS_DMA7_ACTIVE)
1154:.\Generated_Source\PSoC4/USBFS.c ****         case USBFS_EP7:
1155:.\Generated_Source\PSoC4/USBFS.c ****                 USBFS_DmaChan[epNumber] = USBFS_ep7_DmaInitialize(USBFS_DMA_BYTES_PER_BURST,
1156:.\Generated_Source\PSoC4/USBFS.c ****                                                                                         USBFS_DMA_R
1157:.\Generated_Source\PSoC4/USBFS.c ****             break;
1158:.\Generated_Source\PSoC4/USBFS.c ****     #endif /* (USBFS_DMA7_ACTIVE) */
1159:.\Generated_Source\PSoC4/USBFS.c **** 
1160:.\Generated_Source\PSoC4/USBFS.c ****     #if (USBFS_DMA8_ACTIVE)
1161:.\Generated_Source\PSoC4/USBFS.c ****         case USBFS_EP8:
1162:.\Generated_Source\PSoC4/USBFS.c ****                 USBFS_DmaChan[epNumber] = USBFS_ep8_DmaInitialize(USBFS_DMA_BYTES_PER_BURST,
1163:.\Generated_Source\PSoC4/USBFS.c ****                                                                                         USBFS_DMA_R
1164:.\Generated_Source\PSoC4/USBFS.c ****             break;
1165:.\Generated_Source\PSoC4/USBFS.c ****     #endif /* (USBFS_DMA8_ACTIVE) */
1166:.\Generated_Source\PSoC4/USBFS.c **** 
1167:.\Generated_Source\PSoC4/USBFS.c ****         default:
1168:.\Generated_Source\PSoC4/USBFS.c ****             /* Do nothing for endpoints other than 1-8. */
1169:.\Generated_Source\PSoC4/USBFS.c ****             break;
1170:.\Generated_Source\PSoC4/USBFS.c ****         }
1171:.\Generated_Source\PSoC4/USBFS.c **** 
1172:.\Generated_Source\PSoC4/USBFS.c ****         if ((epNumber > USBFS_EP0) && (epNumber < USBFS_MAX_EP))
1173:.\Generated_Source\PSoC4/USBFS.c ****         {
1174:.\Generated_Source\PSoC4/USBFS.c ****             USBFS_DmaTd[epNumber] = CyDmaTdAllocate();
1175:.\Generated_Source\PSoC4/USBFS.c **** 
1176:.\Generated_Source\PSoC4/USBFS.c ****         #if (USBFS_EP_MANAGEMENT_DMA_AUTO && (USBFS_EP_DMA_AUTO_OPT == 0u))
1177:.\Generated_Source\PSoC4/USBFS.c ****             USBFS_DmaNextTd[epNumber] = CyDmaTdAllocate();
1178:.\Generated_Source\PSoC4/USBFS.c ****         #endif /* (USBFS_EP_MANAGEMENT_DMA_AUTO && (USBFS_EP_DMA_AUTO_OPT == 0u)) */
1179:.\Generated_Source\PSoC4/USBFS.c ****         }
1180:.\Generated_Source\PSoC4/USBFS.c ****     }
1181:.\Generated_Source\PSoC4/USBFS.c **** #endif /* (CY_PSOC4) */
1182:.\Generated_Source\PSoC4/USBFS.c **** 
1183:.\Generated_Source\PSoC4/USBFS.c ****     /***************************************************************************
1184:.\Generated_Source\PSoC4/USBFS.c ****     * Function Name: USBFS_Stop_DMA
1185:.\Generated_Source\PSoC4/USBFS.c ****     ************************************************************************//**
1186:.\Generated_Source\PSoC4/USBFS.c ****     *  
1187:.\Generated_Source\PSoC4/USBFS.c ****     *  This function stops DMA channel associated with endpoint. It is available 
1188:.\Generated_Source\PSoC4/USBFS.c ****     *  when the Endpoint Buffer Management parameter is set to DMA. Call this 
1189:.\Generated_Source\PSoC4/USBFS.c ****     *  function when endpoint direction is changed from IN to OUT or vice versa 
1190:.\Generated_Source\PSoC4/USBFS.c ****     *  to trigger DMA re-configuration when USBFS_LoadInEP() or 
1191:.\Generated_Source\PSoC4/USBFS.c ****     *  USBFS_ReadOutEP() functions are called the first time. 
1192:.\Generated_Source\PSoC4/USBFS.c ****     *  
1193:.\Generated_Source\PSoC4/USBFS.c ****     *  \param epNumber: The data endpoint number for which associated DMA 
1194:.\Generated_Source\PSoC4/USBFS.c ****     *  channel is stopped. The range of valid values is between 1 and 8. To stop 
1195:.\Generated_Source\PSoC4/USBFS.c ****     *  all DMAs associated with endpoints call this function with 
1196:.\Generated_Source\PSoC4/USBFS.c ****     *  USBFS_MAX_EP argument.
1197:.\Generated_Source\PSoC4/USBFS.c ****     *
1198:.\Generated_Source\PSoC4/USBFS.c ****     * \reentrant
ARM GAS  C:\Users\LAIR\AppData\Local\Temp\ccdy23dh.s 			page 35


1199:.\Generated_Source\PSoC4/USBFS.c ****     *  No.
1200:.\Generated_Source\PSoC4/USBFS.c ****     *
1201:.\Generated_Source\PSoC4/USBFS.c ****     ***************************************************************************/
1202:.\Generated_Source\PSoC4/USBFS.c ****     void USBFS_Stop_DMA(uint8 epNumber) 
1203:.\Generated_Source\PSoC4/USBFS.c ****     {
 647              		.loc 1 1203 0
 648              		.cfi_startproc
 649              	.LVL38:
 650 0000 10B5     		push	{r4, lr}
 651              		.cfi_def_cfa_offset 8
 652              		.cfi_offset 4, -8
 653              		.cfi_offset 14, -4
1204:.\Generated_Source\PSoC4/USBFS.c ****         uint32 i;
1205:.\Generated_Source\PSoC4/USBFS.c **** 
1206:.\Generated_Source\PSoC4/USBFS.c ****         i = (epNumber < USBFS_MAX_EP) ? epNumber : USBFS_EP1;
 654              		.loc 1 1206 0
 655 0002 0828     		cmp	r0, #8
 656 0004 01D8     		bhi	.L52
 657              		.loc 1 1206 0 is_stmt 0 discriminator 1
 658 0006 031C     		mov	r3, r0
 659 0008 00E0     		b	.L51
 660              	.L52:
 661              		.loc 1 1206 0
 662 000a 0123     		mov	r3, #1
 663              	.LVL39:
 664              	.L51:
1207:.\Generated_Source\PSoC4/USBFS.c **** 
1208:.\Generated_Source\PSoC4/USBFS.c ****         do
1209:.\Generated_Source\PSoC4/USBFS.c ****         {
1210:.\Generated_Source\PSoC4/USBFS.c ****         #if (CY_PSOC4)
1211:.\Generated_Source\PSoC4/USBFS.c ****             if (0u != USBFS_DmaChan[i])
 665              		.loc 1 1211 0 is_stmt 1
 666 000c 074A     		ldr	r2, .L53
 667 000e D25C     		ldrb	r2, [r2, r3]
 668 0010 002A     		cmp	r2, #0
 669 0012 05D0     		beq	.L49
1212:.\Generated_Source\PSoC4/USBFS.c ****             {
1213:.\Generated_Source\PSoC4/USBFS.c ****                 USBFS_CyDmaChDisable(USBFS_DmaChan[i]);
 670              		.loc 1 1213 0
 671 0014 064C     		ldr	r4, .L53+4
 672 0016 9200     		lsl	r2, r2, #2
 673 0018 1159     		ldr	r1, [r2, r4]
 674 001a 4900     		lsl	r1, r1, #1
 675 001c 4908     		lsr	r1, r1, #1
 676 001e 1151     		str	r1, [r2, r4]
 677              	.L49:
1214:.\Generated_Source\PSoC4/USBFS.c ****             }
1215:.\Generated_Source\PSoC4/USBFS.c ****         #else
1216:.\Generated_Source\PSoC4/USBFS.c ****             if(USBFS_DmaTd[i] != DMA_INVALID_TD)
1217:.\Generated_Source\PSoC4/USBFS.c ****             {
1218:.\Generated_Source\PSoC4/USBFS.c ****                 (void) CyDmaChDisable(USBFS_DmaChan[i]);
1219:.\Generated_Source\PSoC4/USBFS.c ****                 CyDmaTdFree(USBFS_DmaTd[i]);
1220:.\Generated_Source\PSoC4/USBFS.c ****                 USBFS_DmaTd[i] = DMA_INVALID_TD;
1221:.\Generated_Source\PSoC4/USBFS.c ****             }
1222:.\Generated_Source\PSoC4/USBFS.c **** 
1223:.\Generated_Source\PSoC4/USBFS.c ****             #if (USBFS_EP_MANAGEMENT_DMA_AUTO && (USBFS_EP_DMA_AUTO_OPT == 0u))
1224:.\Generated_Source\PSoC4/USBFS.c ****                 if(USBFS_DmaNextTd[i] != DMA_INVALID_TD)
ARM GAS  C:\Users\LAIR\AppData\Local\Temp\ccdy23dh.s 			page 36


1225:.\Generated_Source\PSoC4/USBFS.c ****                 {
1226:.\Generated_Source\PSoC4/USBFS.c ****                     CyDmaTdFree(USBFS_DmaNextTd[i]);
1227:.\Generated_Source\PSoC4/USBFS.c ****                     USBFS_DmaNextTd[i] = DMA_INVALID_TD;
1228:.\Generated_Source\PSoC4/USBFS.c ****                 }
1229:.\Generated_Source\PSoC4/USBFS.c ****             #endif /* (USBFS_EP_MANAGEMENT_DMA_AUTO && (USBFS_EP_DMA_AUTO_OPT == 0u)) */
1230:.\Generated_Source\PSoC4/USBFS.c **** 
1231:.\Generated_Source\PSoC4/USBFS.c ****         #endif /* (CY_PSOC4) */
1232:.\Generated_Source\PSoC4/USBFS.c ****             i++;
 678              		.loc 1 1232 0
 679 0020 0133     		add	r3, r3, #1
 680              	.LVL40:
1233:.\Generated_Source\PSoC4/USBFS.c ****         }
1234:.\Generated_Source\PSoC4/USBFS.c ****         while ((i < USBFS_MAX_EP) && (epNumber == USBFS_MAX_EP));
 681              		.loc 1 1234 0
 682 0022 082B     		cmp	r3, #8
 683 0024 01D8     		bhi	.L47
 684              		.loc 1 1234 0 is_stmt 0 discriminator 1
 685 0026 0928     		cmp	r0, #9
 686 0028 F0D0     		beq	.L51
 687              	.L47:
1235:.\Generated_Source\PSoC4/USBFS.c ****     }
 688              		.loc 1 1235 0 is_stmt 1
 689              		@ sp needed
 690 002a 10BD     		pop	{r4, pc}
 691              	.L54:
 692              		.align	2
 693              	.L53:
 694 002c 00000000 		.word	.LANCHOR1
 695 0030 80101040 		.word	1074794624
 696              		.cfi_endproc
 697              	.LFE77:
 698              		.size	USBFS_Stop_DMA, .-USBFS_Stop_DMA
 699              		.section	.text.USBFS_Stop,"ax",%progbits
 700              		.align	2
 701              		.global	USBFS_Stop
 702              		.code	16
 703              		.thumb_func
 704              		.type	USBFS_Stop, %function
 705              	USBFS_Stop:
 706              	.LFB69:
 729:.\Generated_Source\PSoC4/USBFS.c ****     uint8 enableInterrupts;
 707              		.loc 1 729 0
 708              		.cfi_startproc
 709 0000 08B5     		push	{r3, lr}
 710              		.cfi_def_cfa_offset 8
 711              		.cfi_offset 3, -8
 712              		.cfi_offset 14, -4
 734:.\Generated_Source\PSoC4/USBFS.c **** #endif /* (USBFS_EP_MANAGEMENT_DMA) */
 713              		.loc 1 734 0
 714 0002 0920     		mov	r0, #9
 715 0004 FFF7FEFF 		bl	USBFS_Stop_DMA
 716              	.LVL41:
 737:.\Generated_Source\PSoC4/USBFS.c **** 
 717              		.loc 1 737 0
 718 0008 FFF7FEFF 		bl	CyEnterCriticalSection
 719              	.LVL42:
 740:.\Generated_Source\PSoC4/USBFS.c **** 
ARM GAS  C:\Users\LAIR\AppData\Local\Temp\ccdy23dh.s 			page 37


 720              		.loc 1 740 0
 721 000c 134A     		ldr	r2, .L56
 722 000e 1368     		ldr	r3, [r2]
 723 0010 8021     		mov	r1, #128
 724 0012 8B43     		bic	r3, r1
 725 0014 1360     		str	r3, [r2]
 743:.\Generated_Source\PSoC4/USBFS.c **** 
 726              		.loc 1 743 0
 727 0016 124A     		ldr	r2, .L56+4
 728 0018 1368     		ldr	r3, [r2]
 729 001a 7C39     		sub	r1, r1, #124
 730 001c 8B43     		bic	r3, r1
 731 001e 1360     		str	r3, [r2]
 747:.\Generated_Source\PSoC4/USBFS.c **** #else
 732              		.loc 1 747 0
 733 0020 104A     		ldr	r2, .L56+8
 734 0022 1368     		ldr	r3, [r2]
 735 0024 5B00     		lsl	r3, r3, #1
 736 0026 5B08     		lsr	r3, r3, #1
 737 0028 1360     		str	r3, [r2]
 754:.\Generated_Source\PSoC4/USBFS.c **** 
 738              		.loc 1 754 0
 739 002a FFF7FEFF 		bl	CyExitCriticalSection
 740              	.LVL43:
 758:.\Generated_Source\PSoC4/USBFS.c ****     CyIntDisable(USBFS_INTR_LO_VECT_NUM);
 741              		.loc 1 758 0
 742 002e 1E20     		mov	r0, #30
 743 0030 FFF7FEFF 		bl	CyIntDisable
 744              	.LVL44:
 759:.\Generated_Source\PSoC4/USBFS.c ****     CyIntDisable(USBFS_INTR_MED_VECT_NUM);
 745              		.loc 1 759 0
 746 0034 1F20     		mov	r0, #31
 747 0036 FFF7FEFF 		bl	CyIntDisable
 748              	.LVL45:
 760:.\Generated_Source\PSoC4/USBFS.c **** #else
 749              		.loc 1 760 0
 750 003a 0020     		mov	r0, #0
 751 003c FFF7FEFF 		bl	CyIntDisable
 752              	.LVL46:
 804:.\Generated_Source\PSoC4/USBFS.c ****     USBFS_configuration   = 0u;
 753              		.loc 1 804 0
 754 0040 0023     		mov	r3, #0
 755 0042 094A     		ldr	r2, .L56+12
 756 0044 1370     		strb	r3, [r2]
 805:.\Generated_Source\PSoC4/USBFS.c ****     USBFS_interfaceNumber = 0u;
 757              		.loc 1 805 0
 758 0046 094A     		ldr	r2, .L56+16
 759 0048 1370     		strb	r3, [r2]
 806:.\Generated_Source\PSoC4/USBFS.c ****     USBFS_deviceAddress   = 0u;
 760              		.loc 1 806 0
 761 004a 094A     		ldr	r2, .L56+20
 762 004c 1370     		strb	r3, [r2]
 807:.\Generated_Source\PSoC4/USBFS.c ****     USBFS_deviceStatus    = 0u;
 763              		.loc 1 807 0
 764 004e 094A     		ldr	r2, .L56+24
 765 0050 1370     		strb	r3, [r2]
 808:.\Generated_Source\PSoC4/USBFS.c **** 
ARM GAS  C:\Users\LAIR\AppData\Local\Temp\ccdy23dh.s 			page 38


 766              		.loc 1 808 0
 767 0052 094A     		ldr	r2, .L56+28
 768 0054 1370     		strb	r3, [r2]
 811:.\Generated_Source\PSoC4/USBFS.c **** }
 769              		.loc 1 811 0
 770 0056 094A     		ldr	r2, .L56+32
 771 0058 1370     		strb	r3, [r2]
 812:.\Generated_Source\PSoC4/USBFS.c **** 
 772              		.loc 1 812 0
 773              		@ sp needed
 774 005a 08BD     		pop	{r3, pc}
 775              	.L57:
 776              		.align	2
 777              	.L56:
 778 005c 20002C40 		.word	1076625440
 779 0060 48002C40 		.word	1076625480
 780 0064 00202C40 		.word	1076633600
 781 0068 00000000 		.word	USBFS_configurationChanged
 782 006c 00000000 		.word	USBFS_configuration
 783 0070 00000000 		.word	USBFS_interfaceNumber
 784 0074 00000000 		.word	USBFS_deviceAddress
 785 0078 00000000 		.word	USBFS_deviceStatus
 786 007c 00000000 		.word	.LANCHOR0
 787              		.cfi_endproc
 788              	.LFE69:
 789              		.size	USBFS_Stop, .-USBFS_Stop
 790              		.section	.text.USBFS_LoadInEP,"ax",%progbits
 791              		.align	2
 792              		.global	USBFS_LoadInEP
 793              		.code	16
 794              		.thumb_func
 795              		.type	USBFS_LoadInEP, %function
 796              	USBFS_LoadInEP:
 797              	.LFB78:
1236:.\Generated_Source\PSoC4/USBFS.c **** #endif /* (USBFS_EP_MANAGEMENT_DMA) */
1237:.\Generated_Source\PSoC4/USBFS.c **** 
1238:.\Generated_Source\PSoC4/USBFS.c **** 
1239:.\Generated_Source\PSoC4/USBFS.c **** #if (CY_PSOC3 || CY_PSOC5)
1240:.\Generated_Source\PSoC4/USBFS.c **** #if (USBFS_EP_MANAGEMENT_DMA_AUTO && (USBFS_EP_DMA_AUTO_OPT == 0u))
1241:.\Generated_Source\PSoC4/USBFS.c ****     /***************************************************************************
1242:.\Generated_Source\PSoC4/USBFS.c ****     * Function Name: USBFS_LoadNextInEP
1243:.\Generated_Source\PSoC4/USBFS.c ****     ************************************************************************//**
1244:.\Generated_Source\PSoC4/USBFS.c ****     *
1245:.\Generated_Source\PSoC4/USBFS.c ****     * Summary:
1246:.\Generated_Source\PSoC4/USBFS.c ****     *  This internal function is used for IN endpoint DMA reconfiguration in
1247:.\Generated_Source\PSoC4/USBFS.c ****     *  Auto DMA mode.
1248:.\Generated_Source\PSoC4/USBFS.c ****     *
1249:.\Generated_Source\PSoC4/USBFS.c ****     * Parameters:
1250:.\Generated_Source\PSoC4/USBFS.c ****     *  epNumber: Contains the data endpoint number.
1251:.\Generated_Source\PSoC4/USBFS.c ****     *  mode:   0 - Configure DMA to send the the rest of data.
1252:.\Generated_Source\PSoC4/USBFS.c ****     *          1 - Configure DMA to repeat 2 last bytes of the first burst.
1253:.\Generated_Source\PSoC4/USBFS.c ****     *
1254:.\Generated_Source\PSoC4/USBFS.c ****     ***************************************************************************/
1255:.\Generated_Source\PSoC4/USBFS.c ****     void USBFS_LoadNextInEP(uint8 epNumber, uint8 mode) 
1256:.\Generated_Source\PSoC4/USBFS.c ****     {
1257:.\Generated_Source\PSoC4/USBFS.c ****         reg16 *convert;
1258:.\Generated_Source\PSoC4/USBFS.c **** 
ARM GAS  C:\Users\LAIR\AppData\Local\Temp\ccdy23dh.s 			page 39


1259:.\Generated_Source\PSoC4/USBFS.c ****         if (mode == 0u)
1260:.\Generated_Source\PSoC4/USBFS.c ****         {
1261:.\Generated_Source\PSoC4/USBFS.c ****             /* Configure DMA to send rest of data. */
1262:.\Generated_Source\PSoC4/USBFS.c ****             /* CyDmaTdSetConfiguration API is optimized to change transfer length only and configur
1263:.\Generated_Source\PSoC4/USBFS.c ****             convert = (reg16 *) &CY_DMA_TDMEM_STRUCT_PTR[USBFS_DmaTd[epNumber]].TD0[0u];
1264:.\Generated_Source\PSoC4/USBFS.c ****             /* Set transfer length. */
1265:.\Generated_Source\PSoC4/USBFS.c ****             CY_SET_REG16(convert, USBFS_inLength[epNumber] - USBFS_DMA_BYTES_PER_BURST);
1266:.\Generated_Source\PSoC4/USBFS.c ****             /* CyDmaTdSetAddress API is optimized to change source address only. */
1267:.\Generated_Source\PSoC4/USBFS.c ****             convert = (reg16 *) &CY_DMA_TDMEM_STRUCT_PTR[USBFS_DmaTd[epNumber]].TD1[0u];
1268:.\Generated_Source\PSoC4/USBFS.c ****             CY_SET_REG16(convert, LO16((uint32)USBFS_inDataPointer[epNumber] +
1269:.\Generated_Source\PSoC4/USBFS.c ****                                             USBFS_DMA_BYTES_PER_BURST));
1270:.\Generated_Source\PSoC4/USBFS.c ****             USBFS_inBufFull[epNumber] = 1u;
1271:.\Generated_Source\PSoC4/USBFS.c ****         }
1272:.\Generated_Source\PSoC4/USBFS.c ****         else
1273:.\Generated_Source\PSoC4/USBFS.c ****         {
1274:.\Generated_Source\PSoC4/USBFS.c ****             /* Configure DMA to repeat 2 last bytes of the first burst. */
1275:.\Generated_Source\PSoC4/USBFS.c ****             /* CyDmaTdSetConfiguration API is optimized to change transfer length only and configur
1276:.\Generated_Source\PSoC4/USBFS.c ****             convert = (reg16 *) &CY_DMA_TDMEM_STRUCT_PTR[USBFS_DmaTd[epNumber]].TD0[0u];
1277:.\Generated_Source\PSoC4/USBFS.c ****             /* Set transfer length. */
1278:.\Generated_Source\PSoC4/USBFS.c ****             CY_SET_REG16(convert, USBFS_DMA_BYTES_REPEAT);
1279:.\Generated_Source\PSoC4/USBFS.c ****             /* CyDmaTdSetAddress API is optimized to change source address only. */
1280:.\Generated_Source\PSoC4/USBFS.c ****             convert = (reg16 *) &CY_DMA_TDMEM_STRUCT_PTR[USBFS_DmaTd[epNumber]].TD1[0u];
1281:.\Generated_Source\PSoC4/USBFS.c ****             CY_SET_REG16(convert,  LO16((uint32)USBFS_inDataPointer[epNumber] +
1282:.\Generated_Source\PSoC4/USBFS.c ****                                    (USBFS_DMA_BYTES_PER_BURST - USBFS_DMA_BYTES_REPEAT)));
1283:.\Generated_Source\PSoC4/USBFS.c ****         }
1284:.\Generated_Source\PSoC4/USBFS.c **** 
1285:.\Generated_Source\PSoC4/USBFS.c ****         /* CyDmaChSetInitialTd API is optimized to initialize TD. */
1286:.\Generated_Source\PSoC4/USBFS.c ****         CY_DMA_CH_STRUCT_PTR[USBFS_DmaChan[epNumber]].basic_status[1u] = USBFS_DmaTd[epNumber];
1287:.\Generated_Source\PSoC4/USBFS.c ****     }
1288:.\Generated_Source\PSoC4/USBFS.c **** #endif /* (USBFS_EP_MANAGEMENT_DMA_AUTO && (USBFS_EP_DMA_AUTO_OPT == 0u)) */
1289:.\Generated_Source\PSoC4/USBFS.c **** #endif /* (CY_PSOC3 || CY_PSOC5) */
1290:.\Generated_Source\PSoC4/USBFS.c **** 
1291:.\Generated_Source\PSoC4/USBFS.c **** 
1292:.\Generated_Source\PSoC4/USBFS.c **** /*******************************************************************************
1293:.\Generated_Source\PSoC4/USBFS.c **** * Function Name: USBFS_LoadInEP
1294:.\Generated_Source\PSoC4/USBFS.c **** ****************************************************************************//**
1295:.\Generated_Source\PSoC4/USBFS.c **** *
1296:.\Generated_Source\PSoC4/USBFS.c **** *  This function performs different functionality depending on the Component’s
1297:.\Generated_Source\PSoC4/USBFS.c **** *  configured Endpoint Buffer Management. This parameter is defined in
1298:.\Generated_Source\PSoC4/USBFS.c **** *  the Descriptor Root in Component Configure window.
1299:.\Generated_Source\PSoC4/USBFS.c **** *
1300:.\Generated_Source\PSoC4/USBFS.c **** *  *Manual (Static/Dynamic Allocation):*
1301:.\Generated_Source\PSoC4/USBFS.c **** *  This function loads and enables the specified USB data endpoint for an IN
1302:.\Generated_Source\PSoC4/USBFS.c **** *  data transfer.
1303:.\Generated_Source\PSoC4/USBFS.c **** *
1304:.\Generated_Source\PSoC4/USBFS.c **** *  *DMA with Manual Buffer Management:*
1305:.\Generated_Source\PSoC4/USBFS.c **** *  Configures DMA for a data transfer from system RAM to endpoint buffer.
1306:.\Generated_Source\PSoC4/USBFS.c **** *  Generates request for a transfer.
1307:.\Generated_Source\PSoC4/USBFS.c **** *
1308:.\Generated_Source\PSoC4/USBFS.c **** *  *DMA with Automatic Buffer Management:*
1309:.\Generated_Source\PSoC4/USBFS.c **** *  Configures DMA. This is required only once, so it is done only when parameter
1310:.\Generated_Source\PSoC4/USBFS.c **** *  pData is not NULL. When the pData pointer is NULL, the function skips this
1311:.\Generated_Source\PSoC4/USBFS.c **** *  task. Sets Data ready status: This generates the first DMA transfer and
1312:.\Generated_Source\PSoC4/USBFS.c **** *  prepares data in endpoint buffer.
1313:.\Generated_Source\PSoC4/USBFS.c **** *
1314:.\Generated_Source\PSoC4/USBFS.c **** *  \param epNumber Contains the data endpoint number.
1315:.\Generated_Source\PSoC4/USBFS.c **** *            Valid values are between 1 and 8.
ARM GAS  C:\Users\LAIR\AppData\Local\Temp\ccdy23dh.s 			page 40


1316:.\Generated_Source\PSoC4/USBFS.c **** *  \param *pData A pointer to a data array from which the data for the endpoint space
1317:.\Generated_Source\PSoC4/USBFS.c **** *          is loaded.
1318:.\Generated_Source\PSoC4/USBFS.c **** *  \param length The number of bytes to transfer from the array and then send as
1319:.\Generated_Source\PSoC4/USBFS.c **** *          a result of an IN request. Valid values are between 0 and 512
1320:.\Generated_Source\PSoC4/USBFS.c **** *          (1023 for DMA with Automatic Buffer Management mode). The value 512
1321:.\Generated_Source\PSoC4/USBFS.c **** *          is applicable if only one endpoint is used.
1322:.\Generated_Source\PSoC4/USBFS.c **** *
1323:.\Generated_Source\PSoC4/USBFS.c **** *
1324:.\Generated_Source\PSoC4/USBFS.c **** * \reentrant
1325:.\Generated_Source\PSoC4/USBFS.c **** *  No.
1326:.\Generated_Source\PSoC4/USBFS.c **** *
1327:.\Generated_Source\PSoC4/USBFS.c **** *******************************************************************************/
1328:.\Generated_Source\PSoC4/USBFS.c **** void USBFS_LoadInEP(uint8 epNumber, const uint8 pData[], uint16 length)
1329:.\Generated_Source\PSoC4/USBFS.c ****                                                                         
1330:.\Generated_Source\PSoC4/USBFS.c **** {
 798              		.loc 1 1330 0
 799              		.cfi_startproc
 800              	.LVL47:
 801 0000 70B5     		push	{r4, r5, r6, lr}
 802              		.cfi_def_cfa_offset 16
 803              		.cfi_offset 4, -16
 804              		.cfi_offset 5, -12
 805              		.cfi_offset 6, -8
 806              		.cfi_offset 14, -4
1331:.\Generated_Source\PSoC4/USBFS.c ****     if ((epNumber > USBFS_EP0) && (epNumber < USBFS_MAX_EP))
 807              		.loc 1 1331 0
 808 0002 431E     		sub	r3, r0, #1
 809 0004 072B     		cmp	r3, #7
 810 0006 5DD8     		bhi	.L58
1332:.\Generated_Source\PSoC4/USBFS.c ****     {
1333:.\Generated_Source\PSoC4/USBFS.c ****     #if (!USBFS_EP_MANAGEMENT_DMA_AUTO)
1334:.\Generated_Source\PSoC4/USBFS.c ****         /* Limit length to available buffer USB IP buffer size.*/
1335:.\Generated_Source\PSoC4/USBFS.c ****         if (length > (USBFS_EPX_DATA_BUF_MAX - USBFS_EP[epNumber].buffOffset))
 811              		.loc 1 1335 0
 812 0008 4300     		lsl	r3, r0, #1
 813 000a 1B18     		add	r3, r3, r0
 814 000c 9B00     		lsl	r3, r3, #2
 815 000e 2E4C     		ldr	r4, .L62
 816 0010 E318     		add	r3, r4, r3
 817 0012 DC88     		ldrh	r4, [r3, #6]
 818 0014 8023     		mov	r3, #128
 819 0016 9B00     		lsl	r3, r3, #2
 820 0018 1B1B     		sub	r3, r3, r4
 821 001a 9A42     		cmp	r2, r3
 822 001c 09D9     		bls	.L60
1336:.\Generated_Source\PSoC4/USBFS.c ****         {
1337:.\Generated_Source\PSoC4/USBFS.c ****             length = USBFS_EPX_DATA_BUF_MAX - USBFS_EP[epNumber].buffOffset;
 823              		.loc 1 1337 0
 824 001e 4300     		lsl	r3, r0, #1
 825 0020 1B18     		add	r3, r3, r0
 826 0022 9B00     		lsl	r3, r3, #2
 827 0024 284A     		ldr	r2, .L62
 828              	.LVL48:
 829 0026 D318     		add	r3, r2, r3
 830 0028 DA88     		ldrh	r2, [r3, #6]
 831 002a 8023     		mov	r3, #128
 832 002c 9B00     		lsl	r3, r3, #2
ARM GAS  C:\Users\LAIR\AppData\Local\Temp\ccdy23dh.s 			page 41


 833 002e 9A1A     		sub	r2, r3, r2
 834 0030 92B2     		uxth	r2, r2
 835              	.LVL49:
 836              	.L60:
1338:.\Generated_Source\PSoC4/USBFS.c ****         }
1339:.\Generated_Source\PSoC4/USBFS.c ****     #endif /* (!USBFS_EP_MANAGEMENT_DMA_AUTO) */
1340:.\Generated_Source\PSoC4/USBFS.c **** 
1341:.\Generated_Source\PSoC4/USBFS.c ****         /* Set count and data toggle. */
1342:.\Generated_Source\PSoC4/USBFS.c ****         USBFS_SIE_EP_BASE.sieEp[epNumber].epCnt0 = (uint32) HI8(length) | USBFS_EP[epNumber].epTogg
 837              		.loc 1 1342 0
 838 0032 130A     		lsr	r3, r2, #8
 839 0034 4400     		lsl	r4, r0, #1
 840 0036 2418     		add	r4, r4, r0
 841 0038 A400     		lsl	r4, r4, #2
 842 003a 234D     		ldr	r5, .L62
 843 003c 2D19     		add	r5, r5, r4
 844 003e EC78     		ldrb	r4, [r5, #3]
 845 0040 1C43     		orr	r4, r3
 846 0042 8301     		lsl	r3, r0, #6
 847 0044 214E     		ldr	r6, .L62+4
 848 0046 9C51     		str	r4, [r3, r6]
1343:.\Generated_Source\PSoC4/USBFS.c ****         USBFS_SIE_EP_BASE.sieEp[epNumber].epCnt1 = (uint32) LO8(length);
 849              		.loc 1 1343 0
 850 0048 D4B2     		uxtb	r4, r2
 851 004a B446     		mov	ip, r6
 852 004c 6344     		add	r3, r3, ip
 853 004e 5C60     		str	r4, [r3, #4]
1344:.\Generated_Source\PSoC4/USBFS.c **** 
1345:.\Generated_Source\PSoC4/USBFS.c ****     #if (USBFS_EP_MANAGEMENT_MANUAL)
1346:.\Generated_Source\PSoC4/USBFS.c ****         if (NULL != pData)
1347:.\Generated_Source\PSoC4/USBFS.c ****         {
1348:.\Generated_Source\PSoC4/USBFS.c **** 			/* Copy data using arbiter data register. */
1349:.\Generated_Source\PSoC4/USBFS.c ****             uint16 i;
1350:.\Generated_Source\PSoC4/USBFS.c ****             for (i = 0u; i < length; ++i)
1351:.\Generated_Source\PSoC4/USBFS.c ****             {
1352:.\Generated_Source\PSoC4/USBFS.c ****                 USBFS_ARB_EP_BASE.arbEp[epNumber].rwDr = pData[i];
1353:.\Generated_Source\PSoC4/USBFS.c ****             }
1354:.\Generated_Source\PSoC4/USBFS.c ****         }
1355:.\Generated_Source\PSoC4/USBFS.c **** 
1356:.\Generated_Source\PSoC4/USBFS.c ****         /* IN endpoint buffer is full - read to be read. */
1357:.\Generated_Source\PSoC4/USBFS.c ****         USBFS_EP[epNumber].apiEpState = USBFS_NO_EVENT_PENDING;
1358:.\Generated_Source\PSoC4/USBFS.c **** 
1359:.\Generated_Source\PSoC4/USBFS.c ****         /* Arm IN endpoint. */
1360:.\Generated_Source\PSoC4/USBFS.c ****         USBFS_SIE_EP_BASE.sieEp[epNumber].epCr0 = USBFS_EP[epNumber].epMode;
1361:.\Generated_Source\PSoC4/USBFS.c **** 
1362:.\Generated_Source\PSoC4/USBFS.c ****     #else
1363:.\Generated_Source\PSoC4/USBFS.c **** 
1364:.\Generated_Source\PSoC4/USBFS.c ****         #if (CY_PSOC3 || CY_PSOC5LP)
1365:.\Generated_Source\PSoC4/USBFS.c ****             /* Initialize DMA if it was not initialized. */
1366:.\Generated_Source\PSoC4/USBFS.c ****             if (DMA_INVALID_TD == USBFS_DmaTd[epNumber])
1367:.\Generated_Source\PSoC4/USBFS.c ****             {
1368:.\Generated_Source\PSoC4/USBFS.c ****                 USBFS_InitEP_DMA(epNumber, pData);
1369:.\Generated_Source\PSoC4/USBFS.c ****             }
1370:.\Generated_Source\PSoC4/USBFS.c ****         #endif /* (CY_PSOC3 || CY_PSOC5LP) */
1371:.\Generated_Source\PSoC4/USBFS.c **** 
1372:.\Generated_Source\PSoC4/USBFS.c ****         #if (USBFS_EP_MANAGEMENT_DMA_MANUAL)
1373:.\Generated_Source\PSoC4/USBFS.c ****             /* IN endpoint buffer will be fully loaded by DMA shortly. */
ARM GAS  C:\Users\LAIR\AppData\Local\Temp\ccdy23dh.s 			page 42


1374:.\Generated_Source\PSoC4/USBFS.c ****             USBFS_EP[epNumber].apiEpState = USBFS_NO_EVENT_PENDING;
 854              		.loc 1 1374 0
 855 0050 0023     		mov	r3, #0
 856 0052 6B70     		strb	r3, [r5, #1]
1375:.\Generated_Source\PSoC4/USBFS.c **** 
1376:.\Generated_Source\PSoC4/USBFS.c ****             if ((pData != NULL) && (length > 0u))
 857              		.loc 1 1376 0
 858 0054 0029     		cmp	r1, #0
 859 0056 29D0     		beq	.L61
 860              		.loc 1 1376 0 is_stmt 0 discriminator 1
 861 0058 002A     		cmp	r2, #0
 862 005a 27D0     		beq	.L61
 863              	.LBB2:
1377:.\Generated_Source\PSoC4/USBFS.c ****             {
1378:.\Generated_Source\PSoC4/USBFS.c ****             #if (CY_PSOC4)
1379:.\Generated_Source\PSoC4/USBFS.c ****                 uint32 channelNum = (uint32) USBFS_DmaChan[epNumber];
 864              		.loc 1 1379 0 is_stmt 1
 865 005c 1C4B     		ldr	r3, .L62+8
 866 005e 1B5C     		ldrb	r3, [r3, r0]
 867              	.LVL50:
1380:.\Generated_Source\PSoC4/USBFS.c **** 
1381:.\Generated_Source\PSoC4/USBFS.c ****                 /* Disable DMA channel: start configuration. */
1382:.\Generated_Source\PSoC4/USBFS.c ****                 USBFS_CyDmaChDisable(channelNum);
 868              		.loc 1 1382 0
 869 0060 1C4D     		ldr	r5, .L62+12
 870 0062 9E00     		lsl	r6, r3, #2
 871 0064 7459     		ldr	r4, [r6, r5]
 872 0066 6400     		lsl	r4, r4, #1
 873 0068 6408     		lsr	r4, r4, #1
 874 006a 7451     		str	r4, [r6, r5]
1383:.\Generated_Source\PSoC4/USBFS.c **** 
1384:.\Generated_Source\PSoC4/USBFS.c ****                 /* Configure source and destination. */
1385:.\Generated_Source\PSoC4/USBFS.c ****                 USBFS_CyDmaSetSrcAddress(channelNum, USBFS_DMA_DESCR0, (void*) pData);
 875              		.loc 1 1385 0
 876 006c 5B01     		lsl	r3, r3, #5
 877              	.LVL51:
 878 006e 1A4C     		ldr	r4, .L62+16
 879 0070 1951     		str	r1, [r3, r4]
1386:.\Generated_Source\PSoC4/USBFS.c ****                 USBFS_CyDmaSetDstAddress(channelNum, USBFS_DMA_DESCR0, (void*) &USBFS_ARB_EP_BASE.a
 880              		.loc 1 1386 0
 881 0072 8101     		lsl	r1, r0, #6
 882              	.LVL52:
 883 0074 194C     		ldr	r4, .L62+20
 884              	.LVL53:
 885 0076 A446     		mov	ip, r4
 886 0078 6144     		add	r1, r1, ip
 887 007a 174C     		ldr	r4, .L62+16
 888              	.LVL54:
 889 007c A446     		mov	ip, r4
 890 007e 6344     		add	r3, r3, ip
 891              	.LVL55:
 892 0080 5960     		str	r1, [r3, #4]
 893              	.LVL56:
1387:.\Generated_Source\PSoC4/USBFS.c **** 
1388:.\Generated_Source\PSoC4/USBFS.c ****                 /* Configure DMA descriptor. */
1389:.\Generated_Source\PSoC4/USBFS.c ****                 --length;
 894              		.loc 1 1389 0
ARM GAS  C:\Users\LAIR\AppData\Local\Temp\ccdy23dh.s 			page 43


 895 0082 013A     		sub	r2, r2, #1
 896              	.LVL57:
 897 0084 92B2     		uxth	r2, r2
 898              	.LVL58:
1390:.\Generated_Source\PSoC4/USBFS.c ****                 USBFS_CyDmaSetConfiguration(channelNum, USBFS_DMA_DESCR0, USBFS_DMA_COMMON_CFG | le
 899              		.loc 1 1390 0
 900 0086 1649     		ldr	r1, .L62+24
 901 0088 0A43     		orr	r2, r1
 902              	.LVL59:
 903 008a 9A60     		str	r2, [r3, #8]
1391:.\Generated_Source\PSoC4/USBFS.c ****                                                         CYDMA_BYTE | CYDMA_ELEMENT_WORD | CYDMA_INC
1392:.\Generated_Source\PSoC4/USBFS.c **** 
1393:.\Generated_Source\PSoC4/USBFS.c ****                 /* Validate descriptor to execute on following DMA request. */
1394:.\Generated_Source\PSoC4/USBFS.c ****                 USBFS_CyDmaValidateDescriptor(channelNum, USBFS_DMA_DESCR0);
 904              		.loc 1 1394 0
 905 008c 8022     		mov	r2, #128
 906 008e 1206     		lsl	r2, r2, #24
 907 0090 DA60     		str	r2, [r3, #12]
1395:.\Generated_Source\PSoC4/USBFS.c **** 
1396:.\Generated_Source\PSoC4/USBFS.c ****                 /* Enable DMA channel: configuration complete. */
1397:.\Generated_Source\PSoC4/USBFS.c ****                 USBFS_CyDmaChEnable(channelNum);
 908              		.loc 1 1397 0
 909 0092 7359     		ldr	r3, [r6, r5]
 910 0094 1343     		orr	r3, r2
 911 0096 7351     		str	r3, [r6, r5]
1398:.\Generated_Source\PSoC4/USBFS.c ****             #else
1399:.\Generated_Source\PSoC4/USBFS.c ****                 /* Configure DMA to transfer data. */
1400:.\Generated_Source\PSoC4/USBFS.c ****                 (void) CyDmaChDisable(USBFS_DmaChan[epNumber]);
1401:.\Generated_Source\PSoC4/USBFS.c ****                 (void) CyDmaTdSetConfiguration(USBFS_DmaTd[epNumber], length, CY_DMA_DISABLE_TD, TD
1402:.\Generated_Source\PSoC4/USBFS.c ****                 (void) CyDmaTdSetAddress(USBFS_DmaTd[epNumber], LO16((uint32) pData), LO16((uint32)
1403:.\Generated_Source\PSoC4/USBFS.c **** 
1404:.\Generated_Source\PSoC4/USBFS.c ****                 /* Enable DMA channel. */
1405:.\Generated_Source\PSoC4/USBFS.c ****                 (void) CyDmaChSetInitialTd(USBFS_DmaChan[epNumber], USBFS_DmaTd[epNumber]);
1406:.\Generated_Source\PSoC4/USBFS.c ****                 (void) CyDmaChEnable(USBFS_DmaChan[epNumber], 1u);
1407:.\Generated_Source\PSoC4/USBFS.c ****             #endif /* (CY_PSOC4) */
1408:.\Generated_Source\PSoC4/USBFS.c **** 
1409:.\Generated_Source\PSoC4/USBFS.c ****                 /* Generate DMA request. */
1410:.\Generated_Source\PSoC4/USBFS.c ****                 USBFS_ARB_EP_BASE.arbEp[epNumber].epCfg |=  (uint32)  USBFS_ARB_EPX_CFG_DMA_REQ;
 912              		.loc 1 1410 0
 913 0098 124B     		ldr	r3, .L62+28
 914 009a 8001     		lsl	r0, r0, #6
 915              	.LVL60:
 916 009c C258     		ldr	r2, [r0, r3]
 917 009e 0221     		mov	r1, #2
 918 00a0 0A43     		orr	r2, r1
 919 00a2 C250     		str	r2, [r0, r3]
1411:.\Generated_Source\PSoC4/USBFS.c ****                 USBFS_ARB_EP_BASE.arbEp[epNumber].epCfg &=  (uint32) ~USBFS_ARB_EPX_CFG_DMA_REQ;
 920              		.loc 1 1411 0
 921 00a4 C258     		ldr	r2, [r0, r3]
 922 00a6 8A43     		bic	r2, r1
 923 00a8 C250     		str	r2, [r0, r3]
 924              	.LBE2:
1377:.\Generated_Source\PSoC4/USBFS.c ****             #if (CY_PSOC4)
 925              		.loc 1 1377 0
 926 00aa 0BE0     		b	.L58
 927              	.LVL61:
 928              	.L61:
ARM GAS  C:\Users\LAIR\AppData\Local\Temp\ccdy23dh.s 			page 44


1412:.\Generated_Source\PSoC4/USBFS.c **** 
1413:.\Generated_Source\PSoC4/USBFS.c ****                 /* IN endpoint will be armed in ARB_ISR(source: IN_BUF_FULL) after first DMA transf
1414:.\Generated_Source\PSoC4/USBFS.c ****             }
1415:.\Generated_Source\PSoC4/USBFS.c ****             else
1416:.\Generated_Source\PSoC4/USBFS.c ****             {
1417:.\Generated_Source\PSoC4/USBFS.c ****                 /* When zero-length packet: arm IN endpoint directly. */
1418:.\Generated_Source\PSoC4/USBFS.c ****                 USBFS_SIE_EP_BASE.sieEp[epNumber].epCr0 = USBFS_EP[epNumber].epMode;
 929              		.loc 1 1418 0
 930 00ac 4300     		lsl	r3, r0, #1
 931 00ae 1B18     		add	r3, r3, r0
 932 00b0 9B00     		lsl	r3, r3, #2
 933 00b2 054A     		ldr	r2, .L62
 934              	.LVL62:
 935 00b4 D318     		add	r3, r2, r3
 936 00b6 5B79     		ldrb	r3, [r3, #5]
 937 00b8 DBB2     		uxtb	r3, r3
 938 00ba 8001     		lsl	r0, r0, #6
 939              	.LVL63:
 940 00bc 034A     		ldr	r2, .L62+4
 941 00be 9446     		mov	ip, r2
 942 00c0 6044     		add	r0, r0, ip
 943 00c2 8360     		str	r3, [r0, #8]
 944              	.LVL64:
 945              	.L58:
1419:.\Generated_Source\PSoC4/USBFS.c ****             }
1420:.\Generated_Source\PSoC4/USBFS.c ****         #endif /* (USBFS_EP_MANAGEMENT_DMA_MANUAL) */
1421:.\Generated_Source\PSoC4/USBFS.c **** 
1422:.\Generated_Source\PSoC4/USBFS.c ****         #if (USBFS_EP_MANAGEMENT_DMA_AUTO)
1423:.\Generated_Source\PSoC4/USBFS.c ****             if (pData != NULL)
1424:.\Generated_Source\PSoC4/USBFS.c ****             {
1425:.\Generated_Source\PSoC4/USBFS.c ****             #if (CY_PSOC4)
1426:.\Generated_Source\PSoC4/USBFS.c ****                 uint32 channelNum = (uint32) USBFS_DmaChan[epNumber];
1427:.\Generated_Source\PSoC4/USBFS.c **** 
1428:.\Generated_Source\PSoC4/USBFS.c ****                 /* Store address of buffer. */
1429:.\Generated_Source\PSoC4/USBFS.c ****                 USBFS_DmaEpBufferAddrBackup[epNumber] = (uint32) pData;
1430:.\Generated_Source\PSoC4/USBFS.c **** 
1431:.\Generated_Source\PSoC4/USBFS.c ****                 /* Disable DMA channel: start configuration. */
1432:.\Generated_Source\PSoC4/USBFS.c ****                 USBFS_CyDmaChDisable(channelNum);
1433:.\Generated_Source\PSoC4/USBFS.c **** 
1434:.\Generated_Source\PSoC4/USBFS.c ****                 /* Set destination address. */
1435:.\Generated_Source\PSoC4/USBFS.c ****                 USBFS_CyDmaSetDstAddress(channelNum, USBFS_DMA_DESCR0, (void*) &USBFS_ARB_EP_BASE.a
1436:.\Generated_Source\PSoC4/USBFS.c ****                 USBFS_CyDmaSetDstAddress(channelNum, USBFS_DMA_DESCR1, (void*) &USBFS_ARB_EP_BASE.a
1437:.\Generated_Source\PSoC4/USBFS.c **** 
1438:.\Generated_Source\PSoC4/USBFS.c ****                 /* Configure DMA descriptor. */
1439:.\Generated_Source\PSoC4/USBFS.c ****                 USBFS_CyDmaSetConfiguration(channelNum, USBFS_DMA_DESCR0, USBFS_DMA_COMMON_CFG  |
1440:.\Generated_Source\PSoC4/USBFS.c ****                                                         CYDMA_BYTE | CYDMA_ELEMENT_WORD | CYDMA_INC
1441:.\Generated_Source\PSoC4/USBFS.c **** 
1442:.\Generated_Source\PSoC4/USBFS.c ****                 /* Configure DMA descriptor. */
1443:.\Generated_Source\PSoC4/USBFS.c ****                 USBFS_CyDmaSetConfiguration(channelNum, USBFS_DMA_DESCR1, USBFS_DMA_COMMON_CFG  |
1444:.\Generated_Source\PSoC4/USBFS.c ****                                                         CYDMA_BYTE | CYDMA_ELEMENT_WORD | CYDMA_INC
1445:.\Generated_Source\PSoC4/USBFS.c **** 
1446:.\Generated_Source\PSoC4/USBFS.c ****                 /* Enable interrupt from DMA channel. */
1447:.\Generated_Source\PSoC4/USBFS.c ****                 USBFS_CyDmaSetInterruptMask(channelNum);
1448:.\Generated_Source\PSoC4/USBFS.c **** 
1449:.\Generated_Source\PSoC4/USBFS.c ****                 /* Validate descriptor 1. It will not be invalided during operation. */
1450:.\Generated_Source\PSoC4/USBFS.c ****                 USBFS_CyDmaValidateDescriptor(channelNum, USBFS_DMA_DESCR1);
1451:.\Generated_Source\PSoC4/USBFS.c **** 
ARM GAS  C:\Users\LAIR\AppData\Local\Temp\ccdy23dh.s 			page 45


1452:.\Generated_Source\PSoC4/USBFS.c ****                 /* Enable DMA channel: configuration complete. */
1453:.\Generated_Source\PSoC4/USBFS.c ****                 USBFS_CyDmaChEnable(channelNum);
1454:.\Generated_Source\PSoC4/USBFS.c **** 
1455:.\Generated_Source\PSoC4/USBFS.c ****             #else
1456:.\Generated_Source\PSoC4/USBFS.c ****                 (void) CyDmaChDisable(USBFS_DmaChan[epNumber]);
1457:.\Generated_Source\PSoC4/USBFS.c **** 
1458:.\Generated_Source\PSoC4/USBFS.c ****                 #if (USBFS_EP_DMA_AUTO_OPT == 0u)
1459:.\Generated_Source\PSoC4/USBFS.c ****                     USBFS_inLength[epNumber] = length;
1460:.\Generated_Source\PSoC4/USBFS.c ****                     USBFS_inDataPointer[epNumber] = pData;
1461:.\Generated_Source\PSoC4/USBFS.c **** 
1462:.\Generated_Source\PSoC4/USBFS.c ****                     /* Configure DMA to send data only for first burst */
1463:.\Generated_Source\PSoC4/USBFS.c ****                     (void) CyDmaTdSetConfiguration(USBFS_DmaTd[epNumber],
1464:.\Generated_Source\PSoC4/USBFS.c ****                         (length > USBFS_DMA_BYTES_PER_BURST) ? USBFS_DMA_BYTES_PER_BURST : length,
1465:.\Generated_Source\PSoC4/USBFS.c ****                         USBFS_DmaNextTd[epNumber], TD_TERMIN_EN | TD_INC_SRC_ADR);
1466:.\Generated_Source\PSoC4/USBFS.c ****                     (void) CyDmaTdSetAddress(USBFS_DmaTd[epNumber], LO16((uint32) pData),
1467:.\Generated_Source\PSoC4/USBFS.c ****                                                                                LO16((uint32) &USBFS
1468:.\Generated_Source\PSoC4/USBFS.c **** 
1469:.\Generated_Source\PSoC4/USBFS.c ****                     /* The second TD will be executed only when the first one fails.
1470:.\Generated_Source\PSoC4/USBFS.c ****                     *  The intention of this TD is to generate NRQ interrupt
1471:.\Generated_Source\PSoC4/USBFS.c ****                     *  and repeat 2 last bytes of the first burst.
1472:.\Generated_Source\PSoC4/USBFS.c ****                     */
1473:.\Generated_Source\PSoC4/USBFS.c ****                     (void) CyDmaTdSetConfiguration(USBFS_DmaNextTd[epNumber], 1u,
1474:.\Generated_Source\PSoC4/USBFS.c ****                                                    USBFS_DmaNextTd[epNumber],
1475:.\Generated_Source\PSoC4/USBFS.c ****                                                    USBFS_epX_TD_TERMOUT_EN[epNumber]);
1476:.\Generated_Source\PSoC4/USBFS.c **** 
1477:.\Generated_Source\PSoC4/USBFS.c ****                     /* Configure DmaNextTd to clear Data Ready status. */
1478:.\Generated_Source\PSoC4/USBFS.c ****                     (void) CyDmaTdSetAddress(USBFS_DmaNextTd[epNumber], LO16((uint32) &clearInDataR
1479:.\Generated_Source\PSoC4/USBFS.c ****                                                                                    LO16((uint32) &U
1480:.\Generated_Source\PSoC4/USBFS.c ****                 #else
1481:.\Generated_Source\PSoC4/USBFS.c ****                     /* Configure DMA to send all data. */
1482:.\Generated_Source\PSoC4/USBFS.c ****                     (void) CyDmaTdSetConfiguration(USBFS_DmaTd[epNumber], length,
1483:.\Generated_Source\PSoC4/USBFS.c ****                                                    USBFS_DmaTd[epNumber], TD_TERMIN_EN | TD_INC_SRC
1484:.\Generated_Source\PSoC4/USBFS.c ****                     (void) CyDmaTdSetAddress(USBFS_DmaTd[epNumber], LO16((uint32) pData),
1485:.\Generated_Source\PSoC4/USBFS.c ****                                                                                LO16((uint32) &USBFS
1486:.\Generated_Source\PSoC4/USBFS.c ****                 #endif /* (USBFS_EP_DMA_AUTO_OPT == 0u) */
1487:.\Generated_Source\PSoC4/USBFS.c **** 
1488:.\Generated_Source\PSoC4/USBFS.c ****                 /* Clear any potential pending DMA requests before starting DMA channel to transfer
1489:.\Generated_Source\PSoC4/USBFS.c ****                 (void) CyDmaClearPendingDrq(USBFS_DmaChan[epNumber]);
1490:.\Generated_Source\PSoC4/USBFS.c ****                 /* Enable DMA. */
1491:.\Generated_Source\PSoC4/USBFS.c ****                 (void) CyDmaChSetInitialTd(USBFS_DmaChan[epNumber], USBFS_DmaTd[epNumber]);
1492:.\Generated_Source\PSoC4/USBFS.c ****                 (void) CyDmaChEnable(USBFS_DmaChan[epNumber], 1u);
1493:.\Generated_Source\PSoC4/USBFS.c ****             #endif /* (CY_PSOC4) */
1494:.\Generated_Source\PSoC4/USBFS.c ****             }
1495:.\Generated_Source\PSoC4/USBFS.c ****             else
1496:.\Generated_Source\PSoC4/USBFS.c ****             {
1497:.\Generated_Source\PSoC4/USBFS.c ****                 /* IN endpoint buffer (32 bytes) will shortly be preloaded by DMA. */
1498:.\Generated_Source\PSoC4/USBFS.c ****                 USBFS_EP[epNumber].apiEpState = USBFS_NO_EVENT_PENDING;
1499:.\Generated_Source\PSoC4/USBFS.c **** 
1500:.\Generated_Source\PSoC4/USBFS.c ****                 if (length > 0u)
1501:.\Generated_Source\PSoC4/USBFS.c ****                 {
1502:.\Generated_Source\PSoC4/USBFS.c ****                 #if (CY_PSOC4)
1503:.\Generated_Source\PSoC4/USBFS.c ****                     uint32 lengthDescr0, lengthDescr1;
1504:.\Generated_Source\PSoC4/USBFS.c ****                     uint32 channelNum = (uint32) USBFS_DmaChan[epNumber];
1505:.\Generated_Source\PSoC4/USBFS.c **** 
1506:.\Generated_Source\PSoC4/USBFS.c ****                     /* Get number of full bursts. */
1507:.\Generated_Source\PSoC4/USBFS.c ****                     USBFS_DmaEpBurstCnt[epNumber] = (uint8) (length / USBFS_DMA_BYTES_PER_BURST);
1508:.\Generated_Source\PSoC4/USBFS.c **** 
ARM GAS  C:\Users\LAIR\AppData\Local\Temp\ccdy23dh.s 			page 46


1509:.\Generated_Source\PSoC4/USBFS.c ****                     /* Get number of elements in the last burst. */
1510:.\Generated_Source\PSoC4/USBFS.c ****                     USBFS_DmaEpLastBurstEl[epNumber] = (uint8) (length % USBFS_DMA_BYTES_PER_BURST)
1511:.\Generated_Source\PSoC4/USBFS.c **** 
1512:.\Generated_Source\PSoC4/USBFS.c ****                     /* Get total number of bursts. */
1513:.\Generated_Source\PSoC4/USBFS.c ****                     USBFS_DmaEpBurstCnt[epNumber] += (0u != USBFS_DmaEpLastBurstEl[epNumber]) ? 1u 
1514:.\Generated_Source\PSoC4/USBFS.c **** 
1515:.\Generated_Source\PSoC4/USBFS.c ****                     /* Adjust number of data elements transferred in last burst. */
1516:.\Generated_Source\PSoC4/USBFS.c ****                     USBFS_DmaEpLastBurstEl[epNumber] = (0u != USBFS_DmaEpLastBurstEl[epNumber]) ?
1517:.\Generated_Source\PSoC4/USBFS.c ****                                                                           (USBFS_DmaEpLastBurstEl[e
1518:.\Generated_Source\PSoC4/USBFS.c ****                                                                           (USBFS_DMA_BYTES_PER_BURS
1519:.\Generated_Source\PSoC4/USBFS.c **** 
1520:.\Generated_Source\PSoC4/USBFS.c ****                     /* Get number of data elements to transfer for descriptor 0 and 1. */
1521:.\Generated_Source\PSoC4/USBFS.c ****                     lengthDescr0 = (1u == USBFS_DmaEpBurstCnt[epNumber]) ? USBFS_DmaEpLastBurstEl[e
1522:.\Generated_Source\PSoC4/USBFS.c ****                     lengthDescr1 = (2u == USBFS_DmaEpBurstCnt[epNumber]) ? USBFS_DmaEpLastBurstEl[e
1523:.\Generated_Source\PSoC4/USBFS.c **** 
1524:.\Generated_Source\PSoC4/USBFS.c **** 
1525:.\Generated_Source\PSoC4/USBFS.c ****                     /* Mark which descriptor is last one to execute. */
1526:.\Generated_Source\PSoC4/USBFS.c ****                     USBFS_DmaEpLastBurstEl[epNumber] |= (0u != (USBFS_DmaEpBurstCnt[epNumber] & 0x1
1527:.\Generated_Source\PSoC4/USBFS.c ****                                                                             USBFS_DMA_DESCR0_MASK :
1528:.\Generated_Source\PSoC4/USBFS.c **** 
1529:.\Generated_Source\PSoC4/USBFS.c ****                     /* Adjust burst counter taking to account: 2 valid descriptors and interrupt tr
1530:.\Generated_Source\PSoC4/USBFS.c ****                     USBFS_DmaEpBurstCnt[epNumber] = USBFS_DMA_GET_BURST_CNT(USBFS_DmaEpBurstCnt[epN
1531:.\Generated_Source\PSoC4/USBFS.c **** 
1532:.\Generated_Source\PSoC4/USBFS.c ****                     /* Restore DMA settings for current transfer. */
1533:.\Generated_Source\PSoC4/USBFS.c ****                     USBFS_CyDmaChDisable(channelNum);
1534:.\Generated_Source\PSoC4/USBFS.c **** 
1535:.\Generated_Source\PSoC4/USBFS.c ****                     /* Restore destination address for input endpoint. */
1536:.\Generated_Source\PSoC4/USBFS.c ****                     USBFS_CyDmaSetSrcAddress(channelNum, USBFS_DMA_DESCR0, (void*) ((uint32) USBFS_
1537:.\Generated_Source\PSoC4/USBFS.c ****                     USBFS_CyDmaSetSrcAddress(channelNum, USBFS_DMA_DESCR1, (void*) ((uint32) USBFS_
1538:.\Generated_Source\PSoC4/USBFS.c ****                                                                                                    
1539:.\Generated_Source\PSoC4/USBFS.c **** 
1540:.\Generated_Source\PSoC4/USBFS.c ****                     /* Set number of elements to transfer. */
1541:.\Generated_Source\PSoC4/USBFS.c ****                     USBFS_CyDmaSetNumDataElements(channelNum, USBFS_DMA_DESCR0, lengthDescr0);
1542:.\Generated_Source\PSoC4/USBFS.c ****                     USBFS_CyDmaSetNumDataElements(channelNum, USBFS_DMA_DESCR1, lengthDescr1);
1543:.\Generated_Source\PSoC4/USBFS.c **** 
1544:.\Generated_Source\PSoC4/USBFS.c ****                     /* Validate descriptor 0 and command to start with it. */
1545:.\Generated_Source\PSoC4/USBFS.c ****                     USBFS_CyDmaValidateDescriptor(channelNum, USBFS_DMA_DESCR0);
1546:.\Generated_Source\PSoC4/USBFS.c ****                     USBFS_CyDmaSetDescriptor0Next(channelNum);
1547:.\Generated_Source\PSoC4/USBFS.c **** 
1548:.\Generated_Source\PSoC4/USBFS.c ****                     /* Enable DMA channel: configuration complete. */
1549:.\Generated_Source\PSoC4/USBFS.c ****                     USBFS_CyDmaChEnable(channelNum);
1550:.\Generated_Source\PSoC4/USBFS.c **** 
1551:.\Generated_Source\PSoC4/USBFS.c ****                 #elif (USBFS_EP_DMA_AUTO_OPT == 0u)
1552:.\Generated_Source\PSoC4/USBFS.c ****                     USBFS_inLength[epNumber]  = length;
1553:.\Generated_Source\PSoC4/USBFS.c ****                     USBFS_inBufFull[epNumber] = 0u;
1554:.\Generated_Source\PSoC4/USBFS.c **** 
1555:.\Generated_Source\PSoC4/USBFS.c ****                     (void) CyDmaChDisable(USBFS_DmaChan[epNumber]);
1556:.\Generated_Source\PSoC4/USBFS.c ****                     /* Configure DMA to send data only for first burst. */
1557:.\Generated_Source\PSoC4/USBFS.c ****                     (void) CyDmaTdSetConfiguration(
1558:.\Generated_Source\PSoC4/USBFS.c ****                         USBFS_DmaTd[epNumber], (length > USBFS_DMA_BYTES_PER_BURST) ?
1559:.\Generated_Source\PSoC4/USBFS.c ****                         USBFS_DMA_BYTES_PER_BURST : length,
1560:.\Generated_Source\PSoC4/USBFS.c ****                         USBFS_DmaNextTd[epNumber], TD_TERMIN_EN | TD_INC_SRC_ADR );
1561:.\Generated_Source\PSoC4/USBFS.c ****                     (void) CyDmaTdSetAddress(USBFS_DmaTd[epNumber], LO16((uint32)  USBFS_inDataPoin
1562:.\Generated_Source\PSoC4/USBFS.c ****                                                                                LO16((uint32) &USBFS
1563:.\Generated_Source\PSoC4/USBFS.c ****                     /* Clear Any potential pending DMA requests before starting DMA channel to tran
1564:.\Generated_Source\PSoC4/USBFS.c ****                     (void) CyDmaClearPendingDrq(USBFS_DmaChan[epNumber]);
1565:.\Generated_Source\PSoC4/USBFS.c ****                     /* Enable DMA. */
ARM GAS  C:\Users\LAIR\AppData\Local\Temp\ccdy23dh.s 			page 47


1566:.\Generated_Source\PSoC4/USBFS.c ****                     (void) CyDmaChSetInitialTd(USBFS_DmaChan[epNumber], USBFS_DmaTd[epNumber]);
1567:.\Generated_Source\PSoC4/USBFS.c ****                     (void) CyDmaChEnable(USBFS_DmaChan[epNumber], 1u);
1568:.\Generated_Source\PSoC4/USBFS.c ****                 #endif /* (CY_PSOC4) */
1569:.\Generated_Source\PSoC4/USBFS.c **** 
1570:.\Generated_Source\PSoC4/USBFS.c ****                 #if !defined (USBFS_MANUAL_IN_EP_ARM)
1571:.\Generated_Source\PSoC4/USBFS.c ****                     /* Set IN data ready to generate DMA request to load data into endpoint buffer.
1572:.\Generated_Source\PSoC4/USBFS.c ****                     USBFS_ARB_EP_BASE.arbEp[epNumber].epCfg |= USBFS_ARB_EPX_CFG_IN_DATA_RDY;
1573:.\Generated_Source\PSoC4/USBFS.c ****                 #endif  /* (USBFS_MANUAL_IN_EP_ARM) */
1574:.\Generated_Source\PSoC4/USBFS.c **** 
1575:.\Generated_Source\PSoC4/USBFS.c ****                     /* IN endpoint will be armed in ARB_ISR(source: IN_BUF_FULL) after first DMA tr
1576:.\Generated_Source\PSoC4/USBFS.c ****                 }
1577:.\Generated_Source\PSoC4/USBFS.c ****                 else
1578:.\Generated_Source\PSoC4/USBFS.c ****                 {
1579:.\Generated_Source\PSoC4/USBFS.c ****                     /* When zero-length packet: arm IN endpoint directly. */
1580:.\Generated_Source\PSoC4/USBFS.c ****                     USBFS_SIE_EP_BASE.sieEp[epNumber].epCr0 = USBFS_EP[epNumber].epMode;
1581:.\Generated_Source\PSoC4/USBFS.c ****                 }
1582:.\Generated_Source\PSoC4/USBFS.c ****             }
1583:.\Generated_Source\PSoC4/USBFS.c ****         #endif /* (USBFS_EP_MANAGEMENT_DMA_AUTO) */
1584:.\Generated_Source\PSoC4/USBFS.c ****     #endif /* (USBFS_EP_MANAGEMENT_MANUAL) */
1585:.\Generated_Source\PSoC4/USBFS.c ****     }
1586:.\Generated_Source\PSoC4/USBFS.c **** }
 946              		.loc 1 1586 0
 947              		@ sp needed
 948 00c4 70BD     		pop	{r4, r5, r6, pc}
 949              	.L63:
 950 00c6 C046     		.align	2
 951              	.L62:
 952 00c8 00000000 		.word	USBFS_EP
 953 00cc F0FF2B40 		.word	1076625392
 954 00d0 00000000 		.word	.LANCHOR1
 955 00d4 80101040 		.word	1074794624
 956 00d8 00181040 		.word	1074796544
 957 00dc E0012C40 		.word	1076625888
 958 00e0 00009054 		.word	1418723328
 959 00e4 C0012C40 		.word	1076625856
 960              		.cfi_endproc
 961              	.LFE78:
 962              		.size	USBFS_LoadInEP, .-USBFS_LoadInEP
 963              		.section	.text.USBFS_ReadOutEP,"ax",%progbits
 964              		.align	2
 965              		.global	USBFS_ReadOutEP
 966              		.code	16
 967              		.thumb_func
 968              		.type	USBFS_ReadOutEP, %function
 969              	USBFS_ReadOutEP:
 970              	.LFB79:
1587:.\Generated_Source\PSoC4/USBFS.c **** 
1588:.\Generated_Source\PSoC4/USBFS.c **** 
1589:.\Generated_Source\PSoC4/USBFS.c **** /*******************************************************************************
1590:.\Generated_Source\PSoC4/USBFS.c **** * Function Name: USBFS_ReadOutEP
1591:.\Generated_Source\PSoC4/USBFS.c **** ****************************************************************************//**
1592:.\Generated_Source\PSoC4/USBFS.c **** *
1593:.\Generated_Source\PSoC4/USBFS.c **** *   This function performs different functionality depending on the Component’s
1594:.\Generated_Source\PSoC4/USBFS.c **** *   configured Endpoint Buffer Management. This parameter is defined in the
1595:.\Generated_Source\PSoC4/USBFS.c **** *   Descriptor Root in Component Configure window.
1596:.\Generated_Source\PSoC4/USBFS.c **** *
1597:.\Generated_Source\PSoC4/USBFS.c **** *   *Manual (Static/Dynamic Allocation):*
ARM GAS  C:\Users\LAIR\AppData\Local\Temp\ccdy23dh.s 			page 48


1598:.\Generated_Source\PSoC4/USBFS.c **** *   This function moves the specified number of bytes from endpoint buffer to
1599:.\Generated_Source\PSoC4/USBFS.c **** *   system RAM. The number of bytes actually transferred from endpoint buffer to
1600:.\Generated_Source\PSoC4/USBFS.c **** *   system RAM is the lesser of the actual number of bytes sent by the host or
1601:.\Generated_Source\PSoC4/USBFS.c **** *   the number of bytes requested by the length parameter.
1602:.\Generated_Source\PSoC4/USBFS.c **** *
1603:.\Generated_Source\PSoC4/USBFS.c **** *   *DMA with Manual Buffer Management:*
1604:.\Generated_Source\PSoC4/USBFS.c **** *   Configure DMA to transfer data from endpoint buffer to system RAM. Generate
1605:.\Generated_Source\PSoC4/USBFS.c **** *   a DMA request. The firmware must wait until the DMA completes the data
1606:.\Generated_Source\PSoC4/USBFS.c **** *   transfer after calling the USBFS_ReadOutEP() API. For example,
1607:.\Generated_Source\PSoC4/USBFS.c **** *   by checking EPstate:
1608:.\Generated_Source\PSoC4/USBFS.c **** *
1609:.\Generated_Source\PSoC4/USBFS.c **** *   \snippet /USBFS_sut_02.cydsn/main.c checking EPstatey
1610:.\Generated_Source\PSoC4/USBFS.c **** *
1611:.\Generated_Source\PSoC4/USBFS.c **** *   The USBFS_EnableOutEP() has to be called to allow host to write data into
1612:.\Generated_Source\PSoC4/USBFS.c **** *   the endpoint buffer after DMA has completed transfer data from OUT endpoint
1613:.\Generated_Source\PSoC4/USBFS.c **** *   buffer to SRAM.
1614:.\Generated_Source\PSoC4/USBFS.c **** *
1615:.\Generated_Source\PSoC4/USBFS.c **** *   *DMA with Automatic Buffer Management:*
1616:.\Generated_Source\PSoC4/USBFS.c **** *   Configure DMA. This is required only once and automatically generates DMA
1617:.\Generated_Source\PSoC4/USBFS.c **** *   requests as data arrives
1618:.\Generated_Source\PSoC4/USBFS.c **** *
1619:.\Generated_Source\PSoC4/USBFS.c **** *  \param epNumber: Contains the data endpoint number.
1620:.\Generated_Source\PSoC4/USBFS.c **** *            Valid values are between 1 and 8.
1621:.\Generated_Source\PSoC4/USBFS.c **** *  \param pData: A pointer to a data array from which the data for the endpoint
1622:.\Generated_Source\PSoC4/USBFS.c **** *         space is loaded.
1623:.\Generated_Source\PSoC4/USBFS.c **** *  \param length: The number of bytes to transfer from the USB Out endpoint and
1624:.\Generated_Source\PSoC4/USBFS.c **** *          loads it into data array. Valid values are between 0 and 1023. The
1625:.\Generated_Source\PSoC4/USBFS.c **** *          function moves fewer than the requested number of bytes if the host
1626:.\Generated_Source\PSoC4/USBFS.c **** *          sends fewer bytes than requested.
1627:.\Generated_Source\PSoC4/USBFS.c **** *
1628:.\Generated_Source\PSoC4/USBFS.c **** * \return
1629:.\Generated_Source\PSoC4/USBFS.c **** *  Number of bytes received, 0 for an invalid endpoint.
1630:.\Generated_Source\PSoC4/USBFS.c **** *
1631:.\Generated_Source\PSoC4/USBFS.c **** * \reentrant
1632:.\Generated_Source\PSoC4/USBFS.c **** *  No.
1633:.\Generated_Source\PSoC4/USBFS.c **** *
1634:.\Generated_Source\PSoC4/USBFS.c **** *******************************************************************************/
1635:.\Generated_Source\PSoC4/USBFS.c **** uint16 USBFS_ReadOutEP(uint8 epNumber, uint8 pData[], uint16 length)
1636:.\Generated_Source\PSoC4/USBFS.c ****                                                                         
1637:.\Generated_Source\PSoC4/USBFS.c **** {
 971              		.loc 1 1637 0
 972              		.cfi_startproc
 973              	.LVL65:
 974 0000 F8B5     		push	{r3, r4, r5, r6, r7, lr}
 975              		.cfi_def_cfa_offset 24
 976              		.cfi_offset 3, -24
 977              		.cfi_offset 4, -20
 978              		.cfi_offset 5, -16
 979              		.cfi_offset 6, -12
 980              		.cfi_offset 7, -8
 981              		.cfi_offset 14, -4
 982 0002 041C     		mov	r4, r0
 983 0004 0E1C     		mov	r6, r1
 984 0006 151C     		mov	r5, r2
1638:.\Generated_Source\PSoC4/USBFS.c ****     if ((pData != NULL) && (epNumber > USBFS_EP0) && (epNumber < USBFS_MAX_EP))
 985              		.loc 1 1638 0
 986 0008 0029     		cmp	r1, #0
ARM GAS  C:\Users\LAIR\AppData\Local\Temp\ccdy23dh.s 			page 49


 987 000a 30D0     		beq	.L67
 988              		.loc 1 1638 0 is_stmt 0 discriminator 1
 989 000c 0028     		cmp	r0, #0
 990 000e 30D0     		beq	.L68
 991              		.loc 1 1638 0 discriminator 2
 992 0010 0828     		cmp	r0, #8
 993 0012 30D8     		bhi	.L69
1639:.\Generated_Source\PSoC4/USBFS.c ****     {
1640:.\Generated_Source\PSoC4/USBFS.c ****     #if (!USBFS_EP_MANAGEMENT_DMA_AUTO)
1641:.\Generated_Source\PSoC4/USBFS.c ****         /* Adjust requested length to available data. */
1642:.\Generated_Source\PSoC4/USBFS.c ****         length = (length > USBFS_GetEPCount(epNumber)) ? USBFS_GetEPCount(epNumber) : length;
 994              		.loc 1 1642 0 is_stmt 1
 995 0014 FFF7FEFF 		bl	USBFS_GetEPCount
 996              	.LVL66:
 997 0018 A842     		cmp	r0, r5
 998 001a 03D2     		bcs	.L66
 999              		.loc 1 1642 0 is_stmt 0 discriminator 1
 1000 001c 201C     		mov	r0, r4
 1001 001e FFF7FEFF 		bl	USBFS_GetEPCount
 1002              	.LVL67:
 1003 0022 051C     		mov	r5, r0
 1004              	.L66:
 1005              	.LVL68:
 1006              	.LBB3:
1643:.\Generated_Source\PSoC4/USBFS.c ****     #endif /* (!USBFS_EP_MANAGEMENT_DMA_AUTO) */
1644:.\Generated_Source\PSoC4/USBFS.c **** 
1645:.\Generated_Source\PSoC4/USBFS.c ****     #if (USBFS_EP_MANAGEMENT_MANUAL)
1646:.\Generated_Source\PSoC4/USBFS.c ****         {
1647:.\Generated_Source\PSoC4/USBFS.c ****             /* Copy data using arbiter data register. */
1648:.\Generated_Source\PSoC4/USBFS.c ****             uint16 i;
1649:.\Generated_Source\PSoC4/USBFS.c ****             for (i = 0u; i < length; ++i)
1650:.\Generated_Source\PSoC4/USBFS.c ****             {
1651:.\Generated_Source\PSoC4/USBFS.c ****                 pData[i] = (uint8) USBFS_ARB_EP_BASE.arbEp[epNumber].rwDr;
1652:.\Generated_Source\PSoC4/USBFS.c ****             }
1653:.\Generated_Source\PSoC4/USBFS.c ****         }
1654:.\Generated_Source\PSoC4/USBFS.c **** 
1655:.\Generated_Source\PSoC4/USBFS.c ****         /* Arm OUT endpoint after data has been copied from endpoint buffer. */
1656:.\Generated_Source\PSoC4/USBFS.c ****         USBFS_EnableOutEP(epNumber);
1657:.\Generated_Source\PSoC4/USBFS.c ****     #else
1658:.\Generated_Source\PSoC4/USBFS.c **** 
1659:.\Generated_Source\PSoC4/USBFS.c ****         #if (CY_PSOC3 || CY_PSOC5LP)
1660:.\Generated_Source\PSoC4/USBFS.c ****             /* Initialize DMA if it was not initialized. */
1661:.\Generated_Source\PSoC4/USBFS.c ****             if (DMA_INVALID_TD == USBFS_DmaTd[epNumber])
1662:.\Generated_Source\PSoC4/USBFS.c ****             {
1663:.\Generated_Source\PSoC4/USBFS.c ****                 USBFS_InitEP_DMA(epNumber, pData);
1664:.\Generated_Source\PSoC4/USBFS.c ****             }
1665:.\Generated_Source\PSoC4/USBFS.c ****         #endif /* (CY_PSOC3 || CY_PSOC5LP) */
1666:.\Generated_Source\PSoC4/USBFS.c **** 
1667:.\Generated_Source\PSoC4/USBFS.c ****         #if (USBFS_EP_MANAGEMENT_DMA_MANUAL)
1668:.\Generated_Source\PSoC4/USBFS.c ****         #if (CY_PSOC4)
1669:.\Generated_Source\PSoC4/USBFS.c ****         {
1670:.\Generated_Source\PSoC4/USBFS.c ****             uint32 channelNum = (uint32) USBFS_DmaChan[epNumber];
 1007              		.loc 1 1670 0 is_stmt 1 discriminator 4
 1008 0024 154B     		ldr	r3, .L70
 1009 0026 1B5D     		ldrb	r3, [r3, r4]
 1010              	.LVL69:
1671:.\Generated_Source\PSoC4/USBFS.c **** 
ARM GAS  C:\Users\LAIR\AppData\Local\Temp\ccdy23dh.s 			page 50


1672:.\Generated_Source\PSoC4/USBFS.c ****             /* Disable DMA channel: start configuration. */
1673:.\Generated_Source\PSoC4/USBFS.c ****             USBFS_CyDmaChDisable(channelNum);
 1011              		.loc 1 1673 0 discriminator 4
 1012 0028 1549     		ldr	r1, .L70+4
 1013 002a 9800     		lsl	r0, r3, #2
 1014 002c 4258     		ldr	r2, [r0, r1]
 1015 002e 5200     		lsl	r2, r2, #1
 1016 0030 5208     		lsr	r2, r2, #1
 1017 0032 4250     		str	r2, [r0, r1]
1674:.\Generated_Source\PSoC4/USBFS.c **** 
1675:.\Generated_Source\PSoC4/USBFS.c ****             /* Configure source and destination. */
1676:.\Generated_Source\PSoC4/USBFS.c ****             USBFS_CyDmaSetSrcAddress(channelNum, USBFS_DMA_DESCR0, (void*) &USBFS_ARB_EP_BASE.arbEp
 1018              		.loc 1 1676 0 discriminator 4
 1019 0034 A401     		lsl	r4, r4, #6
 1020 0036 134A     		ldr	r2, .L70+8
 1021 0038 A718     		add	r7, r4, r2
 1022 003a 5B01     		lsl	r3, r3, #5
 1023              	.LVL70:
 1024 003c 124A     		ldr	r2, .L70+12
 1025 003e 9F50     		str	r7, [r3, r2]
1677:.\Generated_Source\PSoC4/USBFS.c ****             USBFS_CyDmaSetDstAddress(channelNum, USBFS_DMA_DESCR0, (void*) pData);
 1026              		.loc 1 1677 0 discriminator 4
 1027 0040 9446     		mov	ip, r2
 1028 0042 6344     		add	r3, r3, ip
 1029 0044 5E60     		str	r6, [r3, #4]
1678:.\Generated_Source\PSoC4/USBFS.c **** 
1679:.\Generated_Source\PSoC4/USBFS.c ****             /* Configure DMA descriptor. */
1680:.\Generated_Source\PSoC4/USBFS.c ****             USBFS_CyDmaSetConfiguration(channelNum, USBFS_DMA_DESCR0, USBFS_DMA_COMMON_CFG | (uint1
 1030              		.loc 1 1680 0 discriminator 4
 1031 0046 6A1E     		sub	r2, r5, #1
 1032 0048 92B2     		uxth	r2, r2
 1033 004a 104E     		ldr	r6, .L70+16
 1034              	.LVL71:
 1035 004c 3243     		orr	r2, r6
 1036 004e 9A60     		str	r2, [r3, #8]
 1037              	.LVL72:
1681:.\Generated_Source\PSoC4/USBFS.c ****                                                     CYDMA_BYTE | CYDMA_WORD_ELEMENT | CYDMA_INC_DST
1682:.\Generated_Source\PSoC4/USBFS.c **** 
1683:.\Generated_Source\PSoC4/USBFS.c ****             /* Validate descriptor to execute on following DMA request. */
1684:.\Generated_Source\PSoC4/USBFS.c ****             USBFS_CyDmaValidateDescriptor(channelNum, USBFS_DMA_DESCR0);
 1038              		.loc 1 1684 0 discriminator 4
 1039 0050 8022     		mov	r2, #128
 1040 0052 1206     		lsl	r2, r2, #24
 1041 0054 DA60     		str	r2, [r3, #12]
1685:.\Generated_Source\PSoC4/USBFS.c **** 
1686:.\Generated_Source\PSoC4/USBFS.c ****             /* Enable DMA channel: configuration complete. */
1687:.\Generated_Source\PSoC4/USBFS.c ****             USBFS_CyDmaChEnable(channelNum);
 1042              		.loc 1 1687 0 discriminator 4
 1043 0056 4358     		ldr	r3, [r0, r1]
 1044 0058 1343     		orr	r3, r2
 1045 005a 4350     		str	r3, [r0, r1]
 1046              	.LBE3:
1688:.\Generated_Source\PSoC4/USBFS.c ****         }
1689:.\Generated_Source\PSoC4/USBFS.c ****         #else
1690:.\Generated_Source\PSoC4/USBFS.c ****             /* Configure DMA to transfer data. */
1691:.\Generated_Source\PSoC4/USBFS.c ****             (void) CyDmaChDisable(USBFS_DmaChan[epNumber]);
1692:.\Generated_Source\PSoC4/USBFS.c ****             (void) CyDmaTdSetConfiguration(USBFS_DmaTd[epNumber], length, CY_DMA_DISABLE_TD, TD_TER
ARM GAS  C:\Users\LAIR\AppData\Local\Temp\ccdy23dh.s 			page 51


1693:.\Generated_Source\PSoC4/USBFS.c ****             (void) CyDmaTdSetAddress(USBFS_DmaTd[epNumber], LO16((uint32) &USBFS_ARB_EP_BASE.arbEp[
1694:.\Generated_Source\PSoC4/USBFS.c **** 
1695:.\Generated_Source\PSoC4/USBFS.c ****             /* Enable DMA channel. */
1696:.\Generated_Source\PSoC4/USBFS.c ****             (void) CyDmaChSetInitialTd(USBFS_DmaChan[epNumber], USBFS_DmaTd[epNumber]);
1697:.\Generated_Source\PSoC4/USBFS.c ****             (void) CyDmaChEnable(USBFS_DmaChan[epNumber], 1u);
1698:.\Generated_Source\PSoC4/USBFS.c ****         #endif /* (CY_PSOC4) */
1699:.\Generated_Source\PSoC4/USBFS.c **** 
1700:.\Generated_Source\PSoC4/USBFS.c ****             /* Generate DMA request. */
1701:.\Generated_Source\PSoC4/USBFS.c ****             USBFS_ARB_EP_BASE.arbEp[epNumber].epCfg |=  (uint32)  USBFS_ARB_EPX_CFG_DMA_REQ;
 1047              		.loc 1 1701 0 discriminator 4
 1048 005c 0C4B     		ldr	r3, .L70+20
 1049 005e E258     		ldr	r2, [r4, r3]
 1050 0060 0221     		mov	r1, #2
 1051 0062 0A43     		orr	r2, r1
 1052 0064 E250     		str	r2, [r4, r3]
1702:.\Generated_Source\PSoC4/USBFS.c ****             USBFS_ARB_EP_BASE.arbEp[epNumber].epCfg &=  (uint32) ~USBFS_ARB_EPX_CFG_DMA_REQ;
 1053              		.loc 1 1702 0 discriminator 4
 1054 0066 E258     		ldr	r2, [r4, r3]
 1055 0068 8A43     		bic	r2, r1
 1056 006a E250     		str	r2, [r4, r3]
 1057 006c 04E0     		b	.L65
 1058              	.LVL73:
 1059              	.L67:
1703:.\Generated_Source\PSoC4/USBFS.c **** 
1704:.\Generated_Source\PSoC4/USBFS.c ****             /* OUT endpoint has to be armed again by user when DMA transfers have been completed.
1705:.\Generated_Source\PSoC4/USBFS.c ****             * NO_EVENT_PENDING: notifies that data has been copied from endpoint buffer.
1706:.\Generated_Source\PSoC4/USBFS.c ****             */
1707:.\Generated_Source\PSoC4/USBFS.c **** 
1708:.\Generated_Source\PSoC4/USBFS.c ****         #endif /* (USBFS_EP_MANAGEMENT_DMA_MANUAL) */
1709:.\Generated_Source\PSoC4/USBFS.c **** 
1710:.\Generated_Source\PSoC4/USBFS.c ****         #if (USBFS_EP_MANAGEMENT_DMA_AUTO)
1711:.\Generated_Source\PSoC4/USBFS.c ****         #if (CY_PSOC4)
1712:.\Generated_Source\PSoC4/USBFS.c ****         {
1713:.\Generated_Source\PSoC4/USBFS.c ****             uint32 channelNum = (uint32) USBFS_DmaChan[epNumber];
1714:.\Generated_Source\PSoC4/USBFS.c ****             uint32 lengthDescr0, lengthDescr1;
1715:.\Generated_Source\PSoC4/USBFS.c **** 
1716:.\Generated_Source\PSoC4/USBFS.c ****             /* Get number of full bursts. */
1717:.\Generated_Source\PSoC4/USBFS.c ****             USBFS_DmaEpBurstCnt[epNumber] = (uint8) (length / USBFS_DMA_BYTES_PER_BURST);
1718:.\Generated_Source\PSoC4/USBFS.c **** 
1719:.\Generated_Source\PSoC4/USBFS.c ****             /* Get number of elements in the last burst. */
1720:.\Generated_Source\PSoC4/USBFS.c ****             USBFS_DmaEpLastBurstEl[epNumber] = (uint8) (length % USBFS_DMA_BYTES_PER_BURST);
1721:.\Generated_Source\PSoC4/USBFS.c **** 
1722:.\Generated_Source\PSoC4/USBFS.c ****             /* Get total number of bursts. */
1723:.\Generated_Source\PSoC4/USBFS.c ****             USBFS_DmaEpBurstCnt[epNumber] += (0u != USBFS_DmaEpLastBurstEl[epNumber]) ? 1u : 0u;
1724:.\Generated_Source\PSoC4/USBFS.c **** 
1725:.\Generated_Source\PSoC4/USBFS.c ****             /* Adjust number of the data elements transfered in last burst. */
1726:.\Generated_Source\PSoC4/USBFS.c ****             USBFS_DmaEpLastBurstEl[epNumber] = (0u != USBFS_DmaEpLastBurstEl[epNumber]) ?
1727:.\Generated_Source\PSoC4/USBFS.c ****                                                                   (USBFS_DmaEpLastBurstEl[epNumber]
1728:.\Generated_Source\PSoC4/USBFS.c ****                                                                   (USBFS_DMA_BYTES_PER_BURST - 1u);
1729:.\Generated_Source\PSoC4/USBFS.c **** 
1730:.\Generated_Source\PSoC4/USBFS.c ****             /* Get number of data elements to transfer for descriptor 0 and 1. */
1731:.\Generated_Source\PSoC4/USBFS.c ****             lengthDescr0 = (1u == USBFS_DmaEpBurstCnt[epNumber]) ? USBFS_DmaEpLastBurstEl[epNumber]
1732:.\Generated_Source\PSoC4/USBFS.c ****             lengthDescr1 = (2u == USBFS_DmaEpBurstCnt[epNumber]) ? USBFS_DmaEpLastBurstEl[epNumber]
1733:.\Generated_Source\PSoC4/USBFS.c **** 
1734:.\Generated_Source\PSoC4/USBFS.c ****             /* Mark if revert number of data elements in descriptor after transfer completion. */
1735:.\Generated_Source\PSoC4/USBFS.c ****             USBFS_DmaEpLastBurstEl[epNumber] |= (USBFS_DmaEpBurstCnt[epNumber] > 2u) ? USBFS_DMA_DE
1736:.\Generated_Source\PSoC4/USBFS.c **** 
ARM GAS  C:\Users\LAIR\AppData\Local\Temp\ccdy23dh.s 			page 52


1737:.\Generated_Source\PSoC4/USBFS.c ****             /* Mark last descriptor to be executed. */
1738:.\Generated_Source\PSoC4/USBFS.c ****             USBFS_DmaEpLastBurstEl[epNumber] |= (0u != (USBFS_DmaEpBurstCnt[epNumber] & 0x1u)) ?
1739:.\Generated_Source\PSoC4/USBFS.c ****                                                                     USBFS_DMA_DESCR0_MASK : USBFS_D
1740:.\Generated_Source\PSoC4/USBFS.c **** 
1741:.\Generated_Source\PSoC4/USBFS.c ****             /* Adjust burst counter taking to account: 2 valid descriptors and interrupt trigger af
1742:.\Generated_Source\PSoC4/USBFS.c ****             USBFS_DmaEpBurstCnt[epNumber] = USBFS_DMA_GET_BURST_CNT(USBFS_DmaEpBurstCnt[epNumber]);
1743:.\Generated_Source\PSoC4/USBFS.c **** 
1744:.\Generated_Source\PSoC4/USBFS.c ****             /* Store address of buffer and burst counter for endpoint. */
1745:.\Generated_Source\PSoC4/USBFS.c ****             USBFS_DmaEpBufferAddrBackup[epNumber] = (uint32) pData;
1746:.\Generated_Source\PSoC4/USBFS.c ****             USBFS_DmaEpBurstCntBackup[epNumber]   = USBFS_DmaEpBurstCnt[epNumber];
1747:.\Generated_Source\PSoC4/USBFS.c **** 
1748:.\Generated_Source\PSoC4/USBFS.c ****             /* Disable DMA channel: start configuration. */
1749:.\Generated_Source\PSoC4/USBFS.c ****             USBFS_CyDmaChDisable(channelNum);
1750:.\Generated_Source\PSoC4/USBFS.c **** 
1751:.\Generated_Source\PSoC4/USBFS.c ****             /* Set destination address. */
1752:.\Generated_Source\PSoC4/USBFS.c ****             USBFS_CyDmaSetSrcAddress(channelNum, USBFS_DMA_DESCR0, (void*) &USBFS_ARB_EP_BASE.arbEp
1753:.\Generated_Source\PSoC4/USBFS.c ****             USBFS_CyDmaSetSrcAddress(channelNum, USBFS_DMA_DESCR1, (void*) &USBFS_ARB_EP_BASE.arbEp
1754:.\Generated_Source\PSoC4/USBFS.c **** 
1755:.\Generated_Source\PSoC4/USBFS.c ****             USBFS_CyDmaSetDstAddress(channelNum, USBFS_DMA_DESCR0, (void*) ((uint32) pData));
1756:.\Generated_Source\PSoC4/USBFS.c ****             USBFS_CyDmaSetDstAddress(channelNum, USBFS_DMA_DESCR1, (void*) ((uint32) pData + USBFS_
1757:.\Generated_Source\PSoC4/USBFS.c **** 
1758:.\Generated_Source\PSoC4/USBFS.c ****             /* Configure DMA descriptor. */
1759:.\Generated_Source\PSoC4/USBFS.c ****             USBFS_CyDmaSetConfiguration(channelNum, USBFS_DMA_DESCR0, USBFS_DMA_COMMON_CFG  | lengt
1760:.\Generated_Source\PSoC4/USBFS.c ****                                                     CYDMA_BYTE | CYDMA_WORD_ELEMENT | CYDMA_INC_DST
1761:.\Generated_Source\PSoC4/USBFS.c **** 
1762:.\Generated_Source\PSoC4/USBFS.c ****             /* Configure DMA descriptor. */
1763:.\Generated_Source\PSoC4/USBFS.c ****             USBFS_CyDmaSetConfiguration(channelNum, USBFS_DMA_DESCR1, USBFS_DMA_COMMON_CFG  | lengt
1764:.\Generated_Source\PSoC4/USBFS.c ****                                                     CYDMA_BYTE | CYDMA_WORD_ELEMENT | CYDMA_INC_DST
1765:.\Generated_Source\PSoC4/USBFS.c **** 
1766:.\Generated_Source\PSoC4/USBFS.c ****             /* Enable interrupt from DMA channel. */
1767:.\Generated_Source\PSoC4/USBFS.c ****             USBFS_CyDmaSetInterruptMask(channelNum);
1768:.\Generated_Source\PSoC4/USBFS.c **** 
1769:.\Generated_Source\PSoC4/USBFS.c ****             /* Validate DMA descriptor 0 and 1. */
1770:.\Generated_Source\PSoC4/USBFS.c ****             USBFS_CyDmaValidateDescriptor(channelNum, USBFS_DMA_DESCR0);
1771:.\Generated_Source\PSoC4/USBFS.c ****             USBFS_CyDmaValidateDescriptor(channelNum, USBFS_DMA_DESCR1);
1772:.\Generated_Source\PSoC4/USBFS.c **** 
1773:.\Generated_Source\PSoC4/USBFS.c ****             /* Enable DMA channel: configuration complete. */
1774:.\Generated_Source\PSoC4/USBFS.c ****             USBFS_CyDmaChEnable(channelNum);
1775:.\Generated_Source\PSoC4/USBFS.c ****         }
1776:.\Generated_Source\PSoC4/USBFS.c ****         #else
1777:.\Generated_Source\PSoC4/USBFS.c ****             (void) CyDmaChDisable(USBFS_DmaChan[epNumber]);
1778:.\Generated_Source\PSoC4/USBFS.c ****             (void) CyDmaTdSetConfiguration(USBFS_DmaTd[epNumber], length,  USBFS_DmaTd[epNumber], T
1779:.\Generated_Source\PSoC4/USBFS.c ****             (void) CyDmaTdSetAddress(USBFS_DmaTd[epNumber], LO16((uint32) &USBFS_ARB_EP_BASE.arbEp[
1780:.\Generated_Source\PSoC4/USBFS.c **** 
1781:.\Generated_Source\PSoC4/USBFS.c ****             /* Clear Any potential pending DMA requests before starting DMA channel to transfer dat
1782:.\Generated_Source\PSoC4/USBFS.c ****             (void) CyDmaClearPendingDrq(USBFS_DmaChan[epNumber]);
1783:.\Generated_Source\PSoC4/USBFS.c **** 
1784:.\Generated_Source\PSoC4/USBFS.c ****             /* Enable DMA channel. */
1785:.\Generated_Source\PSoC4/USBFS.c ****             (void) CyDmaChSetInitialTd(USBFS_DmaChan[epNumber], USBFS_DmaTd[epNumber]);
1786:.\Generated_Source\PSoC4/USBFS.c ****             (void) CyDmaChEnable(USBFS_DmaChan[epNumber], 1u);
1787:.\Generated_Source\PSoC4/USBFS.c ****         #endif /* (CY_PSOC4) */
1788:.\Generated_Source\PSoC4/USBFS.c **** 
1789:.\Generated_Source\PSoC4/USBFS.c ****             /* OUT endpoint has to be armed again by user when DMA transfers have been completed.
1790:.\Generated_Source\PSoC4/USBFS.c ****             * NO_EVENT_PENDING: notifies that data has been copied from endpoint buffer.
1791:.\Generated_Source\PSoC4/USBFS.c ****             */
1792:.\Generated_Source\PSoC4/USBFS.c **** 
1793:.\Generated_Source\PSoC4/USBFS.c ****         #endif /* (USBFS_EP_MANAGEMENT_DMA_AUTO) */
ARM GAS  C:\Users\LAIR\AppData\Local\Temp\ccdy23dh.s 			page 53


1794:.\Generated_Source\PSoC4/USBFS.c ****     #endif /* (USBFS_EP_MANAGEMENT_MANUAL) */
1795:.\Generated_Source\PSoC4/USBFS.c ****     }
1796:.\Generated_Source\PSoC4/USBFS.c ****     else
1797:.\Generated_Source\PSoC4/USBFS.c ****     {
1798:.\Generated_Source\PSoC4/USBFS.c ****         length = 0u;
 1060              		.loc 1 1798 0
 1061 006e 0025     		mov	r5, #0
 1062 0070 02E0     		b	.L65
 1063              	.L68:
 1064 0072 0025     		mov	r5, #0
 1065 0074 00E0     		b	.L65
 1066              	.L69:
 1067 0076 0025     		mov	r5, #0
 1068              	.LVL74:
 1069              	.L65:
1799:.\Generated_Source\PSoC4/USBFS.c ****     }
1800:.\Generated_Source\PSoC4/USBFS.c **** 
1801:.\Generated_Source\PSoC4/USBFS.c ****     return (length);
1802:.\Generated_Source\PSoC4/USBFS.c **** }
 1070              		.loc 1 1802 0
 1071 0078 281C     		mov	r0, r5
 1072              		@ sp needed
 1073              	.LVL75:
 1074 007a F8BD     		pop	{r3, r4, r5, r6, r7, pc}
 1075              	.L71:
 1076              		.align	2
 1077              	.L70:
 1078 007c 00000000 		.word	.LANCHOR1
 1079 0080 80101040 		.word	1074794624
 1080 0084 E0012C40 		.word	1076625888
 1081 0088 00181040 		.word	1074796544
 1082 008c 00006054 		.word	1415577600
 1083 0090 C0012C40 		.word	1076625856
 1084              		.cfi_endproc
 1085              	.LFE79:
 1086              		.size	USBFS_ReadOutEP, .-USBFS_ReadOutEP
 1087              		.section	.text.USBFS_LoadInEP16,"ax",%progbits
 1088              		.align	2
 1089              		.global	USBFS_LoadInEP16
 1090              		.code	16
 1091              		.thumb_func
 1092              		.type	USBFS_LoadInEP16, %function
 1093              	USBFS_LoadInEP16:
 1094              	.LFB80:
1803:.\Generated_Source\PSoC4/USBFS.c **** 
1804:.\Generated_Source\PSoC4/USBFS.c **** 
1805:.\Generated_Source\PSoC4/USBFS.c **** #if (USBFS_16BITS_EP_ACCESS_ENABLE)
1806:.\Generated_Source\PSoC4/USBFS.c **** /*******************************************************************************
1807:.\Generated_Source\PSoC4/USBFS.c **** * Function Name: USBFS_LoadInEP16
1808:.\Generated_Source\PSoC4/USBFS.c **** ****************************************************************************//**
1809:.\Generated_Source\PSoC4/USBFS.c **** *
1810:.\Generated_Source\PSoC4/USBFS.c **** *  This function performs different functionality depending on the Component’s
1811:.\Generated_Source\PSoC4/USBFS.c **** *  configured Endpoint Buffer Management. This parameter is defined in
1812:.\Generated_Source\PSoC4/USBFS.c **** *  the Descriptor Root in Component Configure window.
1813:.\Generated_Source\PSoC4/USBFS.c **** *
1814:.\Generated_Source\PSoC4/USBFS.c **** *  *Manual (Static/Dynamic Allocation):*
1815:.\Generated_Source\PSoC4/USBFS.c **** *  This function loads and enables the specified USB data endpoint for an IN
ARM GAS  C:\Users\LAIR\AppData\Local\Temp\ccdy23dh.s 			page 54


1816:.\Generated_Source\PSoC4/USBFS.c **** *  data transfer.
1817:.\Generated_Source\PSoC4/USBFS.c **** *
1818:.\Generated_Source\PSoC4/USBFS.c **** *  *DMA with Manual Buffer Management:*
1819:.\Generated_Source\PSoC4/USBFS.c **** *  Configures DMA for a data transfer from system RAM to endpoint buffer.
1820:.\Generated_Source\PSoC4/USBFS.c **** *  Generates request for a transfer.
1821:.\Generated_Source\PSoC4/USBFS.c **** *
1822:.\Generated_Source\PSoC4/USBFS.c **** *  *DMA with Automatic Buffer Management:*
1823:.\Generated_Source\PSoC4/USBFS.c **** *  Configures DMA. This is required only once, so it is done only when parameter
1824:.\Generated_Source\PSoC4/USBFS.c **** *  pData is not NULL. When the pData pointer is NULL, the function skips this
1825:.\Generated_Source\PSoC4/USBFS.c **** *  task. Sets Data ready status: This generates the first DMA transfer and
1826:.\Generated_Source\PSoC4/USBFS.c **** *  prepares data in endpoint buffer.
1827:.\Generated_Source\PSoC4/USBFS.c **** *
1828:.\Generated_Source\PSoC4/USBFS.c **** *  \param epNumber Contains the data endpoint number.
1829:.\Generated_Source\PSoC4/USBFS.c **** *        Valid values are between 1 and 8.
1830:.\Generated_Source\PSoC4/USBFS.c **** *  \param *pData A pointer to a data array from which the data for the endpoint
1831:.\Generated_Source\PSoC4/USBFS.c **** *        space is loaded. It shall be ensured that this pointer address is even
1832:.\Generated_Source\PSoC4/USBFS.c **** *        to ensure the 16-bit transfer is aligned to even address. Else, a hard
1833:.\Generated_Source\PSoC4/USBFS.c **** *        fault condition can occur.
1834:.\Generated_Source\PSoC4/USBFS.c **** *  \param length The number of bytes to transfer from the array and then send as
1835:.\Generated_Source\PSoC4/USBFS.c **** *        a result of an IN request. Valid values are between 0 and 512 (1023 for
1836:.\Generated_Source\PSoC4/USBFS.c **** *        DMA with Automatic Buffer Management mode). The value 512 is applicable
1837:.\Generated_Source\PSoC4/USBFS.c **** *        if only one endpoint is used.
1838:.\Generated_Source\PSoC4/USBFS.c **** *
1839:.\Generated_Source\PSoC4/USBFS.c **** * \reentrant
1840:.\Generated_Source\PSoC4/USBFS.c **** *  No.
1841:.\Generated_Source\PSoC4/USBFS.c **** *
1842:.\Generated_Source\PSoC4/USBFS.c **** *******************************************************************************/
1843:.\Generated_Source\PSoC4/USBFS.c **** void USBFS_LoadInEP16(uint8 epNumber, const uint8 pData[], uint16 length)
1844:.\Generated_Source\PSoC4/USBFS.c **** {
 1095              		.loc 1 1844 0
 1096              		.cfi_startproc
 1097              	.LVL76:
 1098 0000 70B5     		push	{r4, r5, r6, lr}
 1099              		.cfi_def_cfa_offset 16
 1100              		.cfi_offset 4, -16
 1101              		.cfi_offset 5, -12
 1102              		.cfi_offset 6, -8
 1103              		.cfi_offset 14, -4
 1104 0002 041C     		mov	r4, r0
 1105 0004 0E1C     		mov	r6, r1
 1106 0006 151C     		mov	r5, r2
1845:.\Generated_Source\PSoC4/USBFS.c ****     /* Check array alignment on half-word boundary. */
1846:.\Generated_Source\PSoC4/USBFS.c ****     CYASSERT(0u == (((uint32) pData) & 0x01u));
 1107              		.loc 1 1846 0
 1108 0008 CB07     		lsl	r3, r1, #31
 1109 000a 02D5     		bpl	.L73
 1110              		.loc 1 1846 0 is_stmt 0 discriminator 1
 1111 000c 0020     		mov	r0, #0
 1112              	.LVL77:
 1113 000e FFF7FEFF 		bl	CyHalt
 1114              	.LVL78:
 1115              	.L73:
1847:.\Generated_Source\PSoC4/USBFS.c **** 
1848:.\Generated_Source\PSoC4/USBFS.c ****     if ((epNumber > USBFS_EP0) && (epNumber < USBFS_MAX_EP))
 1116              		.loc 1 1848 0 is_stmt 1
 1117 0012 631E     		sub	r3, r4, #1
 1118 0014 072B     		cmp	r3, #7
ARM GAS  C:\Users\LAIR\AppData\Local\Temp\ccdy23dh.s 			page 55


 1119 0016 62D8     		bhi	.L72
1849:.\Generated_Source\PSoC4/USBFS.c ****     {
1850:.\Generated_Source\PSoC4/USBFS.c ****     #if (!USBFS_EP_MANAGEMENT_DMA_AUTO)
1851:.\Generated_Source\PSoC4/USBFS.c ****         /* Limit length to available buffer USB IP buffer size. */
1852:.\Generated_Source\PSoC4/USBFS.c ****         if (length > (USBFS_EPX_DATA_BUF_MAX - USBFS_EP[epNumber].buffOffset))
 1120              		.loc 1 1852 0
 1121 0018 6300     		lsl	r3, r4, #1
 1122 001a 1B19     		add	r3, r3, r4
 1123 001c 9B00     		lsl	r3, r3, #2
 1124 001e 304A     		ldr	r2, .L77
 1125 0020 D318     		add	r3, r2, r3
 1126 0022 DA88     		ldrh	r2, [r3, #6]
 1127 0024 8023     		mov	r3, #128
 1128 0026 9B00     		lsl	r3, r3, #2
 1129 0028 9B1A     		sub	r3, r3, r2
 1130 002a 9D42     		cmp	r5, r3
 1131 002c 09D9     		bls	.L75
1853:.\Generated_Source\PSoC4/USBFS.c ****         {
1854:.\Generated_Source\PSoC4/USBFS.c ****             length = USBFS_EPX_DATA_BUF_MAX - USBFS_EP[epNumber].buffOffset;
 1132              		.loc 1 1854 0
 1133 002e 6300     		lsl	r3, r4, #1
 1134 0030 1B19     		add	r3, r3, r4
 1135 0032 9B00     		lsl	r3, r3, #2
 1136 0034 2A4A     		ldr	r2, .L77
 1137 0036 D318     		add	r3, r2, r3
 1138 0038 DD88     		ldrh	r5, [r3, #6]
 1139 003a 8023     		mov	r3, #128
 1140 003c 9B00     		lsl	r3, r3, #2
 1141 003e 5D1B     		sub	r5, r3, r5
 1142 0040 ADB2     		uxth	r5, r5
 1143              	.LVL79:
 1144              	.L75:
1855:.\Generated_Source\PSoC4/USBFS.c ****         }
1856:.\Generated_Source\PSoC4/USBFS.c ****     #endif /* (!USBFS_EP_MANAGEMENT_DMA_AUTO) */
1857:.\Generated_Source\PSoC4/USBFS.c **** 
1858:.\Generated_Source\PSoC4/USBFS.c ****         /* Set count and data toggle. */
1859:.\Generated_Source\PSoC4/USBFS.c ****         USBFS_SIE_EP_BASE.sieEp[epNumber].epCnt0 = (uint32) HI8(length) | USBFS_EP[epNumber].epTogg
 1145              		.loc 1 1859 0
 1146 0042 290A     		lsr	r1, r5, #8
 1147 0044 6300     		lsl	r3, r4, #1
 1148 0046 1B19     		add	r3, r3, r4
 1149 0048 9B00     		lsl	r3, r3, #2
 1150 004a 254A     		ldr	r2, .L77
 1151 004c D218     		add	r2, r2, r3
 1152 004e D378     		ldrb	r3, [r2, #3]
 1153 0050 1943     		orr	r1, r3
 1154 0052 A301     		lsl	r3, r4, #6
 1155 0054 2348     		ldr	r0, .L77+4
 1156 0056 1950     		str	r1, [r3, r0]
1860:.\Generated_Source\PSoC4/USBFS.c ****         USBFS_SIE_EP_BASE.sieEp[epNumber].epCnt1 = (uint32) LO8(length);
 1157              		.loc 1 1860 0
 1158 0058 E9B2     		uxtb	r1, r5
 1159 005a 8446     		mov	ip, r0
 1160 005c 6344     		add	r3, r3, ip
 1161 005e 5960     		str	r1, [r3, #4]
1861:.\Generated_Source\PSoC4/USBFS.c **** 
1862:.\Generated_Source\PSoC4/USBFS.c ****         /* Adjust requested length: 2 bytes are handled at one data register access. */
ARM GAS  C:\Users\LAIR\AppData\Local\Temp\ccdy23dh.s 			page 56


1863:.\Generated_Source\PSoC4/USBFS.c ****         length += (length & 0x01u);
 1162              		.loc 1 1863 0
 1163 0060 0123     		mov	r3, #1
 1164 0062 2B40     		and	r3, r5
 1165 0064 5D19     		add	r5, r3, r5
 1166              	.LVL80:
 1167 0066 ADB2     		uxth	r5, r5
 1168              	.LVL81:
1864:.\Generated_Source\PSoC4/USBFS.c **** 
1865:.\Generated_Source\PSoC4/USBFS.c ****     #if (USBFS_EP_MANAGEMENT_MANUAL)
1866:.\Generated_Source\PSoC4/USBFS.c ****         if (NULL != pData)
1867:.\Generated_Source\PSoC4/USBFS.c ****         {
1868:.\Generated_Source\PSoC4/USBFS.c ****             /* Convert uint8 array to uint16. */
1869:.\Generated_Source\PSoC4/USBFS.c ****             const uint16 *dataBuf = (uint16 *) pData;
1870:.\Generated_Source\PSoC4/USBFS.c **** 
1871:.\Generated_Source\PSoC4/USBFS.c ****             /* Copy data using 16-bits arbiter data register. */
1872:.\Generated_Source\PSoC4/USBFS.c ****             uint16 i;
1873:.\Generated_Source\PSoC4/USBFS.c ****             for (i = 0u; i < (length >> 1u); ++i)
1874:.\Generated_Source\PSoC4/USBFS.c ****             {
1875:.\Generated_Source\PSoC4/USBFS.c ****                 USBFS_ARB_EP16_BASE.arbEp[epNumber].rwDr16 = dataBuf[i];
1876:.\Generated_Source\PSoC4/USBFS.c ****             }
1877:.\Generated_Source\PSoC4/USBFS.c ****         }
1878:.\Generated_Source\PSoC4/USBFS.c **** 
1879:.\Generated_Source\PSoC4/USBFS.c ****         /* IN endpoint buffer is full - read to be read. */
1880:.\Generated_Source\PSoC4/USBFS.c ****         USBFS_EP[epNumber].apiEpState = USBFS_NO_EVENT_PENDING;
1881:.\Generated_Source\PSoC4/USBFS.c **** 
1882:.\Generated_Source\PSoC4/USBFS.c ****         /* Arm IN endpoint. */
1883:.\Generated_Source\PSoC4/USBFS.c ****         USBFS_SIE_EP_BASE.sieEp[epNumber].epCr0 = USBFS_EP[epNumber].epMode;
1884:.\Generated_Source\PSoC4/USBFS.c **** 
1885:.\Generated_Source\PSoC4/USBFS.c ****     #else
1886:.\Generated_Source\PSoC4/USBFS.c **** 
1887:.\Generated_Source\PSoC4/USBFS.c ****         #if (USBFS_EP_MANAGEMENT_DMA_MANUAL)
1888:.\Generated_Source\PSoC4/USBFS.c ****             /* IN endpoint buffer will be fully loaded by DMA shortly. */
1889:.\Generated_Source\PSoC4/USBFS.c ****             USBFS_EP[epNumber].apiEpState = USBFS_NO_EVENT_PENDING;
 1169              		.loc 1 1889 0
 1170 0068 0023     		mov	r3, #0
 1171 006a 5370     		strb	r3, [r2, #1]
1890:.\Generated_Source\PSoC4/USBFS.c **** 
1891:.\Generated_Source\PSoC4/USBFS.c ****             if ((pData != NULL) && (length > 0u))
 1172              		.loc 1 1891 0
 1173 006c 002E     		cmp	r6, #0
 1174 006e 2AD0     		beq	.L76
 1175              		.loc 1 1891 0 is_stmt 0 discriminator 1
 1176 0070 002D     		cmp	r5, #0
 1177 0072 28D0     		beq	.L76
 1178              	.LBB4:
1892:.\Generated_Source\PSoC4/USBFS.c ****             {
1893:.\Generated_Source\PSoC4/USBFS.c ****                 uint32 channelNum = (uint32) USBFS_DmaChan[epNumber];
 1179              		.loc 1 1893 0 is_stmt 1
 1180 0074 1C4B     		ldr	r3, .L77+8
 1181 0076 1B5D     		ldrb	r3, [r3, r4]
 1182              	.LVL82:
1894:.\Generated_Source\PSoC4/USBFS.c **** 
1895:.\Generated_Source\PSoC4/USBFS.c ****                 /* Disable DMA channel: start configuration. */
1896:.\Generated_Source\PSoC4/USBFS.c ****                 USBFS_CyDmaChDisable(channelNum);
 1183              		.loc 1 1896 0
 1184 0078 1C49     		ldr	r1, .L77+12
ARM GAS  C:\Users\LAIR\AppData\Local\Temp\ccdy23dh.s 			page 57


 1185 007a 9800     		lsl	r0, r3, #2
 1186 007c 4258     		ldr	r2, [r0, r1]
 1187 007e 5200     		lsl	r2, r2, #1
 1188 0080 5208     		lsr	r2, r2, #1
 1189 0082 4250     		str	r2, [r0, r1]
1897:.\Generated_Source\PSoC4/USBFS.c **** 
1898:.\Generated_Source\PSoC4/USBFS.c ****                 /* Configure source and destination. */
1899:.\Generated_Source\PSoC4/USBFS.c ****                 USBFS_CyDmaSetSrcAddress(channelNum, USBFS_DMA_DESCR0, (void*) pData);
 1190              		.loc 1 1899 0
 1191 0084 5B01     		lsl	r3, r3, #5
 1192              	.LVL83:
 1193 0086 1A4A     		ldr	r2, .L77+16
 1194 0088 9E50     		str	r6, [r3, r2]
1900:.\Generated_Source\PSoC4/USBFS.c ****                 USBFS_CyDmaSetDstAddress(channelNum, USBFS_DMA_DESCR0, (void*) &USBFS_ARB_EP16_BASE
 1195              		.loc 1 1900 0
 1196 008a A201     		lsl	r2, r4, #6
 1197 008c 194E     		ldr	r6, .L77+20
 1198              	.LVL84:
 1199 008e B446     		mov	ip, r6
 1200 0090 6244     		add	r2, r2, ip
 1201 0092 174E     		ldr	r6, .L77+16
 1202              	.LVL85:
 1203 0094 B446     		mov	ip, r6
 1204 0096 6344     		add	r3, r3, ip
 1205              	.LVL86:
 1206 0098 5A60     		str	r2, [r3, #4]
 1207              	.LVL87:
1901:.\Generated_Source\PSoC4/USBFS.c **** 
1902:.\Generated_Source\PSoC4/USBFS.c ****                 /* Configure DMA descriptor. */
1903:.\Generated_Source\PSoC4/USBFS.c ****                 length = (length >> 1u) - 1u;
 1208              		.loc 1 1903 0
 1209 009a 6D08     		lsr	r5, r5, #1
 1210              	.LVL88:
 1211 009c 013D     		sub	r5, r5, #1
 1212 009e ADB2     		uxth	r5, r5
 1213              	.LVL89:
1904:.\Generated_Source\PSoC4/USBFS.c ****                 USBFS_CyDmaSetConfiguration(channelNum, USBFS_DMA_DESCR0, USBFS_DMA_COMMON_CFG | le
 1214              		.loc 1 1904 0
 1215 00a0 154A     		ldr	r2, .L77+24
 1216 00a2 1543     		orr	r5, r2
 1217              	.LVL90:
 1218 00a4 9D60     		str	r5, [r3, #8]
1905:.\Generated_Source\PSoC4/USBFS.c ****                                                         CYDMA_HALFWORD | CYDMA_ELEMENT_WORD | CYDMA
1906:.\Generated_Source\PSoC4/USBFS.c **** 
1907:.\Generated_Source\PSoC4/USBFS.c ****                 /* Validate descriptor to execute on following DMA request. */
1908:.\Generated_Source\PSoC4/USBFS.c ****                 USBFS_CyDmaValidateDescriptor(channelNum, USBFS_DMA_DESCR0);
 1219              		.loc 1 1908 0
 1220 00a6 8022     		mov	r2, #128
 1221 00a8 1206     		lsl	r2, r2, #24
 1222 00aa DA60     		str	r2, [r3, #12]
1909:.\Generated_Source\PSoC4/USBFS.c **** 
1910:.\Generated_Source\PSoC4/USBFS.c ****                 /* Enable DMA channel: configuration complete. */
1911:.\Generated_Source\PSoC4/USBFS.c ****                 USBFS_CyDmaChEnable(channelNum);
 1223              		.loc 1 1911 0
 1224 00ac 4358     		ldr	r3, [r0, r1]
 1225 00ae 1343     		orr	r3, r2
 1226 00b0 4350     		str	r3, [r0, r1]
ARM GAS  C:\Users\LAIR\AppData\Local\Temp\ccdy23dh.s 			page 58


1912:.\Generated_Source\PSoC4/USBFS.c **** 
1913:.\Generated_Source\PSoC4/USBFS.c ****                 /* Generate DMA request. */
1914:.\Generated_Source\PSoC4/USBFS.c ****                 USBFS_ARB_EP_BASE.arbEp[epNumber].epCfg |=  (uint32)  USBFS_ARB_EPX_CFG_DMA_REQ;
 1227              		.loc 1 1914 0
 1228 00b2 124B     		ldr	r3, .L77+28
 1229 00b4 A401     		lsl	r4, r4, #6
 1230              	.LVL91:
 1231 00b6 E258     		ldr	r2, [r4, r3]
 1232 00b8 0221     		mov	r1, #2
 1233 00ba 0A43     		orr	r2, r1
 1234 00bc E250     		str	r2, [r4, r3]
1915:.\Generated_Source\PSoC4/USBFS.c ****                 USBFS_ARB_EP_BASE.arbEp[epNumber].epCfg &=  (uint32) ~USBFS_ARB_EPX_CFG_DMA_REQ;
 1235              		.loc 1 1915 0
 1236 00be E258     		ldr	r2, [r4, r3]
 1237 00c0 8A43     		bic	r2, r1
 1238 00c2 E250     		str	r2, [r4, r3]
 1239              	.LBE4:
1892:.\Generated_Source\PSoC4/USBFS.c ****                 uint32 channelNum = (uint32) USBFS_DmaChan[epNumber];
 1240              		.loc 1 1892 0
 1241 00c4 0BE0     		b	.L72
 1242              	.LVL92:
 1243              	.L76:
1916:.\Generated_Source\PSoC4/USBFS.c **** 
1917:.\Generated_Source\PSoC4/USBFS.c ****                 /* IN endpoint will be armed in ARB_ISR(source: IN_BUF_FULL) after first DMA transf
1918:.\Generated_Source\PSoC4/USBFS.c ****             }
1919:.\Generated_Source\PSoC4/USBFS.c ****             else
1920:.\Generated_Source\PSoC4/USBFS.c ****             {
1921:.\Generated_Source\PSoC4/USBFS.c ****                 /* When zero-length packet: arm IN endpoint directly. */
1922:.\Generated_Source\PSoC4/USBFS.c ****                 USBFS_SIE_EP_BASE.sieEp[epNumber].epCr0 = USBFS_EP[epNumber].epMode;
 1244              		.loc 1 1922 0
 1245 00c6 6300     		lsl	r3, r4, #1
 1246 00c8 1B19     		add	r3, r3, r4
 1247 00ca 9B00     		lsl	r3, r3, #2
 1248 00cc 044A     		ldr	r2, .L77
 1249 00ce D318     		add	r3, r2, r3
 1250 00d0 5B79     		ldrb	r3, [r3, #5]
 1251 00d2 DBB2     		uxtb	r3, r3
 1252 00d4 A401     		lsl	r4, r4, #6
 1253 00d6 034A     		ldr	r2, .L77+4
 1254 00d8 9446     		mov	ip, r2
 1255 00da 6444     		add	r4, r4, ip
 1256 00dc A360     		str	r3, [r4, #8]
 1257              	.LVL93:
 1258              	.L72:
1923:.\Generated_Source\PSoC4/USBFS.c ****             }
1924:.\Generated_Source\PSoC4/USBFS.c ****         #endif /* (USBFS_EP_MANAGEMENT_DMA_MANUAL) */
1925:.\Generated_Source\PSoC4/USBFS.c **** 
1926:.\Generated_Source\PSoC4/USBFS.c ****         #if (USBFS_EP_MANAGEMENT_DMA_AUTO)
1927:.\Generated_Source\PSoC4/USBFS.c ****             if (pData != NULL)
1928:.\Generated_Source\PSoC4/USBFS.c ****             {
1929:.\Generated_Source\PSoC4/USBFS.c ****                 uint32 channelNum = (uint32) USBFS_DmaChan[epNumber];
1930:.\Generated_Source\PSoC4/USBFS.c **** 
1931:.\Generated_Source\PSoC4/USBFS.c ****                 /* Store address of buffer. */
1932:.\Generated_Source\PSoC4/USBFS.c ****                 USBFS_DmaEpBufferAddrBackup[epNumber] = (uint32) pData;
1933:.\Generated_Source\PSoC4/USBFS.c **** 
1934:.\Generated_Source\PSoC4/USBFS.c ****                 /* Disable DMA channel: start configuration. */
1935:.\Generated_Source\PSoC4/USBFS.c ****                 USBFS_CyDmaChDisable(channelNum);
ARM GAS  C:\Users\LAIR\AppData\Local\Temp\ccdy23dh.s 			page 59


1936:.\Generated_Source\PSoC4/USBFS.c **** 
1937:.\Generated_Source\PSoC4/USBFS.c ****                 /* Set destination address. */
1938:.\Generated_Source\PSoC4/USBFS.c ****                 USBFS_CyDmaSetDstAddress(channelNum, USBFS_DMA_DESCR0, (void*) &USBFS_ARB_EP16_BASE
1939:.\Generated_Source\PSoC4/USBFS.c ****                 USBFS_CyDmaSetDstAddress(channelNum, USBFS_DMA_DESCR1, (void*) &USBFS_ARB_EP16_BASE
1940:.\Generated_Source\PSoC4/USBFS.c **** 
1941:.\Generated_Source\PSoC4/USBFS.c ****                 /* Configure DMA descriptor. */
1942:.\Generated_Source\PSoC4/USBFS.c ****                 USBFS_CyDmaSetConfiguration(channelNum, USBFS_DMA_DESCR0, USBFS_DMA_COMMON_CFG  |
1943:.\Generated_Source\PSoC4/USBFS.c ****                                                         CYDMA_HALFWORD | CYDMA_ELEMENT_WORD | CYDMA
1944:.\Generated_Source\PSoC4/USBFS.c **** 
1945:.\Generated_Source\PSoC4/USBFS.c ****                 /* Configure DMA descriptor. */
1946:.\Generated_Source\PSoC4/USBFS.c ****                 USBFS_CyDmaSetConfiguration(channelNum, USBFS_DMA_DESCR1, USBFS_DMA_COMMON_CFG  |
1947:.\Generated_Source\PSoC4/USBFS.c ****                                                         CYDMA_HALFWORD | CYDMA_ELEMENT_WORD | CYDMA
1948:.\Generated_Source\PSoC4/USBFS.c **** 
1949:.\Generated_Source\PSoC4/USBFS.c ****                 /* Enable interrupt from DMA channel. */
1950:.\Generated_Source\PSoC4/USBFS.c ****                 USBFS_CyDmaSetInterruptMask(channelNum);
1951:.\Generated_Source\PSoC4/USBFS.c **** 
1952:.\Generated_Source\PSoC4/USBFS.c ****                 /* Validate descriptor 1. It will not be invalided during operation. */
1953:.\Generated_Source\PSoC4/USBFS.c ****                 USBFS_CyDmaValidateDescriptor(channelNum, USBFS_DMA_DESCR1);
1954:.\Generated_Source\PSoC4/USBFS.c **** 
1955:.\Generated_Source\PSoC4/USBFS.c ****                 /* Enable DMA channel: configuration complete. */
1956:.\Generated_Source\PSoC4/USBFS.c ****                 USBFS_CyDmaChEnable(channelNum);
1957:.\Generated_Source\PSoC4/USBFS.c ****             }
1958:.\Generated_Source\PSoC4/USBFS.c ****             else
1959:.\Generated_Source\PSoC4/USBFS.c ****             {
1960:.\Generated_Source\PSoC4/USBFS.c ****                 /* IN endpoint buffer (32 bytes) will shortly be preloaded by DMA. */
1961:.\Generated_Source\PSoC4/USBFS.c ****                 USBFS_EP[epNumber].apiEpState = USBFS_NO_EVENT_PENDING;
1962:.\Generated_Source\PSoC4/USBFS.c **** 
1963:.\Generated_Source\PSoC4/USBFS.c ****                 if (length > 0u)
1964:.\Generated_Source\PSoC4/USBFS.c ****                 {
1965:.\Generated_Source\PSoC4/USBFS.c ****                     uint32 lengthDescr0, lengthDescr1;
1966:.\Generated_Source\PSoC4/USBFS.c ****                     uint32 channelNum = (uint32) USBFS_DmaChan[epNumber];
1967:.\Generated_Source\PSoC4/USBFS.c **** 
1968:.\Generated_Source\PSoC4/USBFS.c ****                     /* Get number of full bursts. */
1969:.\Generated_Source\PSoC4/USBFS.c ****                     USBFS_DmaEpBurstCnt[epNumber] = (uint8) (length / USBFS_DMA_BYTES_PER_BURST);
1970:.\Generated_Source\PSoC4/USBFS.c **** 
1971:.\Generated_Source\PSoC4/USBFS.c ****                     /* Get number of elements in the last burst. */
1972:.\Generated_Source\PSoC4/USBFS.c ****                     USBFS_DmaEpLastBurstEl[epNumber] = (uint8) (length % USBFS_DMA_BYTES_PER_BURST)
1973:.\Generated_Source\PSoC4/USBFS.c **** 
1974:.\Generated_Source\PSoC4/USBFS.c ****                     /* Get total number of bursts. */
1975:.\Generated_Source\PSoC4/USBFS.c ****                     USBFS_DmaEpBurstCnt[epNumber] += (0u != USBFS_DmaEpLastBurstEl[epNumber]) ? 1u 
1976:.\Generated_Source\PSoC4/USBFS.c **** 
1977:.\Generated_Source\PSoC4/USBFS.c ****                     /* Adjust number of data elements transferred in last burst. */
1978:.\Generated_Source\PSoC4/USBFS.c ****                     USBFS_DmaEpLastBurstEl[epNumber] = (0u != USBFS_DmaEpLastBurstEl[epNumber]) ?
1979:.\Generated_Source\PSoC4/USBFS.c ****                                                                           ((USBFS_DmaEpLastBurstEl[
1980:.\Generated_Source\PSoC4/USBFS.c ****                                                                            (USBFS_DMA_HALFWORDS_PER
1981:.\Generated_Source\PSoC4/USBFS.c **** 
1982:.\Generated_Source\PSoC4/USBFS.c ****                     /* Get number of data elements to transfer for descriptor 0 and 1. */
1983:.\Generated_Source\PSoC4/USBFS.c ****                     lengthDescr0 = (1u == USBFS_DmaEpBurstCnt[epNumber]) ? USBFS_DmaEpLastBurstEl[e
1984:.\Generated_Source\PSoC4/USBFS.c ****                     lengthDescr1 = (2u == USBFS_DmaEpBurstCnt[epNumber]) ? USBFS_DmaEpLastBurstEl[e
1985:.\Generated_Source\PSoC4/USBFS.c **** 
1986:.\Generated_Source\PSoC4/USBFS.c ****                     /* Mark which descriptor is last one to execute. */
1987:.\Generated_Source\PSoC4/USBFS.c ****                     USBFS_DmaEpLastBurstEl[epNumber] |= (0u != (USBFS_DmaEpBurstCnt[epNumber] & 0x1
1988:.\Generated_Source\PSoC4/USBFS.c ****                                                                             USBFS_DMA_DESCR0_MASK :
1989:.\Generated_Source\PSoC4/USBFS.c **** 
1990:.\Generated_Source\PSoC4/USBFS.c ****                     /* Adjust burst counter taking to account: 2 valid descriptors and interrupt tr
1991:.\Generated_Source\PSoC4/USBFS.c ****                     USBFS_DmaEpBurstCnt[epNumber] = USBFS_DMA_GET_BURST_CNT(USBFS_DmaEpBurstCnt[epN
1992:.\Generated_Source\PSoC4/USBFS.c **** 
ARM GAS  C:\Users\LAIR\AppData\Local\Temp\ccdy23dh.s 			page 60


1993:.\Generated_Source\PSoC4/USBFS.c ****                     /* Restore DMA settings for current transfer. */
1994:.\Generated_Source\PSoC4/USBFS.c ****                     USBFS_CyDmaChDisable(channelNum);
1995:.\Generated_Source\PSoC4/USBFS.c **** 
1996:.\Generated_Source\PSoC4/USBFS.c ****                     /* Restore destination address for input endpoint. */
1997:.\Generated_Source\PSoC4/USBFS.c ****                     USBFS_CyDmaSetSrcAddress(channelNum, USBFS_DMA_DESCR0, (void*) ((uint32) USBFS_
1998:.\Generated_Source\PSoC4/USBFS.c ****                     USBFS_CyDmaSetSrcAddress(channelNum, USBFS_DMA_DESCR1, (void*) ((uint32) USBFS_
1999:.\Generated_Source\PSoC4/USBFS.c ****                                                                                                    
2000:.\Generated_Source\PSoC4/USBFS.c **** 
2001:.\Generated_Source\PSoC4/USBFS.c ****                     /* Set number of elements to transfer. */
2002:.\Generated_Source\PSoC4/USBFS.c ****                     USBFS_CyDmaSetNumDataElements(channelNum, USBFS_DMA_DESCR0, lengthDescr0);
2003:.\Generated_Source\PSoC4/USBFS.c ****                     USBFS_CyDmaSetNumDataElements(channelNum, USBFS_DMA_DESCR1, lengthDescr1);
2004:.\Generated_Source\PSoC4/USBFS.c **** 
2005:.\Generated_Source\PSoC4/USBFS.c ****                     /* Validate descriptor 0 and command to start with it. */
2006:.\Generated_Source\PSoC4/USBFS.c ****                     USBFS_CyDmaValidateDescriptor(channelNum, USBFS_DMA_DESCR0);
2007:.\Generated_Source\PSoC4/USBFS.c ****                     USBFS_CyDmaSetDescriptor0Next(channelNum);
2008:.\Generated_Source\PSoC4/USBFS.c **** 
2009:.\Generated_Source\PSoC4/USBFS.c ****                     /* Enable DMA channel: configuration complete. */
2010:.\Generated_Source\PSoC4/USBFS.c ****                     USBFS_CyDmaChEnable(channelNum);
2011:.\Generated_Source\PSoC4/USBFS.c **** 
2012:.\Generated_Source\PSoC4/USBFS.c ****                 #if !defined (USBFS_MANUAL_IN_EP_ARM)
2013:.\Generated_Source\PSoC4/USBFS.c ****                     /* Set IN data ready to generate DMA request to load data into endpoint buffer.
2014:.\Generated_Source\PSoC4/USBFS.c ****                     USBFS_ARB_EP_BASE.arbEp[epNumber].epCfg |= USBFS_ARB_EPX_CFG_IN_DATA_RDY;
2015:.\Generated_Source\PSoC4/USBFS.c ****                 #endif  /* (USBFS_MANUAL_IN_EP_ARM) */
2016:.\Generated_Source\PSoC4/USBFS.c **** 
2017:.\Generated_Source\PSoC4/USBFS.c ****                     /* IN endpoint will be armed in ARB_ISR(source: IN_BUF_FULL) after first DMA tr
2018:.\Generated_Source\PSoC4/USBFS.c ****                 }
2019:.\Generated_Source\PSoC4/USBFS.c ****                 else
2020:.\Generated_Source\PSoC4/USBFS.c ****                 {
2021:.\Generated_Source\PSoC4/USBFS.c ****                     /* When zero-length packet: arm IN endpoint directly. */
2022:.\Generated_Source\PSoC4/USBFS.c ****                     USBFS_SIE_EP_BASE.sieEp[epNumber].epCr0 = USBFS_EP[epNumber].epMode;
2023:.\Generated_Source\PSoC4/USBFS.c ****                 }
2024:.\Generated_Source\PSoC4/USBFS.c ****             }
2025:.\Generated_Source\PSoC4/USBFS.c ****         #endif /* (USBFS_EP_MANAGEMENT_DMA_AUTO) */
2026:.\Generated_Source\PSoC4/USBFS.c ****     #endif /* (USBFS_EP_MANAGEMENT_MANUAL) */
2027:.\Generated_Source\PSoC4/USBFS.c ****     }
2028:.\Generated_Source\PSoC4/USBFS.c **** }
 1259              		.loc 1 2028 0
 1260              		@ sp needed
 1261 00de 70BD     		pop	{r4, r5, r6, pc}
 1262              	.L78:
 1263              		.align	2
 1264              	.L77:
 1265 00e0 00000000 		.word	USBFS_EP
 1266 00e4 F0FF2B40 		.word	1076625392
 1267 00e8 00000000 		.word	.LANCHOR1
 1268 00ec 80101040 		.word	1074794624
 1269 00f0 00181040 		.word	1074796544
 1270 00f4 E0112C40 		.word	1076629984
 1271 00f8 00009154 		.word	1418788864
 1272 00fc C0012C40 		.word	1076625856
 1273              		.cfi_endproc
 1274              	.LFE80:
 1275              		.size	USBFS_LoadInEP16, .-USBFS_LoadInEP16
 1276              		.section	.text.USBFS_ReadOutEP16,"ax",%progbits
 1277              		.align	2
 1278              		.global	USBFS_ReadOutEP16
 1279              		.code	16
ARM GAS  C:\Users\LAIR\AppData\Local\Temp\ccdy23dh.s 			page 61


 1280              		.thumb_func
 1281              		.type	USBFS_ReadOutEP16, %function
 1282              	USBFS_ReadOutEP16:
 1283              	.LFB81:
2029:.\Generated_Source\PSoC4/USBFS.c **** 
2030:.\Generated_Source\PSoC4/USBFS.c **** 
2031:.\Generated_Source\PSoC4/USBFS.c **** /*******************************************************************************
2032:.\Generated_Source\PSoC4/USBFS.c **** * Function Name: USBFS_ReadOutEP16
2033:.\Generated_Source\PSoC4/USBFS.c **** ****************************************************************************//**
2034:.\Generated_Source\PSoC4/USBFS.c **** *
2035:.\Generated_Source\PSoC4/USBFS.c **** *   This function performs different functionality depending on the Component’s
2036:.\Generated_Source\PSoC4/USBFS.c **** *   configured Endpoint Buffer Management. This parameter is defined in the
2037:.\Generated_Source\PSoC4/USBFS.c **** *   Descriptor Root in Component Configure window.
2038:.\Generated_Source\PSoC4/USBFS.c **** *
2039:.\Generated_Source\PSoC4/USBFS.c **** *   *Manual (Static/Dynamic Allocation):*
2040:.\Generated_Source\PSoC4/USBFS.c **** *   This function moves the specified number of bytes from endpoint buffer to
2041:.\Generated_Source\PSoC4/USBFS.c **** *   system RAM. The number of bytes actually transferred from endpoint buffer to
2042:.\Generated_Source\PSoC4/USBFS.c **** *   system RAM is the lesser of the actual number of bytes sent by the host or
2043:.\Generated_Source\PSoC4/USBFS.c **** *   the number of bytes requested by the length parameter.
2044:.\Generated_Source\PSoC4/USBFS.c **** *
2045:.\Generated_Source\PSoC4/USBFS.c **** *   *DMA with Manual Buffer Management:*
2046:.\Generated_Source\PSoC4/USBFS.c **** *   Configure DMA to transfer data from endpoint buffer to system RAM. Generate
2047:.\Generated_Source\PSoC4/USBFS.c **** *   a DMA request. The firmware must wait until the DMA completes the data
2048:.\Generated_Source\PSoC4/USBFS.c **** *   transfer after calling the USBFS_ReadOutEP() API. For example,
2049:.\Generated_Source\PSoC4/USBFS.c **** *   by checking EPstate:
2050:.\Generated_Source\PSoC4/USBFS.c **** *
2051:.\Generated_Source\PSoC4/USBFS.c **** *   \snippet /USBFS_sut_02.cydsn/main.c checking EPstatey
2052:.\Generated_Source\PSoC4/USBFS.c **** *
2053:.\Generated_Source\PSoC4/USBFS.c **** *   The USBFS_EnableOutEP() has to be called to allow host to write data into
2054:.\Generated_Source\PSoC4/USBFS.c **** *   the endpoint buffer after DMA has completed transfer data from OUT endpoint
2055:.\Generated_Source\PSoC4/USBFS.c **** *   buffer to SRAM.
2056:.\Generated_Source\PSoC4/USBFS.c **** *
2057:.\Generated_Source\PSoC4/USBFS.c **** *   *DMA with Automatic Buffer Management:*
2058:.\Generated_Source\PSoC4/USBFS.c **** *   Configure DMA. This is required only once and automatically generates DMA
2059:.\Generated_Source\PSoC4/USBFS.c **** *   requests as data arrives
2060:.\Generated_Source\PSoC4/USBFS.c **** *
2061:.\Generated_Source\PSoC4/USBFS.c **** *  \param epNumber: Contains the data endpoint number.
2062:.\Generated_Source\PSoC4/USBFS.c **** *         Valid values are between 1 and 8.
2063:.\Generated_Source\PSoC4/USBFS.c **** *  \param pData: A pointer to a data array into which the data for the endpoint
2064:.\Generated_Source\PSoC4/USBFS.c **** *         space is copied. It shall be ensured that this pointer address is
2065:.\Generated_Source\PSoC4/USBFS.c **** *         even to ensure the 16-bit transfer is aligned to even address. Else,
2066:.\Generated_Source\PSoC4/USBFS.c **** *         a hard fault condition can occur.
2067:.\Generated_Source\PSoC4/USBFS.c **** *  \param length: The number of bytes to transfer from the USB Out endpoint and
2068:.\Generated_Source\PSoC4/USBFS.c **** *         loads it into data array. Valid values are between 0 and 1023. The
2069:.\Generated_Source\PSoC4/USBFS.c **** *         function moves fewer than the requested number of bytes if the host
2070:.\Generated_Source\PSoC4/USBFS.c **** *         sends fewer bytes than requested.
2071:.\Generated_Source\PSoC4/USBFS.c **** *
2072:.\Generated_Source\PSoC4/USBFS.c **** * \return
2073:.\Generated_Source\PSoC4/USBFS.c **** *  Number of bytes received, 0 for an invalid endpoint.
2074:.\Generated_Source\PSoC4/USBFS.c **** *
2075:.\Generated_Source\PSoC4/USBFS.c **** * \reentrant
2076:.\Generated_Source\PSoC4/USBFS.c **** *  No.
2077:.\Generated_Source\PSoC4/USBFS.c **** *
2078:.\Generated_Source\PSoC4/USBFS.c **** *******************************************************************************/
2079:.\Generated_Source\PSoC4/USBFS.c **** uint16 USBFS_ReadOutEP16(uint8 epNumber, uint8 pData[], uint16 length)
2080:.\Generated_Source\PSoC4/USBFS.c **** {
 1284              		.loc 1 2080 0
ARM GAS  C:\Users\LAIR\AppData\Local\Temp\ccdy23dh.s 			page 62


 1285              		.cfi_startproc
 1286              	.LVL94:
 1287 0000 F0B5     		push	{r4, r5, r6, r7, lr}
 1288              		.cfi_def_cfa_offset 20
 1289              		.cfi_offset 4, -20
 1290              		.cfi_offset 5, -16
 1291              		.cfi_offset 6, -12
 1292              		.cfi_offset 7, -8
 1293              		.cfi_offset 14, -4
 1294 0002 4746     		mov	r7, r8
 1295 0004 80B4     		push	{r7}
 1296              		.cfi_def_cfa_offset 24
 1297              		.cfi_offset 8, -24
 1298 0006 041C     		mov	r4, r0
 1299 0008 0E1C     		mov	r6, r1
 1300 000a 151C     		mov	r5, r2
2081:.\Generated_Source\PSoC4/USBFS.c ****     uint32 adjLength;
2082:.\Generated_Source\PSoC4/USBFS.c **** 
2083:.\Generated_Source\PSoC4/USBFS.c ****     /* Check array alignment on half-word boundary */
2084:.\Generated_Source\PSoC4/USBFS.c ****     CYASSERT(0u == (((uint32) pData) & 0x01u));
 1301              		.loc 1 2084 0
 1302 000c CB07     		lsl	r3, r1, #31
 1303 000e 02D5     		bpl	.L80
 1304              		.loc 1 2084 0 is_stmt 0 discriminator 1
 1305 0010 0020     		mov	r0, #0
 1306              	.LVL95:
 1307 0012 FFF7FEFF 		bl	CyHalt
 1308              	.LVL96:
 1309              	.L80:
2085:.\Generated_Source\PSoC4/USBFS.c **** 
2086:.\Generated_Source\PSoC4/USBFS.c ****     if ((pData != NULL) && (epNumber > USBFS_EP0) && (epNumber < USBFS_MAX_EP))
 1310              		.loc 1 2086 0 is_stmt 1
 1311 0016 002E     		cmp	r6, #0
 1312 0018 39D0     		beq	.L83
 1313              		.loc 1 2086 0 is_stmt 0 discriminator 1
 1314 001a 002C     		cmp	r4, #0
 1315 001c 39D0     		beq	.L84
 1316              		.loc 1 2086 0 discriminator 2
 1317 001e 082C     		cmp	r4, #8
 1318 0020 39D8     		bhi	.L85
2087:.\Generated_Source\PSoC4/USBFS.c ****     {
2088:.\Generated_Source\PSoC4/USBFS.c ****     #if (!USBFS_EP_MANAGEMENT_DMA_AUTO)
2089:.\Generated_Source\PSoC4/USBFS.c ****         /* Adjust requested length to available data. */
2090:.\Generated_Source\PSoC4/USBFS.c ****         length = (length > USBFS_GetEPCount(epNumber)) ? USBFS_GetEPCount(epNumber) : length;
 1319              		.loc 1 2090 0 is_stmt 1
 1320 0022 201C     		mov	r0, r4
 1321 0024 FFF7FEFF 		bl	USBFS_GetEPCount
 1322              	.LVL97:
 1323 0028 A842     		cmp	r0, r5
 1324 002a 03D2     		bcs	.L82
 1325              		.loc 1 2090 0 is_stmt 0 discriminator 1
 1326 002c 201C     		mov	r0, r4
 1327 002e FFF7FEFF 		bl	USBFS_GetEPCount
 1328              	.LVL98:
 1329 0032 051C     		mov	r5, r0
 1330              	.L82:
 1331              	.LVL99:
ARM GAS  C:\Users\LAIR\AppData\Local\Temp\ccdy23dh.s 			page 63


2091:.\Generated_Source\PSoC4/USBFS.c ****     #endif /* (!USBFS_EP_MANAGEMENT_DMA_AUTO) */
2092:.\Generated_Source\PSoC4/USBFS.c **** 
2093:.\Generated_Source\PSoC4/USBFS.c ****     /* Adjust requested length: 2 bytes are handled at one data register access. */
2094:.\Generated_Source\PSoC4/USBFS.c ****     adjLength =  length + ((uint32)length & 1u);
 1332              		.loc 1 2094 0 is_stmt 1 discriminator 4
 1333 0034 0122     		mov	r2, #1
 1334 0036 2A40     		and	r2, r5
 1335 0038 9046     		mov	r8, r2
 1336 003a A844     		add	r8, r8, r5
 1337              	.LVL100:
 1338              	.LBB5:
2095:.\Generated_Source\PSoC4/USBFS.c **** 
2096:.\Generated_Source\PSoC4/USBFS.c ****     #if (USBFS_EP_MANAGEMENT_MANUAL)
2097:.\Generated_Source\PSoC4/USBFS.c ****         {
2098:.\Generated_Source\PSoC4/USBFS.c ****             /* Convert uint8 array to uint16. */
2099:.\Generated_Source\PSoC4/USBFS.c ****             uint16 *dataBuf = (uint16 *) pData;
2100:.\Generated_Source\PSoC4/USBFS.c **** 
2101:.\Generated_Source\PSoC4/USBFS.c ****             /* Copy data using 16-bits arbiter data register. */
2102:.\Generated_Source\PSoC4/USBFS.c ****             uint16 i;
2103:.\Generated_Source\PSoC4/USBFS.c ****             for (i = 0u; i < (adjLength >> 1u); ++i)
2104:.\Generated_Source\PSoC4/USBFS.c ****             {
2105:.\Generated_Source\PSoC4/USBFS.c ****                 dataBuf[i] = (uint16) USBFS_ARB_EP16_BASE.arbEp[epNumber].rwDr16;
2106:.\Generated_Source\PSoC4/USBFS.c ****             }
2107:.\Generated_Source\PSoC4/USBFS.c ****         }
2108:.\Generated_Source\PSoC4/USBFS.c **** 
2109:.\Generated_Source\PSoC4/USBFS.c ****         /* Arm OUT endpoint after data has been read from endpoint buffer. */
2110:.\Generated_Source\PSoC4/USBFS.c ****         USBFS_EnableOutEP(epNumber);
2111:.\Generated_Source\PSoC4/USBFS.c ****     #else
2112:.\Generated_Source\PSoC4/USBFS.c **** 
2113:.\Generated_Source\PSoC4/USBFS.c ****         #if (USBFS_EP_MANAGEMENT_DMA_MANUAL)
2114:.\Generated_Source\PSoC4/USBFS.c ****         {
2115:.\Generated_Source\PSoC4/USBFS.c ****             uint32 channelNum = (uint32) USBFS_DmaChan[epNumber];
 1339              		.loc 1 2115 0 discriminator 4
 1340 003c 184B     		ldr	r3, .L86
 1341 003e 1B5D     		ldrb	r3, [r3, r4]
 1342              	.LVL101:
2116:.\Generated_Source\PSoC4/USBFS.c **** 
2117:.\Generated_Source\PSoC4/USBFS.c ****             /* Disable DMA channel: start configuration. */
2118:.\Generated_Source\PSoC4/USBFS.c ****             USBFS_CyDmaChDisable(channelNum);
 1343              		.loc 1 2118 0 discriminator 4
 1344 0040 1849     		ldr	r1, .L86+4
 1345 0042 9800     		lsl	r0, r3, #2
 1346 0044 4758     		ldr	r7, [r0, r1]
 1347 0046 7F00     		lsl	r7, r7, #1
 1348 0048 7F08     		lsr	r7, r7, #1
 1349 004a 4750     		str	r7, [r0, r1]
2119:.\Generated_Source\PSoC4/USBFS.c **** 
2120:.\Generated_Source\PSoC4/USBFS.c ****             /* Configure source and destination. */
2121:.\Generated_Source\PSoC4/USBFS.c ****             USBFS_CyDmaSetSrcAddress(channelNum, USBFS_DMA_DESCR0, (void*) &USBFS_ARB_EP16_BASE.arb
 1350              		.loc 1 2121 0 discriminator 4
 1351 004c A401     		lsl	r4, r4, #6
 1352 004e 164F     		ldr	r7, .L86+8
 1353 0050 BC46     		mov	ip, r7
 1354 0052 A444     		add	ip, ip, r4
 1355 0054 5B01     		lsl	r3, r3, #5
 1356              	.LVL102:
 1357 0056 154F     		ldr	r7, .L86+12
ARM GAS  C:\Users\LAIR\AppData\Local\Temp\ccdy23dh.s 			page 64


 1358 0058 6246     		mov	r2, ip
 1359 005a DA51     		str	r2, [r3, r7]
2122:.\Generated_Source\PSoC4/USBFS.c ****             USBFS_CyDmaSetDstAddress(channelNum, USBFS_DMA_DESCR0, (void*) pData);
 1360              		.loc 1 2122 0 discriminator 4
 1361 005c BC46     		mov	ip, r7
 1362 005e 6344     		add	r3, r3, ip
 1363 0060 5E60     		str	r6, [r3, #4]
2123:.\Generated_Source\PSoC4/USBFS.c **** 
2124:.\Generated_Source\PSoC4/USBFS.c ****             /* Configure DMA descriptor. */
2125:.\Generated_Source\PSoC4/USBFS.c ****             USBFS_CyDmaSetConfiguration(channelNum, USBFS_DMA_DESCR0, USBFS_DMA_COMMON_CFG | (uint1
 1364              		.loc 1 2125 0 discriminator 4
 1365 0062 4246     		mov	r2, r8
 1366 0064 5208     		lsr	r2, r2, #1
 1367 0066 013A     		sub	r2, r2, #1
 1368 0068 92B2     		uxth	r2, r2
 1369 006a 114E     		ldr	r6, .L86+16
 1370              	.LVL103:
 1371 006c 3243     		orr	r2, r6
 1372 006e 9A60     		str	r2, [r3, #8]
 1373              	.LVL104:
2126:.\Generated_Source\PSoC4/USBFS.c ****                                                     CYDMA_HALFWORD | CYDMA_WORD_ELEMENT | CYDMA_INC
2127:.\Generated_Source\PSoC4/USBFS.c **** 
2128:.\Generated_Source\PSoC4/USBFS.c ****             /* Validate descriptor to execute on following DMA request. */
2129:.\Generated_Source\PSoC4/USBFS.c ****             USBFS_CyDmaValidateDescriptor(channelNum, USBFS_DMA_DESCR0);
 1374              		.loc 1 2129 0 discriminator 4
 1375 0070 8022     		mov	r2, #128
 1376 0072 1206     		lsl	r2, r2, #24
 1377 0074 DA60     		str	r2, [r3, #12]
2130:.\Generated_Source\PSoC4/USBFS.c **** 
2131:.\Generated_Source\PSoC4/USBFS.c ****             /* Enable DMA channel: configuration complete. */
2132:.\Generated_Source\PSoC4/USBFS.c ****             USBFS_CyDmaChEnable(channelNum);
 1378              		.loc 1 2132 0 discriminator 4
 1379 0076 4358     		ldr	r3, [r0, r1]
 1380 0078 1343     		orr	r3, r2
 1381 007a 4350     		str	r3, [r0, r1]
2133:.\Generated_Source\PSoC4/USBFS.c **** 
2134:.\Generated_Source\PSoC4/USBFS.c ****             /* Generate DMA request. */
2135:.\Generated_Source\PSoC4/USBFS.c ****             USBFS_ARB_EP_BASE.arbEp[epNumber].epCfg |=  (uint32)  USBFS_ARB_EPX_CFG_DMA_REQ;
 1382              		.loc 1 2135 0 discriminator 4
 1383 007c 0D4B     		ldr	r3, .L86+20
 1384 007e E258     		ldr	r2, [r4, r3]
 1385 0080 0221     		mov	r1, #2
 1386 0082 0A43     		orr	r2, r1
 1387 0084 E250     		str	r2, [r4, r3]
2136:.\Generated_Source\PSoC4/USBFS.c ****             USBFS_ARB_EP_BASE.arbEp[epNumber].epCfg &=  (uint32) ~USBFS_ARB_EPX_CFG_DMA_REQ;
 1388              		.loc 1 2136 0 discriminator 4
 1389 0086 E258     		ldr	r2, [r4, r3]
 1390 0088 8A43     		bic	r2, r1
 1391 008a E250     		str	r2, [r4, r3]
 1392              	.LBE5:
2114:.\Generated_Source\PSoC4/USBFS.c ****             uint32 channelNum = (uint32) USBFS_DmaChan[epNumber];
 1393              		.loc 1 2114 0 discriminator 4
 1394 008c 04E0     		b	.L81
 1395              	.LVL105:
 1396              	.L83:
2137:.\Generated_Source\PSoC4/USBFS.c **** 
2138:.\Generated_Source\PSoC4/USBFS.c ****             /* OUT endpoint has to be armed again by user when DMA transfers have been completed.
ARM GAS  C:\Users\LAIR\AppData\Local\Temp\ccdy23dh.s 			page 65


2139:.\Generated_Source\PSoC4/USBFS.c ****             * NO_EVENT_PENDING: notifies that data has been copied from endpoint buffer.
2140:.\Generated_Source\PSoC4/USBFS.c ****             */
2141:.\Generated_Source\PSoC4/USBFS.c ****         }
2142:.\Generated_Source\PSoC4/USBFS.c ****         #endif /* (USBFS_EP_MANAGEMENT_DMA_MANUAL) */
2143:.\Generated_Source\PSoC4/USBFS.c **** 
2144:.\Generated_Source\PSoC4/USBFS.c ****         #if (USBFS_EP_MANAGEMENT_DMA_AUTO)
2145:.\Generated_Source\PSoC4/USBFS.c ****         {
2146:.\Generated_Source\PSoC4/USBFS.c ****             uint32 lengthDescr0, lengthDescr1;
2147:.\Generated_Source\PSoC4/USBFS.c ****             uint32 channelNum = (uint32) USBFS_DmaChan[epNumber];
2148:.\Generated_Source\PSoC4/USBFS.c **** 
2149:.\Generated_Source\PSoC4/USBFS.c ****             /* Get number of full bursts. */
2150:.\Generated_Source\PSoC4/USBFS.c ****             USBFS_DmaEpBurstCnt[epNumber] = (uint8) (adjLength / USBFS_DMA_BYTES_PER_BURST);
2151:.\Generated_Source\PSoC4/USBFS.c **** 
2152:.\Generated_Source\PSoC4/USBFS.c ****             /* Get number of elements in last burst. */
2153:.\Generated_Source\PSoC4/USBFS.c ****             USBFS_DmaEpLastBurstEl[epNumber] = (uint8) (adjLength % USBFS_DMA_BYTES_PER_BURST);
2154:.\Generated_Source\PSoC4/USBFS.c **** 
2155:.\Generated_Source\PSoC4/USBFS.c ****             /* Get total number of bursts. */
2156:.\Generated_Source\PSoC4/USBFS.c ****             USBFS_DmaEpBurstCnt[epNumber] += (0u != USBFS_DmaEpLastBurstEl[epNumber]) ? 1u : 0u;
2157:.\Generated_Source\PSoC4/USBFS.c **** 
2158:.\Generated_Source\PSoC4/USBFS.c ****             /* Adjust number of data elements transferred in last burst. */
2159:.\Generated_Source\PSoC4/USBFS.c ****             USBFS_DmaEpLastBurstEl[epNumber] = (0u != USBFS_DmaEpLastBurstEl[epNumber]) ?
2160:.\Generated_Source\PSoC4/USBFS.c ****                                                                   ((USBFS_DmaEpLastBurstEl[epNumber
2161:.\Generated_Source\PSoC4/USBFS.c ****                                                                    (USBFS_DMA_HALFWORDS_PER_BURST -
2162:.\Generated_Source\PSoC4/USBFS.c **** 
2163:.\Generated_Source\PSoC4/USBFS.c ****             /* Get number of data elements to transfer for descriptor 0 and 1. */
2164:.\Generated_Source\PSoC4/USBFS.c ****             lengthDescr0 = (1u == USBFS_DmaEpBurstCnt[epNumber]) ? USBFS_DmaEpLastBurstEl[epNumber]
2165:.\Generated_Source\PSoC4/USBFS.c ****             lengthDescr1 = (2u == USBFS_DmaEpBurstCnt[epNumber]) ? USBFS_DmaEpLastBurstEl[epNumber]
2166:.\Generated_Source\PSoC4/USBFS.c **** 
2167:.\Generated_Source\PSoC4/USBFS.c ****             /* Mark last descriptor to be executed. */
2168:.\Generated_Source\PSoC4/USBFS.c ****             USBFS_DmaEpLastBurstEl[epNumber] |= (0u != (USBFS_DmaEpBurstCnt[epNumber] & 0x1u)) ?
2169:.\Generated_Source\PSoC4/USBFS.c ****                                                                     USBFS_DMA_DESCR0_MASK : USBFS_D
2170:.\Generated_Source\PSoC4/USBFS.c **** 
2171:.\Generated_Source\PSoC4/USBFS.c ****             /* Mark if revert number of data elements in descriptor after transfer completion. */
2172:.\Generated_Source\PSoC4/USBFS.c ****             USBFS_DmaEpLastBurstEl[epNumber] |= (USBFS_DmaEpBurstCnt[epNumber] > 2u) ? USBFS_DMA_DE
2173:.\Generated_Source\PSoC4/USBFS.c **** 
2174:.\Generated_Source\PSoC4/USBFS.c ****             /* Mark that 16-bits access to data register is performed. */
2175:.\Generated_Source\PSoC4/USBFS.c ****             USBFS_DmaEpLastBurstEl[epNumber] |= USBFS_DMA_DESCR_16BITS;
2176:.\Generated_Source\PSoC4/USBFS.c **** 
2177:.\Generated_Source\PSoC4/USBFS.c ****             /* Adjust burst counter taking to account: 2 valid descriptors and interrupt trigger af
2178:.\Generated_Source\PSoC4/USBFS.c ****             USBFS_DmaEpBurstCnt[epNumber] = USBFS_DMA_GET_BURST_CNT(USBFS_DmaEpBurstCnt[epNumber]);
2179:.\Generated_Source\PSoC4/USBFS.c **** 
2180:.\Generated_Source\PSoC4/USBFS.c ****             /* Store address of buffer and burst counter for endpoint. */
2181:.\Generated_Source\PSoC4/USBFS.c ****             USBFS_DmaEpBufferAddrBackup[epNumber] = (uint32) pData;
2182:.\Generated_Source\PSoC4/USBFS.c ****             USBFS_DmaEpBurstCntBackup[epNumber]   = USBFS_DmaEpBurstCnt[epNumber];
2183:.\Generated_Source\PSoC4/USBFS.c **** 
2184:.\Generated_Source\PSoC4/USBFS.c ****             /* Disable DMA channel: start configuration. */
2185:.\Generated_Source\PSoC4/USBFS.c ****             USBFS_CyDmaChDisable(channelNum);
2186:.\Generated_Source\PSoC4/USBFS.c **** 
2187:.\Generated_Source\PSoC4/USBFS.c ****             /* Set destination address. */
2188:.\Generated_Source\PSoC4/USBFS.c ****             USBFS_CyDmaSetSrcAddress(channelNum, USBFS_DMA_DESCR0, (void*) &USBFS_ARB_EP16_BASE.arb
