ARM GAS  C:\Users\LAIR\AppData\Local\Temp\cciUanLt.s 			page 1


   1              		.cpu cortex-m0
   2              		.fpu softvfp
   3              		.eabi_attribute 20, 1
   4              		.eabi_attribute 21, 1
   5              		.eabi_attribute 23, 3
   6              		.eabi_attribute 24, 1
   7              		.eabi_attribute 25, 1
   8              		.eabi_attribute 26, 1
   9              		.eabi_attribute 30, 1
  10              		.eabi_attribute 34, 0
  11              		.eabi_attribute 18, 4
  12              		.code	16
  13              		.file	"USBFS_std.c"
  14              		.text
  15              	.Ltext0:
  16              		.cfi_sections	.debug_frame
  17              		.section	.text.USBFS_ReadDieID,"ax",%progbits
  18              		.align	2
  19              		.global	USBFS_ReadDieID
  20              		.code	16
  21              		.thumb_func
  22              		.type	USBFS_ReadDieID, %function
  23              	USBFS_ReadDieID:
  24              	.LFB66:
  25              		.file 1 ".\\Generated_Source\\PSoC4\\USBFS_std.c"
   1:.\Generated_Source\PSoC4/USBFS_std.c **** /***************************************************************************//**
   2:.\Generated_Source\PSoC4/USBFS_std.c **** * \file USBFS_std.c
   3:.\Generated_Source\PSoC4/USBFS_std.c **** * \version 3.0
   4:.\Generated_Source\PSoC4/USBFS_std.c **** *
   5:.\Generated_Source\PSoC4/USBFS_std.c **** * \brief
   6:.\Generated_Source\PSoC4/USBFS_std.c **** *  This file contains the USB Standard request handler.
   7:.\Generated_Source\PSoC4/USBFS_std.c **** *
   8:.\Generated_Source\PSoC4/USBFS_std.c **** ********************************************************************************
   9:.\Generated_Source\PSoC4/USBFS_std.c **** * \copyright
  10:.\Generated_Source\PSoC4/USBFS_std.c **** * Copyright 2008-2015, Cypress Semiconductor Corporation.  All rights reserved.
  11:.\Generated_Source\PSoC4/USBFS_std.c **** * You may use this file only in accordance with the license, terms, conditions,
  12:.\Generated_Source\PSoC4/USBFS_std.c **** * disclaimers, and limitations in the end user license agreement accompanying
  13:.\Generated_Source\PSoC4/USBFS_std.c **** * the software package with which this file was provided.
  14:.\Generated_Source\PSoC4/USBFS_std.c **** *******************************************************************************/
  15:.\Generated_Source\PSoC4/USBFS_std.c **** 
  16:.\Generated_Source\PSoC4/USBFS_std.c **** #include "USBFS_pvt.h"
  17:.\Generated_Source\PSoC4/USBFS_std.c **** 
  18:.\Generated_Source\PSoC4/USBFS_std.c **** /***************************************
  19:.\Generated_Source\PSoC4/USBFS_std.c **** *   Static data allocation
  20:.\Generated_Source\PSoC4/USBFS_std.c **** ***************************************/
  21:.\Generated_Source\PSoC4/USBFS_std.c **** 
  22:.\Generated_Source\PSoC4/USBFS_std.c **** #if defined(USBFS_ENABLE_FWSN_STRING)
  23:.\Generated_Source\PSoC4/USBFS_std.c ****     static volatile uint8* USBFS_fwSerialNumberStringDescriptor;
  24:.\Generated_Source\PSoC4/USBFS_std.c ****     static volatile uint8  USBFS_snStringConfirm = USBFS_FALSE;
  25:.\Generated_Source\PSoC4/USBFS_std.c **** #endif  /* (USBFS_ENABLE_FWSN_STRING) */
  26:.\Generated_Source\PSoC4/USBFS_std.c **** 
  27:.\Generated_Source\PSoC4/USBFS_std.c **** #if defined(USBFS_ENABLE_FWSN_STRING)
  28:.\Generated_Source\PSoC4/USBFS_std.c ****     /***************************************************************************
  29:.\Generated_Source\PSoC4/USBFS_std.c ****     * Function Name: USBFS_SerialNumString
  30:.\Generated_Source\PSoC4/USBFS_std.c ****     ************************************************************************//**
  31:.\Generated_Source\PSoC4/USBFS_std.c ****     *
  32:.\Generated_Source\PSoC4/USBFS_std.c ****     *  This function is available only when the User Call Back option in the 
ARM GAS  C:\Users\LAIR\AppData\Local\Temp\cciUanLt.s 			page 2


  33:.\Generated_Source\PSoC4/USBFS_std.c ****     *  Serial Number String descriptor properties is selected. Application 
  34:.\Generated_Source\PSoC4/USBFS_std.c ****     *  firmware can provide the source of the USB device serial number string 
  35:.\Generated_Source\PSoC4/USBFS_std.c ****     *  descriptor during run time. The default string is used if the application 
  36:.\Generated_Source\PSoC4/USBFS_std.c ****     *  firmware does not use this function or sets the wrong string descriptor.
  37:.\Generated_Source\PSoC4/USBFS_std.c ****     *
  38:.\Generated_Source\PSoC4/USBFS_std.c ****     *  \param snString:  Pointer to the user-defined string descriptor. The 
  39:.\Generated_Source\PSoC4/USBFS_std.c ****     *  string descriptor should meet the Universal Serial Bus Specification 
  40:.\Generated_Source\PSoC4/USBFS_std.c ****     *  revision 2.0 chapter 9.6.7
  41:.\Generated_Source\PSoC4/USBFS_std.c ****     *  Offset|Size|Value|Description
  42:.\Generated_Source\PSoC4/USBFS_std.c ****     *  ------|----|------|---------------------------------
  43:.\Generated_Source\PSoC4/USBFS_std.c ****     *  0     |1   |N     |Size of this descriptor in bytes
  44:.\Generated_Source\PSoC4/USBFS_std.c ****     *  1     |1   |0x03  |STRING Descriptor Type
  45:.\Generated_Source\PSoC4/USBFS_std.c ****     *  2     |N-2 |Number|UNICODE encoded string
  46:.\Generated_Source\PSoC4/USBFS_std.c ****     *  
  47:.\Generated_Source\PSoC4/USBFS_std.c ****     * *For example:* uint8 snString[16]={0x0E,0x03,'F',0,'W',0,'S',0,'N',0,'0',0,'1',0};
  48:.\Generated_Source\PSoC4/USBFS_std.c ****     *
  49:.\Generated_Source\PSoC4/USBFS_std.c ****     * \reentrant
  50:.\Generated_Source\PSoC4/USBFS_std.c ****     *  No.
  51:.\Generated_Source\PSoC4/USBFS_std.c ****     *
  52:.\Generated_Source\PSoC4/USBFS_std.c ****     ***************************************************************************/
  53:.\Generated_Source\PSoC4/USBFS_std.c ****     void  USBFS_SerialNumString(uint8 snString[]) 
  54:.\Generated_Source\PSoC4/USBFS_std.c ****     {
  55:.\Generated_Source\PSoC4/USBFS_std.c ****         USBFS_snStringConfirm = USBFS_FALSE;
  56:.\Generated_Source\PSoC4/USBFS_std.c ****         
  57:.\Generated_Source\PSoC4/USBFS_std.c ****         if (snString != NULL)
  58:.\Generated_Source\PSoC4/USBFS_std.c ****         {
  59:.\Generated_Source\PSoC4/USBFS_std.c ****             /* Check descriptor validation */
  60:.\Generated_Source\PSoC4/USBFS_std.c ****             if ((snString[0u] > 1u) && (snString[1u] == USBFS_DESCR_STRING))
  61:.\Generated_Source\PSoC4/USBFS_std.c ****             {
  62:.\Generated_Source\PSoC4/USBFS_std.c ****                 USBFS_fwSerialNumberStringDescriptor = snString;
  63:.\Generated_Source\PSoC4/USBFS_std.c ****                 USBFS_snStringConfirm = USBFS_TRUE;
  64:.\Generated_Source\PSoC4/USBFS_std.c ****             }
  65:.\Generated_Source\PSoC4/USBFS_std.c ****         }
  66:.\Generated_Source\PSoC4/USBFS_std.c ****     }
  67:.\Generated_Source\PSoC4/USBFS_std.c **** #endif  /* USBFS_ENABLE_FWSN_STRING */
  68:.\Generated_Source\PSoC4/USBFS_std.c **** 
  69:.\Generated_Source\PSoC4/USBFS_std.c **** 
  70:.\Generated_Source\PSoC4/USBFS_std.c **** /*******************************************************************************
  71:.\Generated_Source\PSoC4/USBFS_std.c **** * Function Name: USBFS_HandleStandardRqst
  72:.\Generated_Source\PSoC4/USBFS_std.c **** ****************************************************************************//**
  73:.\Generated_Source\PSoC4/USBFS_std.c **** *
  74:.\Generated_Source\PSoC4/USBFS_std.c **** *  This Routine dispatches standard requests
  75:.\Generated_Source\PSoC4/USBFS_std.c **** *
  76:.\Generated_Source\PSoC4/USBFS_std.c **** *
  77:.\Generated_Source\PSoC4/USBFS_std.c **** * \return
  78:.\Generated_Source\PSoC4/USBFS_std.c **** *  TRUE if request handled.
  79:.\Generated_Source\PSoC4/USBFS_std.c **** *
  80:.\Generated_Source\PSoC4/USBFS_std.c **** * \reentrant
  81:.\Generated_Source\PSoC4/USBFS_std.c **** *  No.
  82:.\Generated_Source\PSoC4/USBFS_std.c **** *
  83:.\Generated_Source\PSoC4/USBFS_std.c **** *******************************************************************************/
  84:.\Generated_Source\PSoC4/USBFS_std.c **** uint8 USBFS_HandleStandardRqst(void) 
  85:.\Generated_Source\PSoC4/USBFS_std.c **** {
  86:.\Generated_Source\PSoC4/USBFS_std.c ****     uint8 requestHandled = USBFS_FALSE;
  87:.\Generated_Source\PSoC4/USBFS_std.c ****     uint32 interfaceNumber;
  88:.\Generated_Source\PSoC4/USBFS_std.c ****     uint32 configurationN;
  89:.\Generated_Source\PSoC4/USBFS_std.c ****     uint32 bmRequestType = USBFS_bmRequestTypeReg;
ARM GAS  C:\Users\LAIR\AppData\Local\Temp\cciUanLt.s 			page 3


  90:.\Generated_Source\PSoC4/USBFS_std.c **** 
  91:.\Generated_Source\PSoC4/USBFS_std.c **** #if defined(USBFS_ENABLE_STRINGS)
  92:.\Generated_Source\PSoC4/USBFS_std.c ****     volatile uint8 *pStr = 0u;
  93:.\Generated_Source\PSoC4/USBFS_std.c ****     #if defined(USBFS_ENABLE_DESCRIPTOR_STRINGS)
  94:.\Generated_Source\PSoC4/USBFS_std.c ****         uint8 nStr;
  95:.\Generated_Source\PSoC4/USBFS_std.c ****         uint8 descrLength;
  96:.\Generated_Source\PSoC4/USBFS_std.c ****     #endif /* (USBFS_ENABLE_DESCRIPTOR_STRINGS) */
  97:.\Generated_Source\PSoC4/USBFS_std.c **** #endif /* (USBFS_ENABLE_STRINGS) */
  98:.\Generated_Source\PSoC4/USBFS_std.c ****     
  99:.\Generated_Source\PSoC4/USBFS_std.c ****     static volatile uint8 USBFS_tBuffer[USBFS_STATUS_LENGTH_MAX];
 100:.\Generated_Source\PSoC4/USBFS_std.c ****     const T_USBFS_LUT CYCODE *pTmp;
 101:.\Generated_Source\PSoC4/USBFS_std.c **** 
 102:.\Generated_Source\PSoC4/USBFS_std.c ****     USBFS_currentTD.count = 0u;
 103:.\Generated_Source\PSoC4/USBFS_std.c **** 
 104:.\Generated_Source\PSoC4/USBFS_std.c ****     if (USBFS_RQST_DIR_D2H == (bmRequestType & USBFS_RQST_DIR_MASK))
 105:.\Generated_Source\PSoC4/USBFS_std.c ****     {
 106:.\Generated_Source\PSoC4/USBFS_std.c ****         /* Control Read */
 107:.\Generated_Source\PSoC4/USBFS_std.c ****         switch (USBFS_bRequestReg)
 108:.\Generated_Source\PSoC4/USBFS_std.c ****         {
 109:.\Generated_Source\PSoC4/USBFS_std.c ****             case USBFS_GET_DESCRIPTOR:
 110:.\Generated_Source\PSoC4/USBFS_std.c ****                 if (USBFS_DESCR_DEVICE ==USBFS_wValueHiReg)
 111:.\Generated_Source\PSoC4/USBFS_std.c ****                 {
 112:.\Generated_Source\PSoC4/USBFS_std.c ****                     pTmp = USBFS_GetDeviceTablePtr();
 113:.\Generated_Source\PSoC4/USBFS_std.c ****                     USBFS_currentTD.pData = (volatile uint8 *)pTmp->p_list;
 114:.\Generated_Source\PSoC4/USBFS_std.c ****                     USBFS_currentTD.count = USBFS_DEVICE_DESCR_LENGTH;
 115:.\Generated_Source\PSoC4/USBFS_std.c ****                     
 116:.\Generated_Source\PSoC4/USBFS_std.c ****                     requestHandled  = USBFS_InitControlRead();
 117:.\Generated_Source\PSoC4/USBFS_std.c ****                 }
 118:.\Generated_Source\PSoC4/USBFS_std.c ****                 else if (USBFS_DESCR_CONFIG == USBFS_wValueHiReg)
 119:.\Generated_Source\PSoC4/USBFS_std.c ****                 {
 120:.\Generated_Source\PSoC4/USBFS_std.c ****                     pTmp = USBFS_GetConfigTablePtr((uint8) USBFS_wValueLoReg);
 121:.\Generated_Source\PSoC4/USBFS_std.c ****                     
 122:.\Generated_Source\PSoC4/USBFS_std.c ****                     /* Verify that requested descriptor exists */
 123:.\Generated_Source\PSoC4/USBFS_std.c ****                     if (pTmp != NULL)
 124:.\Generated_Source\PSoC4/USBFS_std.c ****                     {
 125:.\Generated_Source\PSoC4/USBFS_std.c ****                         USBFS_currentTD.pData = (volatile uint8 *)pTmp->p_list;
 126:.\Generated_Source\PSoC4/USBFS_std.c ****                         USBFS_currentTD.count = (uint16)((uint16)(USBFS_currentTD.pData)[USBFS_CONF
 127:.\Generated_Source\PSoC4/USBFS_std.c ****                                                                             (USBFS_currentTD.pData)
 128:.\Generated_Source\PSoC4/USBFS_std.c ****                         requestHandled  = USBFS_InitControlRead();
 129:.\Generated_Source\PSoC4/USBFS_std.c ****                     }
 130:.\Generated_Source\PSoC4/USBFS_std.c ****                 }
 131:.\Generated_Source\PSoC4/USBFS_std.c ****                 
 132:.\Generated_Source\PSoC4/USBFS_std.c ****             #if(USBFS_BOS_ENABLE)
 133:.\Generated_Source\PSoC4/USBFS_std.c ****                 else if (USBFS_DESCR_BOS == USBFS_wValueHiReg)
 134:.\Generated_Source\PSoC4/USBFS_std.c ****                 {
 135:.\Generated_Source\PSoC4/USBFS_std.c ****                     pTmp = USBFS_GetBOSPtr();
 136:.\Generated_Source\PSoC4/USBFS_std.c ****                     
 137:.\Generated_Source\PSoC4/USBFS_std.c ****                     /* Verify that requested descriptor exists */
 138:.\Generated_Source\PSoC4/USBFS_std.c ****                     if (pTmp != NULL)
 139:.\Generated_Source\PSoC4/USBFS_std.c ****                     {
 140:.\Generated_Source\PSoC4/USBFS_std.c ****                         USBFS_currentTD.pData = (volatile uint8 *)pTmp;
 141:.\Generated_Source\PSoC4/USBFS_std.c ****                         USBFS_currentTD.count = ((uint16)((uint16)(USBFS_currentTD.pData)[USBFS_BOS
 142:.\Generated_Source\PSoC4/USBFS_std.c ****                                                                              (USBFS_currentTD.pData
 143:.\Generated_Source\PSoC4/USBFS_std.c ****                         requestHandled  = USBFS_InitControlRead();
 144:.\Generated_Source\PSoC4/USBFS_std.c ****                     }
 145:.\Generated_Source\PSoC4/USBFS_std.c ****                 }
 146:.\Generated_Source\PSoC4/USBFS_std.c ****             #endif /*(USBFS_BOS_ENABLE)*/
ARM GAS  C:\Users\LAIR\AppData\Local\Temp\cciUanLt.s 			page 4


 147:.\Generated_Source\PSoC4/USBFS_std.c ****             
 148:.\Generated_Source\PSoC4/USBFS_std.c ****             #if defined(USBFS_ENABLE_STRINGS)
 149:.\Generated_Source\PSoC4/USBFS_std.c ****                 else if (USBFS_DESCR_STRING == USBFS_wValueHiReg)
 150:.\Generated_Source\PSoC4/USBFS_std.c ****                 {
 151:.\Generated_Source\PSoC4/USBFS_std.c ****                 /* Descriptor Strings */
 152:.\Generated_Source\PSoC4/USBFS_std.c ****                 #if defined(USBFS_ENABLE_DESCRIPTOR_STRINGS)
 153:.\Generated_Source\PSoC4/USBFS_std.c ****                     nStr = 0u;
 154:.\Generated_Source\PSoC4/USBFS_std.c ****                     pStr = (volatile uint8 *) &USBFS_STRING_DESCRIPTORS[0u];
 155:.\Generated_Source\PSoC4/USBFS_std.c ****                     
 156:.\Generated_Source\PSoC4/USBFS_std.c ****                     while ((USBFS_wValueLoReg > nStr) && (*pStr != 0u))
 157:.\Generated_Source\PSoC4/USBFS_std.c ****                     {
 158:.\Generated_Source\PSoC4/USBFS_std.c ****                         /* Read descriptor length from 1st byte */
 159:.\Generated_Source\PSoC4/USBFS_std.c ****                         descrLength = *pStr;
 160:.\Generated_Source\PSoC4/USBFS_std.c ****                         /* Move to next string descriptor */
 161:.\Generated_Source\PSoC4/USBFS_std.c ****                         pStr = &pStr[descrLength];
 162:.\Generated_Source\PSoC4/USBFS_std.c ****                         nStr++;
 163:.\Generated_Source\PSoC4/USBFS_std.c ****                     }
 164:.\Generated_Source\PSoC4/USBFS_std.c ****                 #endif /* (USBFS_ENABLE_DESCRIPTOR_STRINGS) */
 165:.\Generated_Source\PSoC4/USBFS_std.c ****                 
 166:.\Generated_Source\PSoC4/USBFS_std.c ****                 /* Microsoft OS String */
 167:.\Generated_Source\PSoC4/USBFS_std.c ****                 #if defined(USBFS_ENABLE_MSOS_STRING)
 168:.\Generated_Source\PSoC4/USBFS_std.c ****                     if (USBFS_STRING_MSOS == USBFS_wValueLoReg)
 169:.\Generated_Source\PSoC4/USBFS_std.c ****                     {
 170:.\Generated_Source\PSoC4/USBFS_std.c ****                         pStr = (volatile uint8 *)& USBFS_MSOS_DESCRIPTOR[0u];
 171:.\Generated_Source\PSoC4/USBFS_std.c ****                     }
 172:.\Generated_Source\PSoC4/USBFS_std.c ****                 #endif /* (USBFS_ENABLE_MSOS_STRING) */
 173:.\Generated_Source\PSoC4/USBFS_std.c ****                 
 174:.\Generated_Source\PSoC4/USBFS_std.c ****                 /* SN string */
 175:.\Generated_Source\PSoC4/USBFS_std.c ****                 #if defined(USBFS_ENABLE_SN_STRING)
 176:.\Generated_Source\PSoC4/USBFS_std.c ****                     if ((USBFS_wValueLoReg != 0u) && 
 177:.\Generated_Source\PSoC4/USBFS_std.c ****                         (USBFS_wValueLoReg == USBFS_DEVICE0_DESCR[USBFS_DEVICE_DESCR_SN_SHIFT]))
 178:.\Generated_Source\PSoC4/USBFS_std.c ****                     {
 179:.\Generated_Source\PSoC4/USBFS_std.c ****                     #if defined(USBFS_ENABLE_IDSN_STRING)
 180:.\Generated_Source\PSoC4/USBFS_std.c ****                         /* Read DIE ID and generate string descriptor in RAM */
 181:.\Generated_Source\PSoC4/USBFS_std.c ****                         USBFS_ReadDieID(USBFS_idSerialNumberStringDescriptor);
 182:.\Generated_Source\PSoC4/USBFS_std.c ****                         pStr = USBFS_idSerialNumberStringDescriptor;
 183:.\Generated_Source\PSoC4/USBFS_std.c ****                     #elif defined(USBFS_ENABLE_FWSN_STRING)
 184:.\Generated_Source\PSoC4/USBFS_std.c ****                         
 185:.\Generated_Source\PSoC4/USBFS_std.c ****                         if(USBFS_snStringConfirm != USBFS_FALSE)
 186:.\Generated_Source\PSoC4/USBFS_std.c ****                         {
 187:.\Generated_Source\PSoC4/USBFS_std.c ****                             pStr = USBFS_fwSerialNumberStringDescriptor;
 188:.\Generated_Source\PSoC4/USBFS_std.c ****                         }
 189:.\Generated_Source\PSoC4/USBFS_std.c ****                         else
 190:.\Generated_Source\PSoC4/USBFS_std.c ****                         {
 191:.\Generated_Source\PSoC4/USBFS_std.c ****                             pStr = (volatile uint8 *)&USBFS_SN_STRING_DESCRIPTOR[0u];
 192:.\Generated_Source\PSoC4/USBFS_std.c ****                         }
 193:.\Generated_Source\PSoC4/USBFS_std.c ****                     #else
 194:.\Generated_Source\PSoC4/USBFS_std.c ****                         pStr = (volatile uint8 *)&USBFS_SN_STRING_DESCRIPTOR[0u];
 195:.\Generated_Source\PSoC4/USBFS_std.c ****                     #endif  /* (USBFS_ENABLE_IDSN_STRING) */
 196:.\Generated_Source\PSoC4/USBFS_std.c ****                     }
 197:.\Generated_Source\PSoC4/USBFS_std.c ****                 #endif /* (USBFS_ENABLE_SN_STRING) */
 198:.\Generated_Source\PSoC4/USBFS_std.c ****                 
 199:.\Generated_Source\PSoC4/USBFS_std.c ****                     if (*pStr != 0u)
 200:.\Generated_Source\PSoC4/USBFS_std.c ****                     {
 201:.\Generated_Source\PSoC4/USBFS_std.c ****                         USBFS_currentTD.count = *pStr;
 202:.\Generated_Source\PSoC4/USBFS_std.c ****                         USBFS_currentTD.pData = pStr;
 203:.\Generated_Source\PSoC4/USBFS_std.c ****                         requestHandled  = USBFS_InitControlRead();
ARM GAS  C:\Users\LAIR\AppData\Local\Temp\cciUanLt.s 			page 5


 204:.\Generated_Source\PSoC4/USBFS_std.c ****                     }
 205:.\Generated_Source\PSoC4/USBFS_std.c ****                 }
 206:.\Generated_Source\PSoC4/USBFS_std.c ****             #endif /*  USBFS_ENABLE_STRINGS */
 207:.\Generated_Source\PSoC4/USBFS_std.c ****                 else
 208:.\Generated_Source\PSoC4/USBFS_std.c ****                 {
 209:.\Generated_Source\PSoC4/USBFS_std.c ****                     requestHandled = USBFS_DispatchClassRqst();
 210:.\Generated_Source\PSoC4/USBFS_std.c ****                 }
 211:.\Generated_Source\PSoC4/USBFS_std.c ****                 break;
 212:.\Generated_Source\PSoC4/USBFS_std.c ****                 
 213:.\Generated_Source\PSoC4/USBFS_std.c ****             case USBFS_GET_STATUS:
 214:.\Generated_Source\PSoC4/USBFS_std.c ****                 switch (bmRequestType & USBFS_RQST_RCPT_MASK)
 215:.\Generated_Source\PSoC4/USBFS_std.c ****                 {
 216:.\Generated_Source\PSoC4/USBFS_std.c ****                     case USBFS_RQST_RCPT_EP:
 217:.\Generated_Source\PSoC4/USBFS_std.c ****                         USBFS_currentTD.count = USBFS_EP_STATUS_LENGTH;
 218:.\Generated_Source\PSoC4/USBFS_std.c ****                         USBFS_tBuffer[0u]     = USBFS_EP[USBFS_wIndexLoReg & USBFS_DIR_UNUSED].hwEp
 219:.\Generated_Source\PSoC4/USBFS_std.c ****                         USBFS_tBuffer[1u]     = 0u;
 220:.\Generated_Source\PSoC4/USBFS_std.c ****                         USBFS_currentTD.pData = &USBFS_tBuffer[0u];
 221:.\Generated_Source\PSoC4/USBFS_std.c ****                         
 222:.\Generated_Source\PSoC4/USBFS_std.c ****                         requestHandled  = USBFS_InitControlRead();
 223:.\Generated_Source\PSoC4/USBFS_std.c ****                         break;
 224:.\Generated_Source\PSoC4/USBFS_std.c ****                     case USBFS_RQST_RCPT_DEV:
 225:.\Generated_Source\PSoC4/USBFS_std.c ****                         USBFS_currentTD.count = USBFS_DEVICE_STATUS_LENGTH;
 226:.\Generated_Source\PSoC4/USBFS_std.c ****                         USBFS_tBuffer[0u]     = USBFS_deviceStatus;
 227:.\Generated_Source\PSoC4/USBFS_std.c ****                         USBFS_tBuffer[1u]     = 0u;
 228:.\Generated_Source\PSoC4/USBFS_std.c ****                         USBFS_currentTD.pData = &USBFS_tBuffer[0u];
 229:.\Generated_Source\PSoC4/USBFS_std.c ****                         
 230:.\Generated_Source\PSoC4/USBFS_std.c ****                         requestHandled  = USBFS_InitControlRead();
 231:.\Generated_Source\PSoC4/USBFS_std.c ****                         break;
 232:.\Generated_Source\PSoC4/USBFS_std.c ****                     default:    /* requestHandled is initialized as FALSE by default */
 233:.\Generated_Source\PSoC4/USBFS_std.c ****                         break;
 234:.\Generated_Source\PSoC4/USBFS_std.c ****                 }
 235:.\Generated_Source\PSoC4/USBFS_std.c ****                 break;
 236:.\Generated_Source\PSoC4/USBFS_std.c ****                 
 237:.\Generated_Source\PSoC4/USBFS_std.c ****             case USBFS_GET_CONFIGURATION:
 238:.\Generated_Source\PSoC4/USBFS_std.c ****                 USBFS_currentTD.count = 1u;
 239:.\Generated_Source\PSoC4/USBFS_std.c ****                 USBFS_currentTD.pData = (volatile uint8 *) &USBFS_configuration;
 240:.\Generated_Source\PSoC4/USBFS_std.c ****                 requestHandled  = USBFS_InitControlRead();
 241:.\Generated_Source\PSoC4/USBFS_std.c ****                 break;
 242:.\Generated_Source\PSoC4/USBFS_std.c ****                 
 243:.\Generated_Source\PSoC4/USBFS_std.c ****             case USBFS_GET_INTERFACE:
 244:.\Generated_Source\PSoC4/USBFS_std.c ****                 USBFS_currentTD.count = 1u;
 245:.\Generated_Source\PSoC4/USBFS_std.c ****                 USBFS_currentTD.pData = (volatile uint8 *) &USBFS_interfaceSetting[USBFS_wIndexLoRe
 246:.\Generated_Source\PSoC4/USBFS_std.c ****                 requestHandled  = USBFS_InitControlRead();
 247:.\Generated_Source\PSoC4/USBFS_std.c ****                 break;
 248:.\Generated_Source\PSoC4/USBFS_std.c ****                 
 249:.\Generated_Source\PSoC4/USBFS_std.c ****             default: /* requestHandled is initialized as FALSE by default */
 250:.\Generated_Source\PSoC4/USBFS_std.c ****                 break;
 251:.\Generated_Source\PSoC4/USBFS_std.c ****         }
 252:.\Generated_Source\PSoC4/USBFS_std.c ****     }
 253:.\Generated_Source\PSoC4/USBFS_std.c ****     else
 254:.\Generated_Source\PSoC4/USBFS_std.c ****     {
 255:.\Generated_Source\PSoC4/USBFS_std.c ****         /* Control Write */
 256:.\Generated_Source\PSoC4/USBFS_std.c ****         switch (USBFS_bRequestReg)
 257:.\Generated_Source\PSoC4/USBFS_std.c ****         {
 258:.\Generated_Source\PSoC4/USBFS_std.c ****             case USBFS_SET_ADDRESS:
 259:.\Generated_Source\PSoC4/USBFS_std.c ****                 /* Store address to be set in USBFS_NoDataControlStatusStage(). */
 260:.\Generated_Source\PSoC4/USBFS_std.c ****                 USBFS_deviceAddress = (uint8) USBFS_wValueLoReg;
ARM GAS  C:\Users\LAIR\AppData\Local\Temp\cciUanLt.s 			page 6


 261:.\Generated_Source\PSoC4/USBFS_std.c ****                 requestHandled = USBFS_InitNoDataControlTransfer();
 262:.\Generated_Source\PSoC4/USBFS_std.c ****                 break;
 263:.\Generated_Source\PSoC4/USBFS_std.c ****                 
 264:.\Generated_Source\PSoC4/USBFS_std.c ****             case USBFS_SET_CONFIGURATION:
 265:.\Generated_Source\PSoC4/USBFS_std.c ****                 configurationN = USBFS_wValueLoReg;
 266:.\Generated_Source\PSoC4/USBFS_std.c ****                 
 267:.\Generated_Source\PSoC4/USBFS_std.c ****                 /* Verify that configuration descriptor exists */
 268:.\Generated_Source\PSoC4/USBFS_std.c ****                 if(configurationN > 0u)
 269:.\Generated_Source\PSoC4/USBFS_std.c ****                 {
 270:.\Generated_Source\PSoC4/USBFS_std.c ****                     pTmp = USBFS_GetConfigTablePtr((uint8) configurationN - 1u);
 271:.\Generated_Source\PSoC4/USBFS_std.c ****                 }
 272:.\Generated_Source\PSoC4/USBFS_std.c ****                 
 273:.\Generated_Source\PSoC4/USBFS_std.c ****                 /* Responds with a Request Error when configuration number is invalid */
 274:.\Generated_Source\PSoC4/USBFS_std.c ****                 if (((configurationN > 0u) && (pTmp != NULL)) || (configurationN == 0u))
 275:.\Generated_Source\PSoC4/USBFS_std.c ****                 {
 276:.\Generated_Source\PSoC4/USBFS_std.c ****                     /* Set new configuration if it has been changed */
 277:.\Generated_Source\PSoC4/USBFS_std.c ****                     if(configurationN != USBFS_configuration)
 278:.\Generated_Source\PSoC4/USBFS_std.c ****                     {
 279:.\Generated_Source\PSoC4/USBFS_std.c ****                         USBFS_configuration = (uint8) configurationN;
 280:.\Generated_Source\PSoC4/USBFS_std.c ****                         USBFS_configurationChanged = USBFS_TRUE;
 281:.\Generated_Source\PSoC4/USBFS_std.c ****                         USBFS_Config(USBFS_TRUE);
 282:.\Generated_Source\PSoC4/USBFS_std.c ****                     }
 283:.\Generated_Source\PSoC4/USBFS_std.c ****                     requestHandled = USBFS_InitNoDataControlTransfer();
 284:.\Generated_Source\PSoC4/USBFS_std.c ****                 }
 285:.\Generated_Source\PSoC4/USBFS_std.c ****                 break;
 286:.\Generated_Source\PSoC4/USBFS_std.c ****                 
 287:.\Generated_Source\PSoC4/USBFS_std.c ****             case USBFS_SET_INTERFACE:
 288:.\Generated_Source\PSoC4/USBFS_std.c ****                 if (0u != USBFS_ValidateAlternateSetting())
 289:.\Generated_Source\PSoC4/USBFS_std.c ****                 {
 290:.\Generated_Source\PSoC4/USBFS_std.c ****                     /* Get interface number from the request. */
 291:.\Generated_Source\PSoC4/USBFS_std.c ****                     interfaceNumber = USBFS_wIndexLoReg;
 292:.\Generated_Source\PSoC4/USBFS_std.c ****                     USBFS_interfaceNumber = (uint8) USBFS_wIndexLoReg;
 293:.\Generated_Source\PSoC4/USBFS_std.c ****                      
 294:.\Generated_Source\PSoC4/USBFS_std.c ****                     /* Check if alternate settings is changed for interface. */
 295:.\Generated_Source\PSoC4/USBFS_std.c ****                     if (USBFS_interfaceSettingLast[interfaceNumber] != USBFS_interfaceSetting[inter
 296:.\Generated_Source\PSoC4/USBFS_std.c ****                     {
 297:.\Generated_Source\PSoC4/USBFS_std.c ****                         USBFS_configurationChanged = USBFS_TRUE;
 298:.\Generated_Source\PSoC4/USBFS_std.c ****                     
 299:.\Generated_Source\PSoC4/USBFS_std.c ****                         /* Change alternate setting for the endpoints. */
 300:.\Generated_Source\PSoC4/USBFS_std.c ****                     #if (USBFS_EP_MANAGEMENT_MANUAL && USBFS_EP_ALLOC_DYNAMIC)
 301:.\Generated_Source\PSoC4/USBFS_std.c ****                         USBFS_Config(USBFS_FALSE);
 302:.\Generated_Source\PSoC4/USBFS_std.c ****                     #else
 303:.\Generated_Source\PSoC4/USBFS_std.c ****                         USBFS_ConfigAltChanged();
 304:.\Generated_Source\PSoC4/USBFS_std.c ****                     #endif /* (USBFS_EP_MANAGEMENT_MANUAL && USBFS_EP_ALLOC_DYNAMIC) */
 305:.\Generated_Source\PSoC4/USBFS_std.c ****                     }
 306:.\Generated_Source\PSoC4/USBFS_std.c ****                     
 307:.\Generated_Source\PSoC4/USBFS_std.c ****                     requestHandled = USBFS_InitNoDataControlTransfer();
 308:.\Generated_Source\PSoC4/USBFS_std.c ****                 }
 309:.\Generated_Source\PSoC4/USBFS_std.c ****                 break;
 310:.\Generated_Source\PSoC4/USBFS_std.c ****                 
 311:.\Generated_Source\PSoC4/USBFS_std.c ****             case USBFS_CLEAR_FEATURE:
 312:.\Generated_Source\PSoC4/USBFS_std.c ****                 switch (bmRequestType & USBFS_RQST_RCPT_MASK)
 313:.\Generated_Source\PSoC4/USBFS_std.c ****                 {
 314:.\Generated_Source\PSoC4/USBFS_std.c ****                     case USBFS_RQST_RCPT_EP:
 315:.\Generated_Source\PSoC4/USBFS_std.c ****                         if (USBFS_wValueLoReg == USBFS_ENDPOINT_HALT)
 316:.\Generated_Source\PSoC4/USBFS_std.c ****                         {
 317:.\Generated_Source\PSoC4/USBFS_std.c ****                             requestHandled = USBFS_ClearEndpointHalt();
ARM GAS  C:\Users\LAIR\AppData\Local\Temp\cciUanLt.s 			page 7


 318:.\Generated_Source\PSoC4/USBFS_std.c ****                         }
 319:.\Generated_Source\PSoC4/USBFS_std.c ****                         break;
 320:.\Generated_Source\PSoC4/USBFS_std.c ****                     case USBFS_RQST_RCPT_DEV:
 321:.\Generated_Source\PSoC4/USBFS_std.c ****                         /* Clear device REMOTE_WAKEUP */
 322:.\Generated_Source\PSoC4/USBFS_std.c ****                         if (USBFS_wValueLoReg == USBFS_DEVICE_REMOTE_WAKEUP)
 323:.\Generated_Source\PSoC4/USBFS_std.c ****                         {
 324:.\Generated_Source\PSoC4/USBFS_std.c ****                             USBFS_deviceStatus &= (uint8)~USBFS_DEVICE_STATUS_REMOTE_WAKEUP;
 325:.\Generated_Source\PSoC4/USBFS_std.c ****                             requestHandled = USBFS_InitNoDataControlTransfer();
 326:.\Generated_Source\PSoC4/USBFS_std.c ****                         }
 327:.\Generated_Source\PSoC4/USBFS_std.c ****                         break;
 328:.\Generated_Source\PSoC4/USBFS_std.c ****                     case USBFS_RQST_RCPT_IFC:
 329:.\Generated_Source\PSoC4/USBFS_std.c ****                         /* Validate interfaceNumber */
 330:.\Generated_Source\PSoC4/USBFS_std.c ****                         if (USBFS_wIndexLoReg < USBFS_MAX_INTERFACES_NUMBER)
 331:.\Generated_Source\PSoC4/USBFS_std.c ****                         {
 332:.\Generated_Source\PSoC4/USBFS_std.c ****                             USBFS_interfaceStatus[USBFS_wIndexLoReg] &= (uint8) ~USBFS_wValueLoReg;
 333:.\Generated_Source\PSoC4/USBFS_std.c ****                             requestHandled = USBFS_InitNoDataControlTransfer();
 334:.\Generated_Source\PSoC4/USBFS_std.c ****                         }
 335:.\Generated_Source\PSoC4/USBFS_std.c ****                         break;
 336:.\Generated_Source\PSoC4/USBFS_std.c ****                     default:    /* requestHandled is initialized as FALSE by default */
 337:.\Generated_Source\PSoC4/USBFS_std.c ****                         break;
 338:.\Generated_Source\PSoC4/USBFS_std.c ****                 }
 339:.\Generated_Source\PSoC4/USBFS_std.c ****                 break;
 340:.\Generated_Source\PSoC4/USBFS_std.c ****                 
 341:.\Generated_Source\PSoC4/USBFS_std.c ****             case USBFS_SET_FEATURE:
 342:.\Generated_Source\PSoC4/USBFS_std.c ****                 switch (bmRequestType & USBFS_RQST_RCPT_MASK)
 343:.\Generated_Source\PSoC4/USBFS_std.c ****                 {
 344:.\Generated_Source\PSoC4/USBFS_std.c ****                     case USBFS_RQST_RCPT_EP:
 345:.\Generated_Source\PSoC4/USBFS_std.c ****                         if (USBFS_wValueLoReg == USBFS_ENDPOINT_HALT)
 346:.\Generated_Source\PSoC4/USBFS_std.c ****                         {
 347:.\Generated_Source\PSoC4/USBFS_std.c ****                             requestHandled = USBFS_SetEndpointHalt();
 348:.\Generated_Source\PSoC4/USBFS_std.c ****                         }
 349:.\Generated_Source\PSoC4/USBFS_std.c ****                         break;
 350:.\Generated_Source\PSoC4/USBFS_std.c ****                         
 351:.\Generated_Source\PSoC4/USBFS_std.c ****                     case USBFS_RQST_RCPT_DEV:
 352:.\Generated_Source\PSoC4/USBFS_std.c ****                         /* Set device REMOTE_WAKEUP */
 353:.\Generated_Source\PSoC4/USBFS_std.c ****                         if (USBFS_wValueLoReg == USBFS_DEVICE_REMOTE_WAKEUP)
 354:.\Generated_Source\PSoC4/USBFS_std.c ****                         {
 355:.\Generated_Source\PSoC4/USBFS_std.c ****                             USBFS_deviceStatus |= USBFS_DEVICE_STATUS_REMOTE_WAKEUP;
 356:.\Generated_Source\PSoC4/USBFS_std.c ****                             requestHandled = USBFS_InitNoDataControlTransfer();
 357:.\Generated_Source\PSoC4/USBFS_std.c ****                         }
 358:.\Generated_Source\PSoC4/USBFS_std.c ****                         break;
 359:.\Generated_Source\PSoC4/USBFS_std.c ****                         
 360:.\Generated_Source\PSoC4/USBFS_std.c ****                     case USBFS_RQST_RCPT_IFC:
 361:.\Generated_Source\PSoC4/USBFS_std.c ****                         /* Validate interfaceNumber */
 362:.\Generated_Source\PSoC4/USBFS_std.c ****                         if (USBFS_wIndexLoReg < USBFS_MAX_INTERFACES_NUMBER)
 363:.\Generated_Source\PSoC4/USBFS_std.c ****                         {
 364:.\Generated_Source\PSoC4/USBFS_std.c ****                             USBFS_interfaceStatus[USBFS_wIndexLoReg] &= (uint8) ~USBFS_wValueLoReg;
 365:.\Generated_Source\PSoC4/USBFS_std.c ****                             requestHandled = USBFS_InitNoDataControlTransfer();
 366:.\Generated_Source\PSoC4/USBFS_std.c ****                         }
 367:.\Generated_Source\PSoC4/USBFS_std.c ****                         break;
 368:.\Generated_Source\PSoC4/USBFS_std.c ****                     
 369:.\Generated_Source\PSoC4/USBFS_std.c ****                     default:    /* requestHandled is initialized as FALSE by default */
 370:.\Generated_Source\PSoC4/USBFS_std.c ****                         break;
 371:.\Generated_Source\PSoC4/USBFS_std.c ****                 }
 372:.\Generated_Source\PSoC4/USBFS_std.c ****                 break;
 373:.\Generated_Source\PSoC4/USBFS_std.c ****                 
 374:.\Generated_Source\PSoC4/USBFS_std.c ****             default:    /* requestHandled is initialized as FALSE by default */
ARM GAS  C:\Users\LAIR\AppData\Local\Temp\cciUanLt.s 			page 8


 375:.\Generated_Source\PSoC4/USBFS_std.c ****                 break;
 376:.\Generated_Source\PSoC4/USBFS_std.c ****         }
 377:.\Generated_Source\PSoC4/USBFS_std.c ****     }
 378:.\Generated_Source\PSoC4/USBFS_std.c ****     
 379:.\Generated_Source\PSoC4/USBFS_std.c ****     return (requestHandled);
 380:.\Generated_Source\PSoC4/USBFS_std.c **** }
 381:.\Generated_Source\PSoC4/USBFS_std.c **** 
 382:.\Generated_Source\PSoC4/USBFS_std.c **** 
 383:.\Generated_Source\PSoC4/USBFS_std.c **** #if defined(USBFS_ENABLE_IDSN_STRING)
 384:.\Generated_Source\PSoC4/USBFS_std.c ****     /***************************************************************************
 385:.\Generated_Source\PSoC4/USBFS_std.c ****     * Function Name: USBFS_ReadDieID
 386:.\Generated_Source\PSoC4/USBFS_std.c ****     ************************************************************************//**
 387:.\Generated_Source\PSoC4/USBFS_std.c ****     *
 388:.\Generated_Source\PSoC4/USBFS_std.c ****     *  This routine read Die ID and generate Serial Number string descriptor.
 389:.\Generated_Source\PSoC4/USBFS_std.c ****     *
 390:.\Generated_Source\PSoC4/USBFS_std.c ****     *  \param descr:  pointer on string descriptor. This string size has to be equal or
 391:.\Generated_Source\PSoC4/USBFS_std.c ****     *          greater than USBFS_IDSN_DESCR_LENGTH.
 392:.\Generated_Source\PSoC4/USBFS_std.c ****     *
 393:.\Generated_Source\PSoC4/USBFS_std.c ****     *
 394:.\Generated_Source\PSoC4/USBFS_std.c ****     * \reentrant
 395:.\Generated_Source\PSoC4/USBFS_std.c ****     *  No.
 396:.\Generated_Source\PSoC4/USBFS_std.c ****     *
 397:.\Generated_Source\PSoC4/USBFS_std.c ****     ***************************************************************************/
 398:.\Generated_Source\PSoC4/USBFS_std.c ****     void USBFS_ReadDieID(uint8 descr[]) 
 399:.\Generated_Source\PSoC4/USBFS_std.c ****     {
  26              		.loc 1 399 0
  27              		.cfi_startproc
  28              	.LVL0:
  29 0000 F0B5     		push	{r4, r5, r6, r7, lr}
  30              		.cfi_def_cfa_offset 20
  31              		.cfi_offset 4, -20
  32              		.cfi_offset 5, -16
  33              		.cfi_offset 6, -12
  34              		.cfi_offset 7, -8
  35              		.cfi_offset 14, -4
  36 0002 89B0     		sub	sp, sp, #36
  37              		.cfi_def_cfa_offset 56
 400:.\Generated_Source\PSoC4/USBFS_std.c ****         const char8 CYCODE hex[] = "0123456789ABCDEF";
  38              		.loc 1 400 0
  39 0004 03AB     		add	r3, sp, #12
  40 0006 164A     		ldr	r2, .L5
  41 0008 32CA     		ldmia	r2!, {r1, r4, r5}
  42 000a 32C3     		stmia	r3!, {r1, r4, r5}
  43 000c 191C     		mov	r1, r3
  44 000e 1368     		ldr	r3, [r2]
  45 0010 0B60     		str	r3, [r1]
  46 0012 1379     		ldrb	r3, [r2, #4]
  47 0014 0B71     		strb	r3, [r1, #4]
  48              	.LVL1:
 401:.\Generated_Source\PSoC4/USBFS_std.c ****         uint32 i;
 402:.\Generated_Source\PSoC4/USBFS_std.c ****         uint32 j = 0u;
 403:.\Generated_Source\PSoC4/USBFS_std.c ****         uint8 uniqueId[8u];
 404:.\Generated_Source\PSoC4/USBFS_std.c **** 
 405:.\Generated_Source\PSoC4/USBFS_std.c ****         if (NULL != descr)
  49              		.loc 1 405 0
  50 0016 0028     		cmp	r0, #0
  51 0018 20D0     		beq	.L1
ARM GAS  C:\Users\LAIR\AppData\Local\Temp\cciUanLt.s 			page 9


  52 001a 041C     		mov	r4, r0
 406:.\Generated_Source\PSoC4/USBFS_std.c ****         {
 407:.\Generated_Source\PSoC4/USBFS_std.c ****             /* Initialize descriptor header. */
 408:.\Generated_Source\PSoC4/USBFS_std.c ****             descr[0u] = USBFS_IDSN_DESCR_LENGTH;
  53              		.loc 1 408 0
  54 001c 2223     		mov	r3, #34
  55 001e 0370     		strb	r3, [r0]
 409:.\Generated_Source\PSoC4/USBFS_std.c ****             descr[1u] = USBFS_DESCR_STRING;
  56              		.loc 1 409 0
  57 0020 1F3B     		sub	r3, r3, #31
  58 0022 4370     		strb	r3, [r0, #1]
 410:.\Generated_Source\PSoC4/USBFS_std.c ****             
 411:.\Generated_Source\PSoC4/USBFS_std.c ****             /* Unique ID size is 8 bytes. */
 412:.\Generated_Source\PSoC4/USBFS_std.c ****             CyGetUniqueId((uint32 *) uniqueId);
  59              		.loc 1 412 0
  60 0024 01A8     		add	r0, sp, #4
  61              	.LVL2:
  62 0026 FFF7FEFF 		bl	CyGetUniqueId
  63              	.LVL3:
 402:.\Generated_Source\PSoC4/USBFS_std.c ****         uint8 uniqueId[8u];
  64              		.loc 1 402 0
  65 002a 0020     		mov	r0, #0
 413:.\Generated_Source\PSoC4/USBFS_std.c **** 
 414:.\Generated_Source\PSoC4/USBFS_std.c ****             /* Fill descriptor with unique device ID. */
 415:.\Generated_Source\PSoC4/USBFS_std.c ****             for (i = 2u; i < USBFS_IDSN_DESCR_LENGTH; i += 4u)
  66              		.loc 1 415 0
  67 002c 0223     		mov	r3, #2
  68 002e 13E0     		b	.L3
  69              	.LVL4:
  70              	.L4:
 416:.\Generated_Source\PSoC4/USBFS_std.c ****             {
 417:.\Generated_Source\PSoC4/USBFS_std.c ****                 descr[i]      = (uint8) hex[(uniqueId[j] >> 4u)];
  71              		.loc 1 417 0 discriminator 3
  72 0030 01AA     		add	r2, sp, #4
  73 0032 125C     		ldrb	r2, [r2, r0]
  74 0034 1109     		lsr	r1, r2, #4
  75 0036 03AD     		add	r5, sp, #12
  76 0038 695C     		ldrb	r1, [r5, r1]
  77 003a E154     		strb	r1, [r4, r3]
 418:.\Generated_Source\PSoC4/USBFS_std.c ****                 descr[i + 1u] = 0u;
  78              		.loc 1 418 0 discriminator 3
  79 003c 591C     		add	r1, r3, #1
  80 003e 6118     		add	r1, r4, r1
  81 0040 0026     		mov	r6, #0
  82 0042 0E70     		strb	r6, [r1]
 419:.\Generated_Source\PSoC4/USBFS_std.c ****                 descr[i + 2u] = (uint8) hex[(uniqueId[j] & 0x0Fu)];
  83              		.loc 1 419 0 discriminator 3
  84 0044 991C     		add	r1, r3, #2
  85 0046 0F27     		mov	r7, #15
  86 0048 3A40     		and	r2, r7
  87 004a AA5C     		ldrb	r2, [r5, r2]
  88 004c 6254     		strb	r2, [r4, r1]
 420:.\Generated_Source\PSoC4/USBFS_std.c ****                 descr[i + 3u] = 0u;
  89              		.loc 1 420 0 discriminator 3
  90 004e DA1C     		add	r2, r3, #3
  91 0050 A218     		add	r2, r4, r2
  92 0052 1670     		strb	r6, [r2]
ARM GAS  C:\Users\LAIR\AppData\Local\Temp\cciUanLt.s 			page 10


 421:.\Generated_Source\PSoC4/USBFS_std.c ****                 ++j;
  93              		.loc 1 421 0 discriminator 3
  94 0054 0130     		add	r0, r0, #1
  95              	.LVL5:
 415:.\Generated_Source\PSoC4/USBFS_std.c ****             {
  96              		.loc 1 415 0 discriminator 3
  97 0056 0433     		add	r3, r3, #4
  98              	.LVL6:
  99              	.L3:
 415:.\Generated_Source\PSoC4/USBFS_std.c ****             {
 100              		.loc 1 415 0 is_stmt 0 discriminator 1
 101 0058 212B     		cmp	r3, #33
 102 005a E9D9     		bls	.L4
 103              	.LVL7:
 104              	.L1:
 422:.\Generated_Source\PSoC4/USBFS_std.c ****             }
 423:.\Generated_Source\PSoC4/USBFS_std.c ****         }
 424:.\Generated_Source\PSoC4/USBFS_std.c ****     }
 105              		.loc 1 424 0 is_stmt 1
 106 005c 09B0     		add	sp, sp, #36
 107              		@ sp needed
 108 005e F0BD     		pop	{r4, r5, r6, r7, pc}
 109              	.L6:
 110              		.align	2
 111              	.L5:
 112 0060 00000000 		.word	.LC0
 113              		.cfi_endproc
 114              	.LFE66:
 115              		.size	USBFS_ReadDieID, .-USBFS_ReadDieID
 116              		.section	.text.USBFS_ConfigReg,"ax",%progbits
 117              		.align	2
 118              		.global	USBFS_ConfigReg
 119              		.code	16
 120              		.thumb_func
 121              		.type	USBFS_ConfigReg, %function
 122              	USBFS_ConfigReg:
 123              	.LFB67:
 425:.\Generated_Source\PSoC4/USBFS_std.c **** #endif /* (USBFS_ENABLE_IDSN_STRING) */
 426:.\Generated_Source\PSoC4/USBFS_std.c **** 
 427:.\Generated_Source\PSoC4/USBFS_std.c **** 
 428:.\Generated_Source\PSoC4/USBFS_std.c **** /*******************************************************************************
 429:.\Generated_Source\PSoC4/USBFS_std.c **** * Function Name: USBFS_ConfigReg
 430:.\Generated_Source\PSoC4/USBFS_std.c **** ****************************************************************************//**
 431:.\Generated_Source\PSoC4/USBFS_std.c **** *
 432:.\Generated_Source\PSoC4/USBFS_std.c **** *  This routine configures hardware registers from the variables.
 433:.\Generated_Source\PSoC4/USBFS_std.c **** *  It is called from USBFS_Config() function and from RestoreConfig
 434:.\Generated_Source\PSoC4/USBFS_std.c **** *  after Wakeup.
 435:.\Generated_Source\PSoC4/USBFS_std.c **** *
 436:.\Generated_Source\PSoC4/USBFS_std.c **** *******************************************************************************/
 437:.\Generated_Source\PSoC4/USBFS_std.c **** void USBFS_ConfigReg(void) 
 438:.\Generated_Source\PSoC4/USBFS_std.c **** {
 124              		.loc 1 438 0
 125              		.cfi_startproc
 126 0000 10B5     		push	{r4, lr}
 127              		.cfi_def_cfa_offset 8
 128              		.cfi_offset 4, -8
 129              		.cfi_offset 14, -4
ARM GAS  C:\Users\LAIR\AppData\Local\Temp\cciUanLt.s 			page 11


 130              	.LVL8:
 439:.\Generated_Source\PSoC4/USBFS_std.c ****     uint32 ep;
 440:.\Generated_Source\PSoC4/USBFS_std.c **** 
 441:.\Generated_Source\PSoC4/USBFS_std.c **** #if (USBFS_EP_MANAGEMENT_DMA_AUTO)
 442:.\Generated_Source\PSoC4/USBFS_std.c ****     uint8 epType = 0u;
 443:.\Generated_Source\PSoC4/USBFS_std.c **** #endif /* (USBFS_EP_MANAGEMENT_DMA_AUTO) */
 444:.\Generated_Source\PSoC4/USBFS_std.c **** 
 445:.\Generated_Source\PSoC4/USBFS_std.c ****     /* Go thought all endpoints and set hardware configuration */
 446:.\Generated_Source\PSoC4/USBFS_std.c ****     for (ep = USBFS_EP1; ep < USBFS_MAX_EP; ++ep)
 131              		.loc 1 446 0
 132 0002 0123     		mov	r3, #1
 133 0004 3BE0     		b	.L8
 134              	.LVL9:
 135              	.L12:
 447:.\Generated_Source\PSoC4/USBFS_std.c ****     {
 448:.\Generated_Source\PSoC4/USBFS_std.c ****         USBFS_ARB_EP_BASE.arbEp[ep].epCfg = USBFS_ARB_EPX_CFG_DEFAULT;
 136              		.loc 1 448 0
 137 0006 9A01     		lsl	r2, r3, #6
 138 0008 0C20     		mov	r0, #12
 139 000a 2049     		ldr	r1, .L13
 140 000c 5050     		str	r0, [r2, r1]
 449:.\Generated_Source\PSoC4/USBFS_std.c ****         
 450:.\Generated_Source\PSoC4/USBFS_std.c ****     #if (USBFS_EP_MANAGEMENT_DMA)
 451:.\Generated_Source\PSoC4/USBFS_std.c ****         /* Enable arbiter endpoint interrupt sources */
 452:.\Generated_Source\PSoC4/USBFS_std.c ****         USBFS_ARB_EP_BASE.arbEp[ep].epIntEn = USBFS_ARB_EPX_INT_MASK;
 141              		.loc 1 452 0
 142 000e 8C46     		mov	ip, r1
 143 0010 6244     		add	r2, r2, ip
 144 0012 1F21     		mov	r1, #31
 145 0014 5160     		str	r1, [r2, #4]
 453:.\Generated_Source\PSoC4/USBFS_std.c ****     #endif /* (USBFS_EP_MANAGEMENT_DMA) */
 454:.\Generated_Source\PSoC4/USBFS_std.c ****     
 455:.\Generated_Source\PSoC4/USBFS_std.c ****         if (USBFS_EP[ep].epMode != USBFS_MODE_DISABLE)
 146              		.loc 1 455 0
 147 0016 5A00     		lsl	r2, r3, #1
 148 0018 D218     		add	r2, r2, r3
 149 001a 9200     		lsl	r2, r2, #2
 150 001c 1C49     		ldr	r1, .L13+4
 151 001e 8A18     		add	r2, r1, r2
 152 0020 5279     		ldrb	r2, [r2, #5]
 153 0022 002A     		cmp	r2, #0
 154 0024 15D0     		beq	.L9
 456:.\Generated_Source\PSoC4/USBFS_std.c ****         {
 457:.\Generated_Source\PSoC4/USBFS_std.c ****             if (0u != (USBFS_EP[ep].addr & USBFS_DIR_IN))
 155              		.loc 1 457 0
 156 0026 5A00     		lsl	r2, r3, #1
 157 0028 D218     		add	r2, r2, r3
 158 002a 9200     		lsl	r2, r2, #2
 159 002c 8A18     		add	r2, r1, r2
 160 002e 1279     		ldrb	r2, [r2, #4]
 161 0030 52B2     		sxtb	r2, r2
 162 0032 002A     		cmp	r2, #0
 163 0034 06DA     		bge	.L10
 458:.\Generated_Source\PSoC4/USBFS_std.c ****             {
 459:.\Generated_Source\PSoC4/USBFS_std.c ****                 USBFS_SIE_EP_BASE.sieEp[ep].epCr0 = USBFS_MODE_NAK_IN;
 164              		.loc 1 459 0
 165 0036 9A01     		lsl	r2, r3, #6
ARM GAS  C:\Users\LAIR\AppData\Local\Temp\cciUanLt.s 			page 12


 166 0038 1649     		ldr	r1, .L13+8
 167 003a 8C46     		mov	ip, r1
 168 003c 6244     		add	r2, r2, ip
 169 003e 0C21     		mov	r1, #12
 170 0040 9160     		str	r1, [r2, #8]
 171 0042 0CE0     		b	.L11
 172              	.L10:
 460:.\Generated_Source\PSoC4/USBFS_std.c ****                 
 461:.\Generated_Source\PSoC4/USBFS_std.c ****             #if (USBFS_EP_MANAGEMENT_DMA_AUTO && CY_PSOC4)
 462:.\Generated_Source\PSoC4/USBFS_std.c ****                 /* Clear DMA_TERMIN for IN endpoint. */
 463:.\Generated_Source\PSoC4/USBFS_std.c ****                 USBFS_ARB_EP_BASE.arbEp[ep].epIntEn &= (uint32) ~USBFS_ARB_EPX_INT_DMA_TERMIN;
 464:.\Generated_Source\PSoC4/USBFS_std.c ****             #endif /* (USBFS_EP_MANAGEMENT_DMA_AUTO && CY_PSOC4) */
 465:.\Generated_Source\PSoC4/USBFS_std.c ****             }
 466:.\Generated_Source\PSoC4/USBFS_std.c ****             else
 467:.\Generated_Source\PSoC4/USBFS_std.c ****             {
 468:.\Generated_Source\PSoC4/USBFS_std.c ****                 USBFS_SIE_EP_BASE.sieEp[ep].epCr0 = USBFS_MODE_NAK_OUT;
 173              		.loc 1 468 0
 174 0044 9A01     		lsl	r2, r3, #6
 175 0046 1349     		ldr	r1, .L13+8
 176 0048 8C46     		mov	ip, r1
 177 004a 6244     		add	r2, r2, ip
 178 004c 0821     		mov	r1, #8
 179 004e 9160     		str	r1, [r2, #8]
 180 0050 05E0     		b	.L11
 181              	.L9:
 469:.\Generated_Source\PSoC4/USBFS_std.c **** 
 470:.\Generated_Source\PSoC4/USBFS_std.c ****             #if (USBFS_EP_MANAGEMENT_DMA_AUTO)
 471:.\Generated_Source\PSoC4/USBFS_std.c ****                 /* (CY_PSOC4): DMA_TERMIN for OUT endpoint is set above. */
 472:.\Generated_Source\PSoC4/USBFS_std.c ****                 
 473:.\Generated_Source\PSoC4/USBFS_std.c ****                 /* Prepare endpoint type mask. */
 474:.\Generated_Source\PSoC4/USBFS_std.c ****                 epType |= (uint8) (0x01u << (ep - USBFS_EP1));
 475:.\Generated_Source\PSoC4/USBFS_std.c ****             #endif /* (USBFS_EP_MANAGEMENT_DMA_AUTO) */
 476:.\Generated_Source\PSoC4/USBFS_std.c ****             }
 477:.\Generated_Source\PSoC4/USBFS_std.c ****         }
 478:.\Generated_Source\PSoC4/USBFS_std.c ****         else
 479:.\Generated_Source\PSoC4/USBFS_std.c ****         {
 480:.\Generated_Source\PSoC4/USBFS_std.c ****             USBFS_SIE_EP_BASE.sieEp[ep].epCr0 = USBFS_MODE_STALL_DATA_EP;
 182              		.loc 1 480 0
 183 0052 9A01     		lsl	r2, r3, #6
 184 0054 0F49     		ldr	r1, .L13+8
 185 0056 8C46     		mov	ip, r1
 186 0058 6244     		add	r2, r2, ip
 187 005a 8021     		mov	r1, #128
 188 005c 9160     		str	r1, [r2, #8]
 189              	.L11:
 481:.\Generated_Source\PSoC4/USBFS_std.c ****         }
 482:.\Generated_Source\PSoC4/USBFS_std.c ****         
 483:.\Generated_Source\PSoC4/USBFS_std.c ****     #if (!USBFS_EP_MANAGEMENT_DMA_AUTO)
 484:.\Generated_Source\PSoC4/USBFS_std.c ****         #if (CY_PSOC4)
 485:.\Generated_Source\PSoC4/USBFS_std.c ****             USBFS_ARB_EP16_BASE.arbEp[ep].rwRa16  = (uint32) USBFS_EP[ep].buffOffset;
 190              		.loc 1 485 0 discriminator 2
 191 005e 5A00     		lsl	r2, r3, #1
 192 0060 D218     		add	r2, r2, r3
 193 0062 9200     		lsl	r2, r2, #2
 194 0064 0A49     		ldr	r1, .L13+4
 195 0066 8A18     		add	r2, r1, r2
 196 0068 D188     		ldrh	r1, [r2, #6]
ARM GAS  C:\Users\LAIR\AppData\Local\Temp\cciUanLt.s 			page 13


 197 006a 89B2     		uxth	r1, r1
 198 006c 9801     		lsl	r0, r3, #6
 199 006e 0A4C     		ldr	r4, .L13+12
 200 0070 0419     		add	r4, r0, r4
 201 0072 A160     		str	r1, [r4, #8]
 486:.\Generated_Source\PSoC4/USBFS_std.c ****             USBFS_ARB_EP16_BASE.arbEp[ep].rwWa16  = (uint32) USBFS_EP[ep].buffOffset;
 202              		.loc 1 486 0 discriminator 2
 203 0074 D288     		ldrh	r2, [r2, #6]
 204 0076 92B2     		uxth	r2, r2
 205 0078 0749     		ldr	r1, .L13+12
 206 007a 4250     		str	r2, [r0, r1]
 446:.\Generated_Source\PSoC4/USBFS_std.c ****     {
 207              		.loc 1 446 0 discriminator 2
 208 007c 0133     		add	r3, r3, #1
 209              	.LVL10:
 210              	.L8:
 446:.\Generated_Source\PSoC4/USBFS_std.c ****     {
 211              		.loc 1 446 0 is_stmt 0 discriminator 1
 212 007e 082B     		cmp	r3, #8
 213 0080 C1D9     		bls	.L12
 487:.\Generated_Source\PSoC4/USBFS_std.c ****         #else
 488:.\Generated_Source\PSoC4/USBFS_std.c ****             USBFS_ARB_EP_BASE.arbEp[ep].rwRa    = LO8(USBFS_EP[ep].buffOffset);
 489:.\Generated_Source\PSoC4/USBFS_std.c ****             USBFS_ARB_EP_BASE.arbEp[ep].rwRaMsb = HI8(USBFS_EP[ep].buffOffset);
 490:.\Generated_Source\PSoC4/USBFS_std.c ****             USBFS_ARB_EP_BASE.arbEp[ep].rwWa    = LO8(USBFS_EP[ep].buffOffset);
 491:.\Generated_Source\PSoC4/USBFS_std.c ****             USBFS_ARB_EP_BASE.arbEp[ep].rwWaMsb = HI8(USBFS_EP[ep].buffOffset);
 492:.\Generated_Source\PSoC4/USBFS_std.c ****         #endif /* (CY_PSOC4) */
 493:.\Generated_Source\PSoC4/USBFS_std.c ****     #endif /* (!USBFS_EP_MANAGEMENT_DMA_AUTO) */
 494:.\Generated_Source\PSoC4/USBFS_std.c ****     }
 495:.\Generated_Source\PSoC4/USBFS_std.c **** 
 496:.\Generated_Source\PSoC4/USBFS_std.c **** #if (USBFS_EP_MANAGEMENT_DMA_AUTO)
 497:.\Generated_Source\PSoC4/USBFS_std.c ****      /* BUF_SIZE depend on DMA_THRESS value:0x55-32 bytes  0x44-16 bytes 0x33-8 bytes 0x22-4 bytes 
 498:.\Generated_Source\PSoC4/USBFS_std.c ****     USBFS_BUF_SIZE_REG = USBFS_DMA_BUF_SIZE;
 499:.\Generated_Source\PSoC4/USBFS_std.c **** 
 500:.\Generated_Source\PSoC4/USBFS_std.c ****     /* Configure DMA burst threshold */
 501:.\Generated_Source\PSoC4/USBFS_std.c **** #if (CY_PSOC4)
 502:.\Generated_Source\PSoC4/USBFS_std.c ****     USBFS_DMA_THRES16_REG   = USBFS_DMA_BYTES_PER_BURST;
 503:.\Generated_Source\PSoC4/USBFS_std.c **** #else
 504:.\Generated_Source\PSoC4/USBFS_std.c ****     USBFS_DMA_THRES_REG     = USBFS_DMA_BYTES_PER_BURST;
 505:.\Generated_Source\PSoC4/USBFS_std.c ****     USBFS_DMA_THRES_MSB_REG = 0u;
 506:.\Generated_Source\PSoC4/USBFS_std.c **** #endif /* (CY_PSOC4) */
 507:.\Generated_Source\PSoC4/USBFS_std.c ****     USBFS_EP_ACTIVE_REG = USBFS_DEFAULT_ARB_INT_EN;
 508:.\Generated_Source\PSoC4/USBFS_std.c ****     USBFS_EP_TYPE_REG   = epType;
 509:.\Generated_Source\PSoC4/USBFS_std.c ****     
 510:.\Generated_Source\PSoC4/USBFS_std.c ****     /* Cfg_cmp bit set to 1 once configuration is complete. */
 511:.\Generated_Source\PSoC4/USBFS_std.c ****     /* Lock arbiter configtuation */
 512:.\Generated_Source\PSoC4/USBFS_std.c ****     USBFS_ARB_CFG_REG |= (uint32)  USBFS_ARB_CFG_CFG_CMP;
 513:.\Generated_Source\PSoC4/USBFS_std.c ****     /* Cfg_cmp bit set to 0 during configuration of PFSUSB Registers. */
 514:.\Generated_Source\PSoC4/USBFS_std.c ****     USBFS_ARB_CFG_REG &= (uint32) ~USBFS_ARB_CFG_CFG_CMP;
 515:.\Generated_Source\PSoC4/USBFS_std.c **** 
 516:.\Generated_Source\PSoC4/USBFS_std.c **** #endif /* (USBFS_EP_MANAGEMENT_DMA_AUTO) */
 517:.\Generated_Source\PSoC4/USBFS_std.c **** 
 518:.\Generated_Source\PSoC4/USBFS_std.c ****     /* Enable interrupt SIE interurpt source from EP0-EP1 */
 519:.\Generated_Source\PSoC4/USBFS_std.c ****     USBFS_SIE_EP_INT_EN_REG = (uint32) USBFS_DEFAULT_SIE_EP_INT_EN;
 214              		.loc 1 519 0 is_stmt 1
 215 0082 FF22     		mov	r2, #255
 216 0084 054B     		ldr	r3, .L13+16
 217              	.LVL11:
ARM GAS  C:\Users\LAIR\AppData\Local\Temp\cciUanLt.s 			page 14


 218 0086 1A60     		str	r2, [r3]
 520:.\Generated_Source\PSoC4/USBFS_std.c **** }
 219              		.loc 1 520 0
 220              		@ sp needed
 221 0088 10BD     		pop	{r4, pc}
 222              	.L14:
 223 008a C046     		.align	2
 224              	.L13:
 225 008c C0012C40 		.word	1076625856
 226 0090 00000000 		.word	USBFS_EP
 227 0094 F0FF2B40 		.word	1076625392
 228 0098 D0112C40 		.word	1076629968
 229 009c 28002C40 		.word	1076625448
 230              		.cfi_endproc
 231              	.LFE67:
 232              		.size	USBFS_ConfigReg, .-USBFS_ConfigReg
 233              		.section	.text.USBFS_EpStateInit,"ax",%progbits
 234              		.align	2
 235              		.global	USBFS_EpStateInit
 236              		.code	16
 237              		.thumb_func
 238              		.type	USBFS_EpStateInit, %function
 239              	USBFS_EpStateInit:
 240              	.LFB68:
 521:.\Generated_Source\PSoC4/USBFS_std.c **** 
 522:.\Generated_Source\PSoC4/USBFS_std.c **** 
 523:.\Generated_Source\PSoC4/USBFS_std.c **** /*******************************************************************************
 524:.\Generated_Source\PSoC4/USBFS_std.c **** * Function Name: USBFS_EpStateInit
 525:.\Generated_Source\PSoC4/USBFS_std.c **** ****************************************************************************//**
 526:.\Generated_Source\PSoC4/USBFS_std.c **** *
 527:.\Generated_Source\PSoC4/USBFS_std.c **** *  This routine initialize state of Data end points based of its type: 
 528:.\Generated_Source\PSoC4/USBFS_std.c **** *   IN  - USBFS_IN_BUFFER_EMPTY (USBFS_EVENT_PENDING)
 529:.\Generated_Source\PSoC4/USBFS_std.c **** *   OUT - USBFS_OUT_BUFFER_EMPTY (USBFS_NO_EVENT_PENDING)
 530:.\Generated_Source\PSoC4/USBFS_std.c **** *
 531:.\Generated_Source\PSoC4/USBFS_std.c **** *******************************************************************************/
 532:.\Generated_Source\PSoC4/USBFS_std.c **** void USBFS_EpStateInit(void) 
 533:.\Generated_Source\PSoC4/USBFS_std.c **** {
 241              		.loc 1 533 0
 242              		.cfi_startproc
 243              	.LVL12:
 534:.\Generated_Source\PSoC4/USBFS_std.c ****     uint8 i;
 535:.\Generated_Source\PSoC4/USBFS_std.c **** 
 536:.\Generated_Source\PSoC4/USBFS_std.c ****     for (i = USBFS_EP1; i < USBFS_MAX_EP; i++)
 244              		.loc 1 536 0
 245 0000 0123     		mov	r3, #1
 246 0002 18E0     		b	.L16
 247              	.LVL13:
 248              	.L19:
 537:.\Generated_Source\PSoC4/USBFS_std.c ****     { 
 538:.\Generated_Source\PSoC4/USBFS_std.c ****         if (0u != (USBFS_EP[i].addr & USBFS_DIR_IN))
 249              		.loc 1 538 0
 250 0004 5A00     		lsl	r2, r3, #1
 251 0006 D218     		add	r2, r2, r3
 252 0008 9200     		lsl	r2, r2, #2
 253 000a 0C49     		ldr	r1, .L20
 254 000c 8A18     		add	r2, r1, r2
 255 000e 1279     		ldrb	r2, [r2, #4]
ARM GAS  C:\Users\LAIR\AppData\Local\Temp\cciUanLt.s 			page 15


 256 0010 52B2     		sxtb	r2, r2
 257 0012 002A     		cmp	r2, #0
 258 0014 06DA     		bge	.L17
 539:.\Generated_Source\PSoC4/USBFS_std.c ****         {
 540:.\Generated_Source\PSoC4/USBFS_std.c ****             /* IN Endpoint */
 541:.\Generated_Source\PSoC4/USBFS_std.c ****             USBFS_EP[i].apiEpState = USBFS_EVENT_PENDING;
 259              		.loc 1 541 0
 260 0016 5A00     		lsl	r2, r3, #1
 261 0018 D218     		add	r2, r2, r3
 262 001a 9200     		lsl	r2, r2, #2
 263 001c 8A18     		add	r2, r1, r2
 264 001e 0121     		mov	r1, #1
 265 0020 5170     		strb	r1, [r2, #1]
 266 0022 06E0     		b	.L18
 267              	.L17:
 542:.\Generated_Source\PSoC4/USBFS_std.c ****         }
 543:.\Generated_Source\PSoC4/USBFS_std.c ****         else
 544:.\Generated_Source\PSoC4/USBFS_std.c ****         {
 545:.\Generated_Source\PSoC4/USBFS_std.c ****             /* OUT Endpoint */
 546:.\Generated_Source\PSoC4/USBFS_std.c ****             USBFS_EP[i].apiEpState = USBFS_NO_EVENT_PENDING;
 268              		.loc 1 546 0
 269 0024 5A00     		lsl	r2, r3, #1
 270 0026 D218     		add	r2, r2, r3
 271 0028 9200     		lsl	r2, r2, #2
 272 002a 0449     		ldr	r1, .L20
 273 002c 8A18     		add	r2, r1, r2
 274 002e 0021     		mov	r1, #0
 275 0030 5170     		strb	r1, [r2, #1]
 276              	.L18:
 536:.\Generated_Source\PSoC4/USBFS_std.c ****     { 
 277              		.loc 1 536 0 discriminator 2
 278 0032 0133     		add	r3, r3, #1
 279              	.LVL14:
 280 0034 DBB2     		uxtb	r3, r3
 281              	.LVL15:
 282              	.L16:
 536:.\Generated_Source\PSoC4/USBFS_std.c ****     { 
 283              		.loc 1 536 0 is_stmt 0 discriminator 1
 284 0036 082B     		cmp	r3, #8
 285 0038 E4D9     		bls	.L19
 547:.\Generated_Source\PSoC4/USBFS_std.c ****         }
 548:.\Generated_Source\PSoC4/USBFS_std.c ****     }
 549:.\Generated_Source\PSoC4/USBFS_std.c ****                     
 550:.\Generated_Source\PSoC4/USBFS_std.c **** }
 286              		.loc 1 550 0 is_stmt 1
 287              		@ sp needed
 288 003a 7047     		bx	lr
 289              	.L21:
 290              		.align	2
 291              	.L20:
 292 003c 00000000 		.word	USBFS_EP
 293              		.cfi_endproc
 294              	.LFE68:
 295              		.size	USBFS_EpStateInit, .-USBFS_EpStateInit
 296              		.section	.text.USBFS_GetConfigTablePtr,"ax",%progbits
 297              		.align	2
 298              		.global	USBFS_GetConfigTablePtr
ARM GAS  C:\Users\LAIR\AppData\Local\Temp\cciUanLt.s 			page 16


 299              		.code	16
 300              		.thumb_func
 301              		.type	USBFS_GetConfigTablePtr, %function
 302              	USBFS_GetConfigTablePtr:
 303              	.LFB71:
 551:.\Generated_Source\PSoC4/USBFS_std.c **** 
 552:.\Generated_Source\PSoC4/USBFS_std.c **** 
 553:.\Generated_Source\PSoC4/USBFS_std.c **** /*******************************************************************************
 554:.\Generated_Source\PSoC4/USBFS_std.c **** * Function Name: USBFS_Config
 555:.\Generated_Source\PSoC4/USBFS_std.c **** ****************************************************************************//**
 556:.\Generated_Source\PSoC4/USBFS_std.c **** *
 557:.\Generated_Source\PSoC4/USBFS_std.c **** *  This routine configures endpoints for the entire configuration by scanning
 558:.\Generated_Source\PSoC4/USBFS_std.c **** *  the configuration descriptor.
 559:.\Generated_Source\PSoC4/USBFS_std.c **** *
 560:.\Generated_Source\PSoC4/USBFS_std.c **** *  \param clearAltSetting: It configures the bAlternateSetting 0 for each interface.
 561:.\Generated_Source\PSoC4/USBFS_std.c **** *
 562:.\Generated_Source\PSoC4/USBFS_std.c **** * USBFS_interfaceClass - Initialized class array for each interface.
 563:.\Generated_Source\PSoC4/USBFS_std.c **** *   It is used for handling Class specific requests depend on interface class.
 564:.\Generated_Source\PSoC4/USBFS_std.c **** *   Different classes in multiple Alternate settings does not supported.
 565:.\Generated_Source\PSoC4/USBFS_std.c **** *
 566:.\Generated_Source\PSoC4/USBFS_std.c **** * \reentrant
 567:.\Generated_Source\PSoC4/USBFS_std.c **** *  No.
 568:.\Generated_Source\PSoC4/USBFS_std.c **** *
 569:.\Generated_Source\PSoC4/USBFS_std.c **** *******************************************************************************/
 570:.\Generated_Source\PSoC4/USBFS_std.c **** void USBFS_Config(uint8 clearAltSetting) 
 571:.\Generated_Source\PSoC4/USBFS_std.c **** {
 572:.\Generated_Source\PSoC4/USBFS_std.c ****     uint8 ep;
 573:.\Generated_Source\PSoC4/USBFS_std.c ****     uint8 curEp;
 574:.\Generated_Source\PSoC4/USBFS_std.c ****     uint8 i;
 575:.\Generated_Source\PSoC4/USBFS_std.c ****     uint8 epType;
 576:.\Generated_Source\PSoC4/USBFS_std.c ****     const uint8 *pDescr;
 577:.\Generated_Source\PSoC4/USBFS_std.c ****     
 578:.\Generated_Source\PSoC4/USBFS_std.c ****     #if (!USBFS_EP_MANAGEMENT_DMA_AUTO)
 579:.\Generated_Source\PSoC4/USBFS_std.c ****         uint16 buffCount = 0u;
 580:.\Generated_Source\PSoC4/USBFS_std.c ****     #endif /* (!USBFS_EP_MANAGEMENT_DMA_AUTO) */
 581:.\Generated_Source\PSoC4/USBFS_std.c **** 
 582:.\Generated_Source\PSoC4/USBFS_std.c ****     const T_USBFS_LUT CYCODE *pTmp;
 583:.\Generated_Source\PSoC4/USBFS_std.c ****     const T_USBFS_EP_SETTINGS_BLOCK CYCODE *pEP;
 584:.\Generated_Source\PSoC4/USBFS_std.c **** 
 585:.\Generated_Source\PSoC4/USBFS_std.c ****     /* Clear endpoints settings */
 586:.\Generated_Source\PSoC4/USBFS_std.c ****     for (ep = 0u; ep < USBFS_MAX_EP; ++ep)
 587:.\Generated_Source\PSoC4/USBFS_std.c ****     {
 588:.\Generated_Source\PSoC4/USBFS_std.c ****         USBFS_EP[ep].attrib     = 0u;
 589:.\Generated_Source\PSoC4/USBFS_std.c ****         USBFS_EP[ep].hwEpState  = 0u;
 590:.\Generated_Source\PSoC4/USBFS_std.c ****         USBFS_EP[ep].epToggle   = 0u;
 591:.\Generated_Source\PSoC4/USBFS_std.c ****         USBFS_EP[ep].bufferSize = 0u;
 592:.\Generated_Source\PSoC4/USBFS_std.c ****         USBFS_EP[ep].interface  = 0u;
 593:.\Generated_Source\PSoC4/USBFS_std.c ****         USBFS_EP[ep].apiEpState = USBFS_NO_EVENT_PENDING;
 594:.\Generated_Source\PSoC4/USBFS_std.c ****         USBFS_EP[ep].epMode     = USBFS_MODE_DISABLE;   
 595:.\Generated_Source\PSoC4/USBFS_std.c ****     }
 596:.\Generated_Source\PSoC4/USBFS_std.c **** 
 597:.\Generated_Source\PSoC4/USBFS_std.c ****     /* Clear Alternate settings for all interfaces. */
 598:.\Generated_Source\PSoC4/USBFS_std.c ****     if (0u != clearAltSetting)
 599:.\Generated_Source\PSoC4/USBFS_std.c ****     {
 600:.\Generated_Source\PSoC4/USBFS_std.c ****         for (i = 0u; i < USBFS_MAX_INTERFACES_NUMBER; ++i)
 601:.\Generated_Source\PSoC4/USBFS_std.c ****         {
 602:.\Generated_Source\PSoC4/USBFS_std.c ****             USBFS_interfaceSetting[i]     = 0u;
ARM GAS  C:\Users\LAIR\AppData\Local\Temp\cciUanLt.s 			page 17


 603:.\Generated_Source\PSoC4/USBFS_std.c ****             USBFS_interfaceSettingLast[i] = 0u;
 604:.\Generated_Source\PSoC4/USBFS_std.c ****         }
 605:.\Generated_Source\PSoC4/USBFS_std.c ****     }
 606:.\Generated_Source\PSoC4/USBFS_std.c **** 
 607:.\Generated_Source\PSoC4/USBFS_std.c ****     /* Init Endpoints and Device Status if configured */
 608:.\Generated_Source\PSoC4/USBFS_std.c ****     if (USBFS_configuration > 0u)
 609:.\Generated_Source\PSoC4/USBFS_std.c ****     {
 610:.\Generated_Source\PSoC4/USBFS_std.c ****         #if defined(USBFS_ENABLE_CDC_CLASS)
 611:.\Generated_Source\PSoC4/USBFS_std.c ****             uint8 cdcComNums = 0u;
 612:.\Generated_Source\PSoC4/USBFS_std.c ****         #endif  /* (USBFS_ENABLE_CDC_CLASS) */  
 613:.\Generated_Source\PSoC4/USBFS_std.c **** 
 614:.\Generated_Source\PSoC4/USBFS_std.c ****         pTmp = USBFS_GetConfigTablePtr(USBFS_configuration - 1u);
 615:.\Generated_Source\PSoC4/USBFS_std.c ****         
 616:.\Generated_Source\PSoC4/USBFS_std.c ****         /* Set Power status for current configuration */
 617:.\Generated_Source\PSoC4/USBFS_std.c ****         pDescr = (const uint8 *)pTmp->p_list;
 618:.\Generated_Source\PSoC4/USBFS_std.c ****         if ((pDescr[USBFS_CONFIG_DESCR_ATTRIB] & USBFS_CONFIG_DESCR_ATTRIB_SELF_POWERED) != 0u)
 619:.\Generated_Source\PSoC4/USBFS_std.c ****         {
 620:.\Generated_Source\PSoC4/USBFS_std.c ****             USBFS_deviceStatus |= (uint8)  USBFS_DEVICE_STATUS_SELF_POWERED;
 621:.\Generated_Source\PSoC4/USBFS_std.c ****         }
 622:.\Generated_Source\PSoC4/USBFS_std.c ****         else
 623:.\Generated_Source\PSoC4/USBFS_std.c ****         {
 624:.\Generated_Source\PSoC4/USBFS_std.c ****             USBFS_deviceStatus &= (uint8) ~USBFS_DEVICE_STATUS_SELF_POWERED;
 625:.\Generated_Source\PSoC4/USBFS_std.c ****         }
 626:.\Generated_Source\PSoC4/USBFS_std.c ****         
 627:.\Generated_Source\PSoC4/USBFS_std.c ****         /* Move to next element */
 628:.\Generated_Source\PSoC4/USBFS_std.c ****         pTmp = &pTmp[1u];
 629:.\Generated_Source\PSoC4/USBFS_std.c ****         ep = pTmp->c;  /* For this table, c is the number of endpoints configurations  */
 630:.\Generated_Source\PSoC4/USBFS_std.c **** 
 631:.\Generated_Source\PSoC4/USBFS_std.c ****         #if (USBFS_EP_MANAGEMENT_MANUAL && USBFS_EP_ALLOC_DYNAMIC)
 632:.\Generated_Source\PSoC4/USBFS_std.c ****             /* Configure for dynamic EP memory allocation */
 633:.\Generated_Source\PSoC4/USBFS_std.c ****             /* p_list points the endpoint setting table. */
 634:.\Generated_Source\PSoC4/USBFS_std.c ****             pEP = (T_USBFS_EP_SETTINGS_BLOCK *) pTmp->p_list;
 635:.\Generated_Source\PSoC4/USBFS_std.c ****             
 636:.\Generated_Source\PSoC4/USBFS_std.c ****             for (i = 0u; i < ep; i++)
 637:.\Generated_Source\PSoC4/USBFS_std.c ****             {     
 638:.\Generated_Source\PSoC4/USBFS_std.c ****                 /* Compare current Alternate setting with EP Alt */
 639:.\Generated_Source\PSoC4/USBFS_std.c ****                 if (USBFS_interfaceSetting[pEP->interface] == pEP->altSetting)
 640:.\Generated_Source\PSoC4/USBFS_std.c ****                 {                                                          
 641:.\Generated_Source\PSoC4/USBFS_std.c ****                     curEp  = pEP->addr & USBFS_DIR_UNUSED;
 642:.\Generated_Source\PSoC4/USBFS_std.c ****                     epType = pEP->attributes & USBFS_EP_TYPE_MASK;
 643:.\Generated_Source\PSoC4/USBFS_std.c ****                     
 644:.\Generated_Source\PSoC4/USBFS_std.c ****                     USBFS_EP[curEp].addr       = pEP->addr;
 645:.\Generated_Source\PSoC4/USBFS_std.c ****                     USBFS_EP[curEp].attrib     = pEP->attributes;
 646:.\Generated_Source\PSoC4/USBFS_std.c ****                     USBFS_EP[curEp].bufferSize = pEP->bufferSize;
 647:.\Generated_Source\PSoC4/USBFS_std.c **** 
 648:.\Generated_Source\PSoC4/USBFS_std.c ****                     if (0u != (pEP->addr & USBFS_DIR_IN))
 649:.\Generated_Source\PSoC4/USBFS_std.c ****                     {
 650:.\Generated_Source\PSoC4/USBFS_std.c ****                         /* IN Endpoint */
 651:.\Generated_Source\PSoC4/USBFS_std.c ****                         USBFS_EP[curEp].epMode     = USBFS_GET_ACTIVE_IN_EP_CR0_MODE(epType);
 652:.\Generated_Source\PSoC4/USBFS_std.c ****                         USBFS_EP[curEp].apiEpState = USBFS_EVENT_PENDING;
 653:.\Generated_Source\PSoC4/USBFS_std.c ****                     
 654:.\Generated_Source\PSoC4/USBFS_std.c ****                     #if (defined(USBFS_ENABLE_MIDI_STREAMING) && (USBFS_MIDI_IN_BUFF_SIZE > 0))
 655:.\Generated_Source\PSoC4/USBFS_std.c ****                         if ((pEP->bMisc == USBFS_CLASS_AUDIO) && (epType == USBFS_EP_TYPE_BULK))
 656:.\Generated_Source\PSoC4/USBFS_std.c ****                         {
 657:.\Generated_Source\PSoC4/USBFS_std.c ****                             USBFS_midi_in_ep = curEp;
 658:.\Generated_Source\PSoC4/USBFS_std.c ****                         }
 659:.\Generated_Source\PSoC4/USBFS_std.c ****                     #endif  /* (USBFS_ENABLE_MIDI_STREAMING) */
ARM GAS  C:\Users\LAIR\AppData\Local\Temp\cciUanLt.s 			page 18


 660:.\Generated_Source\PSoC4/USBFS_std.c ****                     }
 661:.\Generated_Source\PSoC4/USBFS_std.c ****                     else
 662:.\Generated_Source\PSoC4/USBFS_std.c ****                     {
 663:.\Generated_Source\PSoC4/USBFS_std.c ****                         /* OUT Endpoint */
 664:.\Generated_Source\PSoC4/USBFS_std.c ****                         USBFS_EP[curEp].epMode     = USBFS_GET_ACTIVE_OUT_EP_CR0_MODE(epType);
 665:.\Generated_Source\PSoC4/USBFS_std.c ****                         USBFS_EP[curEp].apiEpState = USBFS_NO_EVENT_PENDING;
 666:.\Generated_Source\PSoC4/USBFS_std.c ****                         
 667:.\Generated_Source\PSoC4/USBFS_std.c ****                     #if (defined(USBFS_ENABLE_MIDI_STREAMING) && (USBFS_MIDI_OUT_BUFF_SIZE > 0))
 668:.\Generated_Source\PSoC4/USBFS_std.c ****                         if ((pEP->bMisc == USBFS_CLASS_AUDIO) && (epType == USBFS_EP_TYPE_BULK))
 669:.\Generated_Source\PSoC4/USBFS_std.c ****                         {
 670:.\Generated_Source\PSoC4/USBFS_std.c ****                             USBFS_midi_out_ep = curEp;
 671:.\Generated_Source\PSoC4/USBFS_std.c ****                         }
 672:.\Generated_Source\PSoC4/USBFS_std.c ****                     #endif  /* (USBFS_ENABLE_MIDI_STREAMING) */
 673:.\Generated_Source\PSoC4/USBFS_std.c ****                     }
 674:.\Generated_Source\PSoC4/USBFS_std.c **** 
 675:.\Generated_Source\PSoC4/USBFS_std.c ****                 #if(defined (USBFS_ENABLE_CDC_CLASS))
 676:.\Generated_Source\PSoC4/USBFS_std.c ****                     if((pEP->bMisc == USBFS_CLASS_CDC_DATA) ||(pEP->bMisc == USBFS_CLASS_CDC))
 677:.\Generated_Source\PSoC4/USBFS_std.c ****                     {
 678:.\Generated_Source\PSoC4/USBFS_std.c ****                         cdcComNums = USBFS_Cdc_EpInit(pEP, curEp, cdcComNums);
 679:.\Generated_Source\PSoC4/USBFS_std.c ****                     }
 680:.\Generated_Source\PSoC4/USBFS_std.c ****                 #endif  /* (USBFS_ENABLE_CDC_CLASS) */
 681:.\Generated_Source\PSoC4/USBFS_std.c ****                 }
 682:.\Generated_Source\PSoC4/USBFS_std.c ****                 
 683:.\Generated_Source\PSoC4/USBFS_std.c ****                 pEP = &pEP[1u];
 684:.\Generated_Source\PSoC4/USBFS_std.c ****             }
 685:.\Generated_Source\PSoC4/USBFS_std.c ****             
 686:.\Generated_Source\PSoC4/USBFS_std.c ****         #else
 687:.\Generated_Source\PSoC4/USBFS_std.c ****             for (i = USBFS_EP1; i < USBFS_MAX_EP; ++i)
 688:.\Generated_Source\PSoC4/USBFS_std.c ****             {
 689:.\Generated_Source\PSoC4/USBFS_std.c ****                 /* p_list points the endpoint setting table. */
 690:.\Generated_Source\PSoC4/USBFS_std.c ****                 pEP = (const T_USBFS_EP_SETTINGS_BLOCK CYCODE *) pTmp->p_list;
 691:.\Generated_Source\PSoC4/USBFS_std.c ****                 /* Find max length for each EP and select it (length could be different in differen
 692:.\Generated_Source\PSoC4/USBFS_std.c ****                 /* but other settings should be correct with regards to Interface alt Setting */
 693:.\Generated_Source\PSoC4/USBFS_std.c ****                 
 694:.\Generated_Source\PSoC4/USBFS_std.c ****                 for (curEp = 0u; curEp < ep; ++curEp)
 695:.\Generated_Source\PSoC4/USBFS_std.c ****                 {
 696:.\Generated_Source\PSoC4/USBFS_std.c ****                     if (i == (pEP->addr & USBFS_DIR_UNUSED))
 697:.\Generated_Source\PSoC4/USBFS_std.c ****                     {
 698:.\Generated_Source\PSoC4/USBFS_std.c ****                         /* Compare endpoint buffers size with current size to find greater. */
 699:.\Generated_Source\PSoC4/USBFS_std.c ****                         if (USBFS_EP[i].bufferSize < pEP->bufferSize)
 700:.\Generated_Source\PSoC4/USBFS_std.c ****                         {
 701:.\Generated_Source\PSoC4/USBFS_std.c ****                             USBFS_EP[i].bufferSize = pEP->bufferSize;
 702:.\Generated_Source\PSoC4/USBFS_std.c ****                         }
 703:.\Generated_Source\PSoC4/USBFS_std.c ****                         
 704:.\Generated_Source\PSoC4/USBFS_std.c ****                         /* Compare current Alternate setting with EP Alt */
 705:.\Generated_Source\PSoC4/USBFS_std.c ****                         if (USBFS_interfaceSetting[pEP->interface] == pEP->altSetting)
 706:.\Generated_Source\PSoC4/USBFS_std.c ****                         {                            
 707:.\Generated_Source\PSoC4/USBFS_std.c ****                             USBFS_EP[i].addr = pEP->addr;
 708:.\Generated_Source\PSoC4/USBFS_std.c ****                             USBFS_EP[i].attrib = pEP->attributes;
 709:.\Generated_Source\PSoC4/USBFS_std.c ****                             
 710:.\Generated_Source\PSoC4/USBFS_std.c ****                             epType = pEP->attributes & USBFS_EP_TYPE_MASK;
 711:.\Generated_Source\PSoC4/USBFS_std.c ****                             
 712:.\Generated_Source\PSoC4/USBFS_std.c ****                             if (0u != (pEP->addr & USBFS_DIR_IN))
 713:.\Generated_Source\PSoC4/USBFS_std.c ****                             {
 714:.\Generated_Source\PSoC4/USBFS_std.c ****                                 /* IN Endpoint */
 715:.\Generated_Source\PSoC4/USBFS_std.c ****                                 USBFS_EP[i].epMode     = USBFS_GET_ACTIVE_IN_EP_CR0_MODE(epType);
 716:.\Generated_Source\PSoC4/USBFS_std.c ****                                 USBFS_EP[i].apiEpState = USBFS_EVENT_PENDING;
ARM GAS  C:\Users\LAIR\AppData\Local\Temp\cciUanLt.s 			page 19


 717:.\Generated_Source\PSoC4/USBFS_std.c ****                                 
 718:.\Generated_Source\PSoC4/USBFS_std.c ****                             #if (defined(USBFS_ENABLE_MIDI_STREAMING) && (USBFS_MIDI_IN_BUFF_SIZE >
 719:.\Generated_Source\PSoC4/USBFS_std.c ****                                 if ((pEP->bMisc == USBFS_CLASS_AUDIO) && (epType == USBFS_EP_TYPE_B
 720:.\Generated_Source\PSoC4/USBFS_std.c ****                                 {
 721:.\Generated_Source\PSoC4/USBFS_std.c ****                                     USBFS_midi_in_ep = i;
 722:.\Generated_Source\PSoC4/USBFS_std.c ****                                 }
 723:.\Generated_Source\PSoC4/USBFS_std.c ****                             #endif  /* (USBFS_ENABLE_MIDI_STREAMING) */
 724:.\Generated_Source\PSoC4/USBFS_std.c ****                             }
 725:.\Generated_Source\PSoC4/USBFS_std.c ****                             else
 726:.\Generated_Source\PSoC4/USBFS_std.c ****                             {
 727:.\Generated_Source\PSoC4/USBFS_std.c ****                                 /* OUT Endpoint */
 728:.\Generated_Source\PSoC4/USBFS_std.c ****                                 USBFS_EP[i].epMode     = USBFS_GET_ACTIVE_OUT_EP_CR0_MODE(epType);
 729:.\Generated_Source\PSoC4/USBFS_std.c ****                                 USBFS_EP[i].apiEpState = USBFS_NO_EVENT_PENDING;
 730:.\Generated_Source\PSoC4/USBFS_std.c ****                                 
 731:.\Generated_Source\PSoC4/USBFS_std.c ****                             #if (defined(USBFS_ENABLE_MIDI_STREAMING) && (USBFS_MIDI_OUT_BUFF_SIZE 
 732:.\Generated_Source\PSoC4/USBFS_std.c ****                                 if ((pEP->bMisc == USBFS_CLASS_AUDIO) && (epType == USBFS_EP_TYPE_B
 733:.\Generated_Source\PSoC4/USBFS_std.c ****                                 {
 734:.\Generated_Source\PSoC4/USBFS_std.c ****                                     USBFS_midi_out_ep = i;
 735:.\Generated_Source\PSoC4/USBFS_std.c ****                                 }
 736:.\Generated_Source\PSoC4/USBFS_std.c ****                             #endif  /* (USBFS_ENABLE_MIDI_STREAMING) */
 737:.\Generated_Source\PSoC4/USBFS_std.c ****                             }
 738:.\Generated_Source\PSoC4/USBFS_std.c **** 
 739:.\Generated_Source\PSoC4/USBFS_std.c ****                         #if (defined(USBFS_ENABLE_CDC_CLASS))
 740:.\Generated_Source\PSoC4/USBFS_std.c ****                             if((pEP->bMisc == USBFS_CLASS_CDC_DATA) ||(pEP->bMisc == USBFS_CLASS_CD
 741:.\Generated_Source\PSoC4/USBFS_std.c ****                             {
 742:.\Generated_Source\PSoC4/USBFS_std.c ****                                 cdcComNums = USBFS_Cdc_EpInit(pEP, i, cdcComNums);
 743:.\Generated_Source\PSoC4/USBFS_std.c ****                             }
 744:.\Generated_Source\PSoC4/USBFS_std.c ****                         #endif  /* (USBFS_ENABLE_CDC_CLASS) */
 745:.\Generated_Source\PSoC4/USBFS_std.c **** 
 746:.\Generated_Source\PSoC4/USBFS_std.c ****                             #if (USBFS_EP_MANAGEMENT_DMA_AUTO)
 747:.\Generated_Source\PSoC4/USBFS_std.c ****                                 break;  /* Use first EP setting in Auto memory management */
 748:.\Generated_Source\PSoC4/USBFS_std.c ****                             #endif /* (USBFS_EP_MANAGEMENT_DMA_AUTO) */
 749:.\Generated_Source\PSoC4/USBFS_std.c ****                         }
 750:.\Generated_Source\PSoC4/USBFS_std.c ****                     }
 751:.\Generated_Source\PSoC4/USBFS_std.c ****                     
 752:.\Generated_Source\PSoC4/USBFS_std.c ****                     pEP = &pEP[1u];
 753:.\Generated_Source\PSoC4/USBFS_std.c ****                 }
 754:.\Generated_Source\PSoC4/USBFS_std.c ****             }
 755:.\Generated_Source\PSoC4/USBFS_std.c ****         #endif /*  (USBFS_EP_MANAGEMENT_MANUAL && USBFS_EP_ALLOC_DYNAMIC) */
 756:.\Generated_Source\PSoC4/USBFS_std.c **** 
 757:.\Generated_Source\PSoC4/USBFS_std.c ****         /* Init class array for each interface and interface number for each EP.
 758:.\Generated_Source\PSoC4/USBFS_std.c ****         *  It is used for handling Class specific requests directed to either an
 759:.\Generated_Source\PSoC4/USBFS_std.c ****         *  interface or the endpoint.
 760:.\Generated_Source\PSoC4/USBFS_std.c ****         */
 761:.\Generated_Source\PSoC4/USBFS_std.c ****         /* p_list points the endpoint setting table. */
 762:.\Generated_Source\PSoC4/USBFS_std.c ****         pEP = (const T_USBFS_EP_SETTINGS_BLOCK CYCODE *) pTmp->p_list;
 763:.\Generated_Source\PSoC4/USBFS_std.c ****         for (i = 0u; i < ep; i++)
 764:.\Generated_Source\PSoC4/USBFS_std.c ****         {
 765:.\Generated_Source\PSoC4/USBFS_std.c ****             /* Configure interface number for each EP */
 766:.\Generated_Source\PSoC4/USBFS_std.c ****             USBFS_EP[pEP->addr & USBFS_DIR_UNUSED].interface = pEP->interface;
 767:.\Generated_Source\PSoC4/USBFS_std.c ****             pEP = &pEP[1u];
 768:.\Generated_Source\PSoC4/USBFS_std.c ****         }
 769:.\Generated_Source\PSoC4/USBFS_std.c ****         
 770:.\Generated_Source\PSoC4/USBFS_std.c ****         /* Init pointer on interface class table */
 771:.\Generated_Source\PSoC4/USBFS_std.c ****         USBFS_interfaceClass = USBFS_GetInterfaceClassTablePtr();
 772:.\Generated_Source\PSoC4/USBFS_std.c ****         
 773:.\Generated_Source\PSoC4/USBFS_std.c ****     /* Set the endpoint buffer addresses */
ARM GAS  C:\Users\LAIR\AppData\Local\Temp\cciUanLt.s 			page 20


 774:.\Generated_Source\PSoC4/USBFS_std.c ****     #if (!USBFS_EP_MANAGEMENT_DMA_AUTO)
 775:.\Generated_Source\PSoC4/USBFS_std.c ****         buffCount = 0u;
 776:.\Generated_Source\PSoC4/USBFS_std.c ****         for (ep = USBFS_EP1; ep < USBFS_MAX_EP; ++ep)
 777:.\Generated_Source\PSoC4/USBFS_std.c ****         {
 778:.\Generated_Source\PSoC4/USBFS_std.c ****             USBFS_EP[ep].buffOffset = buffCount;        
 779:.\Generated_Source\PSoC4/USBFS_std.c ****             buffCount += USBFS_EP[ep].bufferSize;
 780:.\Generated_Source\PSoC4/USBFS_std.c ****             
 781:.\Generated_Source\PSoC4/USBFS_std.c ****         #if (USBFS_GEN_16BITS_EP_ACCESS)
 782:.\Generated_Source\PSoC4/USBFS_std.c ****             /* Align EP buffers to be event size to access 16-bits DR register. */
 783:.\Generated_Source\PSoC4/USBFS_std.c ****             buffCount += (0u != (buffCount & 0x01u)) ? 1u : 0u;
 784:.\Generated_Source\PSoC4/USBFS_std.c ****         #endif /* (USBFS_GEN_16BITS_EP_ACCESS) */            
 785:.\Generated_Source\PSoC4/USBFS_std.c ****         }
 786:.\Generated_Source\PSoC4/USBFS_std.c ****     #endif /* (!USBFS_EP_MANAGEMENT_DMA_AUTO) */
 787:.\Generated_Source\PSoC4/USBFS_std.c **** 
 788:.\Generated_Source\PSoC4/USBFS_std.c ****         /* Configure hardware registers */
 789:.\Generated_Source\PSoC4/USBFS_std.c ****         USBFS_ConfigReg();
 790:.\Generated_Source\PSoC4/USBFS_std.c ****     }
 791:.\Generated_Source\PSoC4/USBFS_std.c **** }
 792:.\Generated_Source\PSoC4/USBFS_std.c **** 
 793:.\Generated_Source\PSoC4/USBFS_std.c **** 
 794:.\Generated_Source\PSoC4/USBFS_std.c **** /*******************************************************************************
 795:.\Generated_Source\PSoC4/USBFS_std.c **** * Function Name: USBFS_ConfigAltChanged
 796:.\Generated_Source\PSoC4/USBFS_std.c **** ****************************************************************************//**
 797:.\Generated_Source\PSoC4/USBFS_std.c **** *
 798:.\Generated_Source\PSoC4/USBFS_std.c **** *  This routine update configuration for the required endpoints only.
 799:.\Generated_Source\PSoC4/USBFS_std.c **** *  It is called after SET_INTERFACE request when Static memory allocation used.
 800:.\Generated_Source\PSoC4/USBFS_std.c **** *
 801:.\Generated_Source\PSoC4/USBFS_std.c **** * \reentrant
 802:.\Generated_Source\PSoC4/USBFS_std.c **** *  No.
 803:.\Generated_Source\PSoC4/USBFS_std.c **** *
 804:.\Generated_Source\PSoC4/USBFS_std.c **** *******************************************************************************/
 805:.\Generated_Source\PSoC4/USBFS_std.c **** void USBFS_ConfigAltChanged(void) 
 806:.\Generated_Source\PSoC4/USBFS_std.c **** {
 807:.\Generated_Source\PSoC4/USBFS_std.c ****     uint32 ep;
 808:.\Generated_Source\PSoC4/USBFS_std.c ****     uint32 curEp;
 809:.\Generated_Source\PSoC4/USBFS_std.c ****     uint32 epType;
 810:.\Generated_Source\PSoC4/USBFS_std.c ****     uint32 i;
 811:.\Generated_Source\PSoC4/USBFS_std.c ****     uint8 interfaceNum;
 812:.\Generated_Source\PSoC4/USBFS_std.c **** 
 813:.\Generated_Source\PSoC4/USBFS_std.c ****     const T_USBFS_LUT CYCODE *pTmp;
 814:.\Generated_Source\PSoC4/USBFS_std.c ****     const T_USBFS_EP_SETTINGS_BLOCK CYCODE *pEP;
 815:.\Generated_Source\PSoC4/USBFS_std.c **** 
 816:.\Generated_Source\PSoC4/USBFS_std.c ****     /* Init Endpoints and Device Status if configured */
 817:.\Generated_Source\PSoC4/USBFS_std.c ****     if (USBFS_configuration > 0u)
 818:.\Generated_Source\PSoC4/USBFS_std.c ****     {
 819:.\Generated_Source\PSoC4/USBFS_std.c ****         /* Get number of endpoints configurations (ep). */
 820:.\Generated_Source\PSoC4/USBFS_std.c ****         pTmp = USBFS_GetConfigTablePtr(USBFS_configuration - 1u);
 821:.\Generated_Source\PSoC4/USBFS_std.c ****         pTmp = &pTmp[1u];
 822:.\Generated_Source\PSoC4/USBFS_std.c ****         ep = pTmp->c;
 823:.\Generated_Source\PSoC4/USBFS_std.c **** 
 824:.\Generated_Source\PSoC4/USBFS_std.c ****         /* Get pointer to endpoints setting table (pEP). */
 825:.\Generated_Source\PSoC4/USBFS_std.c ****         pEP = (const T_USBFS_EP_SETTINGS_BLOCK CYCODE *) pTmp->p_list;
 826:.\Generated_Source\PSoC4/USBFS_std.c ****         
 827:.\Generated_Source\PSoC4/USBFS_std.c ****         /* Look through all possible endpoint configurations. Find endpoints 
 828:.\Generated_Source\PSoC4/USBFS_std.c ****         * which belong to current interface and alternate settings for 
 829:.\Generated_Source\PSoC4/USBFS_std.c ****         * re-configuration.
 830:.\Generated_Source\PSoC4/USBFS_std.c ****         */
ARM GAS  C:\Users\LAIR\AppData\Local\Temp\cciUanLt.s 			page 21


 831:.\Generated_Source\PSoC4/USBFS_std.c ****         interfaceNum = USBFS_interfaceNumber;
 832:.\Generated_Source\PSoC4/USBFS_std.c ****         for (i = 0u; i < ep; i++)
 833:.\Generated_Source\PSoC4/USBFS_std.c ****         {
 834:.\Generated_Source\PSoC4/USBFS_std.c ****             /* Find endpoints which belong to current interface and alternate settings. */
 835:.\Generated_Source\PSoC4/USBFS_std.c ****             if ((interfaceNum == pEP->interface) && 
 836:.\Generated_Source\PSoC4/USBFS_std.c ****                 (USBFS_interfaceSetting[interfaceNum] == pEP->altSetting))
 837:.\Generated_Source\PSoC4/USBFS_std.c ****             {
 838:.\Generated_Source\PSoC4/USBFS_std.c ****                 curEp  = ((uint32) pEP->addr & USBFS_DIR_UNUSED);
 839:.\Generated_Source\PSoC4/USBFS_std.c ****                 epType = ((uint32) pEP->attributes & USBFS_EP_TYPE_MASK);
 840:.\Generated_Source\PSoC4/USBFS_std.c ****                 
 841:.\Generated_Source\PSoC4/USBFS_std.c ****                 /* Change the SIE mode for the selected EP to NAK ALL */
 842:.\Generated_Source\PSoC4/USBFS_std.c ****                 USBFS_EP[curEp].epToggle   = 0u;
 843:.\Generated_Source\PSoC4/USBFS_std.c ****                 USBFS_EP[curEp].addr       = pEP->addr;
 844:.\Generated_Source\PSoC4/USBFS_std.c ****                 USBFS_EP[curEp].attrib     = pEP->attributes;
 845:.\Generated_Source\PSoC4/USBFS_std.c ****                 USBFS_EP[curEp].bufferSize = pEP->bufferSize;
 846:.\Generated_Source\PSoC4/USBFS_std.c **** 
 847:.\Generated_Source\PSoC4/USBFS_std.c ****                 if (0u != (pEP->addr & USBFS_DIR_IN))
 848:.\Generated_Source\PSoC4/USBFS_std.c ****                 {
 849:.\Generated_Source\PSoC4/USBFS_std.c ****                     /* IN Endpoint */
 850:.\Generated_Source\PSoC4/USBFS_std.c ****                     USBFS_EP[curEp].epMode     = USBFS_GET_ACTIVE_IN_EP_CR0_MODE(epType);
 851:.\Generated_Source\PSoC4/USBFS_std.c ****                     USBFS_EP[curEp].apiEpState = USBFS_EVENT_PENDING;
 852:.\Generated_Source\PSoC4/USBFS_std.c ****                 }
 853:.\Generated_Source\PSoC4/USBFS_std.c ****                 else
 854:.\Generated_Source\PSoC4/USBFS_std.c ****                 {
 855:.\Generated_Source\PSoC4/USBFS_std.c ****                     /* OUT Endpoint */
 856:.\Generated_Source\PSoC4/USBFS_std.c ****                     USBFS_EP[curEp].epMode     = USBFS_GET_ACTIVE_OUT_EP_CR0_MODE(epType);
 857:.\Generated_Source\PSoC4/USBFS_std.c ****                     USBFS_EP[curEp].apiEpState = USBFS_NO_EVENT_PENDING;
 858:.\Generated_Source\PSoC4/USBFS_std.c ****                 }
 859:.\Generated_Source\PSoC4/USBFS_std.c ****                 
 860:.\Generated_Source\PSoC4/USBFS_std.c ****                 /* Make SIE to NAK any endpoint requests */
 861:.\Generated_Source\PSoC4/USBFS_std.c ****                 USBFS_SIE_EP_BASE.sieEp[curEp].epCr0 = USBFS_MODE_NAK_IN_OUT;
 862:.\Generated_Source\PSoC4/USBFS_std.c **** 
 863:.\Generated_Source\PSoC4/USBFS_std.c ****             #if (USBFS_EP_MANAGEMENT_DMA_AUTO)
 864:.\Generated_Source\PSoC4/USBFS_std.c ****                 /* Clear IN data ready. */
 865:.\Generated_Source\PSoC4/USBFS_std.c ****                 USBFS_ARB_EP_BASE.arbEp[curEp].epCfg &= (uint32) ~USBFS_ARB_EPX_CFG_IN_DATA_RDY;
 866:.\Generated_Source\PSoC4/USBFS_std.c **** 
 867:.\Generated_Source\PSoC4/USBFS_std.c ****                 /* Select endpoint number of reconfiguration */
 868:.\Generated_Source\PSoC4/USBFS_std.c ****                 USBFS_DYN_RECONFIG_REG = (uint32) ((curEp - 1u) << USBFS_DYN_RECONFIG_EP_SHIFT);
 869:.\Generated_Source\PSoC4/USBFS_std.c ****                 
 870:.\Generated_Source\PSoC4/USBFS_std.c ****                 /* Request for dynamic re-configuration of endpoint. */
 871:.\Generated_Source\PSoC4/USBFS_std.c ****                 USBFS_DYN_RECONFIG_REG |= USBFS_DYN_RECONFIG_ENABLE;
 872:.\Generated_Source\PSoC4/USBFS_std.c ****                 
 873:.\Generated_Source\PSoC4/USBFS_std.c ****                 /* Wait until block is ready for re-configuration */
 874:.\Generated_Source\PSoC4/USBFS_std.c ****                 while (0u == (USBFS_DYN_RECONFIG_REG & USBFS_DYN_RECONFIG_RDY_STS))
 875:.\Generated_Source\PSoC4/USBFS_std.c ****                 {
 876:.\Generated_Source\PSoC4/USBFS_std.c ****                 }
 877:.\Generated_Source\PSoC4/USBFS_std.c ****                 
 878:.\Generated_Source\PSoC4/USBFS_std.c ****                 /* Once DYN_RECONFIG_RDY_STS bit is set, FW can change the EP configuration. */
 879:.\Generated_Source\PSoC4/USBFS_std.c ****                 /* Change EP Type with new direction */
 880:.\Generated_Source\PSoC4/USBFS_std.c ****                 if (0u != (pEP->addr & USBFS_DIR_IN))
 881:.\Generated_Source\PSoC4/USBFS_std.c ****                 {
 882:.\Generated_Source\PSoC4/USBFS_std.c ****                     /* Set endpoint type: 0 - IN and 1 - OUT. */
 883:.\Generated_Source\PSoC4/USBFS_std.c ****                     USBFS_EP_TYPE_REG &= (uint32) ~(uint32)((uint32) 0x01u << (curEp - 1u));
 884:.\Generated_Source\PSoC4/USBFS_std.c ****                     
 885:.\Generated_Source\PSoC4/USBFS_std.c ****                 #if (CY_PSOC4)
 886:.\Generated_Source\PSoC4/USBFS_std.c ****                     /* Clear DMA_TERMIN for IN endpoint */
 887:.\Generated_Source\PSoC4/USBFS_std.c ****                     USBFS_ARB_EP_BASE.arbEp[curEp].epIntEn &= (uint32) ~USBFS_ARB_EPX_INT_DMA_TERMI
ARM GAS  C:\Users\LAIR\AppData\Local\Temp\cciUanLt.s 			page 22


 888:.\Generated_Source\PSoC4/USBFS_std.c ****                 #endif /* (CY_PSOC4) */
 889:.\Generated_Source\PSoC4/USBFS_std.c ****                 }
 890:.\Generated_Source\PSoC4/USBFS_std.c ****                 else
 891:.\Generated_Source\PSoC4/USBFS_std.c ****                 {
 892:.\Generated_Source\PSoC4/USBFS_std.c ****                     /* Set endpoint type: 0 - IN and 1- OUT. */
 893:.\Generated_Source\PSoC4/USBFS_std.c ****                     USBFS_EP_TYPE_REG |= (uint32) ((uint32) 0x01u << (curEp - 1u));
 894:.\Generated_Source\PSoC4/USBFS_std.c ****                     
 895:.\Generated_Source\PSoC4/USBFS_std.c ****                 #if (CY_PSOC4)
 896:.\Generated_Source\PSoC4/USBFS_std.c ****                     /* Set DMA_TERMIN for OUT endpoint */
 897:.\Generated_Source\PSoC4/USBFS_std.c ****                     USBFS_ARB_EP_BASE.arbEp[curEp].epIntEn |= (uint32) USBFS_ARB_EPX_INT_DMA_TERMIN
 898:.\Generated_Source\PSoC4/USBFS_std.c ****                 #endif /* (CY_PSOC4) */
 899:.\Generated_Source\PSoC4/USBFS_std.c ****                 }
 900:.\Generated_Source\PSoC4/USBFS_std.c ****                 
 901:.\Generated_Source\PSoC4/USBFS_std.c ****                 /* Complete dynamic re-configuration: all endpoint related status and signals 
 902:.\Generated_Source\PSoC4/USBFS_std.c ****                 * are set into the default state.
 903:.\Generated_Source\PSoC4/USBFS_std.c ****                 */
 904:.\Generated_Source\PSoC4/USBFS_std.c ****                 USBFS_DYN_RECONFIG_REG &= (uint32) ~USBFS_DYN_RECONFIG_ENABLE;
 905:.\Generated_Source\PSoC4/USBFS_std.c **** 
 906:.\Generated_Source\PSoC4/USBFS_std.c ****             #else
 907:.\Generated_Source\PSoC4/USBFS_std.c ****                 USBFS_SIE_EP_BASE.sieEp[curEp].epCnt0 = HI8(USBFS_EP[curEp].bufferSize);
 908:.\Generated_Source\PSoC4/USBFS_std.c ****                 USBFS_SIE_EP_BASE.sieEp[curEp].epCnt1 = LO8(USBFS_EP[curEp].bufferSize);
 909:.\Generated_Source\PSoC4/USBFS_std.c ****                 
 910:.\Generated_Source\PSoC4/USBFS_std.c ****                 #if (CY_PSOC4)
 911:.\Generated_Source\PSoC4/USBFS_std.c ****                     USBFS_ARB_EP16_BASE.arbEp[curEp].rwRa16  = (uint32) USBFS_EP[curEp].buffOffset;
 912:.\Generated_Source\PSoC4/USBFS_std.c ****                     USBFS_ARB_EP16_BASE.arbEp[curEp].rwWa16  = (uint32) USBFS_EP[curEp].buffOffset;
 913:.\Generated_Source\PSoC4/USBFS_std.c ****                 #else
 914:.\Generated_Source\PSoC4/USBFS_std.c ****                     USBFS_ARB_EP_BASE.arbEp[curEp].rwRa    = LO8(USBFS_EP[curEp].buffOffset);
 915:.\Generated_Source\PSoC4/USBFS_std.c ****                     USBFS_ARB_EP_BASE.arbEp[curEp].rwRaMsb = HI8(USBFS_EP[curEp].buffOffset);
 916:.\Generated_Source\PSoC4/USBFS_std.c ****                     USBFS_ARB_EP_BASE.arbEp[curEp].rwWa    = LO8(USBFS_EP[curEp].buffOffset);
 917:.\Generated_Source\PSoC4/USBFS_std.c ****                     USBFS_ARB_EP_BASE.arbEp[curEp].rwWaMsb = HI8(USBFS_EP[curEp].buffOffset);
 918:.\Generated_Source\PSoC4/USBFS_std.c ****                 #endif /* (CY_PSOC4) */                
 919:.\Generated_Source\PSoC4/USBFS_std.c ****             #endif /* (USBFS_EP_MANAGEMENT_DMA_AUTO) */
 920:.\Generated_Source\PSoC4/USBFS_std.c ****             }
 921:.\Generated_Source\PSoC4/USBFS_std.c ****             
 922:.\Generated_Source\PSoC4/USBFS_std.c ****             pEP = &pEP[1u]; /* Get next EP element */
 923:.\Generated_Source\PSoC4/USBFS_std.c ****         }
 924:.\Generated_Source\PSoC4/USBFS_std.c ****         
 925:.\Generated_Source\PSoC4/USBFS_std.c ****         /* The main loop has to re-enable DMA and OUT endpoint */
 926:.\Generated_Source\PSoC4/USBFS_std.c ****     }
 927:.\Generated_Source\PSoC4/USBFS_std.c **** }
 928:.\Generated_Source\PSoC4/USBFS_std.c **** 
 929:.\Generated_Source\PSoC4/USBFS_std.c **** 
 930:.\Generated_Source\PSoC4/USBFS_std.c **** /*******************************************************************************
 931:.\Generated_Source\PSoC4/USBFS_std.c **** * Function Name: USBFS_GetConfigTablePtr
 932:.\Generated_Source\PSoC4/USBFS_std.c **** ****************************************************************************//**
 933:.\Generated_Source\PSoC4/USBFS_std.c **** *
 934:.\Generated_Source\PSoC4/USBFS_std.c **** *  This routine returns a pointer a configuration table entry
 935:.\Generated_Source\PSoC4/USBFS_std.c **** *
 936:.\Generated_Source\PSoC4/USBFS_std.c **** *  \param confIndex:  Configuration Index
 937:.\Generated_Source\PSoC4/USBFS_std.c **** *
 938:.\Generated_Source\PSoC4/USBFS_std.c **** * \return
 939:.\Generated_Source\PSoC4/USBFS_std.c **** *  Device Descriptor pointer or NULL when descriptor does not exist.
 940:.\Generated_Source\PSoC4/USBFS_std.c **** *
 941:.\Generated_Source\PSoC4/USBFS_std.c **** *******************************************************************************/
 942:.\Generated_Source\PSoC4/USBFS_std.c **** const T_USBFS_LUT CYCODE *USBFS_GetConfigTablePtr(uint8 confIndex)
 943:.\Generated_Source\PSoC4/USBFS_std.c ****                                                         
 944:.\Generated_Source\PSoC4/USBFS_std.c **** {
ARM GAS  C:\Users\LAIR\AppData\Local\Temp\cciUanLt.s 			page 23


 304              		.loc 1 944 0
 305              		.cfi_startproc
 306              	.LVL16:
 945:.\Generated_Source\PSoC4/USBFS_std.c ****     /* Device Table */
 946:.\Generated_Source\PSoC4/USBFS_std.c ****     const T_USBFS_LUT CYCODE *pTmp;
 947:.\Generated_Source\PSoC4/USBFS_std.c **** 
 948:.\Generated_Source\PSoC4/USBFS_std.c ****     pTmp = (const T_USBFS_LUT CYCODE *) USBFS_TABLE[USBFS_device].p_list;
 307              		.loc 1 948 0
 308 0000 074B     		ldr	r3, .L25
 309 0002 1B78     		ldrb	r3, [r3]
 310 0004 DB00     		lsl	r3, r3, #3
 311 0006 074A     		ldr	r2, .L25+4
 312 0008 D318     		add	r3, r2, r3
 313 000a 5B68     		ldr	r3, [r3, #4]
 314              	.LVL17:
 949:.\Generated_Source\PSoC4/USBFS_std.c **** 
 950:.\Generated_Source\PSoC4/USBFS_std.c ****     /* The first entry points to the Device Descriptor,
 951:.\Generated_Source\PSoC4/USBFS_std.c ****     *  the second entry point to the BOS Descriptor
 952:.\Generated_Source\PSoC4/USBFS_std.c ****     *  the rest configuration entries.
 953:.\Generated_Source\PSoC4/USBFS_std.c ****     *  Set pointer to the first Configuration Descriptor
 954:.\Generated_Source\PSoC4/USBFS_std.c ****     */
 955:.\Generated_Source\PSoC4/USBFS_std.c ****     pTmp = &pTmp[2u];
 956:.\Generated_Source\PSoC4/USBFS_std.c ****     /* For this table, c is the number of configuration descriptors  */
 957:.\Generated_Source\PSoC4/USBFS_std.c ****     if(confIndex >= pTmp->c)   /* Verify that required configuration descriptor exists */
 315              		.loc 1 957 0
 316 000c 1A7C     		ldrb	r2, [r3, #16]
 317 000e 8242     		cmp	r2, r0
 318 0010 03D9     		bls	.L24
 958:.\Generated_Source\PSoC4/USBFS_std.c ****     {
 959:.\Generated_Source\PSoC4/USBFS_std.c ****         pTmp = (const T_USBFS_LUT CYCODE *) NULL;
 960:.\Generated_Source\PSoC4/USBFS_std.c ****     }
 961:.\Generated_Source\PSoC4/USBFS_std.c ****     else
 962:.\Generated_Source\PSoC4/USBFS_std.c ****     {
 963:.\Generated_Source\PSoC4/USBFS_std.c ****         pTmp = (const T_USBFS_LUT CYCODE *) pTmp[confIndex].p_list;
 319              		.loc 1 963 0
 320 0012 C000     		lsl	r0, r0, #3
 321              	.LVL18:
 322 0014 1818     		add	r0, r3, r0
 323 0016 4069     		ldr	r0, [r0, #20]
 324              	.LVL19:
 325 0018 00E0     		b	.L23
 326              	.LVL20:
 327              	.L24:
 959:.\Generated_Source\PSoC4/USBFS_std.c ****     }
 328              		.loc 1 959 0
 329 001a 0020     		mov	r0, #0
 330              	.LVL21:
 331              	.L23:
 964:.\Generated_Source\PSoC4/USBFS_std.c ****     }
 965:.\Generated_Source\PSoC4/USBFS_std.c **** 
 966:.\Generated_Source\PSoC4/USBFS_std.c ****     return (pTmp);
 967:.\Generated_Source\PSoC4/USBFS_std.c **** }
 332              		.loc 1 967 0
 333              		@ sp needed
 334 001c 7047     		bx	lr
 335              	.L26:
 336 001e C046     		.align	2
ARM GAS  C:\Users\LAIR\AppData\Local\Temp\cciUanLt.s 			page 24


 337              	.L25:
 338 0020 00000000 		.word	USBFS_device
 339 0024 00000000 		.word	USBFS_TABLE
 340              		.cfi_endproc
 341              	.LFE71:
 342              		.size	USBFS_GetConfigTablePtr, .-USBFS_GetConfigTablePtr
 343              		.section	.text.USBFS_ConfigAltChanged,"ax",%progbits
 344              		.align	2
 345              		.global	USBFS_ConfigAltChanged
 346              		.code	16
 347              		.thumb_func
 348              		.type	USBFS_ConfigAltChanged, %function
 349              	USBFS_ConfigAltChanged:
 350              	.LFB70:
 806:.\Generated_Source\PSoC4/USBFS_std.c ****     uint32 ep;
 351              		.loc 1 806 0
 352              		.cfi_startproc
 353 0000 F0B5     		push	{r4, r5, r6, r7, lr}
 354              		.cfi_def_cfa_offset 20
 355              		.cfi_offset 4, -20
 356              		.cfi_offset 5, -16
 357              		.cfi_offset 6, -12
 358              		.cfi_offset 7, -8
 359              		.cfi_offset 14, -4
 360 0002 5746     		mov	r7, r10
 361 0004 4E46     		mov	r6, r9
 362 0006 4546     		mov	r5, r8
 363 0008 E0B4     		push	{r5, r6, r7}
 364              		.cfi_def_cfa_offset 32
 365              		.cfi_offset 8, -32
 366              		.cfi_offset 9, -28
 367              		.cfi_offset 10, -24
 817:.\Generated_Source\PSoC4/USBFS_std.c ****     {
 368              		.loc 1 817 0
 369 000a 3F4B     		ldr	r3, .L38
 370 000c 1B78     		ldrb	r3, [r3]
 371 000e 002B     		cmp	r3, #0
 372 0010 75D0     		beq	.L27
 820:.\Generated_Source\PSoC4/USBFS_std.c ****         pTmp = &pTmp[1u];
 373              		.loc 1 820 0
 374 0012 3D4B     		ldr	r3, .L38
 375 0014 1878     		ldrb	r0, [r3]
 376 0016 0138     		sub	r0, r0, #1
 377 0018 C0B2     		uxtb	r0, r0
 378 001a FFF7FEFF 		bl	USBFS_GetConfigTablePtr
 379              	.LVL22:
 822:.\Generated_Source\PSoC4/USBFS_std.c **** 
 380              		.loc 1 822 0
 381 001e 047A     		ldrb	r4, [r0, #8]
 382              	.LVL23:
 825:.\Generated_Source\PSoC4/USBFS_std.c ****         
 383              		.loc 1 825 0
 384 0020 C368     		ldr	r3, [r0, #12]
 385              	.LVL24:
 831:.\Generated_Source\PSoC4/USBFS_std.c ****         for (i = 0u; i < ep; i++)
 386              		.loc 1 831 0
 387 0022 3A4A     		ldr	r2, .L38+4
ARM GAS  C:\Users\LAIR\AppData\Local\Temp\cciUanLt.s 			page 25


 388 0024 1078     		ldrb	r0, [r2]
 389              	.LVL25:
 390 0026 C0B2     		uxtb	r0, r0
 391              	.LVL26:
 832:.\Generated_Source\PSoC4/USBFS_std.c ****         {
 392              		.loc 1 832 0
 393 0028 0022     		mov	r2, #0
 394 002a 66E0     		b	.L29
 395              	.LVL27:
 396              	.L35:
 835:.\Generated_Source\PSoC4/USBFS_std.c ****                 (USBFS_interfaceSetting[interfaceNum] == pEP->altSetting))
 397              		.loc 1 835 0
 398 002c 1978     		ldrb	r1, [r3]
 399 002e 8142     		cmp	r1, r0
 400 0030 61D1     		bne	.L30
 836:.\Generated_Source\PSoC4/USBFS_std.c ****             {
 401              		.loc 1 836 0 discriminator 1
 402 0032 3749     		ldr	r1, .L38+8
 403 0034 095C     		ldrb	r1, [r1, r0]
 404 0036 C9B2     		uxtb	r1, r1
 405 0038 5D78     		ldrb	r5, [r3, #1]
 835:.\Generated_Source\PSoC4/USBFS_std.c ****                 (USBFS_interfaceSetting[interfaceNum] == pEP->altSetting))
 406              		.loc 1 835 0 discriminator 1
 407 003a A942     		cmp	r1, r5
 408 003c 5BD1     		bne	.L30
 838:.\Generated_Source\PSoC4/USBFS_std.c ****                 epType = ((uint32) pEP->attributes & USBFS_EP_TYPE_MASK);
 409              		.loc 1 838 0
 410 003e 9978     		ldrb	r1, [r3, #2]
 411 0040 7F25     		mov	r5, #127
 412 0042 2940     		and	r1, r5
 413              	.LVL28:
 839:.\Generated_Source\PSoC4/USBFS_std.c ****                 
 414              		.loc 1 839 0
 415 0044 DD78     		ldrb	r5, [r3, #3]
 416 0046 0327     		mov	r7, #3
 417 0048 2F40     		and	r7, r5
 418 004a BA46     		mov	r10, r7
 419              	.LVL29:
 842:.\Generated_Source\PSoC4/USBFS_std.c ****                 USBFS_EP[curEp].addr       = pEP->addr;
 420              		.loc 1 842 0
 421 004c 314D     		ldr	r5, .L38+12
 422 004e AC46     		mov	ip, r5
 423 0050 4E00     		lsl	r6, r1, #1
 424 0052 7518     		add	r5, r6, r1
 425 0054 AD00     		lsl	r5, r5, #2
 426 0056 6544     		add	r5, r5, ip
 427 0058 A946     		mov	r9, r5
 428 005a 0027     		mov	r7, #0
 429              	.LVL30:
 430 005c EF70     		strb	r7, [r5, #3]
 843:.\Generated_Source\PSoC4/USBFS_std.c ****                 USBFS_EP[curEp].attrib     = pEP->attributes;
 431              		.loc 1 843 0
 432 005e 9F78     		ldrb	r7, [r3, #2]
 433 0060 2F71     		strb	r7, [r5, #4]
 844:.\Generated_Source\PSoC4/USBFS_std.c ****                 USBFS_EP[curEp].bufferSize = pEP->bufferSize;
 434              		.loc 1 844 0
 435 0062 DF78     		ldrb	r7, [r3, #3]
ARM GAS  C:\Users\LAIR\AppData\Local\Temp\cciUanLt.s 			page 26


 436 0064 B846     		mov	r8, r7
 437 0066 7618     		add	r6, r6, r1
 438 0068 B600     		lsl	r6, r6, #2
 439 006a 6746     		mov	r7, ip
 440 006c 4546     		mov	r5, r8
 441 006e F555     		strb	r5, [r6, r7]
 845:.\Generated_Source\PSoC4/USBFS_std.c **** 
 442              		.loc 1 845 0
 443 0070 9E88     		ldrh	r6, [r3, #4]
 444 0072 4D46     		mov	r5, r9
 445 0074 2E81     		strh	r6, [r5, #8]
 847:.\Generated_Source\PSoC4/USBFS_std.c ****                 {
 446              		.loc 1 847 0
 447 0076 0225     		mov	r5, #2
 448 0078 5D57     		ldrsb	r5, [r3, r5]
 449 007a 002D     		cmp	r5, #0
 450 007c 0EDA     		bge	.L31
 850:.\Generated_Source\PSoC4/USBFS_std.c ****                     USBFS_EP[curEp].apiEpState = USBFS_EVENT_PENDING;
 451              		.loc 1 850 0
 452 007e 5546     		mov	r5, r10
 453 0080 012D     		cmp	r5, #1
 454 0082 01D1     		bne	.L36
 455 0084 0727     		mov	r7, #7
 456 0086 00E0     		b	.L32
 457              	.L36:
 458 0088 0D27     		mov	r7, #13
 459              	.L32:
 850:.\Generated_Source\PSoC4/USBFS_std.c ****                     USBFS_EP[curEp].apiEpState = USBFS_EVENT_PENDING;
 460              		.loc 1 850 0 is_stmt 0 discriminator 4
 461 008a 4D00     		lsl	r5, r1, #1
 462 008c 6D18     		add	r5, r5, r1
 463 008e AD00     		lsl	r5, r5, #2
 464 0090 204E     		ldr	r6, .L38+12
 465 0092 7519     		add	r5, r6, r5
 466 0094 6F71     		strb	r7, [r5, #5]
 851:.\Generated_Source\PSoC4/USBFS_std.c ****                 }
 467              		.loc 1 851 0 is_stmt 1 discriminator 4
 468 0096 0126     		mov	r6, #1
 469 0098 6E70     		strb	r6, [r5, #1]
 470 009a 0DE0     		b	.L33
 471              	.L31:
 856:.\Generated_Source\PSoC4/USBFS_std.c ****                     USBFS_EP[curEp].apiEpState = USBFS_NO_EVENT_PENDING;
 472              		.loc 1 856 0
 473 009c 5546     		mov	r5, r10
 474 009e 012D     		cmp	r5, #1
 475 00a0 01D1     		bne	.L37
 476              	.LVL31:
 477 00a2 0527     		mov	r7, #5
 478 00a4 00E0     		b	.L34
 479              	.L37:
 480 00a6 0927     		mov	r7, #9
 481              	.L34:
 856:.\Generated_Source\PSoC4/USBFS_std.c ****                     USBFS_EP[curEp].apiEpState = USBFS_NO_EVENT_PENDING;
 482              		.loc 1 856 0 is_stmt 0 discriminator 4
 483 00a8 4D00     		lsl	r5, r1, #1
 484              	.LVL32:
 485 00aa 6D18     		add	r5, r5, r1
ARM GAS  C:\Users\LAIR\AppData\Local\Temp\cciUanLt.s 			page 27


 486 00ac AD00     		lsl	r5, r5, #2
 487 00ae 194E     		ldr	r6, .L38+12
 488 00b0 7519     		add	r5, r6, r5
 489 00b2 6F71     		strb	r7, [r5, #5]
 857:.\Generated_Source\PSoC4/USBFS_std.c ****                 }
 490              		.loc 1 857 0 is_stmt 1 discriminator 4
 491 00b4 0026     		mov	r6, #0
 492 00b6 6E70     		strb	r6, [r5, #1]
 493              	.L33:
 861:.\Generated_Source\PSoC4/USBFS_std.c **** 
 494              		.loc 1 861 0
 495 00b8 8D01     		lsl	r5, r1, #6
 496 00ba 174E     		ldr	r6, .L38+16
 497 00bc B146     		mov	r9, r6
 498 00be A944     		add	r9, r9, r5
 499 00c0 0126     		mov	r6, #1
 500 00c2 4F46     		mov	r7, r9
 501 00c4 BE60     		str	r6, [r7, #8]
 907:.\Generated_Source\PSoC4/USBFS_std.c ****                 USBFS_SIE_EP_BASE.sieEp[curEp].epCnt1 = LO8(USBFS_EP[curEp].bufferSize);
 502              		.loc 1 907 0
 503 00c6 4E00     		lsl	r6, r1, #1
 504 00c8 7118     		add	r1, r6, r1
 505              	.LVL33:
 506 00ca 8900     		lsl	r1, r1, #2
 507 00cc 114E     		ldr	r6, .L38+12
 508 00ce 7118     		add	r1, r6, r1
 509 00d0 0E89     		ldrh	r6, [r1, #8]
 510 00d2 360A     		lsr	r6, r6, #8
 511 00d4 B046     		mov	r8, r6
 512 00d6 104E     		ldr	r6, .L38+16
 513 00d8 4746     		mov	r7, r8
 514 00da AF51     		str	r7, [r5, r6]
 908:.\Generated_Source\PSoC4/USBFS_std.c ****                 
 515              		.loc 1 908 0
 516 00dc 0E89     		ldrh	r6, [r1, #8]
 517 00de F6B2     		uxtb	r6, r6
 518 00e0 4F46     		mov	r7, r9
 519 00e2 7E60     		str	r6, [r7, #4]
 911:.\Generated_Source\PSoC4/USBFS_std.c ****                     USBFS_ARB_EP16_BASE.arbEp[curEp].rwWa16  = (uint32) USBFS_EP[curEp].buffOffset;
 520              		.loc 1 911 0
 521 00e4 CE88     		ldrh	r6, [r1, #6]
 522 00e6 B6B2     		uxth	r6, r6
 523 00e8 0C4F     		ldr	r7, .L38+20
 524 00ea EF19     		add	r7, r5, r7
 525 00ec BE60     		str	r6, [r7, #8]
 912:.\Generated_Source\PSoC4/USBFS_std.c ****                 #else
 526              		.loc 1 912 0
 527 00ee C988     		ldrh	r1, [r1, #6]
 528 00f0 89B2     		uxth	r1, r1
 529 00f2 0A4E     		ldr	r6, .L38+20
 530 00f4 A951     		str	r1, [r5, r6]
 531              	.LVL34:
 532              	.L30:
 922:.\Generated_Source\PSoC4/USBFS_std.c ****         }
 533              		.loc 1 922 0 discriminator 2
 534 00f6 0833     		add	r3, r3, #8
 535              	.LVL35:
ARM GAS  C:\Users\LAIR\AppData\Local\Temp\cciUanLt.s 			page 28


 832:.\Generated_Source\PSoC4/USBFS_std.c ****         {
 536              		.loc 1 832 0 discriminator 2
 537 00f8 0132     		add	r2, r2, #1
 538              	.LVL36:
 539              	.L29:
 832:.\Generated_Source\PSoC4/USBFS_std.c ****         {
 540              		.loc 1 832 0 is_stmt 0 discriminator 1
 541 00fa A242     		cmp	r2, r4
 542 00fc 96D3     		bcc	.L35
 543              	.LVL37:
 544              	.L27:
 927:.\Generated_Source\PSoC4/USBFS_std.c **** 
 545              		.loc 1 927 0 is_stmt 1
 546              		@ sp needed
 547 00fe 1CBC     		pop	{r2, r3, r4}
 548 0100 9046     		mov	r8, r2
 549 0102 9946     		mov	r9, r3
 550 0104 A246     		mov	r10, r4
 551 0106 F0BD     		pop	{r4, r5, r6, r7, pc}
 552              	.L39:
 553              		.align	2
 554              	.L38:
 555 0108 00000000 		.word	USBFS_configuration
 556 010c 00000000 		.word	USBFS_interfaceNumber
 557 0110 00000000 		.word	USBFS_interfaceSetting
 558 0114 00000000 		.word	USBFS_EP
 559 0118 F0FF2B40 		.word	1076625392
 560 011c D0112C40 		.word	1076629968
 561              		.cfi_endproc
 562              	.LFE70:
 563              		.size	USBFS_ConfigAltChanged, .-USBFS_ConfigAltChanged
 564              		.section	.text.USBFS_GetDeviceTablePtr,"ax",%progbits
 565              		.align	2
 566              		.global	USBFS_GetDeviceTablePtr
 567              		.code	16
 568              		.thumb_func
 569              		.type	USBFS_GetDeviceTablePtr, %function
 570              	USBFS_GetDeviceTablePtr:
 571              	.LFB72:
 968:.\Generated_Source\PSoC4/USBFS_std.c **** 
 969:.\Generated_Source\PSoC4/USBFS_std.c **** 
 970:.\Generated_Source\PSoC4/USBFS_std.c **** #if (USBFS_BOS_ENABLE)
 971:.\Generated_Source\PSoC4/USBFS_std.c ****     /*******************************************************************************
 972:.\Generated_Source\PSoC4/USBFS_std.c ****     * Function Name: USBFS_GetBOSPtr
 973:.\Generated_Source\PSoC4/USBFS_std.c ****     ****************************************************************************//**
 974:.\Generated_Source\PSoC4/USBFS_std.c ****     *
 975:.\Generated_Source\PSoC4/USBFS_std.c ****     *  This routine returns a pointer a BOS table entry
 976:.\Generated_Source\PSoC4/USBFS_std.c ****     *
 977:.\Generated_Source\PSoC4/USBFS_std.c ****     *  
 978:.\Generated_Source\PSoC4/USBFS_std.c ****     *
 979:.\Generated_Source\PSoC4/USBFS_std.c ****     * \return
 980:.\Generated_Source\PSoC4/USBFS_std.c ****     *  BOS Descriptor pointer or NULL when descriptor does not exist.
 981:.\Generated_Source\PSoC4/USBFS_std.c ****     *
 982:.\Generated_Source\PSoC4/USBFS_std.c ****     *******************************************************************************/
 983:.\Generated_Source\PSoC4/USBFS_std.c ****     const T_USBFS_LUT CYCODE *USBFS_GetBOSPtr(void)
 984:.\Generated_Source\PSoC4/USBFS_std.c ****                                                             
 985:.\Generated_Source\PSoC4/USBFS_std.c ****     {
ARM GAS  C:\Users\LAIR\AppData\Local\Temp\cciUanLt.s 			page 29


 986:.\Generated_Source\PSoC4/USBFS_std.c ****         /* Device Table */
 987:.\Generated_Source\PSoC4/USBFS_std.c ****         const T_USBFS_LUT CYCODE *pTmp;
 988:.\Generated_Source\PSoC4/USBFS_std.c **** 
 989:.\Generated_Source\PSoC4/USBFS_std.c ****         pTmp = (const T_USBFS_LUT CYCODE *) USBFS_TABLE[USBFS_device].p_list;
 990:.\Generated_Source\PSoC4/USBFS_std.c **** 
 991:.\Generated_Source\PSoC4/USBFS_std.c ****         /* The first entry points to the Device Descriptor,
 992:.\Generated_Source\PSoC4/USBFS_std.c ****         *  the second entry points to the BOS Descriptor
 993:.\Generated_Source\PSoC4/USBFS_std.c ****         */
 994:.\Generated_Source\PSoC4/USBFS_std.c ****         pTmp = &pTmp[1u];
 995:.\Generated_Source\PSoC4/USBFS_std.c ****         pTmp = (const T_USBFS_LUT CYCODE *) pTmp->p_list;
 996:.\Generated_Source\PSoC4/USBFS_std.c ****         return (pTmp);
 997:.\Generated_Source\PSoC4/USBFS_std.c ****     }
 998:.\Generated_Source\PSoC4/USBFS_std.c **** #endif /* (USBFS_BOS_ENABLE) */
 999:.\Generated_Source\PSoC4/USBFS_std.c **** 
1000:.\Generated_Source\PSoC4/USBFS_std.c **** 
1001:.\Generated_Source\PSoC4/USBFS_std.c **** /*******************************************************************************
1002:.\Generated_Source\PSoC4/USBFS_std.c **** * Function Name: USBFS_GetDeviceTablePtr
1003:.\Generated_Source\PSoC4/USBFS_std.c **** ****************************************************************************//**
1004:.\Generated_Source\PSoC4/USBFS_std.c **** *
1005:.\Generated_Source\PSoC4/USBFS_std.c **** *  This routine returns a pointer to the Device table
1006:.\Generated_Source\PSoC4/USBFS_std.c **** *
1007:.\Generated_Source\PSoC4/USBFS_std.c **** * \return
1008:.\Generated_Source\PSoC4/USBFS_std.c **** *  Device Table pointer
1009:.\Generated_Source\PSoC4/USBFS_std.c **** *
1010:.\Generated_Source\PSoC4/USBFS_std.c **** *******************************************************************************/
1011:.\Generated_Source\PSoC4/USBFS_std.c **** const T_USBFS_LUT CYCODE *USBFS_GetDeviceTablePtr(void)
1012:.\Generated_Source\PSoC4/USBFS_std.c ****                                                             
1013:.\Generated_Source\PSoC4/USBFS_std.c **** {
 572              		.loc 1 1013 0
 573              		.cfi_startproc
1014:.\Generated_Source\PSoC4/USBFS_std.c ****     /* Device Table */
1015:.\Generated_Source\PSoC4/USBFS_std.c ****     return( (const T_USBFS_LUT CYCODE *) USBFS_TABLE[USBFS_device].p_list );
 574              		.loc 1 1015 0
 575 0000 034B     		ldr	r3, .L41
 576 0002 1B78     		ldrb	r3, [r3]
 577 0004 DB00     		lsl	r3, r3, #3
 578 0006 034A     		ldr	r2, .L41+4
 579 0008 D318     		add	r3, r2, r3
 580 000a 5868     		ldr	r0, [r3, #4]
1016:.\Generated_Source\PSoC4/USBFS_std.c **** }
 581              		.loc 1 1016 0
 582              		@ sp needed
 583 000c 7047     		bx	lr
 584              	.L42:
 585 000e C046     		.align	2
 586              	.L41:
 587 0010 00000000 		.word	USBFS_device
 588 0014 00000000 		.word	USBFS_TABLE
 589              		.cfi_endproc
 590              	.LFE72:
 591              		.size	USBFS_GetDeviceTablePtr, .-USBFS_GetDeviceTablePtr
 592              		.section	.text.USBFS_GetInterfaceClassTablePtr,"ax",%progbits
 593              		.align	2
 594              		.global	USBFS_GetInterfaceClassTablePtr
 595              		.code	16
 596              		.thumb_func
 597              		.type	USBFS_GetInterfaceClassTablePtr, %function
ARM GAS  C:\Users\LAIR\AppData\Local\Temp\cciUanLt.s 			page 30


 598              	USBFS_GetInterfaceClassTablePtr:
 599              	.LFB73:
1017:.\Generated_Source\PSoC4/USBFS_std.c **** 
1018:.\Generated_Source\PSoC4/USBFS_std.c **** 
1019:.\Generated_Source\PSoC4/USBFS_std.c **** /*******************************************************************************
1020:.\Generated_Source\PSoC4/USBFS_std.c **** * Function Name: USB_GetInterfaceClassTablePtr
1021:.\Generated_Source\PSoC4/USBFS_std.c **** ****************************************************************************//**
1022:.\Generated_Source\PSoC4/USBFS_std.c **** *
1023:.\Generated_Source\PSoC4/USBFS_std.c **** *  This routine returns Interface Class table pointer, which contains
1024:.\Generated_Source\PSoC4/USBFS_std.c **** *  the relation between interface number and interface class.
1025:.\Generated_Source\PSoC4/USBFS_std.c **** *
1026:.\Generated_Source\PSoC4/USBFS_std.c **** * \return
1027:.\Generated_Source\PSoC4/USBFS_std.c **** *  Interface Class table pointer.
1028:.\Generated_Source\PSoC4/USBFS_std.c **** *
1029:.\Generated_Source\PSoC4/USBFS_std.c **** *******************************************************************************/
1030:.\Generated_Source\PSoC4/USBFS_std.c **** const uint8 CYCODE *USBFS_GetInterfaceClassTablePtr(void)
1031:.\Generated_Source\PSoC4/USBFS_std.c ****                                                         
1032:.\Generated_Source\PSoC4/USBFS_std.c **** {
 600              		.loc 1 1032 0
 601              		.cfi_startproc
 602 0000 08B5     		push	{r3, lr}
 603              		.cfi_def_cfa_offset 8
 604              		.cfi_offset 3, -8
 605              		.cfi_offset 14, -4
1033:.\Generated_Source\PSoC4/USBFS_std.c ****     const T_USBFS_LUT CYCODE *pTmp;
1034:.\Generated_Source\PSoC4/USBFS_std.c ****     const uint8 CYCODE *pInterfaceClass;
1035:.\Generated_Source\PSoC4/USBFS_std.c ****     uint8 currentInterfacesNum;
1036:.\Generated_Source\PSoC4/USBFS_std.c **** 
1037:.\Generated_Source\PSoC4/USBFS_std.c ****     pTmp = USBFS_GetConfigTablePtr(USBFS_configuration - 1u);
 606              		.loc 1 1037 0
 607 0002 084B     		ldr	r3, .L46
 608 0004 1878     		ldrb	r0, [r3]
 609 0006 0138     		sub	r0, r0, #1
 610 0008 C0B2     		uxtb	r0, r0
 611 000a FFF7FEFF 		bl	USBFS_GetConfigTablePtr
 612              	.LVL38:
1038:.\Generated_Source\PSoC4/USBFS_std.c ****     if (pTmp != NULL)
 613              		.loc 1 1038 0
 614 000e 0028     		cmp	r0, #0
 615 0010 06D0     		beq	.L45
1039:.\Generated_Source\PSoC4/USBFS_std.c ****     {
1040:.\Generated_Source\PSoC4/USBFS_std.c ****         currentInterfacesNum  = ((const uint8 *) pTmp->p_list)[USBFS_CONFIG_DESCR_NUM_INTERFACES];
 616              		.loc 1 1040 0
 617 0012 4368     		ldr	r3, [r0, #4]
 618 0014 1B79     		ldrb	r3, [r3, #4]
 619              	.LVL39:
1041:.\Generated_Source\PSoC4/USBFS_std.c ****         /* Third entry in the LUT starts the Interface Table pointers */
1042:.\Generated_Source\PSoC4/USBFS_std.c ****         /* The INTERFACE_CLASS table is located after all interfaces */
1043:.\Generated_Source\PSoC4/USBFS_std.c ****         pTmp = &pTmp[currentInterfacesNum + 2u];
 620              		.loc 1 1043 0
 621 0016 0233     		add	r3, r3, #2
 622              	.LVL40:
 623 0018 DB00     		lsl	r3, r3, #3
 624              	.LVL41:
 625 001a C018     		add	r0, r0, r3
 626              	.LVL42:
1044:.\Generated_Source\PSoC4/USBFS_std.c ****         pInterfaceClass = (const uint8 CYCODE *) pTmp->p_list;
ARM GAS  C:\Users\LAIR\AppData\Local\Temp\cciUanLt.s 			page 31


 627              		.loc 1 1044 0
 628 001c 4068     		ldr	r0, [r0, #4]
 629              	.LVL43:
 630 001e 00E0     		b	.L44
 631              	.LVL44:
 632              	.L45:
1045:.\Generated_Source\PSoC4/USBFS_std.c ****     }
1046:.\Generated_Source\PSoC4/USBFS_std.c ****     else
1047:.\Generated_Source\PSoC4/USBFS_std.c ****     {
1048:.\Generated_Source\PSoC4/USBFS_std.c ****         pInterfaceClass = (const uint8 CYCODE *) NULL;
 633              		.loc 1 1048 0
 634 0020 0020     		mov	r0, #0
 635              	.LVL45:
 636              	.L44:
1049:.\Generated_Source\PSoC4/USBFS_std.c ****     }
1050:.\Generated_Source\PSoC4/USBFS_std.c **** 
1051:.\Generated_Source\PSoC4/USBFS_std.c ****     return (pInterfaceClass);
1052:.\Generated_Source\PSoC4/USBFS_std.c **** }
 637              		.loc 1 1052 0
 638              		@ sp needed
 639 0022 08BD     		pop	{r3, pc}
 640              	.L47:
 641              		.align	2
 642              	.L46:
 643 0024 00000000 		.word	USBFS_configuration
 644              		.cfi_endproc
 645              	.LFE73:
 646              		.size	USBFS_GetInterfaceClassTablePtr, .-USBFS_GetInterfaceClassTablePtr
 647              		.section	.text.USBFS_Config,"ax",%progbits
 648              		.align	2
 649              		.global	USBFS_Config
 650              		.code	16
 651              		.thumb_func
 652              		.type	USBFS_Config, %function
 653              	USBFS_Config:
 654              	.LFB69:
 571:.\Generated_Source\PSoC4/USBFS_std.c ****     uint8 ep;
 655              		.loc 1 571 0
 656              		.cfi_startproc
 657              	.LVL46:
 658 0000 F8B5     		push	{r3, r4, r5, r6, r7, lr}
 659              		.cfi_def_cfa_offset 24
 660              		.cfi_offset 3, -24
 661              		.cfi_offset 4, -20
 662              		.cfi_offset 5, -16
 663              		.cfi_offset 6, -12
 664              		.cfi_offset 7, -8
 665              		.cfi_offset 14, -4
 666 0002 4F46     		mov	r7, r9
 667 0004 4646     		mov	r6, r8
 668 0006 C0B4     		push	{r6, r7}
 669              		.cfi_def_cfa_offset 32
 670              		.cfi_offset 8, -32
 671              		.cfi_offset 9, -28
 672              	.LVL47:
 586:.\Generated_Source\PSoC4/USBFS_std.c ****     {
 673              		.loc 1 586 0
ARM GAS  C:\Users\LAIR\AppData\Local\Temp\cciUanLt.s 			page 32


 674 0008 0021     		mov	r1, #0
 675 000a 11E0     		b	.L49
 676              	.LVL48:
 677              	.L50:
 588:.\Generated_Source\PSoC4/USBFS_std.c ****         USBFS_EP[ep].hwEpState  = 0u;
 678              		.loc 1 588 0 discriminator 3
 679 000c 6A4E     		ldr	r6, .L73
 680 000e 4B00     		lsl	r3, r1, #1
 681 0010 5A18     		add	r2, r3, r1
 682 0012 9200     		lsl	r2, r2, #2
 683 0014 0024     		mov	r4, #0
 684 0016 9455     		strb	r4, [r2, r6]
 589:.\Generated_Source\PSoC4/USBFS_std.c ****         USBFS_EP[ep].epToggle   = 0u;
 685              		.loc 1 589 0 discriminator 3
 686 0018 5A18     		add	r2, r3, r1
 687 001a 9200     		lsl	r2, r2, #2
 688 001c B218     		add	r2, r6, r2
 689 001e 9470     		strb	r4, [r2, #2]
 590:.\Generated_Source\PSoC4/USBFS_std.c ****         USBFS_EP[ep].bufferSize = 0u;
 690              		.loc 1 590 0 discriminator 3
 691 0020 D470     		strb	r4, [r2, #3]
 591:.\Generated_Source\PSoC4/USBFS_std.c ****         USBFS_EP[ep].interface  = 0u;
 692              		.loc 1 591 0 discriminator 3
 693 0022 0025     		mov	r5, #0
 694 0024 1481     		strh	r4, [r2, #8]
 592:.\Generated_Source\PSoC4/USBFS_std.c ****         USBFS_EP[ep].apiEpState = USBFS_NO_EVENT_PENDING;
 695              		.loc 1 592 0 discriminator 3
 696 0026 9572     		strb	r5, [r2, #10]
 593:.\Generated_Source\PSoC4/USBFS_std.c ****         USBFS_EP[ep].epMode     = USBFS_MODE_DISABLE;   
 697              		.loc 1 593 0 discriminator 3
 698 0028 5570     		strb	r5, [r2, #1]
 594:.\Generated_Source\PSoC4/USBFS_std.c ****     }
 699              		.loc 1 594 0 discriminator 3
 700 002a 5571     		strb	r5, [r2, #5]
 586:.\Generated_Source\PSoC4/USBFS_std.c ****     {
 701              		.loc 1 586 0 discriminator 3
 702 002c 0131     		add	r1, r1, #1
 703              	.LVL49:
 704 002e C9B2     		uxtb	r1, r1
 705              	.LVL50:
 706              	.L49:
 586:.\Generated_Source\PSoC4/USBFS_std.c ****     {
 707              		.loc 1 586 0 is_stmt 0 discriminator 1
 708 0030 0829     		cmp	r1, #8
 709 0032 EBD9     		bls	.L50
 598:.\Generated_Source\PSoC4/USBFS_std.c ****     {
 710              		.loc 1 598 0 is_stmt 1
 711 0034 0028     		cmp	r0, #0
 712 0036 08D1     		bne	.L70
 713 0038 0AE0     		b	.L52
 714              	.LVL51:
 715              	.L53:
 602:.\Generated_Source\PSoC4/USBFS_std.c ****             USBFS_interfaceSettingLast[i] = 0u;
 716              		.loc 1 602 0 discriminator 3
 717 003a 0022     		mov	r2, #0
 718 003c 5F49     		ldr	r1, .L73+4
 719 003e CA54     		strb	r2, [r1, r3]
ARM GAS  C:\Users\LAIR\AppData\Local\Temp\cciUanLt.s 			page 33


 603:.\Generated_Source\PSoC4/USBFS_std.c ****         }
 720              		.loc 1 603 0 discriminator 3
 721 0040 5F49     		ldr	r1, .L73+8
 722 0042 CA54     		strb	r2, [r1, r3]
 600:.\Generated_Source\PSoC4/USBFS_std.c ****         {
 723              		.loc 1 600 0 discriminator 3
 724 0044 0133     		add	r3, r3, #1
 725              	.LVL52:
 726 0046 DBB2     		uxtb	r3, r3
 727              	.LVL53:
 728 0048 00E0     		b	.L51
 729              	.LVL54:
 730              	.L70:
 731 004a 0023     		mov	r3, #0
 732              	.LVL55:
 733              	.L51:
 600:.\Generated_Source\PSoC4/USBFS_std.c ****         {
 734              		.loc 1 600 0 is_stmt 0 discriminator 1
 735 004c 002B     		cmp	r3, #0
 736 004e F4D0     		beq	.L53
 737              	.LVL56:
 738              	.L52:
 608:.\Generated_Source\PSoC4/USBFS_std.c ****     {
 739              		.loc 1 608 0 is_stmt 1
 740 0050 5C4B     		ldr	r3, .L73+12
 741 0052 1B78     		ldrb	r3, [r3]
 742 0054 002B     		cmp	r3, #0
 743 0056 00D1     		bne	.LCB761
 744 0058 AAE0     		b	.L48	@long jump
 745              	.LCB761:
 614:.\Generated_Source\PSoC4/USBFS_std.c ****         
 746              		.loc 1 614 0
 747 005a 5A4B     		ldr	r3, .L73+12
 748 005c 1878     		ldrb	r0, [r3]
 749              	.LVL57:
 750 005e 0138     		sub	r0, r0, #1
 751 0060 C0B2     		uxtb	r0, r0
 752 0062 FFF7FEFF 		bl	USBFS_GetConfigTablePtr
 753              	.LVL58:
 754 0066 8146     		mov	r9, r0
 755              	.LVL59:
 618:.\Generated_Source\PSoC4/USBFS_std.c ****         {
 756              		.loc 1 618 0
 757 0068 4368     		ldr	r3, [r0, #4]
 758 006a DB79     		ldrb	r3, [r3, #7]
 759 006c 5B06     		lsl	r3, r3, #25
 760 006e 05D5     		bpl	.L55
 620:.\Generated_Source\PSoC4/USBFS_std.c ****         }
 761              		.loc 1 620 0
 762 0070 554A     		ldr	r2, .L73+16
 763 0072 1178     		ldrb	r1, [r2]
 764 0074 0123     		mov	r3, #1
 765 0076 0B43     		orr	r3, r1
 766 0078 1370     		strb	r3, [r2]
 767 007a 04E0     		b	.L56
 768              	.L55:
 624:.\Generated_Source\PSoC4/USBFS_std.c ****         }
ARM GAS  C:\Users\LAIR\AppData\Local\Temp\cciUanLt.s 			page 34


 769              		.loc 1 624 0
 770 007c 524A     		ldr	r2, .L73+16
 771 007e 1378     		ldrb	r3, [r2]
 772 0080 0121     		mov	r1, #1
 773 0082 8B43     		bic	r3, r1
 774 0084 1370     		strb	r3, [r2]
 775              	.L56:
 776              	.LVL60:
 629:.\Generated_Source\PSoC4/USBFS_std.c **** 
 777              		.loc 1 629 0
 778 0086 4B46     		mov	r3, r9
 779 0088 1E7A     		ldrb	r6, [r3, #8]
 780              	.LVL61:
 687:.\Generated_Source\PSoC4/USBFS_std.c ****             {
 781              		.loc 1 687 0
 782 008a 0124     		mov	r4, #1
 783 008c 61E0     		b	.L57
 784              	.LVL62:
 785              	.L65:
 690:.\Generated_Source\PSoC4/USBFS_std.c ****                 /* Find max length for each EP and select it (length could be different in differen
 786              		.loc 1 690 0
 787 008e 4B46     		mov	r3, r9
 788 0090 D968     		ldr	r1, [r3, #12]
 789              	.LVL63:
 694:.\Generated_Source\PSoC4/USBFS_std.c ****                 {
 790              		.loc 1 694 0
 791 0092 0023     		mov	r3, #0
 792 0094 59E0     		b	.L58
 793              	.LVL64:
 794              	.L64:
 696:.\Generated_Source\PSoC4/USBFS_std.c ****                     {
 795              		.loc 1 696 0
 796 0096 8A78     		ldrb	r2, [r1, #2]
 797 0098 7F25     		mov	r5, #127
 798 009a 2A40     		and	r2, r5
 799 009c 9442     		cmp	r4, r2
 800 009e 51D1     		bne	.L59
 699:.\Generated_Source\PSoC4/USBFS_std.c ****                         {
 801              		.loc 1 699 0
 802 00a0 251C     		mov	r5, r4
 803 00a2 6200     		lsl	r2, r4, #1
 804 00a4 1219     		add	r2, r2, r4
 805 00a6 9200     		lsl	r2, r2, #2
 806 00a8 434F     		ldr	r7, .L73
 807 00aa BA18     		add	r2, r7, r2
 808 00ac 1289     		ldrh	r2, [r2, #8]
 809 00ae 92B2     		uxth	r2, r2
 810 00b0 8F88     		ldrh	r7, [r1, #4]
 811 00b2 BA42     		cmp	r2, r7
 812 00b4 06D2     		bcs	.L60
 701:.\Generated_Source\PSoC4/USBFS_std.c ****                         }
 813              		.loc 1 701 0
 814 00b6 6200     		lsl	r2, r4, #1
 815 00b8 1219     		add	r2, r2, r4
 816 00ba 9200     		lsl	r2, r2, #2
 817 00bc 3E48     		ldr	r0, .L73
 818 00be 8446     		mov	ip, r0
ARM GAS  C:\Users\LAIR\AppData\Local\Temp\cciUanLt.s 			page 35


 819 00c0 6244     		add	r2, r2, ip
 820 00c2 1781     		strh	r7, [r2, #8]
 821              	.L60:
 705:.\Generated_Source\PSoC4/USBFS_std.c ****                         {                            
 822              		.loc 1 705 0
 823 00c4 0A78     		ldrb	r2, [r1]
 824 00c6 3D4F     		ldr	r7, .L73+4
 825 00c8 BA5C     		ldrb	r2, [r7, r2]
 826 00ca D2B2     		uxtb	r2, r2
 827 00cc 4F78     		ldrb	r7, [r1, #1]
 828 00ce BA42     		cmp	r2, r7
 829 00d0 38D1     		bne	.L59
 707:.\Generated_Source\PSoC4/USBFS_std.c ****                             USBFS_EP[i].attrib = pEP->attributes;
 830              		.loc 1 707 0
 831 00d2 8A78     		ldrb	r2, [r1, #2]
 832 00d4 9046     		mov	r8, r2
 833 00d6 384A     		ldr	r2, .L73
 834 00d8 9446     		mov	ip, r2
 835 00da 6A00     		lsl	r2, r5, #1
 836 00dc 5719     		add	r7, r2, r5
 837 00de BF00     		lsl	r7, r7, #2
 838 00e0 6744     		add	r7, r7, ip
 839 00e2 4046     		mov	r0, r8
 840 00e4 3871     		strb	r0, [r7, #4]
 708:.\Generated_Source\PSoC4/USBFS_std.c ****                             
 841              		.loc 1 708 0
 842 00e6 CF78     		ldrb	r7, [r1, #3]
 843 00e8 5219     		add	r2, r2, r5
 844 00ea 9200     		lsl	r2, r2, #2
 845 00ec 6046     		mov	r0, ip
 846 00ee 1754     		strb	r7, [r2, r0]
 710:.\Generated_Source\PSoC4/USBFS_std.c ****                             
 847              		.loc 1 710 0
 848 00f0 CA78     		ldrb	r2, [r1, #3]
 849 00f2 0327     		mov	r7, #3
 850 00f4 3A40     		and	r2, r7
 851              	.LVL65:
 712:.\Generated_Source\PSoC4/USBFS_std.c ****                             {
 852              		.loc 1 712 0
 853 00f6 0227     		mov	r7, #2
 854 00f8 CF57     		ldrsb	r7, [r1, r7]
 855 00fa 002F     		cmp	r7, #0
 856 00fc 11DA     		bge	.L61
 715:.\Generated_Source\PSoC4/USBFS_std.c ****                                 USBFS_EP[i].apiEpState = USBFS_EVENT_PENDING;
 857              		.loc 1 715 0
 858 00fe 012A     		cmp	r2, #1
 859 0100 02D1     		bne	.L71
 860 0102 0632     		add	r2, r2, #6
 861              	.LVL66:
 862 0104 9046     		mov	r8, r2
 863 0106 01E0     		b	.L62
 864              	.LVL67:
 865              	.L71:
 866 0108 0D22     		mov	r2, #13
 867              	.LVL68:
 868 010a 9046     		mov	r8, r2
 869              	.L62:
ARM GAS  C:\Users\LAIR\AppData\Local\Temp\cciUanLt.s 			page 36


 715:.\Generated_Source\PSoC4/USBFS_std.c ****                                 USBFS_EP[i].apiEpState = USBFS_EVENT_PENDING;
 870              		.loc 1 715 0 is_stmt 0 discriminator 4
 871 010c 2A4A     		ldr	r2, .L73
 872 010e 9446     		mov	ip, r2
 873 0110 6A00     		lsl	r2, r5, #1
 874 0112 5719     		add	r7, r2, r5
 875 0114 BF00     		lsl	r7, r7, #2
 876 0116 6744     		add	r7, r7, ip
 877 0118 4046     		mov	r0, r8
 878 011a 7871     		strb	r0, [r7, #5]
 879              	.LVL69:
 716:.\Generated_Source\PSoC4/USBFS_std.c ****                                 
 880              		.loc 1 716 0 is_stmt 1 discriminator 4
 881 011c 0122     		mov	r2, #1
 882 011e 7A70     		strb	r2, [r7, #1]
 883 0120 10E0     		b	.L59
 884              	.LVL70:
 885              	.L61:
 728:.\Generated_Source\PSoC4/USBFS_std.c ****                                 USBFS_EP[i].apiEpState = USBFS_NO_EVENT_PENDING;
 886              		.loc 1 728 0
 887 0122 012A     		cmp	r2, #1
 888 0124 02D1     		bne	.L72
 889 0126 0432     		add	r2, r2, #4
 890              	.LVL71:
 891 0128 9046     		mov	r8, r2
 892 012a 01E0     		b	.L63
 893              	.LVL72:
 894              	.L72:
 895 012c 0922     		mov	r2, #9
 896              	.LVL73:
 897 012e 9046     		mov	r8, r2
 898              	.L63:
 728:.\Generated_Source\PSoC4/USBFS_std.c ****                                 USBFS_EP[i].apiEpState = USBFS_NO_EVENT_PENDING;
 899              		.loc 1 728 0 is_stmt 0 discriminator 4
 900 0130 214F     		ldr	r7, .L73
 901 0132 6A00     		lsl	r2, r5, #1
 902 0134 5219     		add	r2, r2, r5
 903 0136 9200     		lsl	r2, r2, #2
 904 0138 BA18     		add	r2, r7, r2
 905 013a 4046     		mov	r0, r8
 906 013c 5071     		strb	r0, [r2, #5]
 907              	.LVL74:
 729:.\Generated_Source\PSoC4/USBFS_std.c ****                                 
 908              		.loc 1 729 0 is_stmt 1 discriminator 4
 909 013e 151C     		mov	r5, r2
 910 0140 0022     		mov	r2, #0
 911 0142 6A70     		strb	r2, [r5, #1]
 912              	.L59:
 752:.\Generated_Source\PSoC4/USBFS_std.c ****                 }
 913              		.loc 1 752 0 discriminator 2
 914 0144 0831     		add	r1, r1, #8
 915              	.LVL75:
 694:.\Generated_Source\PSoC4/USBFS_std.c ****                 {
 916              		.loc 1 694 0 discriminator 2
 917 0146 0133     		add	r3, r3, #1
 918              	.LVL76:
 919 0148 DBB2     		uxtb	r3, r3
ARM GAS  C:\Users\LAIR\AppData\Local\Temp\cciUanLt.s 			page 37


 920              	.LVL77:
 921              	.L58:
 694:.\Generated_Source\PSoC4/USBFS_std.c ****                 {
 922              		.loc 1 694 0 is_stmt 0 discriminator 1
 923 014a B342     		cmp	r3, r6
 924 014c A3D3     		bcc	.L64
 687:.\Generated_Source\PSoC4/USBFS_std.c ****             {
 925              		.loc 1 687 0 is_stmt 1 discriminator 2
 926 014e 0134     		add	r4, r4, #1
 927              	.LVL78:
 928 0150 E4B2     		uxtb	r4, r4
 929              	.LVL79:
 930              	.L57:
 687:.\Generated_Source\PSoC4/USBFS_std.c ****             {
 931              		.loc 1 687 0 is_stmt 0 discriminator 1
 932 0152 082C     		cmp	r4, #8
 933 0154 9BD9     		bls	.L65
 762:.\Generated_Source\PSoC4/USBFS_std.c ****         for (i = 0u; i < ep; i++)
 934              		.loc 1 762 0 is_stmt 1
 935 0156 4B46     		mov	r3, r9
 936 0158 D968     		ldr	r1, [r3, #12]
 937              	.LVL80:
 763:.\Generated_Source\PSoC4/USBFS_std.c ****         {
 938              		.loc 1 763 0
 939 015a 0022     		mov	r2, #0
 940 015c 0CE0     		b	.L66
 941              	.LVL81:
 942              	.L67:
 766:.\Generated_Source\PSoC4/USBFS_std.c ****             pEP = &pEP[1u];
 943              		.loc 1 766 0 discriminator 3
 944 015e 8B78     		ldrb	r3, [r1, #2]
 945 0160 7F20     		mov	r0, #127
 946 0162 0340     		and	r3, r0
 947 0164 0878     		ldrb	r0, [r1]
 948 0166 5C00     		lsl	r4, r3, #1
 949 0168 E318     		add	r3, r4, r3
 950 016a 9B00     		lsl	r3, r3, #2
 951 016c 124C     		ldr	r4, .L73
 952 016e E318     		add	r3, r4, r3
 953 0170 9872     		strb	r0, [r3, #10]
 767:.\Generated_Source\PSoC4/USBFS_std.c ****         }
 954              		.loc 1 767 0 discriminator 3
 955 0172 0831     		add	r1, r1, #8
 956              	.LVL82:
 763:.\Generated_Source\PSoC4/USBFS_std.c ****         {
 957              		.loc 1 763 0 discriminator 3
 958 0174 0132     		add	r2, r2, #1
 959              	.LVL83:
 960 0176 D2B2     		uxtb	r2, r2
 961              	.LVL84:
 962              	.L66:
 763:.\Generated_Source\PSoC4/USBFS_std.c ****         {
 963              		.loc 1 763 0 is_stmt 0 discriminator 1
 964 0178 B242     		cmp	r2, r6
 965 017a F0D3     		bcc	.L67
 771:.\Generated_Source\PSoC4/USBFS_std.c ****         
 966              		.loc 1 771 0 is_stmt 1
ARM GAS  C:\Users\LAIR\AppData\Local\Temp\cciUanLt.s 			page 38


 967 017c FFF7FEFF 		bl	USBFS_GetInterfaceClassTablePtr
 968              	.LVL85:
 969 0180 124B     		ldr	r3, .L73+20
 970 0182 1860     		str	r0, [r3]
 971              	.LVL86:
 775:.\Generated_Source\PSoC4/USBFS_std.c ****         for (ep = USBFS_EP1; ep < USBFS_MAX_EP; ++ep)
 972              		.loc 1 775 0
 973 0184 0023     		mov	r3, #0
 776:.\Generated_Source\PSoC4/USBFS_std.c ****         {
 974              		.loc 1 776 0
 975 0186 0121     		mov	r1, #1
 976 0188 0EE0     		b	.L68
 977              	.LVL87:
 978              	.L69:
 778:.\Generated_Source\PSoC4/USBFS_std.c ****             buffCount += USBFS_EP[ep].bufferSize;
 979              		.loc 1 778 0 discriminator 3
 980 018a 0B4C     		ldr	r4, .L73
 981 018c 4A00     		lsl	r2, r1, #1
 982 018e 5018     		add	r0, r2, r1
 983 0190 8000     		lsl	r0, r0, #2
 984 0192 2018     		add	r0, r4, r0
 985 0194 C380     		strh	r3, [r0, #6]
 779:.\Generated_Source\PSoC4/USBFS_std.c ****             
 986              		.loc 1 779 0 discriminator 3
 987 0196 0289     		ldrh	r2, [r0, #8]
 988 0198 D318     		add	r3, r2, r3
 989              	.LVL88:
 990 019a 9AB2     		uxth	r2, r3
 991              	.LVL89:
 783:.\Generated_Source\PSoC4/USBFS_std.c ****         #endif /* (USBFS_GEN_16BITS_EP_ACCESS) */            
 992              		.loc 1 783 0 discriminator 3
 993 019c 0123     		mov	r3, #1
 994 019e 1340     		and	r3, r2
 995 01a0 9B18     		add	r3, r3, r2
 996 01a2 9BB2     		uxth	r3, r3
 997              	.LVL90:
 776:.\Generated_Source\PSoC4/USBFS_std.c ****         {
 998              		.loc 1 776 0 discriminator 3
 999 01a4 0131     		add	r1, r1, #1
 1000              	.LVL91:
 1001 01a6 C9B2     		uxtb	r1, r1
 1002              	.LVL92:
 1003              	.L68:
 776:.\Generated_Source\PSoC4/USBFS_std.c ****         {
 1004              		.loc 1 776 0 is_stmt 0 discriminator 1
 1005 01a8 0829     		cmp	r1, #8
 1006 01aa EED9     		bls	.L69
 789:.\Generated_Source\PSoC4/USBFS_std.c ****     }
 1007              		.loc 1 789 0 is_stmt 1
 1008 01ac FFF7FEFF 		bl	USBFS_ConfigReg
 1009              	.LVL93:
 1010              	.L48:
 791:.\Generated_Source\PSoC4/USBFS_std.c **** 
 1011              		.loc 1 791 0
 1012              		@ sp needed
 1013 01b0 0CBC     		pop	{r2, r3}
 1014 01b2 9046     		mov	r8, r2
ARM GAS  C:\Users\LAIR\AppData\Local\Temp\cciUanLt.s 			page 39


 1015 01b4 9946     		mov	r9, r3
 1016 01b6 F8BD     		pop	{r3, r4, r5, r6, r7, pc}
 1017              	.L74:
 1018              		.align	2
 1019              	.L73:
 1020 01b8 00000000 		.word	USBFS_EP
 1021 01bc 00000000 		.word	USBFS_interfaceSetting
 1022 01c0 00000000 		.word	USBFS_interfaceSettingLast
 1023 01c4 00000000 		.word	USBFS_configuration
 1024 01c8 00000000 		.word	USBFS_deviceStatus
 1025 01cc 00000000 		.word	USBFS_interfaceClass
 1026              		.cfi_endproc
 1027              	.LFE69:
 1028              		.size	USBFS_Config, .-USBFS_Config
 1029              		.section	.text.USBFS_TerminateEP,"ax",%progbits
 1030              		.align	2
 1031              		.global	USBFS_TerminateEP
 1032              		.code	16
 1033              		.thumb_func
 1034              		.type	USBFS_TerminateEP, %function
 1035              	USBFS_TerminateEP:
 1036              	.LFB74:
1053:.\Generated_Source\PSoC4/USBFS_std.c **** 
1054:.\Generated_Source\PSoC4/USBFS_std.c **** 
1055:.\Generated_Source\PSoC4/USBFS_std.c **** /*******************************************************************************
1056:.\Generated_Source\PSoC4/USBFS_std.c **** * Function Name: USBFS_TerminateEP
1057:.\Generated_Source\PSoC4/USBFS_std.c **** ****************************************************************************//**
1058:.\Generated_Source\PSoC4/USBFS_std.c **** *
1059:.\Generated_Source\PSoC4/USBFS_std.c **** *  This function terminates the specified USBFS endpoint.
1060:.\Generated_Source\PSoC4/USBFS_std.c **** *  This function should be used before endpoint reconfiguration.
1061:.\Generated_Source\PSoC4/USBFS_std.c **** *
1062:.\Generated_Source\PSoC4/USBFS_std.c **** *  \param ep Contains the data endpoint number.
1063:.\Generated_Source\PSoC4/USBFS_std.c **** *
1064:.\Generated_Source\PSoC4/USBFS_std.c **** *  \reentrant
1065:.\Generated_Source\PSoC4/USBFS_std.c **** *  No.
1066:.\Generated_Source\PSoC4/USBFS_std.c **** *
1067:.\Generated_Source\PSoC4/USBFS_std.c **** * \sideeffect
1068:.\Generated_Source\PSoC4/USBFS_std.c **** * 
1069:.\Generated_Source\PSoC4/USBFS_std.c **** * The device responds with a NAK for any transactions on the selected endpoint.
1070:.\Generated_Source\PSoC4/USBFS_std.c **** *   
1071:.\Generated_Source\PSoC4/USBFS_std.c **** *******************************************************************************/
1072:.\Generated_Source\PSoC4/USBFS_std.c **** void USBFS_TerminateEP(uint8 epNumber) 
1073:.\Generated_Source\PSoC4/USBFS_std.c **** {
 1037              		.loc 1 1073 0
 1038              		.cfi_startproc
 1039              	.LVL94:
1074:.\Generated_Source\PSoC4/USBFS_std.c ****     /* Get endpoint number */
1075:.\Generated_Source\PSoC4/USBFS_std.c ****     epNumber &= USBFS_DIR_UNUSED;
 1040              		.loc 1 1075 0
 1041 0000 7F23     		mov	r3, #127
 1042 0002 1840     		and	r0, r3
 1043              	.LVL95:
1076:.\Generated_Source\PSoC4/USBFS_std.c **** 
1077:.\Generated_Source\PSoC4/USBFS_std.c ****     if ((epNumber > USBFS_EP0) && (epNumber < USBFS_MAX_EP))
 1044              		.loc 1 1077 0
 1045 0004 431E     		sub	r3, r0, #1
 1046 0006 072B     		cmp	r3, #7
ARM GAS  C:\Users\LAIR\AppData\Local\Temp\cciUanLt.s 			page 40


 1047 0008 1DD8     		bhi	.L75
1078:.\Generated_Source\PSoC4/USBFS_std.c ****     {
1079:.\Generated_Source\PSoC4/USBFS_std.c ****         /* Set the endpoint Halt */
1080:.\Generated_Source\PSoC4/USBFS_std.c ****         USBFS_EP[epNumber].hwEpState |= USBFS_ENDPOINT_STATUS_HALT;
 1048              		.loc 1 1080 0
 1049 000a 4300     		lsl	r3, r0, #1
 1050 000c 1B18     		add	r3, r3, r0
 1051 000e 9B00     		lsl	r3, r3, #2
 1052 0010 0D4A     		ldr	r2, .L78
 1053 0012 D318     		add	r3, r2, r3
 1054 0014 9978     		ldrb	r1, [r3, #2]
 1055 0016 0122     		mov	r2, #1
 1056 0018 0A43     		orr	r2, r1
 1057 001a 9A70     		strb	r2, [r3, #2]
1081:.\Generated_Source\PSoC4/USBFS_std.c **** 
1082:.\Generated_Source\PSoC4/USBFS_std.c ****         /* Clear the data toggle */
1083:.\Generated_Source\PSoC4/USBFS_std.c ****         USBFS_EP[epNumber].epToggle = 0u;
 1058              		.loc 1 1083 0
 1059 001c 0022     		mov	r2, #0
 1060 001e DA70     		strb	r2, [r3, #3]
1084:.\Generated_Source\PSoC4/USBFS_std.c ****         USBFS_EP[epNumber].apiEpState = USBFS_NO_EVENT_ALLOWED;
 1061              		.loc 1 1084 0
 1062 0020 0232     		add	r2, r2, #2
 1063 0022 5A70     		strb	r2, [r3, #1]
1085:.\Generated_Source\PSoC4/USBFS_std.c **** 
1086:.\Generated_Source\PSoC4/USBFS_std.c ****         if ((USBFS_EP[epNumber].addr & USBFS_DIR_IN) != 0u)
 1064              		.loc 1 1086 0
 1065 0024 1B79     		ldrb	r3, [r3, #4]
 1066 0026 5BB2     		sxtb	r3, r3
 1067 0028 002B     		cmp	r3, #0
 1068 002a 06DA     		bge	.L77
1087:.\Generated_Source\PSoC4/USBFS_std.c ****         {   
1088:.\Generated_Source\PSoC4/USBFS_std.c ****             /* IN Endpoint */
1089:.\Generated_Source\PSoC4/USBFS_std.c ****             USBFS_SIE_EP_BASE.sieEp[epNumber].epCr0 = USBFS_MODE_NAK_IN;
 1069              		.loc 1 1089 0
 1070 002c 8001     		lsl	r0, r0, #6
 1071              	.LVL96:
 1072 002e 074B     		ldr	r3, .L78+4
 1073 0030 9C46     		mov	ip, r3
 1074 0032 6044     		add	r0, r0, ip
 1075 0034 0C23     		mov	r3, #12
 1076 0036 8360     		str	r3, [r0, #8]
 1077 0038 05E0     		b	.L75
 1078              	.LVL97:
 1079              	.L77:
1090:.\Generated_Source\PSoC4/USBFS_std.c ****         }
1091:.\Generated_Source\PSoC4/USBFS_std.c ****         else
1092:.\Generated_Source\PSoC4/USBFS_std.c ****         {
1093:.\Generated_Source\PSoC4/USBFS_std.c ****             /* OUT Endpoint */
1094:.\Generated_Source\PSoC4/USBFS_std.c ****             USBFS_SIE_EP_BASE.sieEp[epNumber].epCr0 = USBFS_MODE_NAK_OUT;
 1080              		.loc 1 1094 0
 1081 003a 8001     		lsl	r0, r0, #6
 1082              	.LVL98:
 1083 003c 034B     		ldr	r3, .L78+4
 1084 003e 9C46     		mov	ip, r3
 1085 0040 6044     		add	r0, r0, ip
 1086 0042 0823     		mov	r3, #8
ARM GAS  C:\Users\LAIR\AppData\Local\Temp\cciUanLt.s 			page 41


 1087 0044 8360     		str	r3, [r0, #8]
 1088              	.L75:
1095:.\Generated_Source\PSoC4/USBFS_std.c ****         }
1096:.\Generated_Source\PSoC4/USBFS_std.c ****     }
1097:.\Generated_Source\PSoC4/USBFS_std.c **** }
 1089              		.loc 1 1097 0
 1090              		@ sp needed
 1091 0046 7047     		bx	lr
 1092              	.L79:
 1093              		.align	2
 1094              	.L78:
 1095 0048 00000000 		.word	USBFS_EP
 1096 004c F0FF2B40 		.word	1076625392
 1097              		.cfi_endproc
 1098              	.LFE74:
 1099              		.size	USBFS_TerminateEP, .-USBFS_TerminateEP
 1100              		.section	.text.USBFS_SetEndpointHalt,"ax",%progbits
 1101              		.align	2
 1102              		.global	USBFS_SetEndpointHalt
 1103              		.code	16
 1104              		.thumb_func
 1105              		.type	USBFS_SetEndpointHalt, %function
 1106              	USBFS_SetEndpointHalt:
 1107              	.LFB75:
1098:.\Generated_Source\PSoC4/USBFS_std.c **** 
1099:.\Generated_Source\PSoC4/USBFS_std.c **** 
1100:.\Generated_Source\PSoC4/USBFS_std.c **** /*******************************************************************************
1101:.\Generated_Source\PSoC4/USBFS_std.c **** * Function Name: USBFS_SetEndpointHalt
1102:.\Generated_Source\PSoC4/USBFS_std.c **** ****************************************************************************//**
1103:.\Generated_Source\PSoC4/USBFS_std.c **** *
1104:.\Generated_Source\PSoC4/USBFS_std.c **** *  This routine handles set endpoint halt.
1105:.\Generated_Source\PSoC4/USBFS_std.c **** *
1106:.\Generated_Source\PSoC4/USBFS_std.c **** * \return
1107:.\Generated_Source\PSoC4/USBFS_std.c **** *  requestHandled.
1108:.\Generated_Source\PSoC4/USBFS_std.c **** *
1109:.\Generated_Source\PSoC4/USBFS_std.c **** * \reentrant
1110:.\Generated_Source\PSoC4/USBFS_std.c **** *  No.
1111:.\Generated_Source\PSoC4/USBFS_std.c **** *
1112:.\Generated_Source\PSoC4/USBFS_std.c **** *******************************************************************************/
1113:.\Generated_Source\PSoC4/USBFS_std.c **** uint8 USBFS_SetEndpointHalt(void) 
1114:.\Generated_Source\PSoC4/USBFS_std.c **** {
 1108              		.loc 1 1114 0
 1109              		.cfi_startproc
 1110 0000 08B5     		push	{r3, lr}
 1111              		.cfi_def_cfa_offset 8
 1112              		.cfi_offset 3, -8
 1113              		.cfi_offset 14, -4
 1114              	.LVL99:
1115:.\Generated_Source\PSoC4/USBFS_std.c ****     uint8 requestHandled = USBFS_FALSE;
1116:.\Generated_Source\PSoC4/USBFS_std.c ****     uint32 ep;
1117:.\Generated_Source\PSoC4/USBFS_std.c ****     
1118:.\Generated_Source\PSoC4/USBFS_std.c ****     /* Set endpoint halt */
1119:.\Generated_Source\PSoC4/USBFS_std.c ****     ep = USBFS_wIndexLoReg & USBFS_DIR_UNUSED;
 1115              		.loc 1 1119 0
 1116 0002 164B     		ldr	r3, .L85
 1117 0004 1B69     		ldr	r3, [r3, #16]
 1118 0006 7F22     		mov	r2, #127
ARM GAS  C:\Users\LAIR\AppData\Local\Temp\cciUanLt.s 			page 42


 1119 0008 1340     		and	r3, r2
 1120              	.LVL100:
1120:.\Generated_Source\PSoC4/USBFS_std.c **** 
1121:.\Generated_Source\PSoC4/USBFS_std.c ****     if ((ep > USBFS_EP0) && (ep < USBFS_MAX_EP))
 1121              		.loc 1 1121 0
 1122 000a 5A1E     		sub	r2, r3, #1
 1123 000c 072A     		cmp	r2, #7
 1124 000e 22D8     		bhi	.L84
1122:.\Generated_Source\PSoC4/USBFS_std.c ****     {
1123:.\Generated_Source\PSoC4/USBFS_std.c ****         /* Set the endpoint Halt */
1124:.\Generated_Source\PSoC4/USBFS_std.c ****         USBFS_EP[ep].hwEpState |= (USBFS_ENDPOINT_STATUS_HALT);
 1125              		.loc 1 1124 0
 1126 0010 5A00     		lsl	r2, r3, #1
 1127 0012 D218     		add	r2, r2, r3
 1128 0014 9200     		lsl	r2, r2, #2
 1129 0016 1249     		ldr	r1, .L85+4
 1130 0018 8A18     		add	r2, r1, r2
 1131 001a 9078     		ldrb	r0, [r2, #2]
 1132 001c 0121     		mov	r1, #1
 1133 001e 0143     		orr	r1, r0
 1134 0020 9170     		strb	r1, [r2, #2]
1125:.\Generated_Source\PSoC4/USBFS_std.c **** 
1126:.\Generated_Source\PSoC4/USBFS_std.c ****         /* Clear the data toggle */
1127:.\Generated_Source\PSoC4/USBFS_std.c ****         USBFS_EP[ep].epToggle = 0u;
 1135              		.loc 1 1127 0
 1136 0022 0021     		mov	r1, #0
 1137 0024 D170     		strb	r1, [r2, #3]
1128:.\Generated_Source\PSoC4/USBFS_std.c ****         USBFS_EP[ep].apiEpState |= USBFS_NO_EVENT_ALLOWED;
 1138              		.loc 1 1128 0
 1139 0026 5078     		ldrb	r0, [r2, #1]
 1140 0028 0231     		add	r1, r1, #2
 1141 002a 0143     		orr	r1, r0
 1142 002c 5170     		strb	r1, [r2, #1]
1129:.\Generated_Source\PSoC4/USBFS_std.c **** 
1130:.\Generated_Source\PSoC4/USBFS_std.c ****         if ((USBFS_EP[ep].addr & USBFS_DIR_IN) != 0u)
 1143              		.loc 1 1130 0
 1144 002e 1279     		ldrb	r2, [r2, #4]
 1145 0030 52B2     		sxtb	r2, r2
 1146 0032 002A     		cmp	r2, #0
 1147 0034 06DA     		bge	.L82
1131:.\Generated_Source\PSoC4/USBFS_std.c ****         {
1132:.\Generated_Source\PSoC4/USBFS_std.c ****             /* IN Endpoint */
1133:.\Generated_Source\PSoC4/USBFS_std.c ****             USBFS_SIE_EP_BASE.sieEp[ep].epCr0 = (USBFS_MODE_STALL_DATA_EP | 
 1148              		.loc 1 1133 0
 1149 0036 9B01     		lsl	r3, r3, #6
 1150              	.LVL101:
 1151 0038 0A4A     		ldr	r2, .L85+8
 1152 003a 9446     		mov	ip, r2
 1153 003c 6344     		add	r3, r3, ip
 1154 003e 8D22     		mov	r2, #141
 1155 0040 9A60     		str	r2, [r3, #8]
 1156 0042 05E0     		b	.L83
 1157              	.LVL102:
 1158              	.L82:
1134:.\Generated_Source\PSoC4/USBFS_std.c ****                                                             USBFS_MODE_ACK_IN);
1135:.\Generated_Source\PSoC4/USBFS_std.c ****         }
1136:.\Generated_Source\PSoC4/USBFS_std.c ****         else
ARM GAS  C:\Users\LAIR\AppData\Local\Temp\cciUanLt.s 			page 43


1137:.\Generated_Source\PSoC4/USBFS_std.c ****         {
1138:.\Generated_Source\PSoC4/USBFS_std.c ****             /* OUT Endpoint */
1139:.\Generated_Source\PSoC4/USBFS_std.c ****             USBFS_SIE_EP_BASE.sieEp[ep].epCr0 = (USBFS_MODE_STALL_DATA_EP | 
 1159              		.loc 1 1139 0
 1160 0044 9B01     		lsl	r3, r3, #6
 1161              	.LVL103:
 1162 0046 074A     		ldr	r2, .L85+8
 1163 0048 9446     		mov	ip, r2
 1164 004a 6344     		add	r3, r3, ip
 1165 004c 8922     		mov	r2, #137
 1166 004e 9A60     		str	r2, [r3, #8]
 1167              	.L83:
1140:.\Generated_Source\PSoC4/USBFS_std.c ****                                                             USBFS_MODE_ACK_OUT);
1141:.\Generated_Source\PSoC4/USBFS_std.c ****         }
1142:.\Generated_Source\PSoC4/USBFS_std.c ****         requestHandled = USBFS_InitNoDataControlTransfer();
 1168              		.loc 1 1142 0
 1169 0050 FFF7FEFF 		bl	USBFS_InitNoDataControlTransfer
 1170              	.LVL104:
 1171 0054 00E0     		b	.L81
 1172              	.LVL105:
 1173              	.L84:
1115:.\Generated_Source\PSoC4/USBFS_std.c ****     uint32 ep;
 1174              		.loc 1 1115 0
 1175 0056 0020     		mov	r0, #0
 1176              	.LVL106:
 1177              	.L81:
1143:.\Generated_Source\PSoC4/USBFS_std.c ****     }
1144:.\Generated_Source\PSoC4/USBFS_std.c **** 
1145:.\Generated_Source\PSoC4/USBFS_std.c ****     return (requestHandled);
1146:.\Generated_Source\PSoC4/USBFS_std.c **** }
 1178              		.loc 1 1146 0
 1179              		@ sp needed
 1180 0058 08BD     		pop	{r3, pc}
 1181              	.L86:
 1182 005a C046     		.align	2
 1183              	.L85:
 1184 005c 00002C40 		.word	1076625408
 1185 0060 00000000 		.word	USBFS_EP
 1186 0064 F0FF2B40 		.word	1076625392
 1187              		.cfi_endproc
 1188              	.LFE75:
 1189              		.size	USBFS_SetEndpointHalt, .-USBFS_SetEndpointHalt
 1190              		.section	.text.USBFS_ClearEndpointHalt,"ax",%progbits
 1191              		.align	2
 1192              		.global	USBFS_ClearEndpointHalt
 1193              		.code	16
 1194              		.thumb_func
 1195              		.type	USBFS_ClearEndpointHalt, %function
 1196              	USBFS_ClearEndpointHalt:
 1197              	.LFB76:
1147:.\Generated_Source\PSoC4/USBFS_std.c **** 
1148:.\Generated_Source\PSoC4/USBFS_std.c **** 
1149:.\Generated_Source\PSoC4/USBFS_std.c **** /*******************************************************************************
1150:.\Generated_Source\PSoC4/USBFS_std.c **** * Function Name: USBFS_ClearEndpointHalt
1151:.\Generated_Source\PSoC4/USBFS_std.c **** ****************************************************************************//**
1152:.\Generated_Source\PSoC4/USBFS_std.c **** *
1153:.\Generated_Source\PSoC4/USBFS_std.c **** *  This routine handles clear endpoint halt.
ARM GAS  C:\Users\LAIR\AppData\Local\Temp\cciUanLt.s 			page 44


1154:.\Generated_Source\PSoC4/USBFS_std.c **** *
1155:.\Generated_Source\PSoC4/USBFS_std.c **** * \return
1156:.\Generated_Source\PSoC4/USBFS_std.c **** *  requestHandled.
1157:.\Generated_Source\PSoC4/USBFS_std.c **** *
1158:.\Generated_Source\PSoC4/USBFS_std.c **** * \reentrant
1159:.\Generated_Source\PSoC4/USBFS_std.c **** *  No.
1160:.\Generated_Source\PSoC4/USBFS_std.c **** *
1161:.\Generated_Source\PSoC4/USBFS_std.c **** *******************************************************************************/
1162:.\Generated_Source\PSoC4/USBFS_std.c **** uint8 USBFS_ClearEndpointHalt(void) 
1163:.\Generated_Source\PSoC4/USBFS_std.c **** {
 1198              		.loc 1 1163 0
 1199              		.cfi_startproc
 1200 0000 10B5     		push	{r4, lr}
 1201              		.cfi_def_cfa_offset 8
 1202              		.cfi_offset 4, -8
 1203              		.cfi_offset 14, -4
 1204              	.LVL107:
1164:.\Generated_Source\PSoC4/USBFS_std.c ****     uint8 requestHandled = USBFS_FALSE;
1165:.\Generated_Source\PSoC4/USBFS_std.c ****     uint32 ep;
1166:.\Generated_Source\PSoC4/USBFS_std.c **** 
1167:.\Generated_Source\PSoC4/USBFS_std.c ****     /* Clear endpoint halt */
1168:.\Generated_Source\PSoC4/USBFS_std.c ****     ep = USBFS_wIndexLoReg & USBFS_DIR_UNUSED;
 1205              		.loc 1 1168 0
 1206 0002 274B     		ldr	r3, .L94
 1207 0004 1B69     		ldr	r3, [r3, #16]
 1208 0006 7F22     		mov	r2, #127
 1209 0008 1340     		and	r3, r2
 1210              	.LVL108:
1169:.\Generated_Source\PSoC4/USBFS_std.c **** 
1170:.\Generated_Source\PSoC4/USBFS_std.c ****     if ((ep > USBFS_EP0) && (ep < USBFS_MAX_EP))
 1211              		.loc 1 1170 0
 1212 000a 5A1E     		sub	r2, r3, #1
 1213 000c 072A     		cmp	r2, #7
 1214 000e 45D8     		bhi	.L93
1171:.\Generated_Source\PSoC4/USBFS_std.c ****     {
1172:.\Generated_Source\PSoC4/USBFS_std.c ****         /* Clear the endpoint Halt */
1173:.\Generated_Source\PSoC4/USBFS_std.c ****         USBFS_EP[ep].hwEpState &= (uint8) ~USBFS_ENDPOINT_STATUS_HALT;
 1215              		.loc 1 1173 0
 1216 0010 5A00     		lsl	r2, r3, #1
 1217 0012 D218     		add	r2, r2, r3
 1218 0014 9200     		lsl	r2, r2, #2
 1219 0016 2349     		ldr	r1, .L94+4
 1220 0018 8A18     		add	r2, r1, r2
 1221 001a 9178     		ldrb	r1, [r2, #2]
 1222 001c 0120     		mov	r0, #1
 1223 001e 8143     		bic	r1, r0
 1224 0020 9170     		strb	r1, [r2, #2]
1174:.\Generated_Source\PSoC4/USBFS_std.c **** 
1175:.\Generated_Source\PSoC4/USBFS_std.c ****         /* Clear the data toggle */
1176:.\Generated_Source\PSoC4/USBFS_std.c ****         USBFS_EP[ep].epToggle = 0u;
 1225              		.loc 1 1176 0
 1226 0022 0021     		mov	r1, #0
 1227 0024 D170     		strb	r1, [r2, #3]
1177:.\Generated_Source\PSoC4/USBFS_std.c ****         
1178:.\Generated_Source\PSoC4/USBFS_std.c ****         /* Clear toggle bit for already armed packet */
1179:.\Generated_Source\PSoC4/USBFS_std.c ****         USBFS_SIE_EP_BASE.sieEp[ep].epCnt0 = (uint32) ~(uint32)USBFS_EPX_CNT_DATA_TOGGLE;
 1228              		.loc 1 1179 0
ARM GAS  C:\Users\LAIR\AppData\Local\Temp\cciUanLt.s 			page 45


 1229 0026 9901     		lsl	r1, r3, #6
 1230 0028 8124     		mov	r4, #129
 1231 002a 6442     		neg	r4, r4
 1232 002c 1E48     		ldr	r0, .L94+8
 1233 002e 0C50     		str	r4, [r1, r0]
1180:.\Generated_Source\PSoC4/USBFS_std.c ****         
1181:.\Generated_Source\PSoC4/USBFS_std.c ****         /* Return API State as it was defined before */
1182:.\Generated_Source\PSoC4/USBFS_std.c ****         USBFS_EP[ep].apiEpState &= (uint8) ~USBFS_NO_EVENT_ALLOWED;
 1234              		.loc 1 1182 0
 1235 0030 5178     		ldrb	r1, [r2, #1]
 1236 0032 0220     		mov	r0, #2
 1237 0034 8143     		bic	r1, r0
 1238 0036 5170     		strb	r1, [r2, #1]
1183:.\Generated_Source\PSoC4/USBFS_std.c **** 
1184:.\Generated_Source\PSoC4/USBFS_std.c ****         if ((USBFS_EP[ep].addr & USBFS_DIR_IN) != 0u)
 1239              		.loc 1 1184 0
 1240 0038 1279     		ldrb	r2, [r2, #4]
 1241 003a 52B2     		sxtb	r2, r2
 1242 003c 002A     		cmp	r2, #0
 1243 003e 15DA     		bge	.L89
1185:.\Generated_Source\PSoC4/USBFS_std.c ****         {
1186:.\Generated_Source\PSoC4/USBFS_std.c ****             /* IN Endpoint */
1187:.\Generated_Source\PSoC4/USBFS_std.c ****             if(USBFS_EP[ep].apiEpState == USBFS_IN_BUFFER_EMPTY)
 1244              		.loc 1 1187 0
 1245 0040 5A00     		lsl	r2, r3, #1
 1246 0042 D218     		add	r2, r2, r3
 1247 0044 9200     		lsl	r2, r2, #2
 1248 0046 1749     		ldr	r1, .L94+4
 1249 0048 8A18     		add	r2, r1, r2
 1250 004a 5278     		ldrb	r2, [r2, #1]
 1251 004c 012A     		cmp	r2, #1
 1252 004e 06D1     		bne	.L90
1188:.\Generated_Source\PSoC4/USBFS_std.c ****             {       
1189:.\Generated_Source\PSoC4/USBFS_std.c ****                 /* Wait for next packet from application */
1190:.\Generated_Source\PSoC4/USBFS_std.c ****                 USBFS_SIE_EP_BASE.sieEp[ep].epCr0 = USBFS_MODE_NAK_IN;
 1253              		.loc 1 1190 0
 1254 0050 9B01     		lsl	r3, r3, #6
 1255              	.LVL109:
 1256 0052 154A     		ldr	r2, .L94+8
 1257 0054 9446     		mov	ip, r2
 1258 0056 6344     		add	r3, r3, ip
 1259 0058 0C22     		mov	r2, #12
 1260 005a 9A60     		str	r2, [r3, #8]
 1261 005c 1BE0     		b	.L91
 1262              	.LVL110:
 1263              	.L90:
1191:.\Generated_Source\PSoC4/USBFS_std.c ****             }
1192:.\Generated_Source\PSoC4/USBFS_std.c ****             else    /* Continue armed transfer */
1193:.\Generated_Source\PSoC4/USBFS_std.c ****             {
1194:.\Generated_Source\PSoC4/USBFS_std.c ****                 USBFS_SIE_EP_BASE.sieEp[ep].epCr0 = USBFS_MODE_ACK_IN;
 1264              		.loc 1 1194 0
 1265 005e 9B01     		lsl	r3, r3, #6
 1266              	.LVL111:
 1267 0060 114A     		ldr	r2, .L94+8
 1268 0062 9446     		mov	ip, r2
 1269 0064 6344     		add	r3, r3, ip
 1270 0066 0D22     		mov	r2, #13
ARM GAS  C:\Users\LAIR\AppData\Local\Temp\cciUanLt.s 			page 46


 1271 0068 9A60     		str	r2, [r3, #8]
 1272 006a 14E0     		b	.L91
 1273              	.LVL112:
 1274              	.L89:
1195:.\Generated_Source\PSoC4/USBFS_std.c ****             }
1196:.\Generated_Source\PSoC4/USBFS_std.c ****         }
1197:.\Generated_Source\PSoC4/USBFS_std.c ****         else
1198:.\Generated_Source\PSoC4/USBFS_std.c ****         {
1199:.\Generated_Source\PSoC4/USBFS_std.c ****             /* OUT Endpoint */
1200:.\Generated_Source\PSoC4/USBFS_std.c ****             if (USBFS_EP[ep].apiEpState == USBFS_OUT_BUFFER_FULL)
 1275              		.loc 1 1200 0
 1276 006c 5A00     		lsl	r2, r3, #1
 1277 006e D218     		add	r2, r2, r3
 1278 0070 9200     		lsl	r2, r2, #2
 1279 0072 0C49     		ldr	r1, .L94+4
 1280 0074 8A18     		add	r2, r1, r2
 1281 0076 5278     		ldrb	r2, [r2, #1]
 1282 0078 012A     		cmp	r2, #1
 1283 007a 06D1     		bne	.L92
1201:.\Generated_Source\PSoC4/USBFS_std.c ****             {       
1202:.\Generated_Source\PSoC4/USBFS_std.c ****                 /* Allow application to read full buffer */
1203:.\Generated_Source\PSoC4/USBFS_std.c ****                 USBFS_SIE_EP_BASE.sieEp[ep].epCr0 = USBFS_MODE_NAK_OUT;
 1284              		.loc 1 1203 0
 1285 007c 9B01     		lsl	r3, r3, #6
 1286              	.LVL113:
 1287 007e 0A4A     		ldr	r2, .L94+8
 1288 0080 9446     		mov	ip, r2
 1289 0082 6344     		add	r3, r3, ip
 1290 0084 0822     		mov	r2, #8
 1291 0086 9A60     		str	r2, [r3, #8]
 1292 0088 05E0     		b	.L91
 1293              	.LVL114:
 1294              	.L92:
1204:.\Generated_Source\PSoC4/USBFS_std.c ****             }
1205:.\Generated_Source\PSoC4/USBFS_std.c ****             else    /* Mark endpoint as empty, so it will be reloaded */
1206:.\Generated_Source\PSoC4/USBFS_std.c ****             {
1207:.\Generated_Source\PSoC4/USBFS_std.c ****                 USBFS_SIE_EP_BASE.sieEp[ep].epCr0 = USBFS_MODE_ACK_OUT;
 1295              		.loc 1 1207 0
 1296 008a 9B01     		lsl	r3, r3, #6
 1297              	.LVL115:
 1298 008c 064A     		ldr	r2, .L94+8
 1299 008e 9446     		mov	ip, r2
 1300 0090 6344     		add	r3, r3, ip
 1301 0092 0922     		mov	r2, #9
 1302 0094 9A60     		str	r2, [r3, #8]
 1303              	.L91:
1208:.\Generated_Source\PSoC4/USBFS_std.c ****             }
1209:.\Generated_Source\PSoC4/USBFS_std.c ****         }
1210:.\Generated_Source\PSoC4/USBFS_std.c ****         
1211:.\Generated_Source\PSoC4/USBFS_std.c ****         requestHandled = USBFS_InitNoDataControlTransfer();
 1304              		.loc 1 1211 0
 1305 0096 FFF7FEFF 		bl	USBFS_InitNoDataControlTransfer
 1306              	.LVL116:
 1307 009a 00E0     		b	.L88
 1308              	.LVL117:
 1309              	.L93:
1164:.\Generated_Source\PSoC4/USBFS_std.c ****     uint32 ep;
ARM GAS  C:\Users\LAIR\AppData\Local\Temp\cciUanLt.s 			page 47


 1310              		.loc 1 1164 0
 1311 009c 0020     		mov	r0, #0
 1312              	.LVL118:
 1313              	.L88:
1212:.\Generated_Source\PSoC4/USBFS_std.c ****     }
1213:.\Generated_Source\PSoC4/USBFS_std.c **** 
1214:.\Generated_Source\PSoC4/USBFS_std.c ****     return(requestHandled);
1215:.\Generated_Source\PSoC4/USBFS_std.c **** }
 1314              		.loc 1 1215 0
 1315              		@ sp needed
 1316 009e 10BD     		pop	{r4, pc}
 1317              	.L95:
 1318              		.align	2
 1319              	.L94:
 1320 00a0 00002C40 		.word	1076625408
 1321 00a4 00000000 		.word	USBFS_EP
 1322 00a8 F0FF2B40 		.word	1076625392
 1323              		.cfi_endproc
 1324              	.LFE76:
 1325              		.size	USBFS_ClearEndpointHalt, .-USBFS_ClearEndpointHalt
 1326              		.section	.text.USBFS_ValidateAlternateSetting,"ax",%progbits
 1327              		.align	2
 1328              		.global	USBFS_ValidateAlternateSetting
 1329              		.code	16
 1330              		.thumb_func
 1331              		.type	USBFS_ValidateAlternateSetting, %function
 1332              	USBFS_ValidateAlternateSetting:
 1333              	.LFB77:
1216:.\Generated_Source\PSoC4/USBFS_std.c **** 
1217:.\Generated_Source\PSoC4/USBFS_std.c **** 
1218:.\Generated_Source\PSoC4/USBFS_std.c **** /*******************************************************************************
1219:.\Generated_Source\PSoC4/USBFS_std.c **** * Function Name: USBFS_ValidateAlternateSetting
1220:.\Generated_Source\PSoC4/USBFS_std.c **** ****************************************************************************//**
1221:.\Generated_Source\PSoC4/USBFS_std.c **** *
1222:.\Generated_Source\PSoC4/USBFS_std.c **** *  Validates (and records) a SET INTERFACE request.
1223:.\Generated_Source\PSoC4/USBFS_std.c **** *
1224:.\Generated_Source\PSoC4/USBFS_std.c **** * \return
1225:.\Generated_Source\PSoC4/USBFS_std.c **** *  requestHandled.
1226:.\Generated_Source\PSoC4/USBFS_std.c **** *
1227:.\Generated_Source\PSoC4/USBFS_std.c **** * \reentrant
1228:.\Generated_Source\PSoC4/USBFS_std.c **** *  No.
1229:.\Generated_Source\PSoC4/USBFS_std.c **** *
1230:.\Generated_Source\PSoC4/USBFS_std.c **** *******************************************************************************/
1231:.\Generated_Source\PSoC4/USBFS_std.c **** uint8 USBFS_ValidateAlternateSetting(void) 
1232:.\Generated_Source\PSoC4/USBFS_std.c **** {
 1334              		.loc 1 1232 0
 1335              		.cfi_startproc
 1336 0000 38B5     		push	{r3, r4, r5, lr}
 1337              		.cfi_def_cfa_offset 16
 1338              		.cfi_offset 3, -16
 1339              		.cfi_offset 4, -12
 1340              		.cfi_offset 5, -8
 1341              		.cfi_offset 14, -4
 1342              	.LVL119:
1233:.\Generated_Source\PSoC4/USBFS_std.c ****     uint8 requestHandled = USBFS_FALSE;
1234:.\Generated_Source\PSoC4/USBFS_std.c ****     
1235:.\Generated_Source\PSoC4/USBFS_std.c ****     uint8 interfaceNum;
ARM GAS  C:\Users\LAIR\AppData\Local\Temp\cciUanLt.s 			page 48


1236:.\Generated_Source\PSoC4/USBFS_std.c ****     uint8 curInterfacesNum;
1237:.\Generated_Source\PSoC4/USBFS_std.c ****     const T_USBFS_LUT CYCODE *pTmp;
1238:.\Generated_Source\PSoC4/USBFS_std.c ****     
1239:.\Generated_Source\PSoC4/USBFS_std.c ****     /* Get interface number from the request. */
1240:.\Generated_Source\PSoC4/USBFS_std.c ****     interfaceNum = (uint8) USBFS_wIndexLoReg;
 1343              		.loc 1 1240 0
 1344 0002 0F4B     		ldr	r3, .L100
 1345 0004 1C69     		ldr	r4, [r3, #16]
 1346 0006 E5B2     		uxtb	r5, r4
 1347              	.LVL120:
1241:.\Generated_Source\PSoC4/USBFS_std.c ****     
1242:.\Generated_Source\PSoC4/USBFS_std.c ****     /* Get number of interfaces for current configuration. */
1243:.\Generated_Source\PSoC4/USBFS_std.c ****     pTmp = USBFS_GetConfigTablePtr(USBFS_configuration - 1u);
 1348              		.loc 1 1243 0
 1349 0008 0E4B     		ldr	r3, .L100+4
 1350 000a 1878     		ldrb	r0, [r3]
 1351 000c 0138     		sub	r0, r0, #1
 1352 000e C0B2     		uxtb	r0, r0
 1353 0010 FFF7FEFF 		bl	USBFS_GetConfigTablePtr
 1354              	.LVL121:
1244:.\Generated_Source\PSoC4/USBFS_std.c ****     curInterfacesNum  = ((const uint8 *) pTmp->p_list)[USBFS_CONFIG_DESCR_NUM_INTERFACES];
 1355              		.loc 1 1244 0
 1356 0014 4368     		ldr	r3, [r0, #4]
 1357 0016 1B79     		ldrb	r3, [r3, #4]
 1358              	.LVL122:
1245:.\Generated_Source\PSoC4/USBFS_std.c **** 
1246:.\Generated_Source\PSoC4/USBFS_std.c ****     /* Validate that interface number is within range. */
1247:.\Generated_Source\PSoC4/USBFS_std.c ****     if ((interfaceNum <= curInterfacesNum) || (interfaceNum <= USBFS_MAX_INTERFACES_NUMBER))
 1359              		.loc 1 1247 0
 1360 0018 9D42     		cmp	r5, r3
 1361 001a 01D9     		bls	.L97
 1362              		.loc 1 1247 0 is_stmt 0 discriminator 1
 1363 001c 012D     		cmp	r5, #1
 1364 001e 0CD8     		bhi	.L99
 1365              	.L97:
 1366 0020 FF23     		mov	r3, #255
 1367              	.LVL123:
 1368 0022 2340     		and	r3, r4
1248:.\Generated_Source\PSoC4/USBFS_std.c ****     {
1249:.\Generated_Source\PSoC4/USBFS_std.c ****         /* Save current and new alternate settings (come with request) to make 
1250:.\Generated_Source\PSoC4/USBFS_std.c ****         * desicion about following endpoint re-configuration.
1251:.\Generated_Source\PSoC4/USBFS_std.c ****         */
1252:.\Generated_Source\PSoC4/USBFS_std.c ****         USBFS_interfaceSettingLast[interfaceNum] = USBFS_interfaceSetting[interfaceNum];
 1369              		.loc 1 1252 0 is_stmt 1
 1370 0024 0849     		ldr	r1, .L100+8
 1371 0026 CA5C     		ldrb	r2, [r1, r3]
 1372 0028 D2B2     		uxtb	r2, r2
 1373 002a 0848     		ldr	r0, .L100+12
 1374              	.LVL124:
 1375 002c C254     		strb	r2, [r0, r3]
1253:.\Generated_Source\PSoC4/USBFS_std.c ****         USBFS_interfaceSetting[interfaceNum]     = (uint8) USBFS_wValueLoReg;
 1376              		.loc 1 1253 0
 1377 002e 044A     		ldr	r2, .L100
 1378 0030 9268     		ldr	r2, [r2, #8]
 1379 0032 D2B2     		uxtb	r2, r2
 1380 0034 CA54     		strb	r2, [r1, r3]
 1381              	.LVL125:
ARM GAS  C:\Users\LAIR\AppData\Local\Temp\cciUanLt.s 			page 49


1254:.\Generated_Source\PSoC4/USBFS_std.c ****         
1255:.\Generated_Source\PSoC4/USBFS_std.c ****         requestHandled = USBFS_TRUE;
 1382              		.loc 1 1255 0
 1383 0036 0120     		mov	r0, #1
 1384 0038 00E0     		b	.L98
 1385              	.LVL126:
 1386              	.L99:
1233:.\Generated_Source\PSoC4/USBFS_std.c ****     
 1387              		.loc 1 1233 0
 1388 003a 0020     		mov	r0, #0
 1389              	.LVL127:
 1390              	.L98:
1256:.\Generated_Source\PSoC4/USBFS_std.c ****     }
1257:.\Generated_Source\PSoC4/USBFS_std.c **** 
1258:.\Generated_Source\PSoC4/USBFS_std.c ****     return (requestHandled);
1259:.\Generated_Source\PSoC4/USBFS_std.c **** }
 1391              		.loc 1 1259 0
 1392              		@ sp needed
 1393              	.LVL128:
 1394 003c 38BD     		pop	{r3, r4, r5, pc}
 1395              	.L101:
 1396 003e C046     		.align	2
 1397              	.L100:
 1398 0040 00002C40 		.word	1076625408
 1399 0044 00000000 		.word	USBFS_configuration
 1400 0048 00000000 		.word	USBFS_interfaceSetting
 1401 004c 00000000 		.word	USBFS_interfaceSettingLast
 1402              		.cfi_endproc
 1403              	.LFE77:
 1404              		.size	USBFS_ValidateAlternateSetting, .-USBFS_ValidateAlternateSetting
 1405              		.section	.text.USBFS_HandleStandardRqst,"ax",%progbits
 1406              		.align	2
 1407              		.global	USBFS_HandleStandardRqst
 1408              		.code	16
 1409              		.thumb_func
 1410              		.type	USBFS_HandleStandardRqst, %function
 1411              	USBFS_HandleStandardRqst:
 1412              	.LFB65:
  85:.\Generated_Source\PSoC4/USBFS_std.c ****     uint8 requestHandled = USBFS_FALSE;
 1413              		.loc 1 85 0
 1414              		.cfi_startproc
 1415 0000 10B5     		push	{r4, lr}
 1416              		.cfi_def_cfa_offset 8
 1417              		.cfi_offset 4, -8
 1418              		.cfi_offset 14, -4
 1419              	.LVL129:
  89:.\Generated_Source\PSoC4/USBFS_std.c **** 
 1420              		.loc 1 89 0
 1421 0002 B44B     		ldr	r3, .L158
 1422 0004 1B68     		ldr	r3, [r3]
 1423              	.LVL130:
 102:.\Generated_Source\PSoC4/USBFS_std.c **** 
 1424              		.loc 1 102 0
 1425 0006 0021     		mov	r1, #0
 1426 0008 B34A     		ldr	r2, .L158+4
 1427 000a 1180     		strh	r1, [r2]
 104:.\Generated_Source\PSoC4/USBFS_std.c ****     {
ARM GAS  C:\Users\LAIR\AppData\Local\Temp\cciUanLt.s 			page 50


 1428              		.loc 1 104 0
 1429 000c 1A06     		lsl	r2, r3, #24
 1430 000e 00D4     		bmi	.LCB1527
 1431 0010 A6E0     		b	.L103	@long jump
 1432              	.LCB1527:
 107:.\Generated_Source\PSoC4/USBFS_std.c ****         {
 1433              		.loc 1 107 0
 1434 0012 B04A     		ldr	r2, .L158
 1435 0014 5268     		ldr	r2, [r2, #4]
 1436 0016 062A     		cmp	r2, #6
 1437 0018 0AD0     		beq	.L105
 1438 001a 02D8     		bhi	.L106
 1439 001c 002A     		cmp	r2, #0
 1440 001e 63D0     		beq	.L107
 1441 0020 3AE1     		b	.L137
 1442              	.L106:
 1443 0022 082A     		cmp	r2, #8
 1444 0024 00D1     		bne	.LCB1541
 1445 0026 88E0     		b	.L108	@long jump
 1446              	.LCB1541:
 1447 0028 0A2A     		cmp	r2, #10
 1448 002a 00D1     		bne	.LCB1543
 1449 002c 8DE0     		b	.L109	@long jump
 1450              	.LCB1543:
 1451 002e 33E1     		b	.L137
 1452              	.L105:
 110:.\Generated_Source\PSoC4/USBFS_std.c ****                 {
 1453              		.loc 1 110 0
 1454 0030 A84B     		ldr	r3, .L158
 1455              	.LVL131:
 1456 0032 DB68     		ldr	r3, [r3, #12]
 1457 0034 012B     		cmp	r3, #1
 1458 0036 09D1     		bne	.L110
 112:.\Generated_Source\PSoC4/USBFS_std.c ****                     USBFS_currentTD.pData = (volatile uint8 *)pTmp->p_list;
 1459              		.loc 1 112 0
 1460 0038 FFF7FEFF 		bl	USBFS_GetDeviceTablePtr
 1461              	.LVL132:
 113:.\Generated_Source\PSoC4/USBFS_std.c ****                     USBFS_currentTD.count = USBFS_DEVICE_DESCR_LENGTH;
 1462              		.loc 1 113 0
 1463 003c 4268     		ldr	r2, [r0, #4]
 1464 003e A64B     		ldr	r3, .L158+4
 1465 0040 5A60     		str	r2, [r3, #4]
 114:.\Generated_Source\PSoC4/USBFS_std.c ****                     
 1466              		.loc 1 114 0
 1467 0042 1222     		mov	r2, #18
 1468 0044 1A80     		strh	r2, [r3]
 116:.\Generated_Source\PSoC4/USBFS_std.c ****                 }
 1469              		.loc 1 116 0
 1470 0046 FFF7FEFF 		bl	USBFS_InitControlRead
 1471              	.LVL133:
 1472 004a 42E1     		b	.L104
 1473              	.LVL134:
 1474              	.L110:
 118:.\Generated_Source\PSoC4/USBFS_std.c ****                 {
 1475              		.loc 1 118 0
 1476 004c A14B     		ldr	r3, .L158
 1477 004e DB68     		ldr	r3, [r3, #12]
ARM GAS  C:\Users\LAIR\AppData\Local\Temp\cciUanLt.s 			page 51


 1478 0050 022B     		cmp	r3, #2
 1479 0052 14D1     		bne	.L111
 120:.\Generated_Source\PSoC4/USBFS_std.c ****                     
 1480              		.loc 1 120 0
 1481 0054 9F4B     		ldr	r3, .L158
 1482 0056 9868     		ldr	r0, [r3, #8]
 1483 0058 C0B2     		uxtb	r0, r0
 1484 005a FFF7FEFF 		bl	USBFS_GetConfigTablePtr
 1485              	.LVL135:
 123:.\Generated_Source\PSoC4/USBFS_std.c ****                     {
 1486              		.loc 1 123 0
 1487 005e 0028     		cmp	r0, #0
 1488 0060 00D1     		bne	.LCB1582
 1489 0062 1BE1     		b	.L138	@long jump
 1490              	.LCB1582:
 125:.\Generated_Source\PSoC4/USBFS_std.c ****                         USBFS_currentTD.count = (uint16)((uint16)(USBFS_currentTD.pData)[USBFS_CONF
 1491              		.loc 1 125 0
 1492 0064 4368     		ldr	r3, [r0, #4]
 1493 0066 9C4A     		ldr	r2, .L158+4
 1494 0068 5360     		str	r3, [r2, #4]
 126:.\Generated_Source\PSoC4/USBFS_std.c ****                                                                             (USBFS_currentTD.pData)
 1495              		.loc 1 126 0
 1496 006a 5368     		ldr	r3, [r2, #4]
 1497 006c DB78     		ldrb	r3, [r3, #3]
 1498 006e 1B02     		lsl	r3, r3, #8
 127:.\Generated_Source\PSoC4/USBFS_std.c ****                         requestHandled  = USBFS_InitControlRead();
 1499              		.loc 1 127 0
 1500 0070 5168     		ldr	r1, [r2, #4]
 1501 0072 8978     		ldrb	r1, [r1, #2]
 126:.\Generated_Source\PSoC4/USBFS_std.c ****                                                                             (USBFS_currentTD.pData)
 1502              		.loc 1 126 0
 1503 0074 0B43     		orr	r3, r1
 1504 0076 1380     		strh	r3, [r2]
 128:.\Generated_Source\PSoC4/USBFS_std.c ****                     }
 1505              		.loc 1 128 0
 1506 0078 FFF7FEFF 		bl	USBFS_InitControlRead
 1507              	.LVL136:
 1508 007c 29E1     		b	.L104
 1509              	.LVL137:
 1510              	.L111:
 149:.\Generated_Source\PSoC4/USBFS_std.c ****                 {
 1511              		.loc 1 149 0
 1512 007e 954B     		ldr	r3, .L158
 1513 0080 DB68     		ldr	r3, [r3, #12]
 1514 0082 032B     		cmp	r3, #3
 1515 0084 05D0     		beq	.L139
 1516 0086 2CE0     		b	.L154
 1517              	.LVL138:
 1518              	.L115:
 159:.\Generated_Source\PSoC4/USBFS_std.c ****                         /* Move to next string descriptor */
 1519              		.loc 1 159 0
 1520 0088 1178     		ldrb	r1, [r2]
 1521              	.LVL139:
 161:.\Generated_Source\PSoC4/USBFS_std.c ****                         nStr++;
 1522              		.loc 1 161 0
 1523 008a 5218     		add	r2, r2, r1
 1524              	.LVL140:
ARM GAS  C:\Users\LAIR\AppData\Local\Temp\cciUanLt.s 			page 52


 162:.\Generated_Source\PSoC4/USBFS_std.c ****                     }
 1525              		.loc 1 162 0
 1526 008c 0133     		add	r3, r3, #1
 1527              	.LVL141:
 1528 008e DBB2     		uxtb	r3, r3
 1529              	.LVL142:
 1530 0090 01E0     		b	.L112
 1531              	.LVL143:
 1532              	.L139:
 1533 0092 0023     		mov	r3, #0
 1534 0094 914A     		ldr	r2, .L158+8
 1535              	.LVL144:
 1536              	.L112:
 156:.\Generated_Source\PSoC4/USBFS_std.c ****                     {
 1537              		.loc 1 156 0
 1538 0096 8F49     		ldr	r1, .L158
 1539 0098 8968     		ldr	r1, [r1, #8]
 1540 009a 9942     		cmp	r1, r3
 1541 009c 02D9     		bls	.L114
 156:.\Generated_Source\PSoC4/USBFS_std.c ****                     {
 1542              		.loc 1 156 0 is_stmt 0 discriminator 1
 1543 009e 1178     		ldrb	r1, [r2]
 1544 00a0 0029     		cmp	r1, #0
 1545 00a2 F1D1     		bne	.L115
 1546              	.L114:
 168:.\Generated_Source\PSoC4/USBFS_std.c ****                     {
 1547              		.loc 1 168 0 is_stmt 1
 1548 00a4 8B4B     		ldr	r3, .L158
 1549              	.LVL145:
 1550 00a6 9B68     		ldr	r3, [r3, #8]
 1551 00a8 EE2B     		cmp	r3, #238
 1552 00aa 00D1     		bne	.L116
 170:.\Generated_Source\PSoC4/USBFS_std.c ****                     }
 1553              		.loc 1 170 0
 1554 00ac 8C4A     		ldr	r2, .L158+12
 1555              	.LVL146:
 1556              	.L116:
 176:.\Generated_Source\PSoC4/USBFS_std.c ****                         (USBFS_wValueLoReg == USBFS_DEVICE0_DESCR[USBFS_DEVICE_DESCR_SN_SHIFT]))
 1557              		.loc 1 176 0
 1558 00ae 894B     		ldr	r3, .L158
 1559 00b0 9B68     		ldr	r3, [r3, #8]
 1560 00b2 002B     		cmp	r3, #0
 1561 00b4 0AD0     		beq	.L117
 177:.\Generated_Source\PSoC4/USBFS_std.c ****                     {
 1562              		.loc 1 177 0 discriminator 1
 1563 00b6 874B     		ldr	r3, .L158
 1564 00b8 9968     		ldr	r1, [r3, #8]
 1565 00ba 8A4B     		ldr	r3, .L158+16
 1566 00bc 1B7C     		ldrb	r3, [r3, #16]
 176:.\Generated_Source\PSoC4/USBFS_std.c ****                         (USBFS_wValueLoReg == USBFS_DEVICE0_DESCR[USBFS_DEVICE_DESCR_SN_SHIFT]))
 1567              		.loc 1 176 0 discriminator 1
 1568 00be 9942     		cmp	r1, r3
 1569 00c0 04D1     		bne	.L117
 181:.\Generated_Source\PSoC4/USBFS_std.c ****                         pStr = USBFS_idSerialNumberStringDescriptor;
 1570              		.loc 1 181 0
 1571 00c2 894C     		ldr	r4, .L158+20
 1572 00c4 201C     		mov	r0, r4
ARM GAS  C:\Users\LAIR\AppData\Local\Temp\cciUanLt.s 			page 53


 1573 00c6 FFF7FEFF 		bl	USBFS_ReadDieID
 1574              	.LVL147:
 182:.\Generated_Source\PSoC4/USBFS_std.c ****                     #elif defined(USBFS_ENABLE_FWSN_STRING)
 1575              		.loc 1 182 0
 1576 00ca 221C     		mov	r2, r4
 1577              	.LVL148:
 1578              	.L117:
 199:.\Generated_Source\PSoC4/USBFS_std.c ****                     {
 1579              		.loc 1 199 0
 1580 00cc 1378     		ldrb	r3, [r2]
 1581 00ce 002B     		cmp	r3, #0
 1582 00d0 00D1     		bne	.LCB1684
 1583 00d2 E5E0     		b	.L141	@long jump
 1584              	.LCB1684:
 201:.\Generated_Source\PSoC4/USBFS_std.c ****                         USBFS_currentTD.pData = pStr;
 1585              		.loc 1 201 0
 1586 00d4 1378     		ldrb	r3, [r2]
 1587 00d6 8049     		ldr	r1, .L158+4
 1588 00d8 0B80     		strh	r3, [r1]
 202:.\Generated_Source\PSoC4/USBFS_std.c ****                         requestHandled  = USBFS_InitControlRead();
 1589              		.loc 1 202 0
 1590 00da 4A60     		str	r2, [r1, #4]
 203:.\Generated_Source\PSoC4/USBFS_std.c ****                     }
 1591              		.loc 1 203 0
 1592 00dc FFF7FEFF 		bl	USBFS_InitControlRead
 1593              	.LVL149:
 1594 00e0 F7E0     		b	.L104
 1595              	.LVL150:
 1596              	.L154:
 209:.\Generated_Source\PSoC4/USBFS_std.c ****                 }
 1597              		.loc 1 209 0
 1598 00e2 FFF7FEFF 		bl	USBFS_DispatchClassRqst
 1599              	.LVL151:
 1600 00e6 F4E0     		b	.L104
 1601              	.LVL152:
 1602              	.L107:
 214:.\Generated_Source\PSoC4/USBFS_std.c ****                 {
 1603              		.loc 1 214 0
 1604 00e8 0322     		mov	r2, #3
 1605 00ea 1340     		and	r3, r2
 1606              	.LVL153:
 1607 00ec 17D0     		beq	.L118
 1608 00ee 022B     		cmp	r3, #2
 1609 00f0 00D0     		beq	.LCB1716
 1610 00f2 D7E0     		b	.L155	@long jump
 1611              	.LCB1716:
 217:.\Generated_Source\PSoC4/USBFS_std.c ****                         USBFS_tBuffer[0u]     = USBFS_EP[USBFS_wIndexLoReg & USBFS_DIR_UNUSED].hwEp
 1612              		.loc 1 217 0
 1613 00f4 7849     		ldr	r1, .L158+4
 1614 00f6 0B80     		strh	r3, [r1]
 218:.\Generated_Source\PSoC4/USBFS_std.c ****                         USBFS_tBuffer[1u]     = 0u;
 1615              		.loc 1 218 0
 1616 00f8 764B     		ldr	r3, .L158
 1617 00fa 1B69     		ldr	r3, [r3, #16]
 1618 00fc 7C32     		add	r2, r2, #124
 1619 00fe 1340     		and	r3, r2
 1620 0100 5A00     		lsl	r2, r3, #1
ARM GAS  C:\Users\LAIR\AppData\Local\Temp\cciUanLt.s 			page 54


 1621 0102 D318     		add	r3, r2, r3
 1622 0104 9B00     		lsl	r3, r3, #2
 1623 0106 794A     		ldr	r2, .L158+24
 1624 0108 D318     		add	r3, r2, r3
 1625 010a 9A78     		ldrb	r2, [r3, #2]
 1626 010c D2B2     		uxtb	r2, r2
 1627 010e 784B     		ldr	r3, .L158+28
 1628 0110 1A70     		strb	r2, [r3]
 219:.\Generated_Source\PSoC4/USBFS_std.c ****                         USBFS_currentTD.pData = &USBFS_tBuffer[0u];
 1629              		.loc 1 219 0
 1630 0112 0022     		mov	r2, #0
 1631 0114 5A70     		strb	r2, [r3, #1]
 220:.\Generated_Source\PSoC4/USBFS_std.c ****                         
 1632              		.loc 1 220 0
 1633 0116 4B60     		str	r3, [r1, #4]
 222:.\Generated_Source\PSoC4/USBFS_std.c ****                         break;
 1634              		.loc 1 222 0
 1635 0118 FFF7FEFF 		bl	USBFS_InitControlRead
 1636              	.LVL154:
 223:.\Generated_Source\PSoC4/USBFS_std.c ****                     case USBFS_RQST_RCPT_DEV:
 1637              		.loc 1 223 0
 1638 011c D9E0     		b	.L104
 1639              	.LVL155:
 1640              	.L118:
 225:.\Generated_Source\PSoC4/USBFS_std.c ****                         USBFS_tBuffer[0u]     = USBFS_deviceStatus;
 1641              		.loc 1 225 0
 1642 011e 6E49     		ldr	r1, .L158+4
 1643 0120 0223     		mov	r3, #2
 1644 0122 0B80     		strh	r3, [r1]
 226:.\Generated_Source\PSoC4/USBFS_std.c ****                         USBFS_tBuffer[1u]     = 0u;
 1645              		.loc 1 226 0
 1646 0124 734B     		ldr	r3, .L158+32
 1647 0126 1A78     		ldrb	r2, [r3]
 1648 0128 D2B2     		uxtb	r2, r2
 1649 012a 714B     		ldr	r3, .L158+28
 1650 012c 1A70     		strb	r2, [r3]
 227:.\Generated_Source\PSoC4/USBFS_std.c ****                         USBFS_currentTD.pData = &USBFS_tBuffer[0u];
 1651              		.loc 1 227 0
 1652 012e 0022     		mov	r2, #0
 1653 0130 5A70     		strb	r2, [r3, #1]
 228:.\Generated_Source\PSoC4/USBFS_std.c ****                         
 1654              		.loc 1 228 0
 1655 0132 4B60     		str	r3, [r1, #4]
 230:.\Generated_Source\PSoC4/USBFS_std.c ****                         break;
 1656              		.loc 1 230 0
 1657 0134 FFF7FEFF 		bl	USBFS_InitControlRead
 1658              	.LVL156:
 231:.\Generated_Source\PSoC4/USBFS_std.c ****                     default:    /* requestHandled is initialized as FALSE by default */
 1659              		.loc 1 231 0
 1660 0138 CBE0     		b	.L104
 1661              	.LVL157:
 1662              	.L108:
 238:.\Generated_Source\PSoC4/USBFS_std.c ****                 USBFS_currentTD.pData = (volatile uint8 *) &USBFS_configuration;
 1663              		.loc 1 238 0
 1664 013a 674B     		ldr	r3, .L158+4
 1665              	.LVL158:
 1666 013c 0122     		mov	r2, #1
ARM GAS  C:\Users\LAIR\AppData\Local\Temp\cciUanLt.s 			page 55


 1667 013e 1A80     		strh	r2, [r3]
 239:.\Generated_Source\PSoC4/USBFS_std.c ****                 requestHandled  = USBFS_InitControlRead();
 1668              		.loc 1 239 0
 1669 0140 6D4A     		ldr	r2, .L158+36
 1670 0142 5A60     		str	r2, [r3, #4]
 240:.\Generated_Source\PSoC4/USBFS_std.c ****                 break;
 1671              		.loc 1 240 0
 1672 0144 FFF7FEFF 		bl	USBFS_InitControlRead
 1673              	.LVL159:
 241:.\Generated_Source\PSoC4/USBFS_std.c ****                 
 1674              		.loc 1 241 0
 1675 0148 C3E0     		b	.L104
 1676              	.LVL160:
 1677              	.L109:
 244:.\Generated_Source\PSoC4/USBFS_std.c ****                 USBFS_currentTD.pData = (volatile uint8 *) &USBFS_interfaceSetting[USBFS_wIndexLoRe
 1678              		.loc 1 244 0
 1679 014a 634A     		ldr	r2, .L158+4
 1680 014c 0123     		mov	r3, #1
 1681              	.LVL161:
 1682 014e 1380     		strh	r3, [r2]
 245:.\Generated_Source\PSoC4/USBFS_std.c ****                 requestHandled  = USBFS_InitControlRead();
 1683              		.loc 1 245 0
 1684 0150 604B     		ldr	r3, .L158
 1685 0152 1969     		ldr	r1, [r3, #16]
 1686 0154 694B     		ldr	r3, .L158+40
 1687 0156 CB18     		add	r3, r1, r3
 1688 0158 5360     		str	r3, [r2, #4]
 246:.\Generated_Source\PSoC4/USBFS_std.c ****                 break;
 1689              		.loc 1 246 0
 1690 015a FFF7FEFF 		bl	USBFS_InitControlRead
 1691              	.LVL162:
 247:.\Generated_Source\PSoC4/USBFS_std.c ****                 
 1692              		.loc 1 247 0
 1693 015e B8E0     		b	.L104
 1694              	.LVL163:
 1695              	.L103:
 256:.\Generated_Source\PSoC4/USBFS_std.c ****         {
 1696              		.loc 1 256 0
 1697 0160 5C4A     		ldr	r2, .L158
 1698 0162 5268     		ldr	r2, [r2, #4]
 1699 0164 0B2A     		cmp	r2, #11
 1700 0166 00D9     		bls	.LCB1800
 1701 0168 9EE0     		b	.L143	@long jump
 1702              	.LCB1800:
 1703 016a 9200     		lsl	r2, r2, #2
 1704 016c 6449     		ldr	r1, .L158+44
 1705 016e 8A58     		ldr	r2, [r1, r2]
 1706 0170 9746     		mov	pc, r2
 1707              		.section	.rodata
 1708              		.align	2
 1709              	.L121:
 1710 0000 A8020000 		.word	.L143
 1711 0004 F4010000 		.word	.L120
 1712 0008 A8020000 		.word	.L143
 1713 000c 46020000 		.word	.L122
 1714 0010 A8020000 		.word	.L143
 1715 0014 72010000 		.word	.L123
ARM GAS  C:\Users\LAIR\AppData\Local\Temp\cciUanLt.s 			page 56


 1716 0018 A8020000 		.word	.L143
 1717 001c A8020000 		.word	.L143
 1718 0020 A8020000 		.word	.L143
 1719 0024 82010000 		.word	.L124
 1720 0028 A8020000 		.word	.L143
 1721 002c C2010000 		.word	.L125
 1722              		.section	.text.USBFS_HandleStandardRqst
 1723              	.L123:
 260:.\Generated_Source\PSoC4/USBFS_std.c ****                 requestHandled = USBFS_InitNoDataControlTransfer();
 1724              		.loc 1 260 0
 1725 0172 584B     		ldr	r3, .L158
 1726              	.LVL164:
 1727 0174 9B68     		ldr	r3, [r3, #8]
 1728 0176 DBB2     		uxtb	r3, r3
 1729 0178 624A     		ldr	r2, .L158+48
 1730 017a 1370     		strb	r3, [r2]
 261:.\Generated_Source\PSoC4/USBFS_std.c ****                 break;
 1731              		.loc 1 261 0
 1732 017c FFF7FEFF 		bl	USBFS_InitNoDataControlTransfer
 1733              	.LVL165:
 262:.\Generated_Source\PSoC4/USBFS_std.c ****                 
 1734              		.loc 1 262 0
 1735 0180 A7E0     		b	.L104
 1736              	.LVL166:
 1737              	.L124:
 265:.\Generated_Source\PSoC4/USBFS_std.c ****                 
 1738              		.loc 1 265 0
 1739 0182 544B     		ldr	r3, .L158
 1740              	.LVL167:
 1741 0184 9C68     		ldr	r4, [r3, #8]
 1742              	.LVL168:
 268:.\Generated_Source\PSoC4/USBFS_std.c ****                 {
 1743              		.loc 1 268 0
 1744 0186 002C     		cmp	r4, #0
 1745 0188 03D0     		beq	.L126
 270:.\Generated_Source\PSoC4/USBFS_std.c ****                 }
 1746              		.loc 1 270 0
 1747 018a 601E     		sub	r0, r4, #1
 1748 018c C0B2     		uxtb	r0, r0
 1749 018e FFF7FEFF 		bl	USBFS_GetConfigTablePtr
 1750              	.LVL169:
 1751              	.L126:
 274:.\Generated_Source\PSoC4/USBFS_std.c ****                 {
 1752              		.loc 1 274 0
 1753 0192 002C     		cmp	r4, #0
 1754 0194 01D0     		beq	.L127
 274:.\Generated_Source\PSoC4/USBFS_std.c ****                 {
 1755              		.loc 1 274 0 is_stmt 0 discriminator 1
 1756 0196 0028     		cmp	r0, #0
 1757 0198 02D1     		bne	.L128
 1758              	.L127:
 274:.\Generated_Source\PSoC4/USBFS_std.c ****                 {
 1759              		.loc 1 274 0 discriminator 3
 1760 019a 002C     		cmp	r4, #0
 1761 019c 00D0     		beq	.LCB1849
 1762 019e 85E0     		b	.L144	@long jump
 1763              	.LCB1849:
ARM GAS  C:\Users\LAIR\AppData\Local\Temp\cciUanLt.s 			page 57


 1764              	.L128:
 277:.\Generated_Source\PSoC4/USBFS_std.c ****                     {
 1765              		.loc 1 277 0 is_stmt 1
 1766 01a0 554B     		ldr	r3, .L158+36
 1767 01a2 1B78     		ldrb	r3, [r3]
 1768 01a4 DBB2     		uxtb	r3, r3
 1769 01a6 A342     		cmp	r3, r4
 1770 01a8 08D0     		beq	.L129
 279:.\Generated_Source\PSoC4/USBFS_std.c ****                         USBFS_configurationChanged = USBFS_TRUE;
 1771              		.loc 1 279 0
 1772 01aa E4B2     		uxtb	r4, r4
 1773              	.LVL170:
 1774 01ac 524B     		ldr	r3, .L158+36
 1775 01ae 1C70     		strb	r4, [r3]
 280:.\Generated_Source\PSoC4/USBFS_std.c ****                         USBFS_Config(USBFS_TRUE);
 1776              		.loc 1 280 0
 1777 01b0 0122     		mov	r2, #1
 1778 01b2 554B     		ldr	r3, .L158+52
 1779 01b4 1A70     		strb	r2, [r3]
 281:.\Generated_Source\PSoC4/USBFS_std.c ****                     }
 1780              		.loc 1 281 0
 1781 01b6 0120     		mov	r0, #1
 1782              	.LVL171:
 1783 01b8 FFF7FEFF 		bl	USBFS_Config
 1784              	.LVL172:
 1785              	.L129:
 283:.\Generated_Source\PSoC4/USBFS_std.c ****                 }
 1786              		.loc 1 283 0
 1787 01bc FFF7FEFF 		bl	USBFS_InitNoDataControlTransfer
 1788              	.LVL173:
 1789 01c0 87E0     		b	.L104
 1790              	.LVL174:
 1791              	.L125:
 288:.\Generated_Source\PSoC4/USBFS_std.c ****                 {
 1792              		.loc 1 288 0
 1793 01c2 FFF7FEFF 		bl	USBFS_ValidateAlternateSetting
 1794              	.LVL175:
 1795 01c6 0028     		cmp	r0, #0
 1796 01c8 72D0     		beq	.L145
 291:.\Generated_Source\PSoC4/USBFS_std.c ****                     USBFS_interfaceNumber = (uint8) USBFS_wIndexLoReg;
 1797              		.loc 1 291 0
 1798 01ca 424B     		ldr	r3, .L158
 1799 01cc 1A69     		ldr	r2, [r3, #16]
 1800              	.LVL176:
 292:.\Generated_Source\PSoC4/USBFS_std.c ****                      
 1801              		.loc 1 292 0
 1802 01ce 1B69     		ldr	r3, [r3, #16]
 1803 01d0 DBB2     		uxtb	r3, r3
 1804 01d2 4E49     		ldr	r1, .L158+56
 1805 01d4 0B70     		strb	r3, [r1]
 295:.\Generated_Source\PSoC4/USBFS_std.c ****                     {
 1806              		.loc 1 295 0
 1807 01d6 4E4B     		ldr	r3, .L158+60
 1808 01d8 9B5C     		ldrb	r3, [r3, r2]
 1809 01da 4849     		ldr	r1, .L158+40
 1810 01dc 8A5C     		ldrb	r2, [r1, r2]
 1811              	.LVL177:
ARM GAS  C:\Users\LAIR\AppData\Local\Temp\cciUanLt.s 			page 58


 1812 01de DBB2     		uxtb	r3, r3
 1813 01e0 9342     		cmp	r3, r2
 1814 01e2 04D0     		beq	.L130
 297:.\Generated_Source\PSoC4/USBFS_std.c ****                     
 1815              		.loc 1 297 0
 1816 01e4 0122     		mov	r2, #1
 1817 01e6 484B     		ldr	r3, .L158+52
 1818 01e8 1A70     		strb	r2, [r3]
 303:.\Generated_Source\PSoC4/USBFS_std.c ****                     #endif /* (USBFS_EP_MANAGEMENT_MANUAL && USBFS_EP_ALLOC_DYNAMIC) */
 1819              		.loc 1 303 0
 1820 01ea FFF7FEFF 		bl	USBFS_ConfigAltChanged
 1821              	.LVL178:
 1822              	.L130:
 307:.\Generated_Source\PSoC4/USBFS_std.c ****                 }
 1823              		.loc 1 307 0
 1824 01ee FFF7FEFF 		bl	USBFS_InitNoDataControlTransfer
 1825              	.LVL179:
 1826 01f2 6EE0     		b	.L104
 1827              	.LVL180:
 1828              	.L120:
 312:.\Generated_Source\PSoC4/USBFS_std.c ****                 {
 1829              		.loc 1 312 0
 1830 01f4 0322     		mov	r2, #3
 1831 01f6 1340     		and	r3, r2
 1832              	.LVL181:
 1833 01f8 012B     		cmp	r3, #1
 1834 01fa 16D0     		beq	.L131
 1835 01fc 002B     		cmp	r3, #0
 1836 01fe 08D0     		beq	.L132
 1837 0200 022B     		cmp	r3, #2
 1838 0202 57D1     		bne	.L156
 315:.\Generated_Source\PSoC4/USBFS_std.c ****                         {
 1839              		.loc 1 315 0
 1840 0204 334B     		ldr	r3, .L158
 1841 0206 9B68     		ldr	r3, [r3, #8]
 1842 0208 002B     		cmp	r3, #0
 1843 020a 55D1     		bne	.L147
 317:.\Generated_Source\PSoC4/USBFS_std.c ****                         }
 1844              		.loc 1 317 0
 1845 020c FFF7FEFF 		bl	USBFS_ClearEndpointHalt
 1846              	.LVL182:
 1847 0210 5FE0     		b	.L104
 1848              	.LVL183:
 1849              	.L132:
 322:.\Generated_Source\PSoC4/USBFS_std.c ****                         {
 1850              		.loc 1 322 0
 1851 0212 304B     		ldr	r3, .L158
 1852 0214 9B68     		ldr	r3, [r3, #8]
 1853 0216 012B     		cmp	r3, #1
 1854 0218 50D1     		bne	.L148
 324:.\Generated_Source\PSoC4/USBFS_std.c ****                             requestHandled = USBFS_InitNoDataControlTransfer();
 1855              		.loc 1 324 0
 1856 021a 364A     		ldr	r2, .L158+32
 1857 021c 1378     		ldrb	r3, [r2]
 1858 021e 0221     		mov	r1, #2
 1859 0220 8B43     		bic	r3, r1
 1860 0222 1370     		strb	r3, [r2]
ARM GAS  C:\Users\LAIR\AppData\Local\Temp\cciUanLt.s 			page 59


 325:.\Generated_Source\PSoC4/USBFS_std.c ****                         }
 1861              		.loc 1 325 0
 1862 0224 FFF7FEFF 		bl	USBFS_InitNoDataControlTransfer
 1863              	.LVL184:
 1864 0228 53E0     		b	.L104
 1865              	.LVL185:
 1866              	.L131:
 330:.\Generated_Source\PSoC4/USBFS_std.c ****                         {
 1867              		.loc 1 330 0
 1868 022a 2A4B     		ldr	r3, .L158
 1869 022c 1B69     		ldr	r3, [r3, #16]
 1870 022e 002B     		cmp	r3, #0
 1871 0230 46D1     		bne	.L149
 332:.\Generated_Source\PSoC4/USBFS_std.c ****                             requestHandled = USBFS_InitNoDataControlTransfer();
 1872              		.loc 1 332 0
 1873 0232 284B     		ldr	r3, .L158
 1874 0234 9868     		ldr	r0, [r3, #8]
 1875 0236 1A69     		ldr	r2, [r3, #16]
 1876 0238 3649     		ldr	r1, .L158+64
 1877 023a 8B5C     		ldrb	r3, [r1, r2]
 1878 023c 8343     		bic	r3, r0
 1879 023e 8B54     		strb	r3, [r1, r2]
 333:.\Generated_Source\PSoC4/USBFS_std.c ****                         }
 1880              		.loc 1 333 0
 1881 0240 FFF7FEFF 		bl	USBFS_InitNoDataControlTransfer
 1882              	.LVL186:
 1883 0244 45E0     		b	.L104
 1884              	.LVL187:
 1885              	.L122:
 342:.\Generated_Source\PSoC4/USBFS_std.c ****                 {
 1886              		.loc 1 342 0
 1887 0246 0322     		mov	r2, #3
 1888 0248 1340     		and	r3, r2
 1889              	.LVL188:
 1890 024a 012B     		cmp	r3, #1
 1891 024c 16D0     		beq	.L134
 1892 024e 002B     		cmp	r3, #0
 1893 0250 08D0     		beq	.L135
 1894 0252 022B     		cmp	r3, #2
 1895 0254 36D1     		bne	.L157
 345:.\Generated_Source\PSoC4/USBFS_std.c ****                         {
 1896              		.loc 1 345 0
 1897 0256 1F4B     		ldr	r3, .L158
 1898 0258 9B68     		ldr	r3, [r3, #8]
 1899 025a 002B     		cmp	r3, #0
 1900 025c 34D1     		bne	.L151
 347:.\Generated_Source\PSoC4/USBFS_std.c ****                         }
 1901              		.loc 1 347 0
 1902 025e FFF7FEFF 		bl	USBFS_SetEndpointHalt
 1903              	.LVL189:
 1904 0262 36E0     		b	.L104
 1905              	.LVL190:
 1906              	.L135:
 353:.\Generated_Source\PSoC4/USBFS_std.c ****                         {
 1907              		.loc 1 353 0
 1908 0264 1B4B     		ldr	r3, .L158
 1909 0266 9B68     		ldr	r3, [r3, #8]
ARM GAS  C:\Users\LAIR\AppData\Local\Temp\cciUanLt.s 			page 60


 1910 0268 012B     		cmp	r3, #1
 1911 026a 2FD1     		bne	.L152
 355:.\Generated_Source\PSoC4/USBFS_std.c ****                             requestHandled = USBFS_InitNoDataControlTransfer();
 1912              		.loc 1 355 0
 1913 026c 214A     		ldr	r2, .L158+32
 1914 026e 1178     		ldrb	r1, [r2]
 1915 0270 0133     		add	r3, r3, #1
 1916 0272 0B43     		orr	r3, r1
 1917 0274 1370     		strb	r3, [r2]
 356:.\Generated_Source\PSoC4/USBFS_std.c ****                         }
 1918              		.loc 1 356 0
 1919 0276 FFF7FEFF 		bl	USBFS_InitNoDataControlTransfer
 1920              	.LVL191:
 1921 027a 2AE0     		b	.L104
 1922              	.LVL192:
 1923              	.L134:
 362:.\Generated_Source\PSoC4/USBFS_std.c ****                         {
 1924              		.loc 1 362 0
 1925 027c 154B     		ldr	r3, .L158
 1926 027e 1B69     		ldr	r3, [r3, #16]
 1927 0280 002B     		cmp	r3, #0
 1928 0282 25D1     		bne	.L153
 364:.\Generated_Source\PSoC4/USBFS_std.c ****                             requestHandled = USBFS_InitNoDataControlTransfer();
 1929              		.loc 1 364 0
 1930 0284 134B     		ldr	r3, .L158
 1931 0286 9868     		ldr	r0, [r3, #8]
 1932 0288 1A69     		ldr	r2, [r3, #16]
 1933 028a 2249     		ldr	r1, .L158+64
 1934 028c 8B5C     		ldrb	r3, [r1, r2]
 1935 028e 8343     		bic	r3, r0
 1936 0290 8B54     		strb	r3, [r1, r2]
 365:.\Generated_Source\PSoC4/USBFS_std.c ****                         }
 1937              		.loc 1 365 0
 1938 0292 FFF7FEFF 		bl	USBFS_InitNoDataControlTransfer
 1939              	.LVL193:
 1940 0296 1CE0     		b	.L104
 1941              	.LVL194:
 1942              	.L137:
  86:.\Generated_Source\PSoC4/USBFS_std.c ****     uint32 interfaceNumber;
 1943              		.loc 1 86 0
 1944 0298 0020     		mov	r0, #0
 1945 029a 1AE0     		b	.L104
 1946              	.LVL195:
 1947              	.L138:
 1948 029c 0020     		mov	r0, #0
 1949              	.LVL196:
 1950 029e 18E0     		b	.L104
 1951              	.LVL197:
 1952              	.L141:
 1953 02a0 0020     		mov	r0, #0
 1954 02a2 16E0     		b	.L104
 1955              	.LVL198:
 1956              	.L155:
 1957 02a4 0020     		mov	r0, #0
 1958 02a6 14E0     		b	.L104
 1959              	.LVL199:
 1960              	.L143:
ARM GAS  C:\Users\LAIR\AppData\Local\Temp\cciUanLt.s 			page 61


 1961 02a8 0020     		mov	r0, #0
 1962 02aa 12E0     		b	.L104
 1963              	.LVL200:
 1964              	.L144:
 1965 02ac 0020     		mov	r0, #0
 1966              	.LVL201:
 1967 02ae 10E0     		b	.L104
 1968              	.LVL202:
 1969              	.L145:
 1970 02b0 0020     		mov	r0, #0
 1971 02b2 0EE0     		b	.L104
 1972              	.L156:
 1973 02b4 0020     		mov	r0, #0
 1974 02b6 0CE0     		b	.L104
 1975              	.L147:
 1976 02b8 0020     		mov	r0, #0
 1977 02ba 0AE0     		b	.L104
 1978              	.L148:
 1979 02bc 0020     		mov	r0, #0
 1980 02be 08E0     		b	.L104
 1981              	.L149:
 1982 02c0 0020     		mov	r0, #0
 1983 02c2 06E0     		b	.L104
 1984              	.L157:
 1985 02c4 0020     		mov	r0, #0
 1986 02c6 04E0     		b	.L104
 1987              	.L151:
 1988 02c8 0020     		mov	r0, #0
 1989 02ca 02E0     		b	.L104
 1990              	.L152:
 1991 02cc 0020     		mov	r0, #0
 1992 02ce 00E0     		b	.L104
 1993              	.L153:
 1994 02d0 0020     		mov	r0, #0
 1995              	.LVL203:
 1996              	.L104:
 380:.\Generated_Source\PSoC4/USBFS_std.c **** 
 1997              		.loc 1 380 0
 1998              		@ sp needed
 1999 02d2 10BD     		pop	{r4, pc}
 2000              	.L159:
 2001              		.align	2
 2002              	.L158:
 2003 02d4 00002C40 		.word	1076625408
 2004 02d8 00000000 		.word	USBFS_currentTD
 2005 02dc 00000000 		.word	USBFS_STRING_DESCRIPTORS
 2006 02e0 00000000 		.word	USBFS_MSOS_DESCRIPTOR
 2007 02e4 00000000 		.word	USBFS_DEVICE0_DESCR
 2008 02e8 00000000 		.word	USBFS_idSerialNumberStringDescriptor
 2009 02ec 00000000 		.word	USBFS_EP
 2010 02f0 00000000 		.word	.LANCHOR0
 2011 02f4 00000000 		.word	USBFS_deviceStatus
 2012 02f8 00000000 		.word	USBFS_configuration
 2013 02fc 00000000 		.word	USBFS_interfaceSetting
 2014 0300 00000000 		.word	.L121
 2015 0304 00000000 		.word	USBFS_deviceAddress
 2016 0308 00000000 		.word	USBFS_configurationChanged
ARM GAS  C:\Users\LAIR\AppData\Local\Temp\cciUanLt.s 			page 62


 2017 030c 00000000 		.word	USBFS_interfaceNumber
 2018 0310 00000000 		.word	USBFS_interfaceSettingLast
 2019 0314 00000000 		.word	USBFS_interfaceStatus
 2020              		.cfi_endproc
 2021              	.LFE65:
 2022              		.size	USBFS_HandleStandardRqst, .-USBFS_HandleStandardRqst
 2023              		.section	.rodata.str1.4,"aMS",%progbits,1
 2024              		.align	2
 2025              	.LC0:
 2026 0000 30313233 		.ascii	"0123456789ABCDEF\000"
 2026      34353637 
 2026      38394142 
 2026      43444546 
 2026      00
 2027 0011 000000   		.bss
 2028              		.align	2
 2029              		.set	.LANCHOR0,. + 0
 2030              		.type	USBFS_tBuffer.5583, %object
 2031              		.size	USBFS_tBuffer.5583, 2
 2032              	USBFS_tBuffer.5583:
 2033 0000 0000     		.space	2
 2034 0002 0000     		.text
 2035              	.Letext0:
 2036              		.file 2 ".\\Generated_Source\\PSoC4\\cytypes.h"
 2037              		.file 3 ".\\Generated_Source\\PSoC4\\USBFS.h"
 2038              		.file 4 ".\\Generated_Source\\PSoC4\\USBFS_pvt.h"
 2039              		.file 5 ".\\Generated_Source\\PSoC4\\CyLib.h"
 2040              		.section	.debug_info,"",%progbits
 2041              	.Ldebug_info0:
 2042 0000 B60B0000 		.4byte	0xbb6
 2043 0004 0400     		.2byte	0x4
 2044 0006 00000000 		.4byte	.Ldebug_abbrev0
 2045 000a 04       		.byte	0x4
 2046 000b 01       		.uleb128 0x1
 2047 000c C5030000 		.4byte	.LASF122
 2048 0010 01       		.byte	0x1
 2049 0011 CA020000 		.4byte	.LASF123
 2050 0015 98040000 		.4byte	.LASF124
 2051 0019 00000000 		.4byte	.Ldebug_ranges0+0
 2052 001d 00000000 		.4byte	0
 2053 0021 00000000 		.4byte	.Ldebug_line0
 2054 0025 02       		.uleb128 0x2
 2055 0026 01       		.byte	0x1
 2056 0027 06       		.byte	0x6
 2057 0028 E3000000 		.4byte	.LASF0
 2058 002c 02       		.uleb128 0x2
 2059 002d 01       		.byte	0x1
 2060 002e 08       		.byte	0x8
 2061 002f 51050000 		.4byte	.LASF1
 2062 0033 02       		.uleb128 0x2
 2063 0034 02       		.byte	0x2
 2064 0035 05       		.byte	0x5
 2065 0036 78050000 		.4byte	.LASF2
 2066 003a 02       		.uleb128 0x2
 2067 003b 02       		.byte	0x2
 2068 003c 07       		.byte	0x7
 2069 003d 86020000 		.4byte	.LASF3
ARM GAS  C:\Users\LAIR\AppData\Local\Temp\cciUanLt.s 			page 63


 2070 0041 02       		.uleb128 0x2
 2071 0042 04       		.byte	0x4
 2072 0043 05       		.byte	0x5
 2073 0044 80010000 		.4byte	.LASF4
 2074 0048 02       		.uleb128 0x2
 2075 0049 04       		.byte	0x4
 2076 004a 07       		.byte	0x7
 2077 004b 54020000 		.4byte	.LASF5
 2078 004f 02       		.uleb128 0x2
 2079 0050 08       		.byte	0x8
 2080 0051 05       		.byte	0x5
 2081 0052 D5000000 		.4byte	.LASF6
 2082 0056 02       		.uleb128 0x2
 2083 0057 08       		.byte	0x8
 2084 0058 07       		.byte	0x7
 2085 0059 71000000 		.4byte	.LASF7
 2086 005d 03       		.uleb128 0x3
 2087 005e 04       		.byte	0x4
 2088 005f 05       		.byte	0x5
 2089 0060 696E7400 		.ascii	"int\000"
 2090 0064 02       		.uleb128 0x2
 2091 0065 04       		.byte	0x4
 2092 0066 07       		.byte	0x7
 2093 0067 47020000 		.4byte	.LASF8
 2094 006b 04       		.uleb128 0x4
 2095 006c 89010000 		.4byte	.LASF9
 2096 0070 02       		.byte	0x2
 2097 0071 9801     		.2byte	0x198
 2098 0073 2C000000 		.4byte	0x2c
 2099 0077 04       		.uleb128 0x4
 2100 0078 13000000 		.4byte	.LASF10
 2101 007c 02       		.byte	0x2
 2102 007d 9901     		.2byte	0x199
 2103 007f 3A000000 		.4byte	0x3a
 2104 0083 04       		.uleb128 0x4
 2105 0084 F3010000 		.4byte	.LASF11
 2106 0088 02       		.byte	0x2
 2107 0089 9A01     		.2byte	0x19a
 2108 008b 48000000 		.4byte	0x48
 2109 008f 02       		.uleb128 0x2
 2110 0090 04       		.byte	0x4
 2111 0091 04       		.byte	0x4
 2112 0092 F4040000 		.4byte	.LASF12
 2113 0096 02       		.uleb128 0x2
 2114 0097 08       		.byte	0x8
 2115 0098 04       		.byte	0x4
 2116 0099 B7010000 		.4byte	.LASF13
 2117 009d 04       		.uleb128 0x4
 2118 009e 86060000 		.4byte	.LASF14
 2119 00a2 02       		.byte	0x2
 2120 00a3 A901     		.2byte	0x1a9
 2121 00a5 A9000000 		.4byte	0xa9
 2122 00a9 02       		.uleb128 0x2
 2123 00aa 01       		.byte	0x1
 2124 00ab 08       		.byte	0x8
 2125 00ac 47060000 		.4byte	.LASF15
 2126 00b0 05       		.uleb128 0x5
ARM GAS  C:\Users\LAIR\AppData\Local\Temp\cciUanLt.s 			page 64


 2127 00b1 6B000000 		.4byte	0x6b
 2128 00b5 04       		.uleb128 0x4
 2129 00b6 33030000 		.4byte	.LASF16
 2130 00ba 02       		.byte	0x2
 2131 00bb 4402     		.2byte	0x244
 2132 00bd C1000000 		.4byte	0xc1
 2133 00c1 05       		.uleb128 0x5
 2134 00c2 83000000 		.4byte	0x83
 2135 00c6 02       		.uleb128 0x2
 2136 00c7 04       		.byte	0x4
 2137 00c8 07       		.byte	0x7
 2138 00c9 6A030000 		.4byte	.LASF17
 2139 00cd 06       		.uleb128 0x6
 2140 00ce 0C       		.byte	0xc
 2141 00cf 03       		.byte	0x3
 2142 00d0 8E       		.byte	0x8e
 2143 00d1 42010000 		.4byte	0x142
 2144 00d5 07       		.uleb128 0x7
 2145 00d6 8F030000 		.4byte	.LASF18
 2146 00da 03       		.byte	0x3
 2147 00db 90       		.byte	0x90
 2148 00dc 6B000000 		.4byte	0x6b
 2149 00e0 00       		.byte	0
 2150 00e1 07       		.uleb128 0x7
 2151 00e2 13050000 		.4byte	.LASF19
 2152 00e6 03       		.byte	0x3
 2153 00e7 91       		.byte	0x91
 2154 00e8 6B000000 		.4byte	0x6b
 2155 00ec 01       		.byte	0x1
 2156 00ed 07       		.uleb128 0x7
 2157 00ee 54030000 		.4byte	.LASF20
 2158 00f2 03       		.byte	0x3
 2159 00f3 92       		.byte	0x92
 2160 00f4 6B000000 		.4byte	0x6b
 2161 00f8 02       		.byte	0x2
 2162 00f9 07       		.uleb128 0x7
 2163 00fa 8F010000 		.4byte	.LASF21
 2164 00fe 03       		.byte	0x3
 2165 00ff 93       		.byte	0x93
 2166 0100 6B000000 		.4byte	0x6b
 2167 0104 03       		.byte	0x3
 2168 0105 07       		.uleb128 0x7
 2169 0106 88000000 		.4byte	.LASF22
 2170 010a 03       		.byte	0x3
 2171 010b 94       		.byte	0x94
 2172 010c 6B000000 		.4byte	0x6b
 2173 0110 04       		.byte	0x4
 2174 0111 07       		.uleb128 0x7
 2175 0112 14020000 		.4byte	.LASF23
 2176 0116 03       		.byte	0x3
 2177 0117 95       		.byte	0x95
 2178 0118 6B000000 		.4byte	0x6b
 2179 011c 05       		.byte	0x5
 2180 011d 07       		.uleb128 0x7
 2181 011e 7B060000 		.4byte	.LASF24
 2182 0122 03       		.byte	0x3
 2183 0123 96       		.byte	0x96
ARM GAS  C:\Users\LAIR\AppData\Local\Temp\cciUanLt.s 			page 65


 2184 0124 77000000 		.4byte	0x77
 2185 0128 06       		.byte	0x6
 2186 0129 07       		.uleb128 0x7
 2187 012a 4C060000 		.4byte	.LASF25
 2188 012e 03       		.byte	0x3
 2189 012f 97       		.byte	0x97
 2190 0130 77000000 		.4byte	0x77
 2191 0134 08       		.byte	0x8
 2192 0135 07       		.uleb128 0x7
 2193 0136 EF020000 		.4byte	.LASF26
 2194 013a 03       		.byte	0x3
 2195 013b 98       		.byte	0x98
 2196 013c 6B000000 		.4byte	0x6b
 2197 0140 0A       		.byte	0xa
 2198 0141 00       		.byte	0
 2199 0142 08       		.uleb128 0x8
 2200 0143 C1050000 		.4byte	.LASF27
 2201 0147 03       		.byte	0x3
 2202 0148 99       		.byte	0x99
 2203 0149 CD000000 		.4byte	0xcd
 2204 014d 06       		.uleb128 0x6
 2205 014e 08       		.byte	0x8
 2206 014f 03       		.byte	0x3
 2207 0150 9B       		.byte	0x9b
 2208 0151 9E010000 		.4byte	0x19e
 2209 0155 07       		.uleb128 0x7
 2210 0156 EF020000 		.4byte	.LASF26
 2211 015a 03       		.byte	0x3
 2212 015b 9D       		.byte	0x9d
 2213 015c 6B000000 		.4byte	0x6b
 2214 0160 00       		.byte	0
 2215 0161 07       		.uleb128 0x7
 2216 0162 3C060000 		.4byte	.LASF28
 2217 0166 03       		.byte	0x3
 2218 0167 9E       		.byte	0x9e
 2219 0168 6B000000 		.4byte	0x6b
 2220 016c 01       		.byte	0x1
 2221 016d 07       		.uleb128 0x7
 2222 016e 88000000 		.4byte	.LASF22
 2223 0172 03       		.byte	0x3
 2224 0173 9F       		.byte	0x9f
 2225 0174 6B000000 		.4byte	0x6b
 2226 0178 02       		.byte	0x2
 2227 0179 07       		.uleb128 0x7
 2228 017a 03060000 		.4byte	.LASF29
 2229 017e 03       		.byte	0x3
 2230 017f A0       		.byte	0xa0
 2231 0180 6B000000 		.4byte	0x6b
 2232 0184 03       		.byte	0x3
 2233 0185 07       		.uleb128 0x7
 2234 0186 4C060000 		.4byte	.LASF25
 2235 018a 03       		.byte	0x3
 2236 018b A1       		.byte	0xa1
 2237 018c 77000000 		.4byte	0x77
 2238 0190 04       		.byte	0x4
 2239 0191 07       		.uleb128 0x7
 2240 0192 32070000 		.4byte	.LASF30
ARM GAS  C:\Users\LAIR\AppData\Local\Temp\cciUanLt.s 			page 66


 2241 0196 03       		.byte	0x3
 2242 0197 A2       		.byte	0xa2
 2243 0198 6B000000 		.4byte	0x6b
 2244 019c 06       		.byte	0x6
 2245 019d 00       		.byte	0
 2246 019e 08       		.uleb128 0x8
 2247 019f C3010000 		.4byte	.LASF31
 2248 01a3 03       		.byte	0x3
 2249 01a4 A3       		.byte	0xa3
 2250 01a5 4D010000 		.4byte	0x14d
 2251 01a9 06       		.uleb128 0x6
 2252 01aa 04       		.byte	0x4
 2253 01ab 03       		.byte	0x3
 2254 01ac A5       		.byte	0xa5
 2255 01ad CA010000 		.4byte	0x1ca
 2256 01b1 07       		.uleb128 0x7
 2257 01b2 E9060000 		.4byte	.LASF32
 2258 01b6 03       		.byte	0x3
 2259 01b7 A7       		.byte	0xa7
 2260 01b8 6B000000 		.4byte	0x6b
 2261 01bc 00       		.byte	0
 2262 01bd 07       		.uleb128 0x7
 2263 01be B8060000 		.4byte	.LASF33
 2264 01c2 03       		.byte	0x3
 2265 01c3 A8       		.byte	0xa8
 2266 01c4 77000000 		.4byte	0x77
 2267 01c8 02       		.byte	0x2
 2268 01c9 00       		.byte	0
 2269 01ca 08       		.uleb128 0x8
 2270 01cb 78040000 		.4byte	.LASF34
 2271 01cf 03       		.byte	0x3
 2272 01d0 A9       		.byte	0xa9
 2273 01d1 A9010000 		.4byte	0x1a9
 2274 01d5 06       		.uleb128 0x6
 2275 01d6 0C       		.byte	0xc
 2276 01d7 03       		.byte	0x3
 2277 01d8 AB       		.byte	0xab
 2278 01d9 02020000 		.4byte	0x202
 2279 01dd 07       		.uleb128 0x7
 2280 01de 0D000000 		.4byte	.LASF35
 2281 01e2 03       		.byte	0x3
 2282 01e3 AD       		.byte	0xad
 2283 01e4 77000000 		.4byte	0x77
 2284 01e8 00       		.byte	0
 2285 01e9 07       		.uleb128 0x7
 2286 01ea FA010000 		.4byte	.LASF36
 2287 01ee 03       		.byte	0x3
 2288 01ef AE       		.byte	0xae
 2289 01f0 02020000 		.4byte	0x202
 2290 01f4 04       		.byte	0x4
 2291 01f5 07       		.uleb128 0x7
 2292 01f6 00000000 		.4byte	.LASF37
 2293 01fa 03       		.byte	0x3
 2294 01fb AF       		.byte	0xaf
 2295 01fc 08020000 		.4byte	0x208
 2296 0200 08       		.byte	0x8
 2297 0201 00       		.byte	0
ARM GAS  C:\Users\LAIR\AppData\Local\Temp\cciUanLt.s 			page 67


 2298 0202 09       		.uleb128 0x9
 2299 0203 04       		.byte	0x4
 2300 0204 B0000000 		.4byte	0xb0
 2301 0208 09       		.uleb128 0x9
 2302 0209 04       		.byte	0x4
 2303 020a CA010000 		.4byte	0x1ca
 2304 020e 08       		.uleb128 0x8
 2305 020f 82050000 		.4byte	.LASF38
 2306 0213 03       		.byte	0x3
 2307 0214 B0       		.byte	0xb0
 2308 0215 D5010000 		.4byte	0x1d5
 2309 0219 06       		.uleb128 0x6
 2310 021a 08       		.byte	0x8
 2311 021b 03       		.byte	0x3
 2312 021c B2       		.byte	0xb2
 2313 021d 38020000 		.4byte	0x238
 2314 0221 0A       		.uleb128 0xa
 2315 0222 6300     		.ascii	"c\000"
 2316 0224 03       		.byte	0x3
 2317 0225 B4       		.byte	0xb4
 2318 0226 6B000000 		.4byte	0x6b
 2319 022a 00       		.byte	0
 2320 022b 07       		.uleb128 0x7
 2321 022c 7E030000 		.4byte	.LASF39
 2322 0230 03       		.byte	0x3
 2323 0231 B5       		.byte	0xb5
 2324 0232 38020000 		.4byte	0x238
 2325 0236 04       		.byte	0x4
 2326 0237 00       		.byte	0
 2327 0238 09       		.uleb128 0x9
 2328 0239 04       		.byte	0x4
 2329 023a 3E020000 		.4byte	0x23e
 2330 023e 0B       		.uleb128 0xb
 2331 023f 08       		.uleb128 0x8
 2332 0240 A6070000 		.4byte	.LASF40
 2333 0244 03       		.byte	0x3
 2334 0245 B6       		.byte	0xb6
 2335 0246 19020000 		.4byte	0x219
 2336 024a 06       		.uleb128 0x6
 2337 024b 20       		.byte	0x20
 2338 024c 03       		.byte	0x3
 2339 024d C6       		.byte	0xc6
 2340 024e 5F020000 		.4byte	0x25f
 2341 0252 07       		.uleb128 0x7
 2342 0253 2B070000 		.4byte	.LASF41
 2343 0257 03       		.byte	0x3
 2344 0258 C8       		.byte	0xc8
 2345 0259 5F020000 		.4byte	0x25f
 2346 025d 00       		.byte	0
 2347 025e 00       		.byte	0
 2348 025f 0C       		.uleb128 0xc
 2349 0260 83000000 		.4byte	0x83
 2350 0264 6F020000 		.4byte	0x26f
 2351 0268 0D       		.uleb128 0xd
 2352 0269 C6000000 		.4byte	0xc6
 2353 026d 07       		.byte	0x7
 2354 026e 00       		.byte	0
ARM GAS  C:\Users\LAIR\AppData\Local\Temp\cciUanLt.s 			page 68


 2355 026f 08       		.uleb128 0x8
 2356 0270 8D000000 		.4byte	.LASF42
 2357 0274 03       		.byte	0x3
 2358 0275 C9       		.byte	0xc9
 2359 0276 4A020000 		.4byte	0x24a
 2360 027a 06       		.uleb128 0x6
 2361 027b 40       		.byte	0x40
 2362 027c 03       		.byte	0x3
 2363 027d D5       		.byte	0xd5
 2364 027e B3020000 		.4byte	0x2b3
 2365 0282 07       		.uleb128 0x7
 2366 0283 53040000 		.4byte	.LASF43
 2367 0287 03       		.byte	0x3
 2368 0288 D7       		.byte	0xd7
 2369 0289 83000000 		.4byte	0x83
 2370 028d 00       		.byte	0
 2371 028e 07       		.uleb128 0x7
 2372 028f 5A040000 		.4byte	.LASF44
 2373 0293 03       		.byte	0x3
 2374 0294 D8       		.byte	0xd8
 2375 0295 83000000 		.4byte	0x83
 2376 0299 04       		.byte	0x4
 2377 029a 07       		.uleb128 0x7
 2378 029b 92040000 		.4byte	.LASF45
 2379 029f 03       		.byte	0x3
 2380 02a0 D9       		.byte	0xd9
 2381 02a1 83000000 		.4byte	0x83
 2382 02a5 08       		.byte	0x8
 2383 02a6 0A       		.uleb128 0xa
 2384 02a7 67617000 		.ascii	"gap\000"
 2385 02ab 03       		.byte	0x3
 2386 02ac DA       		.byte	0xda
 2387 02ad B3020000 		.4byte	0x2b3
 2388 02b1 0C       		.byte	0xc
 2389 02b2 00       		.byte	0
 2390 02b3 0C       		.uleb128 0xc
 2391 02b4 83000000 		.4byte	0x83
 2392 02b8 C3020000 		.4byte	0x2c3
 2393 02bc 0D       		.uleb128 0xd
 2394 02bd C6000000 		.4byte	0xc6
 2395 02c1 0C       		.byte	0xc
 2396 02c2 00       		.byte	0
 2397 02c3 08       		.uleb128 0x8
 2398 02c4 A0020000 		.4byte	.LASF46
 2399 02c8 03       		.byte	0x3
 2400 02c9 DB       		.byte	0xdb
 2401 02ca 7A020000 		.4byte	0x27a
 2402 02ce 06       		.uleb128 0x6
 2403 02cf 40       		.byte	0x40
 2404 02d0 03       		.byte	0x3
 2405 02d1 E7       		.byte	0xe7
 2406 02d2 4F030000 		.4byte	0x34f
 2407 02d6 07       		.uleb128 0x7
 2408 02d7 AA000000 		.4byte	.LASF47
 2409 02db 03       		.byte	0x3
 2410 02dc E9       		.byte	0xe9
 2411 02dd 83000000 		.4byte	0x83
ARM GAS  C:\Users\LAIR\AppData\Local\Temp\cciUanLt.s 			page 69


 2412 02e1 00       		.byte	0
 2413 02e2 07       		.uleb128 0x7
 2414 02e3 56070000 		.4byte	.LASF48
 2415 02e7 03       		.byte	0x3
 2416 02e8 EA       		.byte	0xea
 2417 02e9 83000000 		.4byte	0x83
 2418 02ed 04       		.byte	0x4
 2419 02ee 07       		.uleb128 0x7
 2420 02ef BE010000 		.4byte	.LASF49
 2421 02f3 03       		.byte	0x3
 2422 02f4 EB       		.byte	0xeb
 2423 02f5 83000000 		.4byte	0x83
 2424 02f9 08       		.byte	0x8
 2425 02fa 07       		.uleb128 0x7
 2426 02fb 30020000 		.4byte	.LASF50
 2427 02ff 03       		.byte	0x3
 2428 0300 EC       		.byte	0xec
 2429 0301 83000000 		.4byte	0x83
 2430 0305 0C       		.byte	0xc
 2431 0306 07       		.uleb128 0x7
 2432 0307 B2010000 		.4byte	.LASF51
 2433 030b 03       		.byte	0x3
 2434 030c ED       		.byte	0xed
 2435 030d 83000000 		.4byte	0x83
 2436 0311 10       		.byte	0x10
 2437 0312 07       		.uleb128 0x7
 2438 0313 38070000 		.4byte	.LASF52
 2439 0317 03       		.byte	0x3
 2440 0318 EE       		.byte	0xee
 2441 0319 83000000 		.4byte	0x83
 2442 031d 14       		.byte	0x14
 2443 031e 07       		.uleb128 0x7
 2444 031f A5050000 		.4byte	.LASF53
 2445 0323 03       		.byte	0x3
 2446 0324 EF       		.byte	0xef
 2447 0325 83000000 		.4byte	0x83
 2448 0329 18       		.byte	0x18
 2449 032a 07       		.uleb128 0x7
 2450 032b BD030000 		.4byte	.LASF54
 2451 032f 03       		.byte	0x3
 2452 0330 F0       		.byte	0xf0
 2453 0331 83000000 		.4byte	0x83
 2454 0335 1C       		.byte	0x1c
 2455 0336 07       		.uleb128 0x7
 2456 0337 08070000 		.4byte	.LASF55
 2457 033b 03       		.byte	0x3
 2458 033c F1       		.byte	0xf1
 2459 033d 83000000 		.4byte	0x83
 2460 0341 20       		.byte	0x20
 2461 0342 0A       		.uleb128 0xa
 2462 0343 67617000 		.ascii	"gap\000"
 2463 0347 03       		.byte	0x3
 2464 0348 F2       		.byte	0xf2
 2465 0349 4F030000 		.4byte	0x34f
 2466 034d 24       		.byte	0x24
 2467 034e 00       		.byte	0
 2468 034f 0C       		.uleb128 0xc
ARM GAS  C:\Users\LAIR\AppData\Local\Temp\cciUanLt.s 			page 70


 2469 0350 83000000 		.4byte	0x83
 2470 0354 5F030000 		.4byte	0x35f
 2471 0358 0D       		.uleb128 0xd
 2472 0359 C6000000 		.4byte	0xc6
 2473 035d 06       		.byte	0x6
 2474 035e 00       		.byte	0
 2475 035f 08       		.uleb128 0x8
 2476 0360 5C010000 		.4byte	.LASF56
 2477 0364 03       		.byte	0x3
 2478 0365 F3       		.byte	0xf3
 2479 0366 CE020000 		.4byte	0x2ce
 2480 036a 0E       		.uleb128 0xe
 2481 036b 40       		.byte	0x40
 2482 036c 03       		.byte	0x3
 2483 036d 0001     		.2byte	0x100
 2484 036f C2030000 		.4byte	0x3c2
 2485 0373 0F       		.uleb128 0xf
 2486 0374 A3000000 		.4byte	.LASF57
 2487 0378 03       		.byte	0x3
 2488 0379 0201     		.2byte	0x102
 2489 037b 83000000 		.4byte	0x83
 2490 037f 00       		.byte	0
 2491 0380 0F       		.uleb128 0xf
 2492 0381 5E070000 		.4byte	.LASF58
 2493 0385 03       		.byte	0x3
 2494 0386 0301     		.2byte	0x103
 2495 0388 83000000 		.4byte	0x83
 2496 038c 04       		.byte	0x4
 2497 038d 0F       		.uleb128 0xf
 2498 038e 71050000 		.4byte	.LASF59
 2499 0392 03       		.byte	0x3
 2500 0393 0401     		.2byte	0x104
 2501 0395 83000000 		.4byte	0x83
 2502 0399 08       		.byte	0x8
 2503 039a 0F       		.uleb128 0xf
 2504 039b 68070000 		.4byte	.LASF60
 2505 039f 03       		.byte	0x3
 2506 03a0 0501     		.2byte	0x105
 2507 03a2 83000000 		.4byte	0x83
 2508 03a6 0C       		.byte	0xc
 2509 03a7 0F       		.uleb128 0xf
 2510 03a8 C5000000 		.4byte	.LASF61
 2511 03ac 03       		.byte	0x3
 2512 03ad 0601     		.2byte	0x106
 2513 03af 83000000 		.4byte	0x83
 2514 03b3 10       		.byte	0x10
 2515 03b4 10       		.uleb128 0x10
 2516 03b5 67617000 		.ascii	"gap\000"
 2517 03b9 03       		.byte	0x3
 2518 03ba 0701     		.2byte	0x107
 2519 03bc C2030000 		.4byte	0x3c2
 2520 03c0 14       		.byte	0x14
 2521 03c1 00       		.byte	0
 2522 03c2 0C       		.uleb128 0xc
 2523 03c3 83000000 		.4byte	0x83
 2524 03c7 D2030000 		.4byte	0x3d2
 2525 03cb 0D       		.uleb128 0xd
ARM GAS  C:\Users\LAIR\AppData\Local\Temp\cciUanLt.s 			page 71


 2526 03cc C6000000 		.4byte	0xc6
 2527 03d0 0A       		.byte	0xa
 2528 03d1 00       		.byte	0
 2529 03d2 04       		.uleb128 0x4
 2530 03d3 98010000 		.4byte	.LASF62
 2531 03d7 03       		.byte	0x3
 2532 03d8 0801     		.2byte	0x108
 2533 03da 6A030000 		.4byte	0x36a
 2534 03de 11       		.uleb128 0x11
 2535 03df 4002     		.2byte	0x240
 2536 03e1 03       		.byte	0x3
 2537 03e2 0F01     		.2byte	0x10f
 2538 03e4 F6030000 		.4byte	0x3f6
 2539 03e8 0F       		.uleb128 0xf
 2540 03e9 73030000 		.4byte	.LASF63
 2541 03ed 03       		.byte	0x3
 2542 03ee 1101     		.2byte	0x111
 2543 03f0 F6030000 		.4byte	0x3f6
 2544 03f4 00       		.byte	0
 2545 03f5 00       		.byte	0
 2546 03f6 0C       		.uleb128 0xc
 2547 03f7 C3020000 		.4byte	0x2c3
 2548 03fb 06040000 		.4byte	0x406
 2549 03ff 0D       		.uleb128 0xd
 2550 0400 C6000000 		.4byte	0xc6
 2551 0404 08       		.byte	0x8
 2552 0405 00       		.byte	0
 2553 0406 04       		.uleb128 0x4
 2554 0407 B0000000 		.4byte	.LASF64
 2555 040b 03       		.byte	0x3
 2556 040c 1201     		.2byte	0x112
 2557 040e DE030000 		.4byte	0x3de
 2558 0412 11       		.uleb128 0x11
 2559 0413 4002     		.2byte	0x240
 2560 0415 03       		.byte	0x3
 2561 0416 1501     		.2byte	0x115
 2562 0418 2A040000 		.4byte	0x42a
 2563 041c 0F       		.uleb128 0xf
 2564 041d C4020000 		.4byte	.LASF65
 2565 0421 03       		.byte	0x3
 2566 0422 1701     		.2byte	0x117
 2567 0424 2A040000 		.4byte	0x42a
 2568 0428 00       		.byte	0
 2569 0429 00       		.byte	0
 2570 042a 0C       		.uleb128 0xc
 2571 042b 5F030000 		.4byte	0x35f
 2572 042f 3A040000 		.4byte	0x43a
 2573 0433 0D       		.uleb128 0xd
 2574 0434 C6000000 		.4byte	0xc6
 2575 0438 08       		.byte	0x8
 2576 0439 00       		.byte	0
 2577 043a 04       		.uleb128 0x4
 2578 043b 1A000000 		.4byte	.LASF66
 2579 043f 03       		.byte	0x3
 2580 0440 1801     		.2byte	0x118
 2581 0442 12040000 		.4byte	0x412
 2582 0446 11       		.uleb128 0x11
ARM GAS  C:\Users\LAIR\AppData\Local\Temp\cciUanLt.s 			page 72


 2583 0447 4002     		.2byte	0x240
 2584 0449 03       		.byte	0x3
 2585 044a 1C01     		.2byte	0x11c
 2586 044c 5E040000 		.4byte	0x45e
 2587 0450 0F       		.uleb128 0xf
 2588 0451 C4020000 		.4byte	.LASF65
 2589 0455 03       		.byte	0x3
 2590 0456 1E01     		.2byte	0x11e
 2591 0458 5E040000 		.4byte	0x45e
 2592 045c 00       		.byte	0
 2593 045d 00       		.byte	0
 2594 045e 0C       		.uleb128 0xc
 2595 045f D2030000 		.4byte	0x3d2
 2596 0463 6E040000 		.4byte	0x46e
 2597 0467 0D       		.uleb128 0xd
 2598 0468 C6000000 		.4byte	0xc6
 2599 046c 08       		.byte	0x8
 2600 046d 00       		.byte	0
 2601 046e 04       		.uleb128 0x4
 2602 046f A2030000 		.4byte	.LASF67
 2603 0473 03       		.byte	0x3
 2604 0474 1F01     		.2byte	0x11f
 2605 0476 46040000 		.4byte	0x446
 2606 047a 12       		.uleb128 0x12
 2607 047b FD000000 		.4byte	.LASF69
 2608 047f 01       		.byte	0x1
 2609 0480 8E01     		.2byte	0x18e
 2610 0482 00000000 		.4byte	.LFB66
 2611 0486 64000000 		.4byte	.LFE66-.LFB66
 2612 048a 01       		.uleb128 0x1
 2613 048b 9C       		.byte	0x9c
 2614 048c EB040000 		.4byte	0x4eb
 2615 0490 13       		.uleb128 0x13
 2616 0491 4B050000 		.4byte	.LASF72
 2617 0495 01       		.byte	0x1
 2618 0496 8E01     		.2byte	0x18e
 2619 0498 EB040000 		.4byte	0x4eb
 2620 049c 00000000 		.4byte	.LLST0
 2621 04a0 14       		.uleb128 0x14
 2622 04a1 68657800 		.ascii	"hex\000"
 2623 04a5 01       		.byte	0x1
 2624 04a6 9001     		.2byte	0x190
 2625 04a8 01050000 		.4byte	0x501
 2626 04ac 02       		.uleb128 0x2
 2627 04ad 91       		.byte	0x91
 2628 04ae 54       		.sleb128 -44
 2629 04af 15       		.uleb128 0x15
 2630 04b0 6900     		.ascii	"i\000"
 2631 04b2 01       		.byte	0x1
 2632 04b3 9101     		.2byte	0x191
 2633 04b5 83000000 		.4byte	0x83
 2634 04b9 2C000000 		.4byte	.LLST1
 2635 04bd 15       		.uleb128 0x15
 2636 04be 6A00     		.ascii	"j\000"
 2637 04c0 01       		.byte	0x1
 2638 04c1 9201     		.2byte	0x192
 2639 04c3 83000000 		.4byte	0x83
ARM GAS  C:\Users\LAIR\AppData\Local\Temp\cciUanLt.s 			page 73


 2640 04c7 4B000000 		.4byte	.LLST2
 2641 04cb 16       		.uleb128 0x16
 2642 04cc 8C060000 		.4byte	.LASF68
 2643 04d0 01       		.byte	0x1
 2644 04d1 9301     		.2byte	0x193
 2645 04d3 06050000 		.4byte	0x506
 2646 04d7 02       		.uleb128 0x2
 2647 04d8 91       		.byte	0x91
 2648 04d9 4C       		.sleb128 -52
 2649 04da 17       		.uleb128 0x17
 2650 04db 2A000000 		.4byte	.LVL3
 2651 04df 800B0000 		.4byte	0xb80
 2652 04e3 18       		.uleb128 0x18
 2653 04e4 01       		.uleb128 0x1
 2654 04e5 50       		.byte	0x50
 2655 04e6 02       		.uleb128 0x2
 2656 04e7 91       		.byte	0x91
 2657 04e8 4C       		.sleb128 -52
 2658 04e9 00       		.byte	0
 2659 04ea 00       		.byte	0
 2660 04eb 09       		.uleb128 0x9
 2661 04ec 04       		.byte	0x4
 2662 04ed 6B000000 		.4byte	0x6b
 2663 04f1 0C       		.uleb128 0xc
 2664 04f2 9D000000 		.4byte	0x9d
 2665 04f6 01050000 		.4byte	0x501
 2666 04fa 0D       		.uleb128 0xd
 2667 04fb C6000000 		.4byte	0xc6
 2668 04ff 10       		.byte	0x10
 2669 0500 00       		.byte	0
 2670 0501 19       		.uleb128 0x19
 2671 0502 F1040000 		.4byte	0x4f1
 2672 0506 0C       		.uleb128 0xc
 2673 0507 6B000000 		.4byte	0x6b
 2674 050b 16050000 		.4byte	0x516
 2675 050f 0D       		.uleb128 0xd
 2676 0510 C6000000 		.4byte	0xc6
 2677 0514 07       		.byte	0x7
 2678 0515 00       		.byte	0
 2679 0516 12       		.uleb128 0x12
 2680 0517 70010000 		.4byte	.LASF70
 2681 051b 01       		.byte	0x1
 2682 051c B501     		.2byte	0x1b5
 2683 051e 00000000 		.4byte	.LFB67
 2684 0522 A0000000 		.4byte	.LFE67-.LFB67
 2685 0526 01       		.uleb128 0x1
 2686 0527 9C       		.byte	0x9c
 2687 0528 3C050000 		.4byte	0x53c
 2688 052c 15       		.uleb128 0x15
 2689 052d 657000   		.ascii	"ep\000"
 2690 0530 01       		.byte	0x1
 2691 0531 B701     		.2byte	0x1b7
 2692 0533 83000000 		.4byte	0x83
 2693 0537 6A000000 		.4byte	.LLST3
 2694 053b 00       		.byte	0
 2695 053c 12       		.uleb128 0x12
 2696 053d 5F050000 		.4byte	.LASF71
ARM GAS  C:\Users\LAIR\AppData\Local\Temp\cciUanLt.s 			page 74


 2697 0541 01       		.byte	0x1
 2698 0542 1402     		.2byte	0x214
 2699 0544 00000000 		.4byte	.LFB68
 2700 0548 40000000 		.4byte	.LFE68-.LFB68
 2701 054c 01       		.uleb128 0x1
 2702 054d 9C       		.byte	0x9c
 2703 054e 61050000 		.4byte	0x561
 2704 0552 15       		.uleb128 0x15
 2705 0553 6900     		.ascii	"i\000"
 2706 0555 01       		.byte	0x1
 2707 0556 1602     		.2byte	0x216
 2708 0558 6B000000 		.4byte	0x6b
 2709 055c 89000000 		.4byte	.LLST4
 2710 0560 00       		.byte	0
 2711 0561 1A       		.uleb128 0x1a
 2712 0562 8D050000 		.4byte	.LASF79
 2713 0566 01       		.byte	0x1
 2714 0567 AE03     		.2byte	0x3ae
 2715 0569 9C050000 		.4byte	0x59c
 2716 056d 00000000 		.4byte	.LFB71
 2717 0571 28000000 		.4byte	.LFE71-.LFB71
 2718 0575 01       		.uleb128 0x1
 2719 0576 9C       		.byte	0x9c
 2720 0577 9C050000 		.4byte	0x59c
 2721 057b 13       		.uleb128 0x13
 2722 057c 67000000 		.4byte	.LASF73
 2723 0580 01       		.byte	0x1
 2724 0581 AE03     		.2byte	0x3ae
 2725 0583 6B000000 		.4byte	0x6b
 2726 0587 B3000000 		.4byte	.LLST5
 2727 058b 1B       		.uleb128 0x1b
 2728 058c 79030000 		.4byte	.LASF74
 2729 0590 01       		.byte	0x1
 2730 0591 B203     		.2byte	0x3b2
 2731 0593 9C050000 		.4byte	0x59c
 2732 0597 ED000000 		.4byte	.LLST6
 2733 059b 00       		.byte	0
 2734 059c 09       		.uleb128 0x9
 2735 059d 04       		.byte	0x4
 2736 059e A2050000 		.4byte	0x5a2
 2737 05a2 19       		.uleb128 0x19
 2738 05a3 3F020000 		.4byte	0x23f
 2739 05a7 12       		.uleb128 0x12
 2740 05a8 61040000 		.4byte	.LASF75
 2741 05ac 01       		.byte	0x1
 2742 05ad 2503     		.2byte	0x325
 2743 05af 00000000 		.4byte	.LFB70
 2744 05b3 20010000 		.4byte	.LFE70-.LFB70
 2745 05b7 01       		.uleb128 0x1
 2746 05b8 9C       		.byte	0x9c
 2747 05b9 34060000 		.4byte	0x634
 2748 05bd 15       		.uleb128 0x15
 2749 05be 657000   		.ascii	"ep\000"
 2750 05c1 01       		.byte	0x1
 2751 05c2 2703     		.2byte	0x327
 2752 05c4 83000000 		.4byte	0x83
 2753 05c8 25010000 		.4byte	.LLST7
ARM GAS  C:\Users\LAIR\AppData\Local\Temp\cciUanLt.s 			page 75


 2754 05cc 1B       		.uleb128 0x1b
 2755 05cd 4E030000 		.4byte	.LASF76
 2756 05d1 01       		.byte	0x1
 2757 05d2 2803     		.2byte	0x328
 2758 05d4 83000000 		.4byte	0x83
 2759 05d8 38010000 		.4byte	.LLST8
 2760 05dc 1B       		.uleb128 0x1b
 2761 05dd 1B020000 		.4byte	.LASF77
 2762 05e1 01       		.byte	0x1
 2763 05e2 2903     		.2byte	0x329
 2764 05e4 83000000 		.4byte	0x83
 2765 05e8 4B010000 		.4byte	.LLST9
 2766 05ec 15       		.uleb128 0x15
 2767 05ed 6900     		.ascii	"i\000"
 2768 05ef 01       		.byte	0x1
 2769 05f0 2A03     		.2byte	0x32a
 2770 05f2 83000000 		.4byte	0x83
 2771 05f6 7F010000 		.4byte	.LLST10
 2772 05fa 1B       		.uleb128 0x1b
 2773 05fb 1E070000 		.4byte	.LASF78
 2774 05ff 01       		.byte	0x1
 2775 0600 2B03     		.2byte	0x32b
 2776 0602 6B000000 		.4byte	0x6b
 2777 0606 9E010000 		.4byte	.LLST11
 2778 060a 1B       		.uleb128 0x1b
 2779 060b 79030000 		.4byte	.LASF74
 2780 060f 01       		.byte	0x1
 2781 0610 2D03     		.2byte	0x32d
 2782 0612 9C050000 		.4byte	0x59c
 2783 0616 B1010000 		.4byte	.LLST12
 2784 061a 15       		.uleb128 0x15
 2785 061b 70455000 		.ascii	"pEP\000"
 2786 061f 01       		.byte	0x1
 2787 0620 2E03     		.2byte	0x32e
 2788 0622 34060000 		.4byte	0x634
 2789 0626 C6010000 		.4byte	.LLST13
 2790 062a 1C       		.uleb128 0x1c
 2791 062b 1E000000 		.4byte	.LVL22
 2792 062f 61050000 		.4byte	0x561
 2793 0633 00       		.byte	0
 2794 0634 09       		.uleb128 0x9
 2795 0635 04       		.byte	0x4
 2796 0636 3A060000 		.4byte	0x63a
 2797 063a 19       		.uleb128 0x19
 2798 063b 9E010000 		.4byte	0x19e
 2799 063f 1D       		.uleb128 0x1d
 2800 0640 24060000 		.4byte	.LASF125
 2801 0644 01       		.byte	0x1
 2802 0645 F303     		.2byte	0x3f3
 2803 0647 9C050000 		.4byte	0x59c
 2804 064b 00000000 		.4byte	.LFB72
 2805 064f 18000000 		.4byte	.LFE72-.LFB72
 2806 0653 01       		.uleb128 0x1
 2807 0654 9C       		.byte	0x9c
 2808 0655 1A       		.uleb128 0x1a
 2809 0656 66020000 		.4byte	.LASF80
 2810 065a 01       		.byte	0x1
ARM GAS  C:\Users\LAIR\AppData\Local\Temp\cciUanLt.s 			page 76


 2811 065b 0604     		.2byte	0x406
 2812 065d A9060000 		.4byte	0x6a9
 2813 0661 00000000 		.4byte	.LFB73
 2814 0665 28000000 		.4byte	.LFE73-.LFB73
 2815 0669 01       		.uleb128 0x1
 2816 066a 9C       		.byte	0x9c
 2817 066b A9060000 		.4byte	0x6a9
 2818 066f 1B       		.uleb128 0x1b
 2819 0670 79030000 		.4byte	.LASF74
 2820 0674 01       		.byte	0x1
 2821 0675 0904     		.2byte	0x409
 2822 0677 9C050000 		.4byte	0x59c
 2823 067b D9010000 		.4byte	.LLST14
 2824 067f 1B       		.uleb128 0x1b
 2825 0680 B4020000 		.4byte	.LASF81
 2826 0684 01       		.byte	0x1
 2827 0685 0A04     		.2byte	0x40a
 2828 0687 A9060000 		.4byte	0x6a9
 2829 068b F7010000 		.4byte	.LLST15
 2830 068f 1B       		.uleb128 0x1b
 2831 0690 66060000 		.4byte	.LASF82
 2832 0694 01       		.byte	0x1
 2833 0695 0B04     		.2byte	0x40b
 2834 0697 6B000000 		.4byte	0x6b
 2835 069b 15020000 		.4byte	.LLST16
 2836 069f 1C       		.uleb128 0x1c
 2837 06a0 0E000000 		.4byte	.LVL38
 2838 06a4 61050000 		.4byte	0x561
 2839 06a8 00       		.byte	0
 2840 06a9 09       		.uleb128 0x9
 2841 06aa 04       		.byte	0x4
 2842 06ab AF060000 		.4byte	0x6af
 2843 06af 19       		.uleb128 0x19
 2844 06b0 6B000000 		.4byte	0x6b
 2845 06b4 12       		.uleb128 0x12
 2846 06b5 4F010000 		.4byte	.LASF83
 2847 06b9 01       		.byte	0x1
 2848 06ba 3A02     		.2byte	0x23a
 2849 06bc 00000000 		.4byte	.LFB69
 2850 06c0 D0010000 		.4byte	.LFE69-.LFB69
 2851 06c4 01       		.uleb128 0x1
 2852 06c5 9C       		.byte	0x9c
 2853 06c6 73070000 		.4byte	0x773
 2854 06ca 13       		.uleb128 0x13
 2855 06cb 1E050000 		.4byte	.LASF84
 2856 06cf 01       		.byte	0x1
 2857 06d0 3A02     		.2byte	0x23a
 2858 06d2 6B000000 		.4byte	0x6b
 2859 06d6 44020000 		.4byte	.LLST17
 2860 06da 15       		.uleb128 0x15
 2861 06db 657000   		.ascii	"ep\000"
 2862 06de 01       		.byte	0x1
 2863 06df 3C02     		.2byte	0x23c
 2864 06e1 6B000000 		.4byte	0x6b
 2865 06e5 65020000 		.4byte	.LLST18
 2866 06e9 1B       		.uleb128 0x1b
 2867 06ea 4E030000 		.4byte	.LASF76
ARM GAS  C:\Users\LAIR\AppData\Local\Temp\cciUanLt.s 			page 77


 2868 06ee 01       		.byte	0x1
 2869 06ef 3D02     		.2byte	0x23d
 2870 06f1 6B000000 		.4byte	0x6b
 2871 06f5 C7020000 		.4byte	.LLST19
 2872 06f9 15       		.uleb128 0x15
 2873 06fa 6900     		.ascii	"i\000"
 2874 06fc 01       		.byte	0x1
 2875 06fd 3E02     		.2byte	0x23e
 2876 06ff 6B000000 		.4byte	0x6b
 2877 0703 F1020000 		.4byte	.LLST20
 2878 0707 1B       		.uleb128 0x1b
 2879 0708 1B020000 		.4byte	.LASF77
 2880 070c 01       		.byte	0x1
 2881 070d 3F02     		.2byte	0x23f
 2882 070f 6B000000 		.4byte	0x6b
 2883 0713 5E030000 		.4byte	.LLST21
 2884 0717 1B       		.uleb128 0x1b
 2885 0718 99020000 		.4byte	.LASF85
 2886 071c 01       		.byte	0x1
 2887 071d 4002     		.2byte	0x240
 2888 071f A9060000 		.4byte	0x6a9
 2889 0723 CE030000 		.4byte	.LLST22
 2890 0727 1B       		.uleb128 0x1b
 2891 0728 85030000 		.4byte	.LASF86
 2892 072c 01       		.byte	0x1
 2893 072d 4302     		.2byte	0x243
 2894 072f 77000000 		.4byte	0x77
 2895 0733 E2030000 		.4byte	.LLST23
 2896 0737 1B       		.uleb128 0x1b
 2897 0738 79030000 		.4byte	.LASF74
 2898 073c 01       		.byte	0x1
 2899 073d 4602     		.2byte	0x246
 2900 073f 9C050000 		.4byte	0x59c
 2901 0743 23040000 		.4byte	.LLST24
 2902 0747 15       		.uleb128 0x15
 2903 0748 70455000 		.ascii	"pEP\000"
 2904 074c 01       		.byte	0x1
 2905 074d 4702     		.2byte	0x247
 2906 074f 34060000 		.4byte	0x634
 2907 0753 50040000 		.4byte	.LLST25
 2908 0757 1C       		.uleb128 0x1c
 2909 0758 66000000 		.4byte	.LVL58
 2910 075c 61050000 		.4byte	0x561
 2911 0760 1C       		.uleb128 0x1c
 2912 0761 80010000 		.4byte	.LVL85
 2913 0765 55060000 		.4byte	0x655
 2914 0769 1C       		.uleb128 0x1c
 2915 076a B0010000 		.4byte	.LVL93
 2916 076e 16050000 		.4byte	0x516
 2917 0772 00       		.byte	0
 2918 0773 12       		.uleb128 0x12
 2919 0774 2F000000 		.4byte	.LASF87
 2920 0778 01       		.byte	0x1
 2921 0779 3004     		.2byte	0x430
 2922 077b 00000000 		.4byte	.LFB74
 2923 077f 50000000 		.4byte	.LFE74-.LFB74
 2924 0783 01       		.uleb128 0x1
ARM GAS  C:\Users\LAIR\AppData\Local\Temp\cciUanLt.s 			page 78


 2925 0784 9C       		.byte	0x9c
 2926 0785 9A070000 		.4byte	0x79a
 2927 0789 13       		.uleb128 0x13
 2928 078a CC000000 		.4byte	.LASF88
 2929 078e 01       		.byte	0x1
 2930 078f 3004     		.2byte	0x430
 2931 0791 6B000000 		.4byte	0x6b
 2932 0795 6E040000 		.4byte	.LLST26
 2933 0799 00       		.byte	0
 2934 079a 1A       		.uleb128 0x1a
 2935 079b DD010000 		.4byte	.LASF89
 2936 079f 01       		.byte	0x1
 2937 07a0 5904     		.2byte	0x459
 2938 07a2 6B000000 		.4byte	0x6b
 2939 07a6 00000000 		.4byte	.LFB75
 2940 07aa 68000000 		.4byte	.LFE75-.LFB75
 2941 07ae 01       		.uleb128 0x1
 2942 07af 9C       		.byte	0x9c
 2943 07b0 DD070000 		.4byte	0x7dd
 2944 07b4 1B       		.uleb128 0x1b
 2945 07b5 57060000 		.4byte	.LASF90
 2946 07b9 01       		.byte	0x1
 2947 07ba 5B04     		.2byte	0x45b
 2948 07bc 6B000000 		.4byte	0x6b
 2949 07c0 97040000 		.4byte	.LLST27
 2950 07c4 15       		.uleb128 0x15
 2951 07c5 657000   		.ascii	"ep\000"
 2952 07c8 01       		.byte	0x1
 2953 07c9 5C04     		.2byte	0x45c
 2954 07cb 83000000 		.4byte	0x83
 2955 07cf CD040000 		.4byte	.LLST28
 2956 07d3 1C       		.uleb128 0x1c
 2957 07d4 54000000 		.4byte	.LVL104
 2958 07d8 970B0000 		.4byte	0xb97
 2959 07dc 00       		.byte	0
 2960 07dd 1A       		.uleb128 0x1a
 2961 07de 21010000 		.4byte	.LASF91
 2962 07e2 01       		.byte	0x1
 2963 07e3 8A04     		.2byte	0x48a
 2964 07e5 6B000000 		.4byte	0x6b
 2965 07e9 00000000 		.4byte	.LFB76
 2966 07ed AC000000 		.4byte	.LFE76-.LFB76
 2967 07f1 01       		.uleb128 0x1
 2968 07f2 9C       		.byte	0x9c
 2969 07f3 20080000 		.4byte	0x820
 2970 07f7 1B       		.uleb128 0x1b
 2971 07f8 57060000 		.4byte	.LASF90
 2972 07fc 01       		.byte	0x1
 2973 07fd 8C04     		.2byte	0x48c
 2974 07ff 6B000000 		.4byte	0x6b
 2975 0803 F6040000 		.4byte	.LLST29
 2976 0807 15       		.uleb128 0x15
 2977 0808 657000   		.ascii	"ep\000"
 2978 080b 01       		.byte	0x1
 2979 080c 8D04     		.2byte	0x48d
 2980 080e 83000000 		.4byte	0x83
 2981 0812 2C050000 		.4byte	.LLST30
ARM GAS  C:\Users\LAIR\AppData\Local\Temp\cciUanLt.s 			page 79


 2982 0816 1C       		.uleb128 0x1c
 2983 0817 9A000000 		.4byte	.LVL116
 2984 081b 970B0000 		.4byte	0xb97
 2985 081f 00       		.byte	0
 2986 0820 1A       		.uleb128 0x1a
 2987 0821 F9020000 		.4byte	.LASF92
 2988 0825 01       		.byte	0x1
 2989 0826 CF04     		.2byte	0x4cf
 2990 0828 6B000000 		.4byte	0x6b
 2991 082c 00000000 		.4byte	.LFB77
 2992 0830 50000000 		.4byte	.LFE77-.LFB77
 2993 0834 01       		.uleb128 0x1
 2994 0835 9C       		.byte	0x9c
 2995 0836 84080000 		.4byte	0x884
 2996 083a 1B       		.uleb128 0x1b
 2997 083b 57060000 		.4byte	.LASF90
 2998 083f 01       		.byte	0x1
 2999 0840 D104     		.2byte	0x4d1
 3000 0842 6B000000 		.4byte	0x6b
 3001 0846 6B050000 		.4byte	.LLST31
 3002 084a 1B       		.uleb128 0x1b
 3003 084b 1E070000 		.4byte	.LASF78
 3004 084f 01       		.byte	0x1
 3005 0850 D304     		.2byte	0x4d3
 3006 0852 6B000000 		.4byte	0x6b
 3007 0856 A2050000 		.4byte	.LLST32
 3008 085a 1B       		.uleb128 0x1b
 3009 085b 0D070000 		.4byte	.LASF93
 3010 085f 01       		.byte	0x1
 3011 0860 D404     		.2byte	0x4d4
 3012 0862 6B000000 		.4byte	0x6b
 3013 0866 B5050000 		.4byte	.LLST33
 3014 086a 1B       		.uleb128 0x1b
 3015 086b 79030000 		.4byte	.LASF74
 3016 086f 01       		.byte	0x1
 3017 0870 D504     		.2byte	0x4d5
 3018 0872 9C050000 		.4byte	0x59c
 3019 0876 E2050000 		.4byte	.LLST34
 3020 087a 1C       		.uleb128 0x1c
 3021 087b 14000000 		.4byte	.LVL121
 3022 087f 61050000 		.4byte	0x561
 3023 0883 00       		.byte	0
 3024 0884 1E       		.uleb128 0x1e
 3025 0885 8D070000 		.4byte	.LASF94
 3026 0889 01       		.byte	0x1
 3027 088a 54       		.byte	0x54
 3028 088b 6B000000 		.4byte	0x6b
 3029 088f 00000000 		.4byte	.LFB65
 3030 0893 18030000 		.4byte	.LFE65-.LFB65
 3031 0897 01       		.uleb128 0x1
 3032 0898 9C       		.byte	0x9c
 3033 0899 1F0A0000 		.4byte	0xa1f
 3034 089d 1F       		.uleb128 0x1f
 3035 089e 57060000 		.4byte	.LASF90
 3036 08a2 01       		.byte	0x1
 3037 08a3 56       		.byte	0x56
 3038 08a4 6B000000 		.4byte	0x6b
ARM GAS  C:\Users\LAIR\AppData\Local\Temp\cciUanLt.s 			page 80


 3039 08a8 00060000 		.4byte	.LLST35
 3040 08ac 1F       		.uleb128 0x1f
 3041 08ad 95060000 		.4byte	.LASF95
 3042 08b1 01       		.byte	0x1
 3043 08b2 57       		.byte	0x57
 3044 08b3 83000000 		.4byte	0x83
 3045 08b7 A6070000 		.4byte	.LLST36
 3046 08bb 1F       		.uleb128 0x1f
 3047 08bc 2E050000 		.4byte	.LASF96
 3048 08c0 01       		.byte	0x1
 3049 08c1 58       		.byte	0x58
 3050 08c2 83000000 		.4byte	0x83
 3051 08c6 B9070000 		.4byte	.LLST37
 3052 08ca 1F       		.uleb128 0x1f
 3053 08cb 22020000 		.4byte	.LASF97
 3054 08cf 01       		.byte	0x1
 3055 08d0 59       		.byte	0x59
 3056 08d1 83000000 		.4byte	0x83
 3057 08d5 D7070000 		.4byte	.LLST38
 3058 08d9 1F       		.uleb128 0x1f
 3059 08da 46050000 		.4byte	.LASF98
 3060 08de 01       		.byte	0x1
 3061 08df 5C       		.byte	0x5c
 3062 08e0 02020000 		.4byte	0x202
 3063 08e4 58080000 		.4byte	.LLST39
 3064 08e8 1F       		.uleb128 0x1f
 3065 08e9 BF060000 		.4byte	.LASF99
 3066 08ed 01       		.byte	0x1
 3067 08ee 5E       		.byte	0x5e
 3068 08ef 6B000000 		.4byte	0x6b
 3069 08f3 BC080000 		.4byte	.LLST40
 3070 08f7 1F       		.uleb128 0x1f
 3071 08f8 5E030000 		.4byte	.LASF100
 3072 08fc 01       		.byte	0x1
 3073 08fd 5F       		.byte	0x5f
 3074 08fe 6B000000 		.4byte	0x6b
 3075 0902 E5080000 		.4byte	.LLST41
 3076 0906 20       		.uleb128 0x20
 3077 0907 EF000000 		.4byte	.LASF101
 3078 090b 01       		.byte	0x1
 3079 090c 63       		.byte	0x63
 3080 090d 2F0A0000 		.4byte	0xa2f
 3081 0911 05       		.uleb128 0x5
 3082 0912 03       		.byte	0x3
 3083 0913 00000000 		.4byte	USBFS_tBuffer.5583
 3084 0917 1F       		.uleb128 0x1f
 3085 0918 79030000 		.4byte	.LASF74
 3086 091c 01       		.byte	0x1
 3087 091d 64       		.byte	0x64
 3088 091e 9C050000 		.4byte	0x59c
 3089 0922 F8080000 		.4byte	.LLST42
 3090 0926 1C       		.uleb128 0x1c
 3091 0927 3C000000 		.4byte	.LVL132
 3092 092b 3F060000 		.4byte	0x63f
 3093 092f 1C       		.uleb128 0x1c
 3094 0930 4A000000 		.4byte	.LVL133
 3095 0934 A20B0000 		.4byte	0xba2
ARM GAS  C:\Users\LAIR\AppData\Local\Temp\cciUanLt.s 			page 81


 3096 0938 1C       		.uleb128 0x1c
 3097 0939 5E000000 		.4byte	.LVL135
 3098 093d 61050000 		.4byte	0x561
 3099 0941 1C       		.uleb128 0x1c
 3100 0942 7C000000 		.4byte	.LVL136
 3101 0946 A20B0000 		.4byte	0xba2
 3102 094a 21       		.uleb128 0x21
 3103 094b CA000000 		.4byte	.LVL147
 3104 094f 7A040000 		.4byte	0x47a
 3105 0953 5E090000 		.4byte	0x95e
 3106 0957 18       		.uleb128 0x18
 3107 0958 01       		.uleb128 0x1
 3108 0959 50       		.byte	0x50
 3109 095a 02       		.uleb128 0x2
 3110 095b 74       		.byte	0x74
 3111 095c 00       		.sleb128 0
 3112 095d 00       		.byte	0
 3113 095e 1C       		.uleb128 0x1c
 3114 095f E0000000 		.4byte	.LVL149
 3115 0963 A20B0000 		.4byte	0xba2
 3116 0967 1C       		.uleb128 0x1c
 3117 0968 E6000000 		.4byte	.LVL151
 3118 096c AD0B0000 		.4byte	0xbad
 3119 0970 1C       		.uleb128 0x1c
 3120 0971 1C010000 		.4byte	.LVL154
 3121 0975 A20B0000 		.4byte	0xba2
 3122 0979 1C       		.uleb128 0x1c
 3123 097a 38010000 		.4byte	.LVL156
 3124 097e A20B0000 		.4byte	0xba2
 3125 0982 1C       		.uleb128 0x1c
 3126 0983 48010000 		.4byte	.LVL159
 3127 0987 A20B0000 		.4byte	0xba2
 3128 098b 1C       		.uleb128 0x1c
 3129 098c 5E010000 		.4byte	.LVL162
 3130 0990 A20B0000 		.4byte	0xba2
 3131 0994 1C       		.uleb128 0x1c
 3132 0995 80010000 		.4byte	.LVL165
 3133 0999 970B0000 		.4byte	0xb97
 3134 099d 21       		.uleb128 0x21
 3135 099e 92010000 		.4byte	.LVL169
 3136 09a2 61050000 		.4byte	0x561
 3137 09a6 B1090000 		.4byte	0x9b1
 3138 09aa 18       		.uleb128 0x18
 3139 09ab 01       		.uleb128 0x1
 3140 09ac 50       		.byte	0x50
 3141 09ad 02       		.uleb128 0x2
 3142 09ae 74       		.byte	0x74
 3143 09af 7F       		.sleb128 -1
 3144 09b0 00       		.byte	0
 3145 09b1 21       		.uleb128 0x21
 3146 09b2 BC010000 		.4byte	.LVL172
 3147 09b6 B4060000 		.4byte	0x6b4
 3148 09ba C4090000 		.4byte	0x9c4
 3149 09be 18       		.uleb128 0x18
 3150 09bf 01       		.uleb128 0x1
 3151 09c0 50       		.byte	0x50
 3152 09c1 01       		.uleb128 0x1
ARM GAS  C:\Users\LAIR\AppData\Local\Temp\cciUanLt.s 			page 82


 3153 09c2 31       		.byte	0x31
 3154 09c3 00       		.byte	0
 3155 09c4 1C       		.uleb128 0x1c
 3156 09c5 C0010000 		.4byte	.LVL173
 3157 09c9 970B0000 		.4byte	0xb97
 3158 09cd 1C       		.uleb128 0x1c
 3159 09ce C6010000 		.4byte	.LVL175
 3160 09d2 20080000 		.4byte	0x820
 3161 09d6 1C       		.uleb128 0x1c
 3162 09d7 EE010000 		.4byte	.LVL178
 3163 09db A7050000 		.4byte	0x5a7
 3164 09df 1C       		.uleb128 0x1c
 3165 09e0 F2010000 		.4byte	.LVL179
 3166 09e4 970B0000 		.4byte	0xb97
 3167 09e8 1C       		.uleb128 0x1c
 3168 09e9 10020000 		.4byte	.LVL182
 3169 09ed DD070000 		.4byte	0x7dd
 3170 09f1 1C       		.uleb128 0x1c
 3171 09f2 28020000 		.4byte	.LVL184
 3172 09f6 970B0000 		.4byte	0xb97
 3173 09fa 1C       		.uleb128 0x1c
 3174 09fb 44020000 		.4byte	.LVL186
 3175 09ff 970B0000 		.4byte	0xb97
 3176 0a03 1C       		.uleb128 0x1c
 3177 0a04 62020000 		.4byte	.LVL189
 3178 0a08 9A070000 		.4byte	0x79a
 3179 0a0c 1C       		.uleb128 0x1c
 3180 0a0d 7A020000 		.4byte	.LVL191
 3181 0a11 970B0000 		.4byte	0xb97
 3182 0a15 1C       		.uleb128 0x1c
 3183 0a16 96020000 		.4byte	.LVL193
 3184 0a1a 970B0000 		.4byte	0xb97
 3185 0a1e 00       		.byte	0
 3186 0a1f 0C       		.uleb128 0xc
 3187 0a20 6B000000 		.4byte	0x6b
 3188 0a24 2F0A0000 		.4byte	0xa2f
 3189 0a28 0D       		.uleb128 0xd
 3190 0a29 C6000000 		.4byte	0xc6
 3191 0a2d 01       		.byte	0x1
 3192 0a2e 00       		.byte	0
 3193 0a2f 05       		.uleb128 0x5
 3194 0a30 1F0A0000 		.4byte	0xa1f
 3195 0a34 22       		.uleb128 0x22
 3196 0a35 F6050000 		.4byte	.LASF102
 3197 0a39 03       		.byte	0x3
 3198 0a3a D302     		.2byte	0x2d3
 3199 0a3c B0000000 		.4byte	0xb0
 3200 0a40 22       		.uleb128 0x22
 3201 0a41 00020000 		.4byte	.LASF103
 3202 0a45 03       		.byte	0x3
 3203 0a46 D502     		.2byte	0x2d5
 3204 0a48 B0000000 		.4byte	0xb0
 3205 0a4c 22       		.uleb128 0x22
 3206 0a4d 18030000 		.4byte	.LASF104
 3207 0a51 03       		.byte	0x3
 3208 0a52 D602     		.2byte	0x2d6
 3209 0a54 B0000000 		.4byte	0xb0
ARM GAS  C:\Users\LAIR\AppData\Local\Temp\cciUanLt.s 			page 83


 3210 0a58 22       		.uleb128 0x22
 3211 0a59 A5060000 		.4byte	.LASF105
 3212 0a5d 03       		.byte	0x3
 3213 0a5e D702     		.2byte	0x2d7
 3214 0a60 B0000000 		.4byte	0xb0
 3215 0a64 0C       		.uleb128 0xc
 3216 0a65 6B000000 		.4byte	0x6b
 3217 0a69 740A0000 		.4byte	0xa74
 3218 0a6d 0D       		.uleb128 0xd
 3219 0a6e C6000000 		.4byte	0xc6
 3220 0a72 11       		.byte	0x11
 3221 0a73 00       		.byte	0
 3222 0a74 23       		.uleb128 0x23
 3223 0a75 E0040000 		.4byte	.LASF106
 3224 0a79 04       		.byte	0x4
 3225 0a7a 61       		.byte	0x61
 3226 0a7b 7F0A0000 		.4byte	0xa7f
 3227 0a7f 19       		.uleb128 0x19
 3228 0a80 640A0000 		.4byte	0xa64
 3229 0a84 0C       		.uleb128 0xc
 3230 0a85 3F020000 		.4byte	0x23f
 3231 0a89 940A0000 		.4byte	0xa94
 3232 0a8d 0D       		.uleb128 0xd
 3233 0a8e C6000000 		.4byte	0xc6
 3234 0a92 00       		.byte	0
 3235 0a93 00       		.byte	0
 3236 0a94 23       		.uleb128 0x23
 3237 0a95 96030000 		.4byte	.LASF107
 3238 0a99 04       		.byte	0x4
 3239 0a9a 67       		.byte	0x67
 3240 0a9b 9F0A0000 		.4byte	0xa9f
 3241 0a9f 19       		.uleb128 0x19
 3242 0aa0 840A0000 		.4byte	0xa84
 3243 0aa4 0C       		.uleb128 0xc
 3244 0aa5 6B000000 		.4byte	0x6b
 3245 0aa9 B40A0000 		.4byte	0xab4
 3246 0aad 0D       		.uleb128 0xd
 3247 0aae C6000000 		.4byte	0xc6
 3248 0ab2 58       		.byte	0x58
 3249 0ab3 00       		.byte	0
 3250 0ab4 23       		.uleb128 0x23
 3251 0ab5 FA040000 		.4byte	.LASF108
 3252 0ab9 04       		.byte	0x4
 3253 0aba 69       		.byte	0x69
 3254 0abb BF0A0000 		.4byte	0xabf
 3255 0abf 19       		.uleb128 0x19
 3256 0ac0 A40A0000 		.4byte	0xaa4
 3257 0ac4 23       		.uleb128 0x23
 3258 0ac5 0E060000 		.4byte	.LASF109
 3259 0ac9 04       		.byte	0x4
 3260 0aca 6C       		.byte	0x6c
 3261 0acb CF0A0000 		.4byte	0xacf
 3262 0acf 19       		.uleb128 0x19
 3263 0ad0 640A0000 		.4byte	0xa64
 3264 0ad4 0C       		.uleb128 0xc
 3265 0ad5 6B000000 		.4byte	0x6b
 3266 0ad9 E40A0000 		.4byte	0xae4
ARM GAS  C:\Users\LAIR\AppData\Local\Temp\cciUanLt.s 			page 84


 3267 0add 0D       		.uleb128 0xd
 3268 0ade C6000000 		.4byte	0xc6
 3269 0ae2 21       		.byte	0x21
 3270 0ae3 00       		.byte	0
 3271 0ae4 23       		.uleb128 0x23
 3272 0ae5 C4060000 		.4byte	.LASF110
 3273 0ae9 04       		.byte	0x4
 3274 0aea 6F       		.byte	0x6f
 3275 0aeb D40A0000 		.4byte	0xad4
 3276 0aef 23       		.uleb128 0x23
 3277 0af0 39010000 		.4byte	.LASF111
 3278 0af4 04       		.byte	0x4
 3279 0af5 72       		.byte	0x72
 3280 0af6 B0000000 		.4byte	0xb0
 3281 0afa 0C       		.uleb128 0xc
 3282 0afb 6B000000 		.4byte	0x6b
 3283 0aff 0A0B0000 		.4byte	0xb0a
 3284 0b03 0D       		.uleb128 0xd
 3285 0b04 C6000000 		.4byte	0xc6
 3286 0b08 00       		.byte	0
 3287 0b09 00       		.byte	0
 3288 0b0a 23       		.uleb128 0x23
 3289 0b0b AA050000 		.4byte	.LASF112
 3290 0b0f 04       		.byte	0x4
 3291 0b10 73       		.byte	0x73
 3292 0b11 150B0000 		.4byte	0xb15
 3293 0b15 05       		.uleb128 0x5
 3294 0b16 FA0A0000 		.4byte	0xafa
 3295 0b1a 23       		.uleb128 0x23
 3296 0b1b 72070000 		.4byte	.LASF113
 3297 0b1f 04       		.byte	0x4
 3298 0b20 74       		.byte	0x74
 3299 0b21 250B0000 		.4byte	0xb25
 3300 0b25 05       		.uleb128 0x5
 3301 0b26 FA0A0000 		.4byte	0xafa
 3302 0b2a 23       		.uleb128 0x23
 3303 0b2b 0D010000 		.4byte	.LASF114
 3304 0b2f 04       		.byte	0x4
 3305 0b30 75       		.byte	0x75
 3306 0b31 B0000000 		.4byte	0xb0
 3307 0b35 23       		.uleb128 0x23
 3308 0b36 40070000 		.4byte	.LASF115
 3309 0b3a 04       		.byte	0x4
 3310 0b3b 76       		.byte	0x76
 3311 0b3c 400B0000 		.4byte	0xb40
 3312 0b40 05       		.uleb128 0x5
 3313 0b41 FA0A0000 		.4byte	0xafa
 3314 0b45 23       		.uleb128 0x23
 3315 0b46 39030000 		.4byte	.LASF116
 3316 0b4a 04       		.byte	0x4
 3317 0b4b 77       		.byte	0x77
 3318 0b4c A9060000 		.4byte	0x6a9
 3319 0b50 0C       		.uleb128 0xc
 3320 0b51 42010000 		.4byte	0x142
 3321 0b55 600B0000 		.4byte	0xb60
 3322 0b59 0D       		.uleb128 0xd
 3323 0b5a C6000000 		.4byte	0xc6
ARM GAS  C:\Users\LAIR\AppData\Local\Temp\cciUanLt.s 			page 85


 3324 0b5e 08       		.byte	0x8
 3325 0b5f 00       		.byte	0
 3326 0b60 23       		.uleb128 0x23
 3327 0b61 3D050000 		.4byte	.LASF117
 3328 0b65 04       		.byte	0x4
 3329 0b66 79       		.byte	0x79
 3330 0b67 6B0B0000 		.4byte	0xb6b
 3331 0b6b 05       		.uleb128 0x5
 3332 0b6c 500B0000 		.4byte	0xb50
 3333 0b70 23       		.uleb128 0x23
 3334 0b71 41000000 		.4byte	.LASF118
 3335 0b75 04       		.byte	0x4
 3336 0b76 7A       		.byte	0x7a
 3337 0b77 7B0B0000 		.4byte	0xb7b
 3338 0b7b 05       		.uleb128 0x5
 3339 0b7c 0E020000 		.4byte	0x20e
 3340 0b80 24       		.uleb128 0x24
 3341 0b81 39020000 		.4byte	.LASF126
 3342 0b85 05       		.byte	0x5
 3343 0b86 E7       		.byte	0xe7
 3344 0b87 910B0000 		.4byte	0xb91
 3345 0b8b 25       		.uleb128 0x25
 3346 0b8c 910B0000 		.4byte	0xb91
 3347 0b90 00       		.byte	0
 3348 0b91 09       		.uleb128 0x9
 3349 0b92 04       		.byte	0x4
 3350 0b93 83000000 		.4byte	0x83
 3351 0b97 26       		.uleb128 0x26
 3352 0b98 D6050000 		.4byte	.LASF119
 3353 0b9c 04       		.byte	0x4
 3354 0b9d B3       		.byte	0xb3
 3355 0b9e 6B000000 		.4byte	0x6b
 3356 0ba2 26       		.uleb128 0x26
 3357 0ba3 51000000 		.4byte	.LASF120
 3358 0ba7 04       		.byte	0x4
 3359 0ba8 A9       		.byte	0xa9
 3360 0ba9 6B000000 		.4byte	0x6b
 3361 0bad 27       		.uleb128 0x27
 3362 0bae F0060000 		.4byte	.LASF121
 3363 0bb2 04       		.byte	0x4
 3364 0bb3 4E01     		.2byte	0x14e
 3365 0bb5 6B000000 		.4byte	0x6b
 3366 0bb9 00       		.byte	0
 3367              		.section	.debug_abbrev,"",%progbits
 3368              	.Ldebug_abbrev0:
 3369 0000 01       		.uleb128 0x1
 3370 0001 11       		.uleb128 0x11
 3371 0002 01       		.byte	0x1
 3372 0003 25       		.uleb128 0x25
 3373 0004 0E       		.uleb128 0xe
 3374 0005 13       		.uleb128 0x13
 3375 0006 0B       		.uleb128 0xb
 3376 0007 03       		.uleb128 0x3
 3377 0008 0E       		.uleb128 0xe
 3378 0009 1B       		.uleb128 0x1b
 3379 000a 0E       		.uleb128 0xe
 3380 000b 55       		.uleb128 0x55
ARM GAS  C:\Users\LAIR\AppData\Local\Temp\cciUanLt.s 			page 86


 3381 000c 17       		.uleb128 0x17
 3382 000d 11       		.uleb128 0x11
 3383 000e 01       		.uleb128 0x1
 3384 000f 10       		.uleb128 0x10
 3385 0010 17       		.uleb128 0x17
 3386 0011 00       		.byte	0
 3387 0012 00       		.byte	0
 3388 0013 02       		.uleb128 0x2
 3389 0014 24       		.uleb128 0x24
 3390 0015 00       		.byte	0
 3391 0016 0B       		.uleb128 0xb
 3392 0017 0B       		.uleb128 0xb
 3393 0018 3E       		.uleb128 0x3e
 3394 0019 0B       		.uleb128 0xb
 3395 001a 03       		.uleb128 0x3
 3396 001b 0E       		.uleb128 0xe
 3397 001c 00       		.byte	0
 3398 001d 00       		.byte	0
 3399 001e 03       		.uleb128 0x3
 3400 001f 24       		.uleb128 0x24
 3401 0020 00       		.byte	0
 3402 0021 0B       		.uleb128 0xb
 3403 0022 0B       		.uleb128 0xb
 3404 0023 3E       		.uleb128 0x3e
 3405 0024 0B       		.uleb128 0xb
 3406 0025 03       		.uleb128 0x3
 3407 0026 08       		.uleb128 0x8
 3408 0027 00       		.byte	0
 3409 0028 00       		.byte	0
 3410 0029 04       		.uleb128 0x4
 3411 002a 16       		.uleb128 0x16
 3412 002b 00       		.byte	0
 3413 002c 03       		.uleb128 0x3
 3414 002d 0E       		.uleb128 0xe
 3415 002e 3A       		.uleb128 0x3a
 3416 002f 0B       		.uleb128 0xb
 3417 0030 3B       		.uleb128 0x3b
 3418 0031 05       		.uleb128 0x5
 3419 0032 49       		.uleb128 0x49
 3420 0033 13       		.uleb128 0x13
 3421 0034 00       		.byte	0
 3422 0035 00       		.byte	0
 3423 0036 05       		.uleb128 0x5
 3424 0037 35       		.uleb128 0x35
 3425 0038 00       		.byte	0
 3426 0039 49       		.uleb128 0x49
 3427 003a 13       		.uleb128 0x13
 3428 003b 00       		.byte	0
 3429 003c 00       		.byte	0
 3430 003d 06       		.uleb128 0x6
 3431 003e 13       		.uleb128 0x13
 3432 003f 01       		.byte	0x1
 3433 0040 0B       		.uleb128 0xb
 3434 0041 0B       		.uleb128 0xb
 3435 0042 3A       		.uleb128 0x3a
 3436 0043 0B       		.uleb128 0xb
 3437 0044 3B       		.uleb128 0x3b
ARM GAS  C:\Users\LAIR\AppData\Local\Temp\cciUanLt.s 			page 87


 3438 0045 0B       		.uleb128 0xb
 3439 0046 01       		.uleb128 0x1
 3440 0047 13       		.uleb128 0x13
 3441 0048 00       		.byte	0
 3442 0049 00       		.byte	0
 3443 004a 07       		.uleb128 0x7
 3444 004b 0D       		.uleb128 0xd
 3445 004c 00       		.byte	0
 3446 004d 03       		.uleb128 0x3
 3447 004e 0E       		.uleb128 0xe
 3448 004f 3A       		.uleb128 0x3a
 3449 0050 0B       		.uleb128 0xb
 3450 0051 3B       		.uleb128 0x3b
 3451 0052 0B       		.uleb128 0xb
 3452 0053 49       		.uleb128 0x49
 3453 0054 13       		.uleb128 0x13
 3454 0055 38       		.uleb128 0x38
 3455 0056 0B       		.uleb128 0xb
 3456 0057 00       		.byte	0
 3457 0058 00       		.byte	0
 3458 0059 08       		.uleb128 0x8
 3459 005a 16       		.uleb128 0x16
 3460 005b 00       		.byte	0
 3461 005c 03       		.uleb128 0x3
 3462 005d 0E       		.uleb128 0xe
 3463 005e 3A       		.uleb128 0x3a
 3464 005f 0B       		.uleb128 0xb
 3465 0060 3B       		.uleb128 0x3b
 3466 0061 0B       		.uleb128 0xb
 3467 0062 49       		.uleb128 0x49
 3468 0063 13       		.uleb128 0x13
 3469 0064 00       		.byte	0
 3470 0065 00       		.byte	0
 3471 0066 09       		.uleb128 0x9
 3472 0067 0F       		.uleb128 0xf
 3473 0068 00       		.byte	0
 3474 0069 0B       		.uleb128 0xb
 3475 006a 0B       		.uleb128 0xb
 3476 006b 49       		.uleb128 0x49
 3477 006c 13       		.uleb128 0x13
 3478 006d 00       		.byte	0
 3479 006e 00       		.byte	0
 3480 006f 0A       		.uleb128 0xa
 3481 0070 0D       		.uleb128 0xd
 3482 0071 00       		.byte	0
 3483 0072 03       		.uleb128 0x3
 3484 0073 08       		.uleb128 0x8
 3485 0074 3A       		.uleb128 0x3a
 3486 0075 0B       		.uleb128 0xb
 3487 0076 3B       		.uleb128 0x3b
 3488 0077 0B       		.uleb128 0xb
 3489 0078 49       		.uleb128 0x49
 3490 0079 13       		.uleb128 0x13
 3491 007a 38       		.uleb128 0x38
 3492 007b 0B       		.uleb128 0xb
 3493 007c 00       		.byte	0
 3494 007d 00       		.byte	0
ARM GAS  C:\Users\LAIR\AppData\Local\Temp\cciUanLt.s 			page 88


 3495 007e 0B       		.uleb128 0xb
 3496 007f 26       		.uleb128 0x26
 3497 0080 00       		.byte	0
 3498 0081 00       		.byte	0
 3499 0082 00       		.byte	0
 3500 0083 0C       		.uleb128 0xc
 3501 0084 01       		.uleb128 0x1
 3502 0085 01       		.byte	0x1
 3503 0086 49       		.uleb128 0x49
 3504 0087 13       		.uleb128 0x13
 3505 0088 01       		.uleb128 0x1
 3506 0089 13       		.uleb128 0x13
 3507 008a 00       		.byte	0
 3508 008b 00       		.byte	0
 3509 008c 0D       		.uleb128 0xd
 3510 008d 21       		.uleb128 0x21
 3511 008e 00       		.byte	0
 3512 008f 49       		.uleb128 0x49
 3513 0090 13       		.uleb128 0x13
 3514 0091 2F       		.uleb128 0x2f
 3515 0092 0B       		.uleb128 0xb
 3516 0093 00       		.byte	0
 3517 0094 00       		.byte	0
 3518 0095 0E       		.uleb128 0xe
 3519 0096 13       		.uleb128 0x13
 3520 0097 01       		.byte	0x1
 3521 0098 0B       		.uleb128 0xb
 3522 0099 0B       		.uleb128 0xb
 3523 009a 3A       		.uleb128 0x3a
 3524 009b 0B       		.uleb128 0xb
 3525 009c 3B       		.uleb128 0x3b
 3526 009d 05       		.uleb128 0x5
 3527 009e 01       		.uleb128 0x1
 3528 009f 13       		.uleb128 0x13
 3529 00a0 00       		.byte	0
 3530 00a1 00       		.byte	0
 3531 00a2 0F       		.uleb128 0xf
 3532 00a3 0D       		.uleb128 0xd
 3533 00a4 00       		.byte	0
 3534 00a5 03       		.uleb128 0x3
 3535 00a6 0E       		.uleb128 0xe
 3536 00a7 3A       		.uleb128 0x3a
 3537 00a8 0B       		.uleb128 0xb
 3538 00a9 3B       		.uleb128 0x3b
 3539 00aa 05       		.uleb128 0x5
 3540 00ab 49       		.uleb128 0x49
 3541 00ac 13       		.uleb128 0x13
 3542 00ad 38       		.uleb128 0x38
 3543 00ae 0B       		.uleb128 0xb
 3544 00af 00       		.byte	0
 3545 00b0 00       		.byte	0
 3546 00b1 10       		.uleb128 0x10
 3547 00b2 0D       		.uleb128 0xd
 3548 00b3 00       		.byte	0
 3549 00b4 03       		.uleb128 0x3
 3550 00b5 08       		.uleb128 0x8
 3551 00b6 3A       		.uleb128 0x3a
ARM GAS  C:\Users\LAIR\AppData\Local\Temp\cciUanLt.s 			page 89


 3552 00b7 0B       		.uleb128 0xb
 3553 00b8 3B       		.uleb128 0x3b
 3554 00b9 05       		.uleb128 0x5
 3555 00ba 49       		.uleb128 0x49
 3556 00bb 13       		.uleb128 0x13
 3557 00bc 38       		.uleb128 0x38
 3558 00bd 0B       		.uleb128 0xb
 3559 00be 00       		.byte	0
 3560 00bf 00       		.byte	0
 3561 00c0 11       		.uleb128 0x11
 3562 00c1 13       		.uleb128 0x13
 3563 00c2 01       		.byte	0x1
 3564 00c3 0B       		.uleb128 0xb
 3565 00c4 05       		.uleb128 0x5
 3566 00c5 3A       		.uleb128 0x3a
 3567 00c6 0B       		.uleb128 0xb
 3568 00c7 3B       		.uleb128 0x3b
 3569 00c8 05       		.uleb128 0x5
 3570 00c9 01       		.uleb128 0x1
 3571 00ca 13       		.uleb128 0x13
 3572 00cb 00       		.byte	0
 3573 00cc 00       		.byte	0
 3574 00cd 12       		.uleb128 0x12
 3575 00ce 2E       		.uleb128 0x2e
 3576 00cf 01       		.byte	0x1
 3577 00d0 3F       		.uleb128 0x3f
 3578 00d1 19       		.uleb128 0x19
 3579 00d2 03       		.uleb128 0x3
 3580 00d3 0E       		.uleb128 0xe
 3581 00d4 3A       		.uleb128 0x3a
 3582 00d5 0B       		.uleb128 0xb
 3583 00d6 3B       		.uleb128 0x3b
 3584 00d7 05       		.uleb128 0x5
 3585 00d8 27       		.uleb128 0x27
 3586 00d9 19       		.uleb128 0x19
 3587 00da 11       		.uleb128 0x11
 3588 00db 01       		.uleb128 0x1
 3589 00dc 12       		.uleb128 0x12
 3590 00dd 06       		.uleb128 0x6
 3591 00de 40       		.uleb128 0x40
 3592 00df 18       		.uleb128 0x18
 3593 00e0 9742     		.uleb128 0x2117
 3594 00e2 19       		.uleb128 0x19
 3595 00e3 01       		.uleb128 0x1
 3596 00e4 13       		.uleb128 0x13
 3597 00e5 00       		.byte	0
 3598 00e6 00       		.byte	0
 3599 00e7 13       		.uleb128 0x13
 3600 00e8 05       		.uleb128 0x5
 3601 00e9 00       		.byte	0
 3602 00ea 03       		.uleb128 0x3
 3603 00eb 0E       		.uleb128 0xe
 3604 00ec 3A       		.uleb128 0x3a
 3605 00ed 0B       		.uleb128 0xb
 3606 00ee 3B       		.uleb128 0x3b
 3607 00ef 05       		.uleb128 0x5
 3608 00f0 49       		.uleb128 0x49
ARM GAS  C:\Users\LAIR\AppData\Local\Temp\cciUanLt.s 			page 90


 3609 00f1 13       		.uleb128 0x13
 3610 00f2 02       		.uleb128 0x2
 3611 00f3 17       		.uleb128 0x17
 3612 00f4 00       		.byte	0
 3613 00f5 00       		.byte	0
 3614 00f6 14       		.uleb128 0x14
 3615 00f7 34       		.uleb128 0x34
 3616 00f8 00       		.byte	0
 3617 00f9 03       		.uleb128 0x3
 3618 00fa 08       		.uleb128 0x8
 3619 00fb 3A       		.uleb128 0x3a
 3620 00fc 0B       		.uleb128 0xb
 3621 00fd 3B       		.uleb128 0x3b
 3622 00fe 05       		.uleb128 0x5
 3623 00ff 49       		.uleb128 0x49
 3624 0100 13       		.uleb128 0x13
 3625 0101 02       		.uleb128 0x2
 3626 0102 18       		.uleb128 0x18
 3627 0103 00       		.byte	0
 3628 0104 00       		.byte	0
 3629 0105 15       		.uleb128 0x15
 3630 0106 34       		.uleb128 0x34
 3631 0107 00       		.byte	0
 3632 0108 03       		.uleb128 0x3
 3633 0109 08       		.uleb128 0x8
 3634 010a 3A       		.uleb128 0x3a
 3635 010b 0B       		.uleb128 0xb
 3636 010c 3B       		.uleb128 0x3b
 3637 010d 05       		.uleb128 0x5
 3638 010e 49       		.uleb128 0x49
 3639 010f 13       		.uleb128 0x13
 3640 0110 02       		.uleb128 0x2
 3641 0111 17       		.uleb128 0x17
 3642 0112 00       		.byte	0
 3643 0113 00       		.byte	0
 3644 0114 16       		.uleb128 0x16
 3645 0115 34       		.uleb128 0x34
 3646 0116 00       		.byte	0
 3647 0117 03       		.uleb128 0x3
 3648 0118 0E       		.uleb128 0xe
 3649 0119 3A       		.uleb128 0x3a
 3650 011a 0B       		.uleb128 0xb
 3651 011b 3B       		.uleb128 0x3b
 3652 011c 05       		.uleb128 0x5
 3653 011d 49       		.uleb128 0x49
 3654 011e 13       		.uleb128 0x13
 3655 011f 02       		.uleb128 0x2
 3656 0120 18       		.uleb128 0x18
 3657 0121 00       		.byte	0
 3658 0122 00       		.byte	0
 3659 0123 17       		.uleb128 0x17
 3660 0124 898201   		.uleb128 0x4109
 3661 0127 01       		.byte	0x1
 3662 0128 11       		.uleb128 0x11
 3663 0129 01       		.uleb128 0x1
 3664 012a 31       		.uleb128 0x31
 3665 012b 13       		.uleb128 0x13
ARM GAS  C:\Users\LAIR\AppData\Local\Temp\cciUanLt.s 			page 91


 3666 012c 00       		.byte	0
 3667 012d 00       		.byte	0
 3668 012e 18       		.uleb128 0x18
 3669 012f 8A8201   		.uleb128 0x410a
 3670 0132 00       		.byte	0
 3671 0133 02       		.uleb128 0x2
 3672 0134 18       		.uleb128 0x18
 3673 0135 9142     		.uleb128 0x2111
 3674 0137 18       		.uleb128 0x18
 3675 0138 00       		.byte	0
 3676 0139 00       		.byte	0
 3677 013a 19       		.uleb128 0x19
 3678 013b 26       		.uleb128 0x26
 3679 013c 00       		.byte	0
 3680 013d 49       		.uleb128 0x49
 3681 013e 13       		.uleb128 0x13
 3682 013f 00       		.byte	0
 3683 0140 00       		.byte	0
 3684 0141 1A       		.uleb128 0x1a
 3685 0142 2E       		.uleb128 0x2e
 3686 0143 01       		.byte	0x1
 3687 0144 3F       		.uleb128 0x3f
 3688 0145 19       		.uleb128 0x19
 3689 0146 03       		.uleb128 0x3
 3690 0147 0E       		.uleb128 0xe
 3691 0148 3A       		.uleb128 0x3a
 3692 0149 0B       		.uleb128 0xb
 3693 014a 3B       		.uleb128 0x3b
 3694 014b 05       		.uleb128 0x5
 3695 014c 27       		.uleb128 0x27
 3696 014d 19       		.uleb128 0x19
 3697 014e 49       		.uleb128 0x49
 3698 014f 13       		.uleb128 0x13
 3699 0150 11       		.uleb128 0x11
 3700 0151 01       		.uleb128 0x1
 3701 0152 12       		.uleb128 0x12
 3702 0153 06       		.uleb128 0x6
 3703 0154 40       		.uleb128 0x40
 3704 0155 18       		.uleb128 0x18
 3705 0156 9742     		.uleb128 0x2117
 3706 0158 19       		.uleb128 0x19
 3707 0159 01       		.uleb128 0x1
 3708 015a 13       		.uleb128 0x13
 3709 015b 00       		.byte	0
 3710 015c 00       		.byte	0
 3711 015d 1B       		.uleb128 0x1b
 3712 015e 34       		.uleb128 0x34
 3713 015f 00       		.byte	0
 3714 0160 03       		.uleb128 0x3
 3715 0161 0E       		.uleb128 0xe
 3716 0162 3A       		.uleb128 0x3a
 3717 0163 0B       		.uleb128 0xb
 3718 0164 3B       		.uleb128 0x3b
 3719 0165 05       		.uleb128 0x5
 3720 0166 49       		.uleb128 0x49
 3721 0167 13       		.uleb128 0x13
 3722 0168 02       		.uleb128 0x2
ARM GAS  C:\Users\LAIR\AppData\Local\Temp\cciUanLt.s 			page 92


 3723 0169 17       		.uleb128 0x17
 3724 016a 00       		.byte	0
 3725 016b 00       		.byte	0
 3726 016c 1C       		.uleb128 0x1c
 3727 016d 898201   		.uleb128 0x4109
 3728 0170 00       		.byte	0
 3729 0171 11       		.uleb128 0x11
 3730 0172 01       		.uleb128 0x1
 3731 0173 31       		.uleb128 0x31
 3732 0174 13       		.uleb128 0x13
 3733 0175 00       		.byte	0
 3734 0176 00       		.byte	0
 3735 0177 1D       		.uleb128 0x1d
 3736 0178 2E       		.uleb128 0x2e
 3737 0179 00       		.byte	0
 3738 017a 3F       		.uleb128 0x3f
 3739 017b 19       		.uleb128 0x19
 3740 017c 03       		.uleb128 0x3
 3741 017d 0E       		.uleb128 0xe
 3742 017e 3A       		.uleb128 0x3a
 3743 017f 0B       		.uleb128 0xb
 3744 0180 3B       		.uleb128 0x3b
 3745 0181 05       		.uleb128 0x5
 3746 0182 27       		.uleb128 0x27
 3747 0183 19       		.uleb128 0x19
 3748 0184 49       		.uleb128 0x49
 3749 0185 13       		.uleb128 0x13
 3750 0186 11       		.uleb128 0x11
 3751 0187 01       		.uleb128 0x1
 3752 0188 12       		.uleb128 0x12
 3753 0189 06       		.uleb128 0x6
 3754 018a 40       		.uleb128 0x40
 3755 018b 18       		.uleb128 0x18
 3756 018c 9742     		.uleb128 0x2117
 3757 018e 19       		.uleb128 0x19
 3758 018f 00       		.byte	0
 3759 0190 00       		.byte	0
 3760 0191 1E       		.uleb128 0x1e
 3761 0192 2E       		.uleb128 0x2e
 3762 0193 01       		.byte	0x1
 3763 0194 3F       		.uleb128 0x3f
 3764 0195 19       		.uleb128 0x19
 3765 0196 03       		.uleb128 0x3
 3766 0197 0E       		.uleb128 0xe
 3767 0198 3A       		.uleb128 0x3a
 3768 0199 0B       		.uleb128 0xb
 3769 019a 3B       		.uleb128 0x3b
 3770 019b 0B       		.uleb128 0xb
 3771 019c 27       		.uleb128 0x27
 3772 019d 19       		.uleb128 0x19
 3773 019e 49       		.uleb128 0x49
 3774 019f 13       		.uleb128 0x13
 3775 01a0 11       		.uleb128 0x11
 3776 01a1 01       		.uleb128 0x1
 3777 01a2 12       		.uleb128 0x12
 3778 01a3 06       		.uleb128 0x6
 3779 01a4 40       		.uleb128 0x40
ARM GAS  C:\Users\LAIR\AppData\Local\Temp\cciUanLt.s 			page 93


 3780 01a5 18       		.uleb128 0x18
 3781 01a6 9742     		.uleb128 0x2117
 3782 01a8 19       		.uleb128 0x19
 3783 01a9 01       		.uleb128 0x1
 3784 01aa 13       		.uleb128 0x13
 3785 01ab 00       		.byte	0
 3786 01ac 00       		.byte	0
 3787 01ad 1F       		.uleb128 0x1f
 3788 01ae 34       		.uleb128 0x34
 3789 01af 00       		.byte	0
 3790 01b0 03       		.uleb128 0x3
 3791 01b1 0E       		.uleb128 0xe
 3792 01b2 3A       		.uleb128 0x3a
 3793 01b3 0B       		.uleb128 0xb
 3794 01b4 3B       		.uleb128 0x3b
 3795 01b5 0B       		.uleb128 0xb
 3796 01b6 49       		.uleb128 0x49
 3797 01b7 13       		.uleb128 0x13
 3798 01b8 02       		.uleb128 0x2
 3799 01b9 17       		.uleb128 0x17
 3800 01ba 00       		.byte	0
 3801 01bb 00       		.byte	0
 3802 01bc 20       		.uleb128 0x20
 3803 01bd 34       		.uleb128 0x34
 3804 01be 00       		.byte	0
 3805 01bf 03       		.uleb128 0x3
 3806 01c0 0E       		.uleb128 0xe
 3807 01c1 3A       		.uleb128 0x3a
 3808 01c2 0B       		.uleb128 0xb
 3809 01c3 3B       		.uleb128 0x3b
 3810 01c4 0B       		.uleb128 0xb
 3811 01c5 49       		.uleb128 0x49
 3812 01c6 13       		.uleb128 0x13
 3813 01c7 02       		.uleb128 0x2
 3814 01c8 18       		.uleb128 0x18
 3815 01c9 00       		.byte	0
 3816 01ca 00       		.byte	0
 3817 01cb 21       		.uleb128 0x21
 3818 01cc 898201   		.uleb128 0x4109
 3819 01cf 01       		.byte	0x1
 3820 01d0 11       		.uleb128 0x11
 3821 01d1 01       		.uleb128 0x1
 3822 01d2 31       		.uleb128 0x31
 3823 01d3 13       		.uleb128 0x13
 3824 01d4 01       		.uleb128 0x1
 3825 01d5 13       		.uleb128 0x13
 3826 01d6 00       		.byte	0
 3827 01d7 00       		.byte	0
 3828 01d8 22       		.uleb128 0x22
 3829 01d9 34       		.uleb128 0x34
 3830 01da 00       		.byte	0
 3831 01db 03       		.uleb128 0x3
 3832 01dc 0E       		.uleb128 0xe
 3833 01dd 3A       		.uleb128 0x3a
 3834 01de 0B       		.uleb128 0xb
 3835 01df 3B       		.uleb128 0x3b
 3836 01e0 05       		.uleb128 0x5
ARM GAS  C:\Users\LAIR\AppData\Local\Temp\cciUanLt.s 			page 94


 3837 01e1 49       		.uleb128 0x49
 3838 01e2 13       		.uleb128 0x13
 3839 01e3 3F       		.uleb128 0x3f
 3840 01e4 19       		.uleb128 0x19
 3841 01e5 3C       		.uleb128 0x3c
 3842 01e6 19       		.uleb128 0x19
 3843 01e7 00       		.byte	0
 3844 01e8 00       		.byte	0
 3845 01e9 23       		.uleb128 0x23
 3846 01ea 34       		.uleb128 0x34
 3847 01eb 00       		.byte	0
 3848 01ec 03       		.uleb128 0x3
 3849 01ed 0E       		.uleb128 0xe
 3850 01ee 3A       		.uleb128 0x3a
 3851 01ef 0B       		.uleb128 0xb
 3852 01f0 3B       		.uleb128 0x3b
 3853 01f1 0B       		.uleb128 0xb
 3854 01f2 49       		.uleb128 0x49
 3855 01f3 13       		.uleb128 0x13
 3856 01f4 3F       		.uleb128 0x3f
 3857 01f5 19       		.uleb128 0x19
 3858 01f6 3C       		.uleb128 0x3c
 3859 01f7 19       		.uleb128 0x19
 3860 01f8 00       		.byte	0
 3861 01f9 00       		.byte	0
 3862 01fa 24       		.uleb128 0x24
 3863 01fb 2E       		.uleb128 0x2e
 3864 01fc 01       		.byte	0x1
 3865 01fd 3F       		.uleb128 0x3f
 3866 01fe 19       		.uleb128 0x19
 3867 01ff 03       		.uleb128 0x3
 3868 0200 0E       		.uleb128 0xe
 3869 0201 3A       		.uleb128 0x3a
 3870 0202 0B       		.uleb128 0xb
 3871 0203 3B       		.uleb128 0x3b
 3872 0204 0B       		.uleb128 0xb
 3873 0205 27       		.uleb128 0x27
 3874 0206 19       		.uleb128 0x19
 3875 0207 3C       		.uleb128 0x3c
 3876 0208 19       		.uleb128 0x19
 3877 0209 01       		.uleb128 0x1
 3878 020a 13       		.uleb128 0x13
 3879 020b 00       		.byte	0
 3880 020c 00       		.byte	0
 3881 020d 25       		.uleb128 0x25
 3882 020e 05       		.uleb128 0x5
 3883 020f 00       		.byte	0
 3884 0210 49       		.uleb128 0x49
 3885 0211 13       		.uleb128 0x13
 3886 0212 00       		.byte	0
 3887 0213 00       		.byte	0
 3888 0214 26       		.uleb128 0x26
 3889 0215 2E       		.uleb128 0x2e
 3890 0216 00       		.byte	0
 3891 0217 3F       		.uleb128 0x3f
 3892 0218 19       		.uleb128 0x19
 3893 0219 03       		.uleb128 0x3
ARM GAS  C:\Users\LAIR\AppData\Local\Temp\cciUanLt.s 			page 95


 3894 021a 0E       		.uleb128 0xe
 3895 021b 3A       		.uleb128 0x3a
 3896 021c 0B       		.uleb128 0xb
 3897 021d 3B       		.uleb128 0x3b
 3898 021e 0B       		.uleb128 0xb
 3899 021f 27       		.uleb128 0x27
 3900 0220 19       		.uleb128 0x19
 3901 0221 49       		.uleb128 0x49
 3902 0222 13       		.uleb128 0x13
 3903 0223 3C       		.uleb128 0x3c
 3904 0224 19       		.uleb128 0x19
 3905 0225 00       		.byte	0
 3906 0226 00       		.byte	0
 3907 0227 27       		.uleb128 0x27
 3908 0228 2E       		.uleb128 0x2e
 3909 0229 00       		.byte	0
 3910 022a 3F       		.uleb128 0x3f
 3911 022b 19       		.uleb128 0x19
 3912 022c 03       		.uleb128 0x3
 3913 022d 0E       		.uleb128 0xe
 3914 022e 3A       		.uleb128 0x3a
 3915 022f 0B       		.uleb128 0xb
 3916 0230 3B       		.uleb128 0x3b
 3917 0231 05       		.uleb128 0x5
 3918 0232 27       		.uleb128 0x27
 3919 0233 19       		.uleb128 0x19
 3920 0234 49       		.uleb128 0x49
 3921 0235 13       		.uleb128 0x13
 3922 0236 3C       		.uleb128 0x3c
 3923 0237 19       		.uleb128 0x19
 3924 0238 00       		.byte	0
 3925 0239 00       		.byte	0
 3926 023a 00       		.byte	0
 3927              		.section	.debug_loc,"",%progbits
 3928              	.Ldebug_loc0:
 3929              	.LLST0:
 3930 0000 00000000 		.4byte	.LVL0
 3931 0004 26000000 		.4byte	.LVL2
 3932 0008 0100     		.2byte	0x1
 3933 000a 50       		.byte	0x50
 3934 000b 26000000 		.4byte	.LVL2
 3935 000f 5C000000 		.4byte	.LVL7
 3936 0013 0100     		.2byte	0x1
 3937 0015 54       		.byte	0x54
 3938 0016 5C000000 		.4byte	.LVL7
 3939 001a 64000000 		.4byte	.LFE66
 3940 001e 0400     		.2byte	0x4
 3941 0020 F3       		.byte	0xf3
 3942 0021 01       		.uleb128 0x1
 3943 0022 50       		.byte	0x50
 3944 0023 9F       		.byte	0x9f
 3945 0024 00000000 		.4byte	0
 3946 0028 00000000 		.4byte	0
 3947              	.LLST1:
 3948 002c 2A000000 		.4byte	.LVL3
 3949 0030 30000000 		.4byte	.LVL4
 3950 0034 0200     		.2byte	0x2
ARM GAS  C:\Users\LAIR\AppData\Local\Temp\cciUanLt.s 			page 96


 3951 0036 32       		.byte	0x32
 3952 0037 9F       		.byte	0x9f
 3953 0038 30000000 		.4byte	.LVL4
 3954 003c 5C000000 		.4byte	.LVL7
 3955 0040 0100     		.2byte	0x1
 3956 0042 53       		.byte	0x53
 3957 0043 00000000 		.4byte	0
 3958 0047 00000000 		.4byte	0
 3959              	.LLST2:
 3960 004b 16000000 		.4byte	.LVL1
 3961 004f 30000000 		.4byte	.LVL4
 3962 0053 0200     		.2byte	0x2
 3963 0055 30       		.byte	0x30
 3964 0056 9F       		.byte	0x9f
 3965 0057 30000000 		.4byte	.LVL4
 3966 005b 5C000000 		.4byte	.LVL7
 3967 005f 0100     		.2byte	0x1
 3968 0061 50       		.byte	0x50
 3969 0062 00000000 		.4byte	0
 3970 0066 00000000 		.4byte	0
 3971              	.LLST3:
 3972 006a 02000000 		.4byte	.LVL8
 3973 006e 06000000 		.4byte	.LVL9
 3974 0072 0200     		.2byte	0x2
 3975 0074 31       		.byte	0x31
 3976 0075 9F       		.byte	0x9f
 3977 0076 06000000 		.4byte	.LVL9
 3978 007a 86000000 		.4byte	.LVL11
 3979 007e 0100     		.2byte	0x1
 3980 0080 53       		.byte	0x53
 3981 0081 00000000 		.4byte	0
 3982 0085 00000000 		.4byte	0
 3983              	.LLST4:
 3984 0089 00000000 		.4byte	.LVL12
 3985 008d 04000000 		.4byte	.LVL13
 3986 0091 0200     		.2byte	0x2
 3987 0093 31       		.byte	0x31
 3988 0094 9F       		.byte	0x9f
 3989 0095 04000000 		.4byte	.LVL13
 3990 0099 34000000 		.4byte	.LVL14
 3991 009d 0100     		.2byte	0x1
 3992 009f 53       		.byte	0x53
 3993 00a0 36000000 		.4byte	.LVL15
 3994 00a4 40000000 		.4byte	.LFE68
 3995 00a8 0100     		.2byte	0x1
 3996 00aa 53       		.byte	0x53
 3997 00ab 00000000 		.4byte	0
 3998 00af 00000000 		.4byte	0
 3999              	.LLST5:
 4000 00b3 00000000 		.4byte	.LVL16
 4001 00b7 14000000 		.4byte	.LVL18
 4002 00bb 0100     		.2byte	0x1
 4003 00bd 50       		.byte	0x50
 4004 00be 14000000 		.4byte	.LVL18
 4005 00c2 1A000000 		.4byte	.LVL20
 4006 00c6 0400     		.2byte	0x4
 4007 00c8 F3       		.byte	0xf3
ARM GAS  C:\Users\LAIR\AppData\Local\Temp\cciUanLt.s 			page 97


 4008 00c9 01       		.uleb128 0x1
 4009 00ca 50       		.byte	0x50
 4010 00cb 9F       		.byte	0x9f
 4011 00cc 1A000000 		.4byte	.LVL20
 4012 00d0 1C000000 		.4byte	.LVL21
 4013 00d4 0100     		.2byte	0x1
 4014 00d6 50       		.byte	0x50
 4015 00d7 1C000000 		.4byte	.LVL21
 4016 00db 28000000 		.4byte	.LFE71
 4017 00df 0400     		.2byte	0x4
 4018 00e1 F3       		.byte	0xf3
 4019 00e2 01       		.uleb128 0x1
 4020 00e3 50       		.byte	0x50
 4021 00e4 9F       		.byte	0x9f
 4022 00e5 00000000 		.4byte	0
 4023 00e9 00000000 		.4byte	0
 4024              	.LLST6:
 4025 00ed 0C000000 		.4byte	.LVL17
 4026 00f1 18000000 		.4byte	.LVL19
 4027 00f5 0300     		.2byte	0x3
 4028 00f7 73       		.byte	0x73
 4029 00f8 10       		.sleb128 16
 4030 00f9 9F       		.byte	0x9f
 4031 00fa 18000000 		.4byte	.LVL19
 4032 00fe 1A000000 		.4byte	.LVL20
 4033 0102 0100     		.2byte	0x1
 4034 0104 50       		.byte	0x50
 4035 0105 1A000000 		.4byte	.LVL20
 4036 0109 1C000000 		.4byte	.LVL21
 4037 010d 0300     		.2byte	0x3
 4038 010f 73       		.byte	0x73
 4039 0110 10       		.sleb128 16
 4040 0111 9F       		.byte	0x9f
 4041 0112 1C000000 		.4byte	.LVL21
 4042 0116 28000000 		.4byte	.LFE71
 4043 011a 0100     		.2byte	0x1
 4044 011c 50       		.byte	0x50
 4045 011d 00000000 		.4byte	0
 4046 0121 00000000 		.4byte	0
 4047              	.LLST7:
 4048 0125 20000000 		.4byte	.LVL23
 4049 0129 FE000000 		.4byte	.LVL37
 4050 012d 0100     		.2byte	0x1
 4051 012f 54       		.byte	0x54
 4052 0130 00000000 		.4byte	0
 4053 0134 00000000 		.4byte	0
 4054              	.LLST8:
 4055 0138 44000000 		.4byte	.LVL28
 4056 013c CA000000 		.4byte	.LVL33
 4057 0140 0100     		.2byte	0x1
 4058 0142 51       		.byte	0x51
 4059 0143 00000000 		.4byte	0
 4060 0147 00000000 		.4byte	0
 4061              	.LLST9:
 4062 014b 4C000000 		.4byte	.LVL29
 4063 014f 5C000000 		.4byte	.LVL30
 4064 0153 0100     		.2byte	0x1
ARM GAS  C:\Users\LAIR\AppData\Local\Temp\cciUanLt.s 			page 98


 4065 0155 57       		.byte	0x57
 4066 0156 5C000000 		.4byte	.LVL30
 4067 015a A2000000 		.4byte	.LVL31
 4068 015e 0100     		.2byte	0x1
 4069 0160 5A       		.byte	0x5a
 4070 0161 A2000000 		.4byte	.LVL31
 4071 0165 AA000000 		.4byte	.LVL32
 4072 0169 0100     		.2byte	0x1
 4073 016b 55       		.byte	0x55
 4074 016c AA000000 		.4byte	.LVL32
 4075 0170 F6000000 		.4byte	.LVL34
 4076 0174 0100     		.2byte	0x1
 4077 0176 5A       		.byte	0x5a
 4078 0177 00000000 		.4byte	0
 4079 017b 00000000 		.4byte	0
 4080              	.LLST10:
 4081 017f 28000000 		.4byte	.LVL26
 4082 0183 2C000000 		.4byte	.LVL27
 4083 0187 0200     		.2byte	0x2
 4084 0189 30       		.byte	0x30
 4085 018a 9F       		.byte	0x9f
 4086 018b 2C000000 		.4byte	.LVL27
 4087 018f FE000000 		.4byte	.LVL37
 4088 0193 0100     		.2byte	0x1
 4089 0195 52       		.byte	0x52
 4090 0196 00000000 		.4byte	0
 4091 019a 00000000 		.4byte	0
 4092              	.LLST11:
 4093 019e 28000000 		.4byte	.LVL26
 4094 01a2 FE000000 		.4byte	.LVL37
 4095 01a6 0100     		.2byte	0x1
 4096 01a8 50       		.byte	0x50
 4097 01a9 00000000 		.4byte	0
 4098 01ad 00000000 		.4byte	0
 4099              	.LLST12:
 4100 01b1 1E000000 		.4byte	.LVL22
 4101 01b5 26000000 		.4byte	.LVL25
 4102 01b9 0300     		.2byte	0x3
 4103 01bb 70       		.byte	0x70
 4104 01bc 08       		.sleb128 8
 4105 01bd 9F       		.byte	0x9f
 4106 01be 00000000 		.4byte	0
 4107 01c2 00000000 		.4byte	0
 4108              	.LLST13:
 4109 01c6 22000000 		.4byte	.LVL24
 4110 01ca FE000000 		.4byte	.LVL37
 4111 01ce 0100     		.2byte	0x1
 4112 01d0 53       		.byte	0x53
 4113 01d1 00000000 		.4byte	0
 4114 01d5 00000000 		.4byte	0
 4115              	.LLST14:
 4116 01d9 0E000000 		.4byte	.LVL38
 4117 01dd 1E000000 		.4byte	.LVL43
 4118 01e1 0100     		.2byte	0x1
 4119 01e3 50       		.byte	0x50
 4120 01e4 20000000 		.4byte	.LVL44
 4121 01e8 22000000 		.4byte	.LVL45
ARM GAS  C:\Users\LAIR\AppData\Local\Temp\cciUanLt.s 			page 99


 4122 01ec 0100     		.2byte	0x1
 4123 01ee 50       		.byte	0x50
 4124 01ef 00000000 		.4byte	0
 4125 01f3 00000000 		.4byte	0
 4126              	.LLST15:
 4127 01f7 1E000000 		.4byte	.LVL43
 4128 01fb 20000000 		.4byte	.LVL44
 4129 01ff 0100     		.2byte	0x1
 4130 0201 50       		.byte	0x50
 4131 0202 22000000 		.4byte	.LVL45
 4132 0206 28000000 		.4byte	.LFE73
 4133 020a 0100     		.2byte	0x1
 4134 020c 50       		.byte	0x50
 4135 020d 00000000 		.4byte	0
 4136 0211 00000000 		.4byte	0
 4137              	.LLST16:
 4138 0215 16000000 		.4byte	.LVL39
 4139 0219 18000000 		.4byte	.LVL40
 4140 021d 0100     		.2byte	0x1
 4141 021f 53       		.byte	0x53
 4142 0220 18000000 		.4byte	.LVL40
 4143 0224 1A000000 		.4byte	.LVL41
 4144 0228 0300     		.2byte	0x3
 4145 022a 73       		.byte	0x73
 4146 022b 7E       		.sleb128 -2
 4147 022c 9F       		.byte	0x9f
 4148 022d 1A000000 		.4byte	.LVL41
 4149 0231 1C000000 		.4byte	.LVL42
 4150 0235 0500     		.2byte	0x5
 4151 0237 70       		.byte	0x70
 4152 0238 04       		.sleb128 4
 4153 0239 06       		.byte	0x6
 4154 023a 23       		.byte	0x23
 4155 023b 04       		.uleb128 0x4
 4156 023c 00000000 		.4byte	0
 4157 0240 00000000 		.4byte	0
 4158              	.LLST17:
 4159 0244 00000000 		.4byte	.LVL46
 4160 0248 5E000000 		.4byte	.LVL57
 4161 024c 0100     		.2byte	0x1
 4162 024e 50       		.byte	0x50
 4163 024f 5E000000 		.4byte	.LVL57
 4164 0253 D0010000 		.4byte	.LFE69
 4165 0257 0400     		.2byte	0x4
 4166 0259 F3       		.byte	0xf3
 4167 025a 01       		.uleb128 0x1
 4168 025b 50       		.byte	0x50
 4169 025c 9F       		.byte	0x9f
 4170 025d 00000000 		.4byte	0
 4171 0261 00000000 		.4byte	0
 4172              	.LLST18:
 4173 0265 08000000 		.4byte	.LVL47
 4174 0269 0C000000 		.4byte	.LVL48
 4175 026d 0200     		.2byte	0x2
 4176 026f 30       		.byte	0x30
 4177 0270 9F       		.byte	0x9f
 4178 0271 0C000000 		.4byte	.LVL48
ARM GAS  C:\Users\LAIR\AppData\Local\Temp\cciUanLt.s 			page 100


 4179 0275 2E000000 		.4byte	.LVL49
 4180 0279 0100     		.2byte	0x1
 4181 027b 51       		.byte	0x51
 4182 027c 30000000 		.4byte	.LVL50
 4183 0280 3A000000 		.4byte	.LVL51
 4184 0284 0100     		.2byte	0x1
 4185 0286 51       		.byte	0x51
 4186 0287 4A000000 		.4byte	.LVL54
 4187 028b 4C000000 		.4byte	.LVL55
 4188 028f 0100     		.2byte	0x1
 4189 0291 51       		.byte	0x51
 4190 0292 8A000000 		.4byte	.LVL61
 4191 0296 84010000 		.4byte	.LVL86
 4192 029a 0100     		.2byte	0x1
 4193 029c 56       		.byte	0x56
 4194 029d 84010000 		.4byte	.LVL86
 4195 02a1 8A010000 		.4byte	.LVL87
 4196 02a5 0200     		.2byte	0x2
 4197 02a7 31       		.byte	0x31
 4198 02a8 9F       		.byte	0x9f
 4199 02a9 8A010000 		.4byte	.LVL87
 4200 02ad A6010000 		.4byte	.LVL91
 4201 02b1 0100     		.2byte	0x1
 4202 02b3 51       		.byte	0x51
 4203 02b4 A8010000 		.4byte	.LVL92
 4204 02b8 AF010000 		.4byte	.LVL93-1
 4205 02bc 0100     		.2byte	0x1
 4206 02be 51       		.byte	0x51
 4207 02bf 00000000 		.4byte	0
 4208 02c3 00000000 		.4byte	0
 4209              	.LLST19:
 4210 02c7 92000000 		.4byte	.LVL63
 4211 02cb 96000000 		.4byte	.LVL64
 4212 02cf 0200     		.2byte	0x2
 4213 02d1 30       		.byte	0x30
 4214 02d2 9F       		.byte	0x9f
 4215 02d3 96000000 		.4byte	.LVL64
 4216 02d7 48010000 		.4byte	.LVL76
 4217 02db 0100     		.2byte	0x1
 4218 02dd 53       		.byte	0x53
 4219 02de 4A010000 		.4byte	.LVL77
 4220 02e2 52010000 		.4byte	.LVL79
 4221 02e6 0100     		.2byte	0x1
 4222 02e8 53       		.byte	0x53
 4223 02e9 00000000 		.4byte	0
 4224 02ed 00000000 		.4byte	0
 4225              	.LLST20:
 4226 02f1 3A000000 		.4byte	.LVL51
 4227 02f5 46000000 		.4byte	.LVL52
 4228 02f9 0100     		.2byte	0x1
 4229 02fb 53       		.byte	0x53
 4230 02fc 48000000 		.4byte	.LVL53
 4231 0300 4A000000 		.4byte	.LVL54
 4232 0304 0100     		.2byte	0x1
 4233 0306 53       		.byte	0x53
 4234 0307 4C000000 		.4byte	.LVL55
 4235 030b 50000000 		.4byte	.LVL56
ARM GAS  C:\Users\LAIR\AppData\Local\Temp\cciUanLt.s 			page 101


 4236 030f 0100     		.2byte	0x1
 4237 0311 53       		.byte	0x53
 4238 0312 8A000000 		.4byte	.LVL61
 4239 0316 8E000000 		.4byte	.LVL62
 4240 031a 0200     		.2byte	0x2
 4241 031c 31       		.byte	0x31
 4242 031d 9F       		.byte	0x9f
 4243 031e 8E000000 		.4byte	.LVL62
 4244 0322 50010000 		.4byte	.LVL78
 4245 0326 0100     		.2byte	0x1
 4246 0328 54       		.byte	0x54
 4247 0329 52010000 		.4byte	.LVL79
 4248 032d 5A010000 		.4byte	.LVL80
 4249 0331 0100     		.2byte	0x1
 4250 0333 54       		.byte	0x54
 4251 0334 5A010000 		.4byte	.LVL80
 4252 0338 5E010000 		.4byte	.LVL81
 4253 033c 0200     		.2byte	0x2
 4254 033e 30       		.byte	0x30
 4255 033f 9F       		.byte	0x9f
 4256 0340 5E010000 		.4byte	.LVL81
 4257 0344 76010000 		.4byte	.LVL83
 4258 0348 0100     		.2byte	0x1
 4259 034a 52       		.byte	0x52
 4260 034b 78010000 		.4byte	.LVL84
 4261 034f 7F010000 		.4byte	.LVL85-1
 4262 0353 0100     		.2byte	0x1
 4263 0355 52       		.byte	0x52
 4264 0356 00000000 		.4byte	0
 4265 035a 00000000 		.4byte	0
 4266              	.LLST21:
 4267 035e F6000000 		.4byte	.LVL65
 4268 0362 04010000 		.4byte	.LVL66
 4269 0366 0100     		.2byte	0x1
 4270 0368 52       		.byte	0x52
 4271 0369 04010000 		.4byte	.LVL66
 4272 036d 08010000 		.4byte	.LVL67
 4273 0371 0300     		.2byte	0x3
 4274 0373 72       		.byte	0x72
 4275 0374 7A       		.sleb128 -6
 4276 0375 9F       		.byte	0x9f
 4277 0376 08010000 		.4byte	.LVL67
 4278 037a 0A010000 		.4byte	.LVL68
 4279 037e 0100     		.2byte	0x1
 4280 0380 52       		.byte	0x52
 4281 0381 0A010000 		.4byte	.LVL68
 4282 0385 1C010000 		.4byte	.LVL69
 4283 0389 0700     		.2byte	0x7
 4284 038b 71       		.byte	0x71
 4285 038c 03       		.sleb128 3
 4286 038d 94       		.byte	0x94
 4287 038e 01       		.byte	0x1
 4288 038f 33       		.byte	0x33
 4289 0390 1A       		.byte	0x1a
 4290 0391 9F       		.byte	0x9f
 4291 0392 22010000 		.4byte	.LVL70
 4292 0396 28010000 		.4byte	.LVL71
ARM GAS  C:\Users\LAIR\AppData\Local\Temp\cciUanLt.s 			page 102


 4293 039a 0100     		.2byte	0x1
 4294 039c 52       		.byte	0x52
 4295 039d 28010000 		.4byte	.LVL71
 4296 03a1 2C010000 		.4byte	.LVL72
 4297 03a5 0300     		.2byte	0x3
 4298 03a7 72       		.byte	0x72
 4299 03a8 7C       		.sleb128 -4
 4300 03a9 9F       		.byte	0x9f
 4301 03aa 2C010000 		.4byte	.LVL72
 4302 03ae 2E010000 		.4byte	.LVL73
 4303 03b2 0100     		.2byte	0x1
 4304 03b4 52       		.byte	0x52
 4305 03b5 2E010000 		.4byte	.LVL73
 4306 03b9 3E010000 		.4byte	.LVL74
 4307 03bd 0700     		.2byte	0x7
 4308 03bf 71       		.byte	0x71
 4309 03c0 03       		.sleb128 3
 4310 03c1 94       		.byte	0x94
 4311 03c2 01       		.byte	0x1
 4312 03c3 33       		.byte	0x33
 4313 03c4 1A       		.byte	0x1a
 4314 03c5 9F       		.byte	0x9f
 4315 03c6 00000000 		.4byte	0
 4316 03ca 00000000 		.4byte	0
 4317              	.LLST22:
 4318 03ce 68000000 		.4byte	.LVL59
 4319 03d2 8E000000 		.4byte	.LVL62
 4320 03d6 0200     		.2byte	0x2
 4321 03d8 70       		.byte	0x70
 4322 03d9 04       		.sleb128 4
 4323 03da 00000000 		.4byte	0
 4324 03de 00000000 		.4byte	0
 4325              	.LLST23:
 4326 03e2 08000000 		.4byte	.LVL47
 4327 03e6 8A010000 		.4byte	.LVL87
 4328 03ea 0200     		.2byte	0x2
 4329 03ec 30       		.byte	0x30
 4330 03ed 9F       		.byte	0x9f
 4331 03ee 8A010000 		.4byte	.LVL87
 4332 03f2 9A010000 		.4byte	.LVL88
 4333 03f6 0100     		.2byte	0x1
 4334 03f8 53       		.byte	0x53
 4335 03f9 9A010000 		.4byte	.LVL88
 4336 03fd 9C010000 		.4byte	.LVL89
 4337 0401 0200     		.2byte	0x2
 4338 0403 70       		.byte	0x70
 4339 0404 06       		.sleb128 6
 4340 0405 9C010000 		.4byte	.LVL89
 4341 0409 A4010000 		.4byte	.LVL90
 4342 040d 0100     		.2byte	0x1
 4343 040f 52       		.byte	0x52
 4344 0410 A4010000 		.4byte	.LVL90
 4345 0414 AF010000 		.4byte	.LVL93-1
 4346 0418 0100     		.2byte	0x1
 4347 041a 53       		.byte	0x53
 4348 041b 00000000 		.4byte	0
 4349 041f 00000000 		.4byte	0
ARM GAS  C:\Users\LAIR\AppData\Local\Temp\cciUanLt.s 			page 103


 4350              	.LLST24:
 4351 0423 68000000 		.4byte	.LVL59
 4352 0427 86000000 		.4byte	.LVL60
 4353 042b 0100     		.2byte	0x1
 4354 042d 50       		.byte	0x50
 4355 042e 86000000 		.4byte	.LVL60
 4356 0432 8E000000 		.4byte	.LVL62
 4357 0436 0300     		.2byte	0x3
 4358 0438 70       		.byte	0x70
 4359 0439 08       		.sleb128 8
 4360 043a 9F       		.byte	0x9f
 4361 043b 8E000000 		.4byte	.LVL62
 4362 043f B0010000 		.4byte	.LVL93
 4363 0443 0300     		.2byte	0x3
 4364 0445 79       		.byte	0x79
 4365 0446 08       		.sleb128 8
 4366 0447 9F       		.byte	0x9f
 4367 0448 00000000 		.4byte	0
 4368 044c 00000000 		.4byte	0
 4369              	.LLST25:
 4370 0450 92000000 		.4byte	.LVL63
 4371 0454 52010000 		.4byte	.LVL79
 4372 0458 0100     		.2byte	0x1
 4373 045a 51       		.byte	0x51
 4374 045b 5A010000 		.4byte	.LVL80
 4375 045f 7F010000 		.4byte	.LVL85-1
 4376 0463 0100     		.2byte	0x1
 4377 0465 51       		.byte	0x51
 4378 0466 00000000 		.4byte	0
 4379 046a 00000000 		.4byte	0
 4380              	.LLST26:
 4381 046e 00000000 		.4byte	.LVL94
 4382 0472 04000000 		.4byte	.LVL95
 4383 0476 0100     		.2byte	0x1
 4384 0478 50       		.byte	0x50
 4385 0479 04000000 		.4byte	.LVL95
 4386 047d 2E000000 		.4byte	.LVL96
 4387 0481 0100     		.2byte	0x1
 4388 0483 50       		.byte	0x50
 4389 0484 3A000000 		.4byte	.LVL97
 4390 0488 3C000000 		.4byte	.LVL98
 4391 048c 0100     		.2byte	0x1
 4392 048e 50       		.byte	0x50
 4393 048f 00000000 		.4byte	0
 4394 0493 00000000 		.4byte	0
 4395              	.LLST27:
 4396 0497 02000000 		.4byte	.LVL99
 4397 049b 54000000 		.4byte	.LVL104
 4398 049f 0200     		.2byte	0x2
 4399 04a1 30       		.byte	0x30
 4400 04a2 9F       		.byte	0x9f
 4401 04a3 54000000 		.4byte	.LVL104
 4402 04a7 56000000 		.4byte	.LVL105
 4403 04ab 0100     		.2byte	0x1
 4404 04ad 50       		.byte	0x50
 4405 04ae 56000000 		.4byte	.LVL105
 4406 04b2 58000000 		.4byte	.LVL106
ARM GAS  C:\Users\LAIR\AppData\Local\Temp\cciUanLt.s 			page 104


 4407 04b6 0200     		.2byte	0x2
 4408 04b8 30       		.byte	0x30
 4409 04b9 9F       		.byte	0x9f
 4410 04ba 58000000 		.4byte	.LVL106
 4411 04be 68000000 		.4byte	.LFE75
 4412 04c2 0100     		.2byte	0x1
 4413 04c4 50       		.byte	0x50
 4414 04c5 00000000 		.4byte	0
 4415 04c9 00000000 		.4byte	0
 4416              	.LLST28:
 4417 04cd 0A000000 		.4byte	.LVL100
 4418 04d1 38000000 		.4byte	.LVL101
 4419 04d5 0100     		.2byte	0x1
 4420 04d7 53       		.byte	0x53
 4421 04d8 44000000 		.4byte	.LVL102
 4422 04dc 46000000 		.4byte	.LVL103
 4423 04e0 0100     		.2byte	0x1
 4424 04e2 53       		.byte	0x53
 4425 04e3 56000000 		.4byte	.LVL105
 4426 04e7 58000000 		.4byte	.LVL106
 4427 04eb 0100     		.2byte	0x1
 4428 04ed 53       		.byte	0x53
 4429 04ee 00000000 		.4byte	0
 4430 04f2 00000000 		.4byte	0
 4431              	.LLST29:
 4432 04f6 02000000 		.4byte	.LVL107
 4433 04fa 9A000000 		.4byte	.LVL116
 4434 04fe 0200     		.2byte	0x2
 4435 0500 30       		.byte	0x30
 4436 0501 9F       		.byte	0x9f
 4437 0502 9A000000 		.4byte	.LVL116
 4438 0506 9C000000 		.4byte	.LVL117
 4439 050a 0100     		.2byte	0x1
 4440 050c 50       		.byte	0x50
 4441 050d 9C000000 		.4byte	.LVL117
 4442 0511 9E000000 		.4byte	.LVL118
 4443 0515 0200     		.2byte	0x2
 4444 0517 30       		.byte	0x30
 4445 0518 9F       		.byte	0x9f
 4446 0519 9E000000 		.4byte	.LVL118
 4447 051d AC000000 		.4byte	.LFE76
 4448 0521 0100     		.2byte	0x1
 4449 0523 50       		.byte	0x50
 4450 0524 00000000 		.4byte	0
 4451 0528 00000000 		.4byte	0
 4452              	.LLST30:
 4453 052c 0A000000 		.4byte	.LVL108
 4454 0530 52000000 		.4byte	.LVL109
 4455 0534 0100     		.2byte	0x1
 4456 0536 53       		.byte	0x53
 4457 0537 5E000000 		.4byte	.LVL110
 4458 053b 60000000 		.4byte	.LVL111
 4459 053f 0100     		.2byte	0x1
 4460 0541 53       		.byte	0x53
 4461 0542 6C000000 		.4byte	.LVL112
 4462 0546 7E000000 		.4byte	.LVL113
 4463 054a 0100     		.2byte	0x1
ARM GAS  C:\Users\LAIR\AppData\Local\Temp\cciUanLt.s 			page 105


 4464 054c 53       		.byte	0x53
 4465 054d 8A000000 		.4byte	.LVL114
 4466 0551 8C000000 		.4byte	.LVL115
 4467 0555 0100     		.2byte	0x1
 4468 0557 53       		.byte	0x53
 4469 0558 9C000000 		.4byte	.LVL117
 4470 055c 9E000000 		.4byte	.LVL118
 4471 0560 0100     		.2byte	0x1
 4472 0562 53       		.byte	0x53
 4473 0563 00000000 		.4byte	0
 4474 0567 00000000 		.4byte	0
 4475              	.LLST31:
 4476 056b 02000000 		.4byte	.LVL119
 4477 056f 36000000 		.4byte	.LVL125
 4478 0573 0200     		.2byte	0x2
 4479 0575 30       		.byte	0x30
 4480 0576 9F       		.byte	0x9f
 4481 0577 36000000 		.4byte	.LVL125
 4482 057b 3A000000 		.4byte	.LVL126
 4483 057f 0200     		.2byte	0x2
 4484 0581 31       		.byte	0x31
 4485 0582 9F       		.byte	0x9f
 4486 0583 3A000000 		.4byte	.LVL126
 4487 0587 3C000000 		.4byte	.LVL127
 4488 058b 0200     		.2byte	0x2
 4489 058d 30       		.byte	0x30
 4490 058e 9F       		.byte	0x9f
 4491 058f 3C000000 		.4byte	.LVL127
 4492 0593 50000000 		.4byte	.LFE77
 4493 0597 0100     		.2byte	0x1
 4494 0599 50       		.byte	0x50
 4495 059a 00000000 		.4byte	0
 4496 059e 00000000 		.4byte	0
 4497              	.LLST32:
 4498 05a2 08000000 		.4byte	.LVL120
 4499 05a6 3C000000 		.4byte	.LVL128
 4500 05aa 0100     		.2byte	0x1
 4501 05ac 55       		.byte	0x55
 4502 05ad 00000000 		.4byte	0
 4503 05b1 00000000 		.4byte	0
 4504              	.LLST33:
 4505 05b5 18000000 		.4byte	.LVL122
 4506 05b9 22000000 		.4byte	.LVL123
 4507 05bd 0100     		.2byte	0x1
 4508 05bf 53       		.byte	0x53
 4509 05c0 22000000 		.4byte	.LVL123
 4510 05c4 2C000000 		.4byte	.LVL124
 4511 05c8 0500     		.2byte	0x5
 4512 05ca 70       		.byte	0x70
 4513 05cb 04       		.sleb128 4
 4514 05cc 06       		.byte	0x6
 4515 05cd 23       		.byte	0x23
 4516 05ce 04       		.uleb128 0x4
 4517 05cf 3A000000 		.4byte	.LVL126
 4518 05d3 3C000000 		.4byte	.LVL127
 4519 05d7 0100     		.2byte	0x1
 4520 05d9 53       		.byte	0x53
ARM GAS  C:\Users\LAIR\AppData\Local\Temp\cciUanLt.s 			page 106


 4521 05da 00000000 		.4byte	0
 4522 05de 00000000 		.4byte	0
 4523              	.LLST34:
 4524 05e2 14000000 		.4byte	.LVL121
 4525 05e6 2C000000 		.4byte	.LVL124
 4526 05ea 0100     		.2byte	0x1
 4527 05ec 50       		.byte	0x50
 4528 05ed 3A000000 		.4byte	.LVL126
 4529 05f1 3C000000 		.4byte	.LVL127
 4530 05f5 0100     		.2byte	0x1
 4531 05f7 50       		.byte	0x50
 4532 05f8 00000000 		.4byte	0
 4533 05fc 00000000 		.4byte	0
 4534              	.LLST35:
 4535 0600 02000000 		.4byte	.LVL129
 4536 0604 4A000000 		.4byte	.LVL133
 4537 0608 0200     		.2byte	0x2
 4538 060a 30       		.byte	0x30
 4539 060b 9F       		.byte	0x9f
 4540 060c 4A000000 		.4byte	.LVL133
 4541 0610 4C000000 		.4byte	.LVL134
 4542 0614 0100     		.2byte	0x1
 4543 0616 50       		.byte	0x50
 4544 0617 4C000000 		.4byte	.LVL134
 4545 061b 7C000000 		.4byte	.LVL136
 4546 061f 0200     		.2byte	0x2
 4547 0621 30       		.byte	0x30
 4548 0622 9F       		.byte	0x9f
 4549 0623 7C000000 		.4byte	.LVL136
 4550 0627 7E000000 		.4byte	.LVL137
 4551 062b 0100     		.2byte	0x1
 4552 062d 50       		.byte	0x50
 4553 062e 7E000000 		.4byte	.LVL137
 4554 0632 E0000000 		.4byte	.LVL149
 4555 0636 0200     		.2byte	0x2
 4556 0638 30       		.byte	0x30
 4557 0639 9F       		.byte	0x9f
 4558 063a E0000000 		.4byte	.LVL149
 4559 063e E2000000 		.4byte	.LVL150
 4560 0642 0100     		.2byte	0x1
 4561 0644 50       		.byte	0x50
 4562 0645 E2000000 		.4byte	.LVL150
 4563 0649 E6000000 		.4byte	.LVL151
 4564 064d 0200     		.2byte	0x2
 4565 064f 30       		.byte	0x30
 4566 0650 9F       		.byte	0x9f
 4567 0651 E6000000 		.4byte	.LVL151
 4568 0655 E8000000 		.4byte	.LVL152
 4569 0659 0100     		.2byte	0x1
 4570 065b 50       		.byte	0x50
 4571 065c E8000000 		.4byte	.LVL152
 4572 0660 1C010000 		.4byte	.LVL154
 4573 0664 0200     		.2byte	0x2
 4574 0666 30       		.byte	0x30
 4575 0667 9F       		.byte	0x9f
 4576 0668 1C010000 		.4byte	.LVL154
 4577 066c 1E010000 		.4byte	.LVL155
ARM GAS  C:\Users\LAIR\AppData\Local\Temp\cciUanLt.s 			page 107


 4578 0670 0100     		.2byte	0x1
 4579 0672 50       		.byte	0x50
 4580 0673 1E010000 		.4byte	.LVL155
 4581 0677 38010000 		.4byte	.LVL156
 4582 067b 0200     		.2byte	0x2
 4583 067d 30       		.byte	0x30
 4584 067e 9F       		.byte	0x9f
 4585 067f 38010000 		.4byte	.LVL156
 4586 0683 3A010000 		.4byte	.LVL157
 4587 0687 0100     		.2byte	0x1
 4588 0689 50       		.byte	0x50
 4589 068a 3A010000 		.4byte	.LVL157
 4590 068e 48010000 		.4byte	.LVL159
 4591 0692 0200     		.2byte	0x2
 4592 0694 30       		.byte	0x30
 4593 0695 9F       		.byte	0x9f
 4594 0696 48010000 		.4byte	.LVL159
 4595 069a 4A010000 		.4byte	.LVL160
 4596 069e 0100     		.2byte	0x1
 4597 06a0 50       		.byte	0x50
 4598 06a1 4A010000 		.4byte	.LVL160
 4599 06a5 5E010000 		.4byte	.LVL162
 4600 06a9 0200     		.2byte	0x2
 4601 06ab 30       		.byte	0x30
 4602 06ac 9F       		.byte	0x9f
 4603 06ad 5E010000 		.4byte	.LVL162
 4604 06b1 60010000 		.4byte	.LVL163
 4605 06b5 0100     		.2byte	0x1
 4606 06b7 50       		.byte	0x50
 4607 06b8 60010000 		.4byte	.LVL163
 4608 06bc 80010000 		.4byte	.LVL165
 4609 06c0 0200     		.2byte	0x2
 4610 06c2 30       		.byte	0x30
 4611 06c3 9F       		.byte	0x9f
 4612 06c4 80010000 		.4byte	.LVL165
 4613 06c8 82010000 		.4byte	.LVL166
 4614 06cc 0100     		.2byte	0x1
 4615 06ce 50       		.byte	0x50
 4616 06cf 82010000 		.4byte	.LVL166
 4617 06d3 C0010000 		.4byte	.LVL173
 4618 06d7 0200     		.2byte	0x2
 4619 06d9 30       		.byte	0x30
 4620 06da 9F       		.byte	0x9f
 4621 06db C0010000 		.4byte	.LVL173
 4622 06df C2010000 		.4byte	.LVL174
 4623 06e3 0100     		.2byte	0x1
 4624 06e5 50       		.byte	0x50
 4625 06e6 C2010000 		.4byte	.LVL174
 4626 06ea F2010000 		.4byte	.LVL179
 4627 06ee 0200     		.2byte	0x2
 4628 06f0 30       		.byte	0x30
 4629 06f1 9F       		.byte	0x9f
 4630 06f2 F2010000 		.4byte	.LVL179
 4631 06f6 F4010000 		.4byte	.LVL180
 4632 06fa 0100     		.2byte	0x1
 4633 06fc 50       		.byte	0x50
 4634 06fd F4010000 		.4byte	.LVL180
ARM GAS  C:\Users\LAIR\AppData\Local\Temp\cciUanLt.s 			page 108


 4635 0701 10020000 		.4byte	.LVL182
 4636 0705 0200     		.2byte	0x2
 4637 0707 30       		.byte	0x30
 4638 0708 9F       		.byte	0x9f
 4639 0709 10020000 		.4byte	.LVL182
 4640 070d 12020000 		.4byte	.LVL183
 4641 0711 0100     		.2byte	0x1
 4642 0713 50       		.byte	0x50
 4643 0714 12020000 		.4byte	.LVL183
 4644 0718 28020000 		.4byte	.LVL184
 4645 071c 0200     		.2byte	0x2
 4646 071e 30       		.byte	0x30
 4647 071f 9F       		.byte	0x9f
 4648 0720 28020000 		.4byte	.LVL184
 4649 0724 2A020000 		.4byte	.LVL185
 4650 0728 0100     		.2byte	0x1
 4651 072a 50       		.byte	0x50
 4652 072b 2A020000 		.4byte	.LVL185
 4653 072f 44020000 		.4byte	.LVL186
 4654 0733 0200     		.2byte	0x2
 4655 0735 30       		.byte	0x30
 4656 0736 9F       		.byte	0x9f
 4657 0737 44020000 		.4byte	.LVL186
 4658 073b 46020000 		.4byte	.LVL187
 4659 073f 0100     		.2byte	0x1
 4660 0741 50       		.byte	0x50
 4661 0742 46020000 		.4byte	.LVL187
 4662 0746 62020000 		.4byte	.LVL189
 4663 074a 0200     		.2byte	0x2
 4664 074c 30       		.byte	0x30
 4665 074d 9F       		.byte	0x9f
 4666 074e 62020000 		.4byte	.LVL189
 4667 0752 64020000 		.4byte	.LVL190
 4668 0756 0100     		.2byte	0x1
 4669 0758 50       		.byte	0x50
 4670 0759 64020000 		.4byte	.LVL190
 4671 075d 7A020000 		.4byte	.LVL191
 4672 0761 0200     		.2byte	0x2
 4673 0763 30       		.byte	0x30
 4674 0764 9F       		.byte	0x9f
 4675 0765 7A020000 		.4byte	.LVL191
 4676 0769 7C020000 		.4byte	.LVL192
 4677 076d 0100     		.2byte	0x1
 4678 076f 50       		.byte	0x50
 4679 0770 7C020000 		.4byte	.LVL192
 4680 0774 96020000 		.4byte	.LVL193
 4681 0778 0200     		.2byte	0x2
 4682 077a 30       		.byte	0x30
 4683 077b 9F       		.byte	0x9f
 4684 077c 96020000 		.4byte	.LVL193
 4685 0780 98020000 		.4byte	.LVL194
 4686 0784 0100     		.2byte	0x1
 4687 0786 50       		.byte	0x50
 4688 0787 98020000 		.4byte	.LVL194
 4689 078b D2020000 		.4byte	.LVL203
 4690 078f 0200     		.2byte	0x2
 4691 0791 30       		.byte	0x30
ARM GAS  C:\Users\LAIR\AppData\Local\Temp\cciUanLt.s 			page 109


 4692 0792 9F       		.byte	0x9f
 4693 0793 D2020000 		.4byte	.LVL203
 4694 0797 18030000 		.4byte	.LFE65
 4695 079b 0100     		.2byte	0x1
 4696 079d 50       		.byte	0x50
 4697 079e 00000000 		.4byte	0
 4698 07a2 00000000 		.4byte	0
 4699              	.LLST36:
 4700 07a6 CE010000 		.4byte	.LVL176
 4701 07aa DE010000 		.4byte	.LVL177
 4702 07ae 0100     		.2byte	0x1
 4703 07b0 52       		.byte	0x52
 4704 07b1 00000000 		.4byte	0
 4705 07b5 00000000 		.4byte	0
 4706              	.LLST37:
 4707 07b9 86010000 		.4byte	.LVL168
 4708 07bd AC010000 		.4byte	.LVL170
 4709 07c1 0100     		.2byte	0x1
 4710 07c3 54       		.byte	0x54
 4711 07c4 AC020000 		.4byte	.LVL200
 4712 07c8 B0020000 		.4byte	.LVL202
 4713 07cc 0100     		.2byte	0x1
 4714 07ce 54       		.byte	0x54
 4715 07cf 00000000 		.4byte	0
 4716 07d3 00000000 		.4byte	0
 4717              	.LLST38:
 4718 07d7 06000000 		.4byte	.LVL130
 4719 07db 32000000 		.4byte	.LVL131
 4720 07df 0100     		.2byte	0x1
 4721 07e1 53       		.byte	0x53
 4722 07e2 E8000000 		.4byte	.LVL152
 4723 07e6 EC000000 		.4byte	.LVL153
 4724 07ea 0100     		.2byte	0x1
 4725 07ec 53       		.byte	0x53
 4726 07ed 3A010000 		.4byte	.LVL157
 4727 07f1 3C010000 		.4byte	.LVL158
 4728 07f5 0100     		.2byte	0x1
 4729 07f7 53       		.byte	0x53
 4730 07f8 4A010000 		.4byte	.LVL160
 4731 07fc 4E010000 		.4byte	.LVL161
 4732 0800 0100     		.2byte	0x1
 4733 0802 53       		.byte	0x53
 4734 0803 60010000 		.4byte	.LVL163
 4735 0807 74010000 		.4byte	.LVL164
 4736 080b 0100     		.2byte	0x1
 4737 080d 53       		.byte	0x53
 4738 080e 82010000 		.4byte	.LVL166
 4739 0812 84010000 		.4byte	.LVL167
 4740 0816 0100     		.2byte	0x1
 4741 0818 53       		.byte	0x53
 4742 0819 C2010000 		.4byte	.LVL174
 4743 081d C5010000 		.4byte	.LVL175-1
 4744 0821 0100     		.2byte	0x1
 4745 0823 53       		.byte	0x53
 4746 0824 F4010000 		.4byte	.LVL180
 4747 0828 F8010000 		.4byte	.LVL181
 4748 082c 0100     		.2byte	0x1
ARM GAS  C:\Users\LAIR\AppData\Local\Temp\cciUanLt.s 			page 110


 4749 082e 53       		.byte	0x53
 4750 082f 46020000 		.4byte	.LVL187
 4751 0833 4A020000 		.4byte	.LVL188
 4752 0837 0100     		.2byte	0x1
 4753 0839 53       		.byte	0x53
 4754 083a 98020000 		.4byte	.LVL194
 4755 083e 9C020000 		.4byte	.LVL195
 4756 0842 0100     		.2byte	0x1
 4757 0844 53       		.byte	0x53
 4758 0845 A8020000 		.4byte	.LVL199
 4759 0849 AC020000 		.4byte	.LVL200
 4760 084d 0100     		.2byte	0x1
 4761 084f 53       		.byte	0x53
 4762 0850 00000000 		.4byte	0
 4763 0854 00000000 		.4byte	0
 4764              	.LLST39:
 4765 0858 06000000 		.4byte	.LVL130
 4766 085c 88000000 		.4byte	.LVL138
 4767 0860 0200     		.2byte	0x2
 4768 0862 30       		.byte	0x30
 4769 0863 9F       		.byte	0x9f
 4770 0864 88000000 		.4byte	.LVL138
 4771 0868 92000000 		.4byte	.LVL143
 4772 086c 0100     		.2byte	0x1
 4773 086e 52       		.byte	0x52
 4774 086f 92000000 		.4byte	.LVL143
 4775 0873 96000000 		.4byte	.LVL144
 4776 0877 0200     		.2byte	0x2
 4777 0879 30       		.byte	0x30
 4778 087a 9F       		.byte	0x9f
 4779 087b 96000000 		.4byte	.LVL144
 4780 087f C9000000 		.4byte	.LVL147-1
 4781 0883 0100     		.2byte	0x1
 4782 0885 52       		.byte	0x52
 4783 0886 CC000000 		.4byte	.LVL148
 4784 088a DF000000 		.4byte	.LVL149-1
 4785 088e 0100     		.2byte	0x1
 4786 0890 52       		.byte	0x52
 4787 0891 E2000000 		.4byte	.LVL150
 4788 0895 A0020000 		.4byte	.LVL197
 4789 0899 0200     		.2byte	0x2
 4790 089b 30       		.byte	0x30
 4791 089c 9F       		.byte	0x9f
 4792 089d A0020000 		.4byte	.LVL197
 4793 08a1 A4020000 		.4byte	.LVL198
 4794 08a5 0100     		.2byte	0x1
 4795 08a7 52       		.byte	0x52
 4796 08a8 A4020000 		.4byte	.LVL198
 4797 08ac D2020000 		.4byte	.LVL203
 4798 08b0 0200     		.2byte	0x2
 4799 08b2 30       		.byte	0x30
 4800 08b3 9F       		.byte	0x9f
 4801 08b4 00000000 		.4byte	0
 4802 08b8 00000000 		.4byte	0
 4803              	.LLST40:
 4804 08bc 88000000 		.4byte	.LVL138
 4805 08c0 8E000000 		.4byte	.LVL141
ARM GAS  C:\Users\LAIR\AppData\Local\Temp\cciUanLt.s 			page 111


 4806 08c4 0100     		.2byte	0x1
 4807 08c6 53       		.byte	0x53
 4808 08c7 90000000 		.4byte	.LVL142
 4809 08cb 92000000 		.4byte	.LVL143
 4810 08cf 0100     		.2byte	0x1
 4811 08d1 53       		.byte	0x53
 4812 08d2 96000000 		.4byte	.LVL144
 4813 08d6 A6000000 		.4byte	.LVL145
 4814 08da 0100     		.2byte	0x1
 4815 08dc 53       		.byte	0x53
 4816 08dd 00000000 		.4byte	0
 4817 08e1 00000000 		.4byte	0
 4818              	.LLST41:
 4819 08e5 8A000000 		.4byte	.LVL139
 4820 08e9 92000000 		.4byte	.LVL143
 4821 08ed 0100     		.2byte	0x1
 4822 08ef 51       		.byte	0x51
 4823 08f0 00000000 		.4byte	0
 4824 08f4 00000000 		.4byte	0
 4825              	.LLST42:
 4826 08f8 3C000000 		.4byte	.LVL132
 4827 08fc 49000000 		.4byte	.LVL133-1
 4828 0900 0100     		.2byte	0x1
 4829 0902 50       		.byte	0x50
 4830 0903 5E000000 		.4byte	.LVL135
 4831 0907 7B000000 		.4byte	.LVL136-1
 4832 090b 0100     		.2byte	0x1
 4833 090d 50       		.byte	0x50
 4834 090e 92010000 		.4byte	.LVL169
 4835 0912 B8010000 		.4byte	.LVL171
 4836 0916 0100     		.2byte	0x1
 4837 0918 50       		.byte	0x50
 4838 0919 9C020000 		.4byte	.LVL195
 4839 091d 9E020000 		.4byte	.LVL196
 4840 0921 0100     		.2byte	0x1
 4841 0923 50       		.byte	0x50
 4842 0924 AC020000 		.4byte	.LVL200
 4843 0928 AE020000 		.4byte	.LVL201
 4844 092c 0100     		.2byte	0x1
 4845 092e 50       		.byte	0x50
 4846 092f 00000000 		.4byte	0
 4847 0933 00000000 		.4byte	0
 4848              		.section	.debug_aranges,"",%progbits
 4849 0000 7C000000 		.4byte	0x7c
 4850 0004 0200     		.2byte	0x2
 4851 0006 00000000 		.4byte	.Ldebug_info0
 4852 000a 04       		.byte	0x4
 4853 000b 00       		.byte	0
 4854 000c 0000     		.2byte	0
 4855 000e 0000     		.2byte	0
 4856 0010 00000000 		.4byte	.LFB66
 4857 0014 64000000 		.4byte	.LFE66-.LFB66
 4858 0018 00000000 		.4byte	.LFB67
 4859 001c A0000000 		.4byte	.LFE67-.LFB67
 4860 0020 00000000 		.4byte	.LFB68
 4861 0024 40000000 		.4byte	.LFE68-.LFB68
 4862 0028 00000000 		.4byte	.LFB71
ARM GAS  C:\Users\LAIR\AppData\Local\Temp\cciUanLt.s 			page 112


 4863 002c 28000000 		.4byte	.LFE71-.LFB71
 4864 0030 00000000 		.4byte	.LFB70
 4865 0034 20010000 		.4byte	.LFE70-.LFB70
 4866 0038 00000000 		.4byte	.LFB72
 4867 003c 18000000 		.4byte	.LFE72-.LFB72
 4868 0040 00000000 		.4byte	.LFB73
 4869 0044 28000000 		.4byte	.LFE73-.LFB73
 4870 0048 00000000 		.4byte	.LFB69
 4871 004c D0010000 		.4byte	.LFE69-.LFB69
 4872 0050 00000000 		.4byte	.LFB74
 4873 0054 50000000 		.4byte	.LFE74-.LFB74
 4874 0058 00000000 		.4byte	.LFB75
 4875 005c 68000000 		.4byte	.LFE75-.LFB75
 4876 0060 00000000 		.4byte	.LFB76
 4877 0064 AC000000 		.4byte	.LFE76-.LFB76
 4878 0068 00000000 		.4byte	.LFB77
 4879 006c 50000000 		.4byte	.LFE77-.LFB77
 4880 0070 00000000 		.4byte	.LFB65
 4881 0074 18030000 		.4byte	.LFE65-.LFB65
 4882 0078 00000000 		.4byte	0
 4883 007c 00000000 		.4byte	0
 4884              		.section	.debug_ranges,"",%progbits
 4885              	.Ldebug_ranges0:
 4886 0000 00000000 		.4byte	.LFB66
 4887 0004 64000000 		.4byte	.LFE66
 4888 0008 00000000 		.4byte	.LFB67
 4889 000c A0000000 		.4byte	.LFE67
 4890 0010 00000000 		.4byte	.LFB68
 4891 0014 40000000 		.4byte	.LFE68
 4892 0018 00000000 		.4byte	.LFB71
 4893 001c 28000000 		.4byte	.LFE71
 4894 0020 00000000 		.4byte	.LFB70
 4895 0024 20010000 		.4byte	.LFE70
 4896 0028 00000000 		.4byte	.LFB72
 4897 002c 18000000 		.4byte	.LFE72
 4898 0030 00000000 		.4byte	.LFB73
 4899 0034 28000000 		.4byte	.LFE73
 4900 0038 00000000 		.4byte	.LFB69
 4901 003c D0010000 		.4byte	.LFE69
 4902 0040 00000000 		.4byte	.LFB74
 4903 0044 50000000 		.4byte	.LFE74
 4904 0048 00000000 		.4byte	.LFB75
 4905 004c 68000000 		.4byte	.LFE75
 4906 0050 00000000 		.4byte	.LFB76
 4907 0054 AC000000 		.4byte	.LFE76
 4908 0058 00000000 		.4byte	.LFB77
 4909 005c 50000000 		.4byte	.LFE77
 4910 0060 00000000 		.4byte	.LFB65
 4911 0064 18030000 		.4byte	.LFE65
 4912 0068 00000000 		.4byte	0
 4913 006c 00000000 		.4byte	0
 4914              		.section	.debug_line,"",%progbits
 4915              	.Ldebug_line0:
 4916 0000 C9030000 		.section	.debug_str,"MS",%progbits,1
 4916      02006D00 
 4916      00000201 
 4916      FB0E0D00 
ARM GAS  C:\Users\LAIR\AppData\Local\Temp\cciUanLt.s 			page 113


 4916      01010101 
 4917              	.LASF37:
 4918 0000 70537461 		.ascii	"pStatusBlock\000"
 4918      74757342 
 4918      6C6F636B 
 4918      00
 4919              	.LASF35:
 4920 000d 636F756E 		.ascii	"count\000"
 4920      7400
 4921              	.LASF10:
 4922 0013 75696E74 		.ascii	"uint16\000"
 4922      313600
 4923              	.LASF66:
 4924 001a 55534246 		.ascii	"USBFS_arb_eps_struct\000"
 4924      535F6172 
 4924      625F6570 
 4924      735F7374 
 4924      72756374 
 4925              	.LASF87:
 4926 002f 55534246 		.ascii	"USBFS_TerminateEP\000"
 4926      535F5465 
 4926      726D696E 
 4926      61746545 
 4926      5000
 4927              	.LASF118:
 4928 0041 55534246 		.ascii	"USBFS_currentTD\000"
 4928      535F6375 
 4928      7272656E 
 4928      74544400 
 4929              	.LASF120:
 4930 0051 55534246 		.ascii	"USBFS_InitControlRead\000"
 4930      535F496E 
 4930      6974436F 
 4930      6E74726F 
 4930      6C526561 
 4931              	.LASF73:
 4932 0067 636F6E66 		.ascii	"confIndex\000"
 4932      496E6465 
 4932      7800
 4933              	.LASF7:
 4934 0071 6C6F6E67 		.ascii	"long long unsigned int\000"
 4934      206C6F6E 
 4934      6720756E 
 4934      7369676E 
 4934      65642069 
 4935              	.LASF22:
 4936 0088 61646472 		.ascii	"addr\000"
 4936      00
 4937              	.LASF42:
 4938 008d 55534246 		.ascii	"USBFS_ep0_data_struct\000"
 4938      535F6570 
 4938      305F6461 
 4938      74615F73 
 4938      74727563 
 4939              	.LASF57:
 4940 00a3 72775761 		.ascii	"rwWa16\000"
 4940      313600
ARM GAS  C:\Users\LAIR\AppData\Local\Temp\cciUanLt.s 			page 114


 4941              	.LASF47:
 4942 00aa 65704366 		.ascii	"epCfg\000"
 4942      6700
 4943              	.LASF64:
 4944 00b0 55534246 		.ascii	"USBFS_sie_eps_struct\000"
 4944      535F7369 
 4944      655F6570 
 4944      735F7374 
 4944      72756374 
 4945              	.LASF61:
 4946 00c5 72774472 		.ascii	"rwDr16\000"
 4946      313600
 4947              	.LASF88:
 4948 00cc 65704E75 		.ascii	"epNumber\000"
 4948      6D626572 
 4948      00
 4949              	.LASF6:
 4950 00d5 6C6F6E67 		.ascii	"long long int\000"
 4950      206C6F6E 
 4950      6720696E 
 4950      7400
 4951              	.LASF0:
 4952 00e3 7369676E 		.ascii	"signed char\000"
 4952      65642063 
 4952      68617200 
 4953              	.LASF101:
 4954 00ef 55534246 		.ascii	"USBFS_tBuffer\000"
 4954      535F7442 
 4954      75666665 
 4954      7200
 4955              	.LASF69:
 4956 00fd 55534246 		.ascii	"USBFS_ReadDieID\000"
 4956      535F5265 
 4956      61644469 
 4956      65494400 
 4957              	.LASF114:
 4958 010d 55534246 		.ascii	"USBFS_deviceAddress\000"
 4958      535F6465 
 4958      76696365 
 4958      41646472 
 4958      65737300 
 4959              	.LASF91:
 4960 0121 55534246 		.ascii	"USBFS_ClearEndpointHalt\000"
 4960      535F436C 
 4960      65617245 
 4960      6E64706F 
 4960      696E7448 
 4961              	.LASF111:
 4962 0139 55534246 		.ascii	"USBFS_interfaceNumber\000"
 4962      535F696E 
 4962      74657266 
 4962      6163654E 
 4962      756D6265 
 4963              	.LASF83:
 4964 014f 55534246 		.ascii	"USBFS_Config\000"
 4964      535F436F 
 4964      6E666967 
ARM GAS  C:\Users\LAIR\AppData\Local\Temp\cciUanLt.s 			page 115


 4964      00
 4965              	.LASF56:
 4966 015c 55534246 		.ascii	"USBFS_arb_ep_struct\000"
 4966      535F6172 
 4966      625F6570 
 4966      5F737472 
 4966      75637400 
 4967              	.LASF70:
 4968 0170 55534246 		.ascii	"USBFS_ConfigReg\000"
 4968      535F436F 
 4968      6E666967 
 4968      52656700 
 4969              	.LASF4:
 4970 0180 6C6F6E67 		.ascii	"long int\000"
 4970      20696E74 
 4970      00
 4971              	.LASF9:
 4972 0189 75696E74 		.ascii	"uint8\000"
 4972      3800
 4973              	.LASF21:
 4974 018f 6570546F 		.ascii	"epToggle\000"
 4974      67676C65 
 4974      00
 4975              	.LASF62:
 4976 0198 55534246 		.ascii	"USBFS_arb_ep_reg16_struct\000"
 4976      535F6172 
 4976      625F6570 
 4976      5F726567 
 4976      31365F73 
 4977              	.LASF51:
 4978 01b2 72775761 		.ascii	"rwWa\000"
 4978      00
 4979              	.LASF13:
 4980 01b7 646F7562 		.ascii	"double\000"
 4980      6C6500
 4981              	.LASF49:
 4982 01be 65705372 		.ascii	"epSr\000"
 4982      00
 4983              	.LASF31:
 4984 01c3 545F5553 		.ascii	"T_USBFS_EP_SETTINGS_BLOCK\000"
 4984      4246535F 
 4984      45505F53 
 4984      45545449 
 4984      4E47535F 
 4985              	.LASF89:
 4986 01dd 55534246 		.ascii	"USBFS_SetEndpointHalt\000"
 4986      535F5365 
 4986      74456E64 
 4986      706F696E 
 4986      7448616C 
 4987              	.LASF11:
 4988 01f3 75696E74 		.ascii	"uint32\000"
 4988      333200
 4989              	.LASF36:
 4990 01fa 70446174 		.ascii	"pData\000"
 4990      6100
 4991              	.LASF103:
ARM GAS  C:\Users\LAIR\AppData\Local\Temp\cciUanLt.s 			page 116


 4992 0200 55534246 		.ascii	"USBFS_configuration\000"
 4992      535F636F 
 4992      6E666967 
 4992      75726174 
 4992      696F6E00 
 4993              	.LASF23:
 4994 0214 65704D6F 		.ascii	"epMode\000"
 4994      646500
 4995              	.LASF77:
 4996 021b 65705479 		.ascii	"epType\000"
 4996      706500
 4997              	.LASF97:
 4998 0222 626D5265 		.ascii	"bmRequestType\000"
 4998      71756573 
 4998      74547970 
 4998      6500
 4999              	.LASF50:
 5000 0230 72657365 		.ascii	"reserved\000"
 5000      72766564 
 5000      00
 5001              	.LASF126:
 5002 0239 43794765 		.ascii	"CyGetUniqueId\000"
 5002      74556E69 
 5002      71756549 
 5002      6400
 5003              	.LASF8:
 5004 0247 756E7369 		.ascii	"unsigned int\000"
 5004      676E6564 
 5004      20696E74 
 5004      00
 5005              	.LASF5:
 5006 0254 6C6F6E67 		.ascii	"long unsigned int\000"
 5006      20756E73 
 5006      69676E65 
 5006      6420696E 
 5006      7400
 5007              	.LASF80:
 5008 0266 55534246 		.ascii	"USBFS_GetInterfaceClassTablePtr\000"
 5008      535F4765 
 5008      74496E74 
 5008      65726661 
 5008      6365436C 
 5009              	.LASF3:
 5010 0286 73686F72 		.ascii	"short unsigned int\000"
 5010      7420756E 
 5010      7369676E 
 5010      65642069 
 5010      6E7400
 5011              	.LASF85:
 5012 0299 70446573 		.ascii	"pDescr\000"
 5012      637200
 5013              	.LASF46:
 5014 02a0 55534246 		.ascii	"USBFS_sie_ep_struct\000"
 5014      535F7369 
 5014      655F6570 
 5014      5F737472 
 5014      75637400 
ARM GAS  C:\Users\LAIR\AppData\Local\Temp\cciUanLt.s 			page 117


 5015              	.LASF81:
 5016 02b4 70496E74 		.ascii	"pInterfaceClass\000"
 5016      65726661 
 5016      6365436C 
 5016      61737300 
 5017              	.LASF65:
 5018 02c4 61726245 		.ascii	"arbEp\000"
 5018      7000
 5019              	.LASF123:
 5020 02ca 2E5C4765 		.ascii	".\\Generated_Source\\PSoC4\\USBFS_std.c\000"
 5020      6E657261 
 5020      7465645F 
 5020      536F7572 
 5020      63655C50 
 5021              	.LASF26:
 5022 02ef 696E7465 		.ascii	"interface\000"
 5022      72666163 
 5022      6500
 5023              	.LASF92:
 5024 02f9 55534246 		.ascii	"USBFS_ValidateAlternateSetting\000"
 5024      535F5661 
 5024      6C696461 
 5024      7465416C 
 5024      7465726E 
 5025              	.LASF104:
 5026 0318 55534246 		.ascii	"USBFS_configurationChanged\000"
 5026      535F636F 
 5026      6E666967 
 5026      75726174 
 5026      696F6E43 
 5027              	.LASF16:
 5028 0333 72656733 		.ascii	"reg32\000"
 5028      3200
 5029              	.LASF116:
 5030 0339 55534246 		.ascii	"USBFS_interfaceClass\000"
 5030      535F696E 
 5030      74657266 
 5030      61636543 
 5030      6C617373 
 5031              	.LASF76:
 5032 034e 63757245 		.ascii	"curEp\000"
 5032      7000
 5033              	.LASF20:
 5034 0354 68774570 		.ascii	"hwEpState\000"
 5034      53746174 
 5034      6500
 5035              	.LASF100:
 5036 035e 64657363 		.ascii	"descrLength\000"
 5036      724C656E 
 5036      67746800 
 5037              	.LASF17:
 5038 036a 73697A65 		.ascii	"sizetype\000"
 5038      74797065 
 5038      00
 5039              	.LASF63:
 5040 0373 73696545 		.ascii	"sieEp\000"
 5040      7000
ARM GAS  C:\Users\LAIR\AppData\Local\Temp\cciUanLt.s 			page 118


 5041              	.LASF74:
 5042 0379 70546D70 		.ascii	"pTmp\000"
 5042      00
 5043              	.LASF39:
 5044 037e 705F6C69 		.ascii	"p_list\000"
 5044      737400
 5045              	.LASF86:
 5046 0385 62756666 		.ascii	"buffCount\000"
 5046      436F756E 
 5046      7400
 5047              	.LASF18:
 5048 038f 61747472 		.ascii	"attrib\000"
 5048      696200
 5049              	.LASF107:
 5050 0396 55534246 		.ascii	"USBFS_TABLE\000"
 5050      535F5441 
 5050      424C4500 
 5051              	.LASF67:
 5052 03a2 55534246 		.ascii	"USBFS_arb_eps_reg16_struct\000"
 5052      535F6172 
 5052      625F6570 
 5052      735F7265 
 5052      6731365F 
 5053              	.LASF54:
 5054 03bd 72775261 		.ascii	"rwRaMsb\000"
 5054      4D736200 
 5055              	.LASF122:
 5056 03c5 474E5520 		.ascii	"GNU C 4.9.3 20150303 (release) [ARM/embedded-4_9-br"
 5056      4320342E 
 5056      392E3320 
 5056      32303135 
 5056      30333033 
 5057 03f8 616E6368 		.ascii	"anch revision 221220] -mcpu=cortex-m0 -mthumb -g -O"
 5057      20726576 
 5057      6973696F 
 5057      6E203232 
 5057      31323230 
 5058 042b 67202D66 		.ascii	"g -ffunction-sections -ffat-lto-objects\000"
 5058      66756E63 
 5058      74696F6E 
 5058      2D736563 
 5058      74696F6E 
 5059              	.LASF43:
 5060 0453 6570436E 		.ascii	"epCnt0\000"
 5060      743000
 5061              	.LASF44:
 5062 045a 6570436E 		.ascii	"epCnt1\000"
 5062      743100
 5063              	.LASF75:
 5064 0461 55534246 		.ascii	"USBFS_ConfigAltChanged\000"
 5064      535F436F 
 5064      6E666967 
 5064      416C7443 
 5064      68616E67 
 5065              	.LASF34:
 5066 0478 545F5553 		.ascii	"T_USBFS_XFER_STATUS_BLOCK\000"
 5066      4246535F 
ARM GAS  C:\Users\LAIR\AppData\Local\Temp\cciUanLt.s 			page 119


 5066      58464552 
 5066      5F535441 
 5066      5455535F 
 5067              	.LASF45:
 5068 0492 65704372 		.ascii	"epCr0\000"
 5068      3000
 5069              	.LASF124:
 5070 0498 433A5C55 		.ascii	"C:\\Users\\LAIR\\Documents\\GitHub\\ARC-Controller\\"
 5070      73657273 
 5070      5C4C4149 
 5070      525C446F 
 5070      63756D65 
 5071 04c6 50536F43 		.ascii	"PSoC-Code\\ARC-EMBED.cydsn\000"
 5071      2D436F64 
 5071      655C4152 
 5071      432D454D 
 5071      4245442E 
 5072              	.LASF106:
 5073 04e0 55534246 		.ascii	"USBFS_DEVICE0_DESCR\000"
 5073      535F4445 
 5073      56494345 
 5073      305F4445 
 5073      53435200 
 5074              	.LASF12:
 5075 04f4 666C6F61 		.ascii	"float\000"
 5075      7400
 5076              	.LASF108:
 5077 04fa 55534246 		.ascii	"USBFS_STRING_DESCRIPTORS\000"
 5077      535F5354 
 5077      52494E47 
 5077      5F444553 
 5077      43524950 
 5078              	.LASF19:
 5079 0513 61706945 		.ascii	"apiEpState\000"
 5079      70537461 
 5079      746500
 5080              	.LASF84:
 5081 051e 636C6561 		.ascii	"clearAltSetting\000"
 5081      72416C74 
 5081      53657474 
 5081      696E6700 
 5082              	.LASF96:
 5083 052e 636F6E66 		.ascii	"configurationN\000"
 5083      69677572 
 5083      6174696F 
 5083      6E4E00
 5084              	.LASF117:
 5085 053d 55534246 		.ascii	"USBFS_EP\000"
 5085      535F4550 
 5085      00
 5086              	.LASF98:
 5087 0546 70537472 		.ascii	"pStr\000"
 5087      00
 5088              	.LASF72:
 5089 054b 64657363 		.ascii	"descr\000"
 5089      7200
 5090              	.LASF1:
ARM GAS  C:\Users\LAIR\AppData\Local\Temp\cciUanLt.s 			page 120


 5091 0551 756E7369 		.ascii	"unsigned char\000"
 5091      676E6564 
 5091      20636861 
 5091      7200
 5092              	.LASF71:
 5093 055f 55534246 		.ascii	"USBFS_EpStateInit\000"
 5093      535F4570 
 5093      53746174 
 5093      65496E69 
 5093      7400
 5094              	.LASF59:
 5095 0571 72775261 		.ascii	"rwRa16\000"
 5095      313600
 5096              	.LASF2:
 5097 0578 73686F72 		.ascii	"short int\000"
 5097      7420696E 
 5097      7400
 5098              	.LASF38:
 5099 0582 545F5553 		.ascii	"T_USBFS_TD\000"
 5099      4246535F 
 5099      544400
 5100              	.LASF79:
 5101 058d 55534246 		.ascii	"USBFS_GetConfigTablePtr\000"
 5101      535F4765 
 5101      74436F6E 
 5101      66696754 
 5101      61626C65 
 5102              	.LASF53:
 5103 05a5 72775261 		.ascii	"rwRa\000"
 5103      00
 5104              	.LASF112:
 5105 05aa 55534246 		.ascii	"USBFS_interfaceSetting\000"
 5105      535F696E 
 5105      74657266 
 5105      61636553 
 5105      65747469 
 5106              	.LASF27:
 5107 05c1 545F5553 		.ascii	"T_USBFS_EP_CTL_BLOCK\000"
 5107      4246535F 
 5107      45505F43 
 5107      544C5F42 
 5107      4C4F434B 
 5108              	.LASF119:
 5109 05d6 55534246 		.ascii	"USBFS_InitNoDataControlTransfer\000"
 5109      535F496E 
 5109      69744E6F 
 5109      44617461 
 5109      436F6E74 
 5110              	.LASF102:
 5111 05f6 55534246 		.ascii	"USBFS_device\000"
 5111      535F6465 
 5111      76696365 
 5111      00
 5112              	.LASF29:
 5113 0603 61747472 		.ascii	"attributes\000"
 5113      69627574 
 5113      657300
ARM GAS  C:\Users\LAIR\AppData\Local\Temp\cciUanLt.s 			page 121


 5114              	.LASF109:
 5115 060e 55534246 		.ascii	"USBFS_MSOS_DESCRIPTOR\000"
 5115      535F4D53 
 5115      4F535F44 
 5115      45534352 
 5115      4950544F 
 5116              	.LASF125:
 5117 0624 55534246 		.ascii	"USBFS_GetDeviceTablePtr\000"
 5117      535F4765 
 5117      74446576 
 5117      69636554 
 5117      61626C65 
 5118              	.LASF28:
 5119 063c 616C7453 		.ascii	"altSetting\000"
 5119      65747469 
 5119      6E6700
 5120              	.LASF15:
 5121 0647 63686172 		.ascii	"char\000"
 5121      00
 5122              	.LASF25:
 5123 064c 62756666 		.ascii	"bufferSize\000"
 5123      65725369 
 5123      7A6500
 5124              	.LASF90:
 5125 0657 72657175 		.ascii	"requestHandled\000"
 5125      65737448 
 5125      616E646C 
 5125      656400
 5126              	.LASF82:
 5127 0666 63757272 		.ascii	"currentInterfacesNum\000"
 5127      656E7449 
 5127      6E746572 
 5127      66616365 
 5127      734E756D 
 5128              	.LASF24:
 5129 067b 62756666 		.ascii	"buffOffset\000"
 5129      4F666673 
 5129      657400
 5130              	.LASF14:
 5131 0686 63686172 		.ascii	"char8\000"
 5131      3800
 5132              	.LASF68:
 5133 068c 756E6971 		.ascii	"uniqueId\000"
 5133      75654964 
 5133      00
 5134              	.LASF95:
 5135 0695 696E7465 		.ascii	"interfaceNumber\000"
 5135      72666163 
 5135      654E756D 
 5135      62657200 
 5136              	.LASF105:
 5137 06a5 55534246 		.ascii	"USBFS_deviceStatus\000"
 5137      535F6465 
 5137      76696365 
 5137      53746174 
 5137      757300
 5138              	.LASF33:
ARM GAS  C:\Users\LAIR\AppData\Local\Temp\cciUanLt.s 			page 122


 5139 06b8 6C656E67 		.ascii	"length\000"
 5139      746800
 5140              	.LASF99:
 5141 06bf 6E537472 		.ascii	"nStr\000"
 5141      00
 5142              	.LASF110:
 5143 06c4 55534246 		.ascii	"USBFS_idSerialNumberStringDescriptor\000"
 5143      535F6964 
 5143      53657269 
 5143      616C4E75 
 5143      6D626572 
 5144              	.LASF32:
 5145 06e9 73746174 		.ascii	"status\000"
 5145      757300
 5146              	.LASF121:
 5147 06f0 55534246 		.ascii	"USBFS_DispatchClassRqst\000"
 5147      535F4469 
 5147      73706174 
 5147      6368436C 
 5147      61737352 
 5148              	.LASF55:
 5149 0708 72774472 		.ascii	"rwDr\000"
 5149      00
 5150              	.LASF93:
 5151 070d 63757249 		.ascii	"curInterfacesNum\000"
 5151      6E746572 
 5151      66616365 
 5151      734E756D 
 5151      00
 5152              	.LASF78:
 5153 071e 696E7465 		.ascii	"interfaceNum\000"
 5153      72666163 
 5153      654E756D 
 5153      00
 5154              	.LASF41:
 5155 072b 65704461 		.ascii	"epData\000"
 5155      746100
 5156              	.LASF30:
 5157 0732 624D6973 		.ascii	"bMisc\000"
 5157      6300
 5158              	.LASF52:
 5159 0738 72775761 		.ascii	"rwWaMsb\000"
 5159      4D736200 
 5160              	.LASF115:
 5161 0740 55534246 		.ascii	"USBFS_interfaceStatus\000"
 5161      535F696E 
 5161      74657266 
 5161      61636553 
 5161      74617475 
 5162              	.LASF48:
 5163 0756 6570496E 		.ascii	"epIntEn\000"
 5163      74456E00 
 5164              	.LASF58:
 5165 075e 72657365 		.ascii	"reserved0\000"
 5165      72766564 
 5165      3000
 5166              	.LASF60:
ARM GAS  C:\Users\LAIR\AppData\Local\Temp\cciUanLt.s 			page 123


 5167 0768 72657365 		.ascii	"reserved1\000"
 5167      72766564 
 5167      3100
 5168              	.LASF113:
 5169 0772 55534246 		.ascii	"USBFS_interfaceSettingLast\000"
 5169      535F696E 
 5169      74657266 
 5169      61636553 
 5169      65747469 
 5170              	.LASF94:
 5171 078d 55534246 		.ascii	"USBFS_HandleStandardRqst\000"
 5171      535F4861 
 5171      6E646C65 
 5171      5374616E 
 5171      64617264 
 5172              	.LASF40:
 5173 07a6 545F5553 		.ascii	"T_USBFS_LUT\000"
 5173      4246535F 
 5173      4C555400 
 5174              		.ident	"GCC: (GNU Tools for ARM Embedded Processors) 4.9.3 20150303 (release) [ARM/embedded-4_9-br
